ARM GAS  C:\Users\57298\AppData\Local\Temp\ccn6MI1o.s 			page 1


   1              		.cpu cortex-m0
   2              		.arch armv6s-m
   3              		.fpu softvfp
   4              		.eabi_attribute 20, 1
   5              		.eabi_attribute 21, 1
   6              		.eabi_attribute 23, 3
   7              		.eabi_attribute 24, 1
   8              		.eabi_attribute 25, 1
   9              		.eabi_attribute 26, 1
  10              		.eabi_attribute 30, 1
  11              		.eabi_attribute 34, 0
  12              		.eabi_attribute 18, 4
  13              		.file	"control.c"
  14              		.text
  15              	.Ltext0:
  16              		.cfi_sections	.debug_frame
  17              		.section	.text.ReadKey,"ax",%progbits
  18              		.align	1
  19              		.global	ReadKey
  20              		.syntax unified
  21              		.code	16
  22              		.thumb_func
  24              	ReadKey:
  25              	.LFB43:
  26              		.file 1 "Core/Src/control.c"
   1:Core/Src/control.c **** #include "stm32f0xx_hal.h"
   2:Core/Src/control.c **** #include "control.h"
   3:Core/Src/control.c **** #include "ds18b20.h"
   4:Core/Src/control.c **** #include "TM1640.h"
   5:Core/Src/control.c **** unsigned int sysms=0;
   6:Core/Src/control.c **** signed short ReadTemputer=0;
   7:Core/Src/control.c **** unsigned int willBeepTime=0;
   8:Core/Src/control.c **** void ReadKey(void)
   9:Core/Src/control.c **** {
  27              		.loc 1 9 1 view -0
  28              		.cfi_startproc
  29              		@ args = 0, pretend = 0, frame = 0
  30              		@ frame_needed = 0, uses_anonymous_args = 0
  31 0000 10B5     		push	{r4, lr}
  32              	.LCFI0:
  33              		.cfi_def_cfa_offset 8
  34              		.cfi_offset 4, -8
  35              		.cfi_offset 14, -4
  10:Core/Src/control.c ****   if(Key1Read)
  36              		.loc 1 10 3 view .LVU1
  37              		.loc 1 10 6 is_stmt 0 view .LVU2
  38 0002 8021     		movs	r1, #128
  39 0004 1C4C     		ldr	r4, .L8
  40 0006 8901     		lsls	r1, r1, #6
  41 0008 2000     		movs	r0, r4
  42 000a FFF7FEFF 		bl	HAL_GPIO_ReadPin
  43              	.LVL0:
  11:Core/Src/control.c ****   {
  12:Core/Src/control.c ****     //JDQ1_H;
  13:Core/Src/control.c ****     //willBeepTime=10;
  14:Core/Src/control.c ****   }
  15:Core/Src/control.c ****   else 
ARM GAS  C:\Users\57298\AppData\Local\Temp\ccn6MI1o.s 			page 2


  16:Core/Src/control.c ****   {
  17:Core/Src/control.c ****     //JDQ1_L;
  18:Core/Src/control.c ****     
  19:Core/Src/control.c ****   }
  44              		.loc 1 19 3 is_stmt 1 view .LVU3
  20:Core/Src/control.c ****   
  21:Core/Src/control.c ****   if(Key2Read)
  45              		.loc 1 21 3 view .LVU4
  46              		.loc 1 21 6 is_stmt 0 view .LVU5
  47 000e 8021     		movs	r1, #128
  48 0010 4901     		lsls	r1, r1, #5
  49 0012 2000     		movs	r0, r4
  50 0014 FFF7FEFF 		bl	HAL_GPIO_ReadPin
  51              	.LVL1:
  22:Core/Src/control.c ****   {
  23:Core/Src/control.c ****     //JDQ2_H;
  24:Core/Src/control.c ****     //willBeepTime=10;
  25:Core/Src/control.c ****   }
  26:Core/Src/control.c ****   else 
  27:Core/Src/control.c ****   {
  28:Core/Src/control.c ****     //JDQ2_L;
  29:Core/Src/control.c ****   }
  52              		.loc 1 29 3 is_stmt 1 view .LVU6
  30:Core/Src/control.c ****   
  31:Core/Src/control.c ****   if(Key3Read)
  53              		.loc 1 31 3 view .LVU7
  54              		.loc 1 31 6 is_stmt 0 view .LVU8
  55 0018 8021     		movs	r1, #128
  56 001a 0902     		lsls	r1, r1, #8
  57 001c 2000     		movs	r0, r4
  58 001e FFF7FEFF 		bl	HAL_GPIO_ReadPin
  59              	.LVL2:
  32:Core/Src/control.c ****   {
  33:Core/Src/control.c ****     //JDQ3_H;
  34:Core/Src/control.c ****     //willBeepTime=10;
  35:Core/Src/control.c ****   }
  36:Core/Src/control.c ****   else 
  37:Core/Src/control.c ****   {
  38:Core/Src/control.c ****     //JDQ3_L;
  39:Core/Src/control.c ****   }
  60              		.loc 1 39 3 is_stmt 1 view .LVU9
  40:Core/Src/control.c ****   
  41:Core/Src/control.c ****   if(Key4Read)
  61              		.loc 1 41 3 view .LVU10
  62              		.loc 1 41 6 is_stmt 0 view .LVU11
  63 0022 8021     		movs	r1, #128
  64 0024 C901     		lsls	r1, r1, #7
  65 0026 2000     		movs	r0, r4
  66 0028 FFF7FEFF 		bl	HAL_GPIO_ReadPin
  67              	.LVL3:
  42:Core/Src/control.c ****   {
  43:Core/Src/control.c ****     //JDQ4_H;
  44:Core/Src/control.c ****     //willBeepTime=10;
  45:Core/Src/control.c ****   }
  46:Core/Src/control.c ****   else 
  47:Core/Src/control.c ****   {
  48:Core/Src/control.c ****     //JDQ4_L;
ARM GAS  C:\Users\57298\AppData\Local\Temp\ccn6MI1o.s 			page 3


  49:Core/Src/control.c ****   }
  68              		.loc 1 49 3 is_stmt 1 view .LVU12
  50:Core/Src/control.c ****   
  51:Core/Src/control.c ****   if(willBeepTime!=0)
  69              		.loc 1 51 3 view .LVU13
  70              		.loc 1 51 18 is_stmt 0 view .LVU14
  71 002c 134B     		ldr	r3, .L8+4
  72 002e 1B68     		ldr	r3, [r3]
  73              		.loc 1 51 5 view .LVU15
  74 0030 002B     		cmp	r3, #0
  75 0032 0CD1     		bne	.L5
  76              	.L2:
  52:Core/Src/control.c ****   {
  53:Core/Src/control.c ****     BeepOn;
  54:Core/Src/control.c ****   }
  55:Core/Src/control.c ****   if(willBeepTime==0)
  77              		.loc 1 55 3 is_stmt 1 view .LVU16
  78              		.loc 1 55 18 is_stmt 0 view .LVU17
  79 0034 114B     		ldr	r3, .L8+4
  80 0036 1B68     		ldr	r3, [r3]
  81              		.loc 1 55 5 view .LVU18
  82 0038 002B     		cmp	r3, #0
  83 003a 0ED0     		beq	.L6
  84              	.L3:
  56:Core/Src/control.c ****   {
  57:Core/Src/control.c ****     BeepOf;
  58:Core/Src/control.c ****   }
  59:Core/Src/control.c ****   UpateShData();
  85              		.loc 1 59 3 is_stmt 1 view .LVU19
  86 003c FFF7FEFF 		bl	UpateShData
  87              	.LVL4:
  60:Core/Src/control.c ****   
  61:Core/Src/control.c ****   if(sysms>500)
  88              		.loc 1 61 3 view .LVU20
  89              		.loc 1 61 11 is_stmt 0 view .LVU21
  90 0040 0F4B     		ldr	r3, .L8+8
  91 0042 1A68     		ldr	r2, [r3]
  92              		.loc 1 61 5 view .LVU22
  93 0044 FA23     		movs	r3, #250
  94 0046 5B00     		lsls	r3, r3, #1
  95 0048 9A42     		cmp	r2, r3
  96 004a 0CD8     		bhi	.L7
  97              	.L1:
  62:Core/Src/control.c ****   { 
  63:Core/Src/control.c ****     sysms=0;
  64:Core/Src/control.c ****      
  65:Core/Src/control.c ****     ReadTemputer=DS18B20_GetTemperature();
  66:Core/Src/control.c ****   }
  67:Core/Src/control.c **** }...
  98              		.loc 1 67 1 view .LVU23
  99              		@ sp needed
 100 004c 10BD     		pop	{r4, pc}
 101              	.L5:
  53:Core/Src/control.c ****     BeepOn;
 102              		.loc 1 53 5 is_stmt 1 view .LVU24
 103 004e 0122     		movs	r2, #1
 104 0050 8021     		movs	r1, #128
ARM GAS  C:\Users\57298\AppData\Local\Temp\ccn6MI1o.s 			page 4


 105 0052 0C48     		ldr	r0, .L8+12
 106 0054 FFF7FEFF 		bl	HAL_GPIO_WritePin
 107              	.LVL5:
 108 0058 ECE7     		b	.L2
 109              	.L6:
  57:Core/Src/control.c ****     BeepOf;
 110              		.loc 1 57 5 view .LVU25
 111 005a 0022     		movs	r2, #0
 112 005c 8021     		movs	r1, #128
 113 005e 0948     		ldr	r0, .L8+12
 114 0060 FFF7FEFF 		bl	HAL_GPIO_WritePin
 115              	.LVL6:
 116 0064 EAE7     		b	.L3
 117              	.L7:
  63:Core/Src/control.c ****     sysms=0;
 118              		.loc 1 63 5 view .LVU26
  63:Core/Src/control.c ****     sysms=0;
 119              		.loc 1 63 10 is_stmt 0 view .LVU27
 120 0066 064B     		ldr	r3, .L8+8
 121 0068 0022     		movs	r2, #0
 122 006a 1A60     		str	r2, [r3]
  65:Core/Src/control.c ****     ReadTemputer=DS18B20_GetTemperature();
 123              		.loc 1 65 5 is_stmt 1 view .LVU28
  65:Core/Src/control.c ****     ReadTemputer=DS18B20_GetTemperature();
 124              		.loc 1 65 18 is_stmt 0 view .LVU29
 125 006c FFF7FEFF 		bl	DS18B20_GetTemperature
 126              	.LVL7:
  65:Core/Src/control.c ****     ReadTemputer=DS18B20_GetTemperature();
 127              		.loc 1 65 17 view .LVU30
 128 0070 054B     		ldr	r3, .L8+16
 129 0072 1880     		strh	r0, [r3]
 130              		.loc 1 67 1 view .LVU31
 131 0074 EAE7     		b	.L1
 132              	.L9:
 133 0076 C046     		.align	2
 134              	.L8:
 135 0078 00040048 		.word	1207960576
 136 007c 00000000 		.word	.LANCHOR0
 137 0080 00000000 		.word	.LANCHOR1
 138 0084 00140048 		.word	1207964672
 139 0088 00000000 		.word	.LANCHOR2
 140              		.cfi_endproc
 141              	.LFE43:
 143              		.global	willBeepTime
 144              		.global	ReadTemputer
 145              		.global	sysms
 146              		.section	.bss.ReadTemputer,"aw",%nobits
 147              		.align	1
 148              		.set	.LANCHOR2,. + 0
 151              	ReadTemputer:
 152 0000 0000     		.space	2
 153              		.section	.bss.sysms,"aw",%nobits
 154              		.align	2
 155              		.set	.LANCHOR1,. + 0
 158              	sysms:
 159 0000 00000000 		.space	4
 160              		.section	.bss.willBeepTime,"aw",%nobits
ARM GAS  C:\Users\57298\AppData\Local\Temp\ccn6MI1o.s 			page 5


 161              		.align	2
 162              		.set	.LANCHOR0,. + 0
 165              	willBeepTime:
 166 0000 00000000 		.space	4
 167              		.text
 168              	.Letext0:
 169              		.file 2 "c:\\program files\\gcc-arm-none-eabi-10.3-2021.10\\arm-none-eabi\\include\\machine\\_defa
 170              		.file 3 "c:\\program files\\gcc-arm-none-eabi-10.3-2021.10\\arm-none-eabi\\include\\sys\\_stdint.h
 171              		.file 4 "Drivers/CMSIS/Device/ST/STM32F0xx/Include/stm32f030x8.h"
 172              		.file 5 "Core/Inc/control.h"
 173              		.file 6 "Drivers/STM32F0xx_HAL_Driver/Inc/stm32f0xx_hal_gpio.h"
 174              		.file 7 "Core/Inc/TM1640.h"
 175              		.file 8 "Core/Inc/ds18b20.h"
ARM GAS  C:\Users\57298\AppData\Local\Temp\ccn6MI1o.s 			page 6


DEFINED SYMBOLS
                            *ABS*:00000000 control.c
C:\Users\57298\AppData\Local\Temp\ccn6MI1o.s:18     .text.ReadKey:00000000 $t
C:\Users\57298\AppData\Local\Temp\ccn6MI1o.s:24     .text.ReadKey:00000000 ReadKey
C:\Users\57298\AppData\Local\Temp\ccn6MI1o.s:135    .text.ReadKey:00000078 $d
C:\Users\57298\AppData\Local\Temp\ccn6MI1o.s:165    .bss.willBeepTime:00000000 willBeepTime
C:\Users\57298\AppData\Local\Temp\ccn6MI1o.s:151    .bss.ReadTemputer:00000000 ReadTemputer
C:\Users\57298\AppData\Local\Temp\ccn6MI1o.s:158    .bss.sysms:00000000 sysms
C:\Users\57298\AppData\Local\Temp\ccn6MI1o.s:147    .bss.ReadTemputer:00000000 $d
C:\Users\57298\AppData\Local\Temp\ccn6MI1o.s:154    .bss.sysms:00000000 $d
C:\Users\57298\AppData\Local\Temp\ccn6MI1o.s:161    .bss.willBeepTime:00000000 $d

UNDEFINED SYMBOLS
HAL_GPIO_ReadPin
UpateShData
HAL_GPIO_WritePin
DS18B20_GetTemperature
