ARM GAS  C:\Users\57298\AppData\Local\Temp\cc5d07uv.s 			page 1


   1              		.cpu cortex-m0
   2              		.arch armv6s-m
   3              		.fpu softvfp
   4              		.eabi_attribute 20, 1
   5              		.eabi_attribute 21, 1
   6              		.eabi_attribute 23, 3
   7              		.eabi_attribute 24, 1
   8              		.eabi_attribute 25, 1
   9              		.eabi_attribute 26, 1
  10              		.eabi_attribute 30, 1
  11              		.eabi_attribute 34, 0
  12              		.eabi_attribute 18, 4
  13              		.file	"main.c"
  14              		.text
  15              	.Ltext0:
  16              		.cfi_sections	.debug_frame
  17              		.section	.text.MX_GPIO_Init,"ax",%progbits
  18              		.align	1
  19              		.syntax unified
  20              		.code	16
  21              		.thumb_func
  23              	MX_GPIO_Init:
  24              	.LFB54:
  25              		.file 1 "Core/Src/main.c"
   1:Core/Src/main.c **** /* USER CODE BEGIN Header */
   2:Core/Src/main.c **** /**
   3:Core/Src/main.c **** ******************************************************************************
   4:Core/Src/main.c **** * @file           : main.c
   5:Core/Src/main.c **** * @brief          : Main program body
   6:Core/Src/main.c **** ******************************************************************************
   7:Core/Src/main.c **** * @attention
   8:Core/Src/main.c **** *
   9:Core/Src/main.c **** * <h2><center>&copy; Copyright (c) 2021 STMicroelectronics.
  10:Core/Src/main.c **** * All rights reserved.</center></h2>
  11:Core/Src/main.c **** *
  12:Core/Src/main.c **** * This software component is licensed by ST under BSD 3-Clause license,
  13:Core/Src/main.c **** * the "License"; You may not use this file except in compliance with the
  14:Core/Src/main.c **** * License. You may obtain a copy of the License at:
  15:Core/Src/main.c **** *                        opensource.org/licenses/BSD-3-Clause
  16:Core/Src/main.c **** *
  17:Core/Src/main.c **** ******************************************************************************
  18:Core/Src/main.c **** */
  19:Core/Src/main.c **** /* USER CODE END Header */
  20:Core/Src/main.c **** /* Includes ------------------------------------------------------------------*/
  21:Core/Src/main.c **** #include "main.h"
  22:Core/Src/main.c **** 
  23:Core/Src/main.c **** /* Private includes ----------------------------------------------------------*/
  24:Core/Src/main.c **** /* USER CODE BEGIN Includes */
  25:Core/Src/main.c **** 
  26:Core/Src/main.c **** /* USER CODE END Includes */
  27:Core/Src/main.c **** 
  28:Core/Src/main.c **** /* Private typedef -----------------------------------------------------------*/
  29:Core/Src/main.c **** /* USER CODE BEGIN PTD */
  30:Core/Src/main.c **** 
  31:Core/Src/main.c **** /* USER CODE END PTD */
  32:Core/Src/main.c **** 
  33:Core/Src/main.c **** /* Private define ------------------------------------------------------------*/
ARM GAS  C:\Users\57298\AppData\Local\Temp\cc5d07uv.s 			page 2


  34:Core/Src/main.c **** /* USER CODE BEGIN PD */
  35:Core/Src/main.c **** /* USER CODE END PD */
  36:Core/Src/main.c **** 
  37:Core/Src/main.c **** /* Private macro -------------------------------------------------------------*/
  38:Core/Src/main.c **** /* USER CODE BEGIN PM */
  39:Core/Src/main.c **** 
  40:Core/Src/main.c **** /* USER CODE END PM */
  41:Core/Src/main.c **** 
  42:Core/Src/main.c **** /* Private variables ---------------------------------------------------------*/
  43:Core/Src/main.c **** ADC_HandleTypeDef hadc;
  44:Core/Src/main.c **** DMA_HandleTypeDef hdma_adc;
  45:Core/Src/main.c **** 
  46:Core/Src/main.c **** I2C_HandleTypeDef hi2c1;
  47:Core/Src/main.c **** 
  48:Core/Src/main.c **** IWDG_HandleTypeDef hiwdg;
  49:Core/Src/main.c **** 
  50:Core/Src/main.c **** UART_HandleTypeDef huart1;
  51:Core/Src/main.c **** UART_HandleTypeDef huart2;
  52:Core/Src/main.c **** DMA_HandleTypeDef hdma_usart1_rx;
  53:Core/Src/main.c **** DMA_HandleTypeDef hdma_usart2_rx;
  54:Core/Src/main.c **** 
  55:Core/Src/main.c **** /* USER CODE BEGIN PV */
  56:Core/Src/main.c **** #include "control.h"
  57:Core/Src/main.c **** #include "ds18b20.h"
  58:Core/Src/main.c **** #include "TM1640.h"
  59:Core/Src/main.c **** #include "24c02.h"
  60:Core/Src/main.c **** #include "stdio.h"
  61:Core/Src/main.c **** #include "string.h"
  62:Core/Src/main.c **** /* USER CODE END PV */
  63:Core/Src/main.c **** 
  64:Core/Src/main.c **** /* Private function prototypes -----------------------------------------------*/
  65:Core/Src/main.c **** void SystemClock_Config(void);
  66:Core/Src/main.c **** static void MX_GPIO_Init(void);
  67:Core/Src/main.c **** static void MX_DMA_Init(void);
  68:Core/Src/main.c **** static void MX_ADC_Init(void);
  69:Core/Src/main.c **** static void MX_I2C1_Init(void);
  70:Core/Src/main.c **** static void MX_USART1_UART_Init(void);
  71:Core/Src/main.c **** static void MX_USART2_UART_Init(void);
  72:Core/Src/main.c **** static void MX_IWDG_Init(void);
  73:Core/Src/main.c **** /* USER CODE BEGIN PFP */
  74:Core/Src/main.c **** 
  75:Core/Src/main.c **** /* USER CODE END PFP */
  76:Core/Src/main.c **** 
  77:Core/Src/main.c **** /* Private user code ---------------------------------------------------------*/
  78:Core/Src/main.c **** /* USER CODE BEGIN 0 */
  79:Core/Src/main.c **** #define MAXRXU2 500
  80:Core/Src/main.c **** unsigned char RxBufU2[MAXRXU2];
  81:Core/Src/main.c **** unsigned char TxBufU2[200];
  82:Core/Src/main.c **** unsigned short RxLenU2 = 0;
  83:Core/Src/main.c **** unsigned short rsRxIndex = 0;
  84:Core/Src/main.c **** unsigned char rsPackFlag = 0;
  85:Core/Src/main.c **** unsigned short rsRxTime = 0;
  86:Core/Src/main.c **** unsigned short rsRxLen = 0;
  87:Core/Src/main.c **** unsigned char rsRxBuf[200];
  88:Core/Src/main.c **** #define ADCPause HAL_ADC_Stop_DMA(&hadc)
  89:Core/Src/main.c **** #define ADCContinue HAL_ADC_Start_DMA(&hadc, (uint32_t *)&AdDataOrig, 1500)
  90:Core/Src/main.c **** #pragma pack(1)
ARM GAS  C:\Users\57298\AppData\Local\Temp\cc5d07uv.s 			page 3


  91:Core/Src/main.c **** 
  92:Core/Src/main.c **** typedef struct
  93:Core/Src/main.c **** {
  94:Core/Src/main.c ****   signed int Ta; // 三个温度
  95:Core/Src/main.c ****   signed int Tb;
  96:Core/Src/main.c ****   signed int Tc;
  97:Core/Src/main.c ****   signed int pTa; // 断电前三个温度
  98:Core/Src/main.c ****   signed int pTb;
  99:Core/Src/main.c ****   signed int pTc;
 100:Core/Src/main.c **** 
 101:Core/Src/main.c ****   signed int FenH;   // 风机定时  每隔多少小时
 102:Core/Src/main.c ****   signed int FenM;   // 风机定时  持续转几分钟
 103:Core/Src/main.c ****   signed int Tcala1; // 温度补偿
 104:Core/Src/main.c ****   signed int Tcala2;
 105:Core/Src/main.c ****   signed int Tcala3;
 106:Core/Src/main.c ****   signed int Tset1;    // 启动温度阈值
 107:Core/Src/main.c ****   signed int Tset2;    // 关闭
 108:Core/Src/main.c ****   signed int Tset3;    // 报警
 109:Core/Src/main.c ****   signed int Tset4;    // 故障
 110:Core/Src/main.c ****   signed int cshuiCha; // 除湿回差 三个回差值
 111:Core/Src/main.c ****   signed int cwhuiCha; // 超温报警回差
 112:Core/Src/main.c ****   signed int tzhuiCha; // 跳闸回差
 113:Core/Src/main.c ****   signed int MnTest;   // 测试 温度值
 114:Core/Src/main.c **** 
 115:Core/Src/main.c ****   signed int addr; // 0 无 1 偶  2 奇
 116:Core/Src/main.c ****   signed int jojy;
 117:Core/Src/main.c ****   signed int btlv;
 118:Core/Src/main.c **** 
 119:Core/Src/main.c ****   signed int k1;
 120:Core/Src/main.c ****   signed int k2;
 121:Core/Src/main.c ****   signed int k3;
 122:Core/Src/main.c ****   signed int b1;
 123:Core/Src/main.c ****   signed int b2;
 124:Core/Src/main.c ****   signed int b3;
 125:Core/Src/main.c ****   unsigned char macFlag[17];
 126:Core/Src/main.c **** } RUDATA;
 127:Core/Src/main.c **** RUDATA sRundata;
 128:Core/Src/main.c **** static const unsigned char aucCRCHi[] = {
 129:Core/Src/main.c ****     0x00, 0xC1, 0x81, 0x40, 0x01, 0xC0, 0x80, 0x41, 0x01, 0xC0, 0x80, 0x41,
 130:Core/Src/main.c ****     0x00, 0xC1, 0x81, 0x40, 0x01, 0xC0, 0x80, 0x41, 0x00, 0xC1, 0x81, 0x40,
 131:Core/Src/main.c ****     0x00, 0xC1, 0x81, 0x40, 0x01, 0xC0, 0x80, 0x41, 0x01, 0xC0, 0x80, 0x41,
 132:Core/Src/main.c ****     0x00, 0xC1, 0x81, 0x40, 0x00, 0xC1, 0x81, 0x40, 0x01, 0xC0, 0x80, 0x41,
 133:Core/Src/main.c ****     0x00, 0xC1, 0x81, 0x40, 0x01, 0xC0, 0x80, 0x41, 0x01, 0xC0, 0x80, 0x41,
 134:Core/Src/main.c ****     0x00, 0xC1, 0x81, 0x40, 0x01, 0xC0, 0x80, 0x41, 0x00, 0xC1, 0x81, 0x40,
 135:Core/Src/main.c ****     0x00, 0xC1, 0x81, 0x40, 0x01, 0xC0, 0x80, 0x41, 0x00, 0xC1, 0x81, 0x40,
 136:Core/Src/main.c ****     0x01, 0xC0, 0x80, 0x41, 0x01, 0xC0, 0x80, 0x41, 0x00, 0xC1, 0x81, 0x40,
 137:Core/Src/main.c ****     0x00, 0xC1, 0x81, 0x40, 0x01, 0xC0, 0x80, 0x41, 0x01, 0xC0, 0x80, 0x41,
 138:Core/Src/main.c ****     0x00, 0xC1, 0x81, 0x40, 0x01, 0xC0, 0x80, 0x41, 0x00, 0xC1, 0x81, 0x40,
 139:Core/Src/main.c ****     0x00, 0xC1, 0x81, 0x40, 0x01, 0xC0, 0x80, 0x41, 0x01, 0xC0, 0x80, 0x41,
 140:Core/Src/main.c ****     0x00, 0xC1, 0x81, 0x40, 0x00, 0xC1, 0x81, 0x40, 0x01, 0xC0, 0x80, 0x41,
 141:Core/Src/main.c ****     0x00, 0xC1, 0x81, 0x40, 0x01, 0xC0, 0x80, 0x41, 0x01, 0xC0, 0x80, 0x41,
 142:Core/Src/main.c ****     0x00, 0xC1, 0x81, 0x40, 0x00, 0xC1, 0x81, 0x40, 0x01, 0xC0, 0x80, 0x41,
 143:Core/Src/main.c ****     0x01, 0xC0, 0x80, 0x41, 0x00, 0xC1, 0x81, 0x40, 0x01, 0xC0, 0x80, 0x41,
 144:Core/Src/main.c ****     0x00, 0xC1, 0x81, 0x40, 0x00, 0xC1, 0x81, 0x40, 0x01, 0xC0, 0x80, 0x41,
 145:Core/Src/main.c ****     0x00, 0xC1, 0x81, 0x40, 0x01, 0xC0, 0x80, 0x41, 0x01, 0xC0, 0x80, 0x41,
 146:Core/Src/main.c ****     0x00, 0xC1, 0x81, 0x40, 0x01, 0xC0, 0x80, 0x41, 0x00, 0xC1, 0x81, 0x40,
 147:Core/Src/main.c ****     0x00, 0xC1, 0x81, 0x40, 0x01, 0xC0, 0x80, 0x41, 0x01, 0xC0, 0x80, 0x41,
ARM GAS  C:\Users\57298\AppData\Local\Temp\cc5d07uv.s 			page 4


 148:Core/Src/main.c ****     0x00, 0xC1, 0x81, 0x40, 0x00, 0xC1, 0x81, 0x40, 0x01, 0xC0, 0x80, 0x41,
 149:Core/Src/main.c ****     0x00, 0xC1, 0x81, 0x40, 0x01, 0xC0, 0x80, 0x41, 0x01, 0xC0, 0x80, 0x41,
 150:Core/Src/main.c ****     0x00, 0xC1, 0x81, 0x40};
 151:Core/Src/main.c **** 
 152:Core/Src/main.c **** static const unsigned char aucCRCLo[] = {
 153:Core/Src/main.c ****     0x00, 0xC0, 0xC1, 0x01, 0xC3, 0x03, 0x02, 0xC2, 0xC6, 0x06, 0x07, 0xC7,
 154:Core/Src/main.c ****     0x05, 0xC5, 0xC4, 0x04, 0xCC, 0x0C, 0x0D, 0xCD, 0x0F, 0xCF, 0xCE, 0x0E,
 155:Core/Src/main.c ****     0x0A, 0xCA, 0xCB, 0x0B, 0xC9, 0x09, 0x08, 0xC8, 0xD8, 0x18, 0x19, 0xD9,
 156:Core/Src/main.c ****     0x1B, 0xDB, 0xDA, 0x1A, 0x1E, 0xDE, 0xDF, 0x1F, 0xDD, 0x1D, 0x1C, 0xDC,
 157:Core/Src/main.c ****     0x14, 0xD4, 0xD5, 0x15, 0xD7, 0x17, 0x16, 0xD6, 0xD2, 0x12, 0x13, 0xD3,
 158:Core/Src/main.c ****     0x11, 0xD1, 0xD0, 0x10, 0xF0, 0x30, 0x31, 0xF1, 0x33, 0xF3, 0xF2, 0x32,
 159:Core/Src/main.c ****     0x36, 0xF6, 0xF7, 0x37, 0xF5, 0x35, 0x34, 0xF4, 0x3C, 0xFC, 0xFD, 0x3D,
 160:Core/Src/main.c ****     0xFF, 0x3F, 0x3E, 0xFE, 0xFA, 0x3A, 0x3B, 0xFB, 0x39, 0xF9, 0xF8, 0x38,
 161:Core/Src/main.c ****     0x28, 0xE8, 0xE9, 0x29, 0xEB, 0x2B, 0x2A, 0xEA, 0xEE, 0x2E, 0x2F, 0xEF,
 162:Core/Src/main.c ****     0x2D, 0xED, 0xEC, 0x2C, 0xE4, 0x24, 0x25, 0xE5, 0x27, 0xE7, 0xE6, 0x26,
 163:Core/Src/main.c ****     0x22, 0xE2, 0xE3, 0x23, 0xE1, 0x21, 0x20, 0xE0, 0xA0, 0x60, 0x61, 0xA1,
 164:Core/Src/main.c ****     0x63, 0xA3, 0xA2, 0x62, 0x66, 0xA6, 0xA7, 0x67, 0xA5, 0x65, 0x64, 0xA4,
 165:Core/Src/main.c ****     0x6C, 0xAC, 0xAD, 0x6D, 0xAF, 0x6F, 0x6E, 0xAE, 0xAA, 0x6A, 0x6B, 0xAB,
 166:Core/Src/main.c ****     0x69, 0xA9, 0xA8, 0x68, 0x78, 0xB8, 0xB9, 0x79, 0xBB, 0x7B, 0x7A, 0xBA,
 167:Core/Src/main.c ****     0xBE, 0x7E, 0x7F, 0xBF, 0x7D, 0xBD, 0xBC, 0x7C, 0xB4, 0x74, 0x75, 0xB5,
 168:Core/Src/main.c ****     0x77, 0xB7, 0xB6, 0x76, 0x72, 0xB2, 0xB3, 0x73, 0xB1, 0x71, 0x70, 0xB0,
 169:Core/Src/main.c ****     0x50, 0x90, 0x91, 0x51, 0x93, 0x53, 0x52, 0x92, 0x96, 0x56, 0x57, 0x97,
 170:Core/Src/main.c ****     0x55, 0x95, 0x94, 0x54, 0x9C, 0x5C, 0x5D, 0x9D, 0x5F, 0x9F, 0x9E, 0x5E,
 171:Core/Src/main.c ****     0x5A, 0x9A, 0x9B, 0x5B, 0x99, 0x59, 0x58, 0x98, 0x88, 0x48, 0x49, 0x89,
 172:Core/Src/main.c ****     0x4B, 0x8B, 0x8A, 0x4A, 0x4E, 0x8E, 0x8F, 0x4F, 0x8D, 0x4D, 0x4C, 0x8C,
 173:Core/Src/main.c ****     0x44, 0x84, 0x85, 0x45, 0x87, 0x47, 0x46, 0x86, 0x82, 0x42, 0x43, 0x83,
 174:Core/Src/main.c ****     0x41, 0x81, 0x80, 0x40};
 175:Core/Src/main.c **** 
 176:Core/Src/main.c **** unsigned short CRC16x(unsigned char *pucFrame, unsigned short usLen)
 177:Core/Src/main.c **** {
 178:Core/Src/main.c ****   unsigned char ucCRCHi = 0xFF;
 179:Core/Src/main.c ****   unsigned char ucCRCLo = 0xFF;
 180:Core/Src/main.c ****   int iIndex;
 181:Core/Src/main.c **** 
 182:Core/Src/main.c ****   while (usLen--)
 183:Core/Src/main.c ****   {
 184:Core/Src/main.c ****     iIndex = ucCRCLo ^ *(pucFrame++);
 185:Core/Src/main.c ****     ucCRCLo = (unsigned char)(ucCRCHi ^ aucCRCHi[iIndex]);
 186:Core/Src/main.c ****     ucCRCHi = aucCRCLo[iIndex];
 187:Core/Src/main.c ****   }
 188:Core/Src/main.c ****   return (unsigned short)(ucCRCHi << 8 | ucCRCLo);
 189:Core/Src/main.c **** }
 190:Core/Src/main.c **** void LoadReadData(void)
 191:Core/Src/main.c **** {
 192:Core/Src/main.c ****   sRundata.Ta = Ta; // 三个温度
 193:Core/Src/main.c ****   sRundata.Tb = Tb;
 194:Core/Src/main.c ****   sRundata.Tc = Tc;
 195:Core/Src/main.c ****   sRundata.pTa = pTa; // 断电前三个温度
 196:Core/Src/main.c ****   sRundata.pTb = pTb;
 197:Core/Src/main.c ****   sRundata.pTc = pTc;
 198:Core/Src/main.c **** 
 199:Core/Src/main.c ****   sRundata.FenH = FenH;     // 风机定时  每隔多少小时
 200:Core/Src/main.c ****   sRundata.FenM = FenM;     // 风机定时  持续转几分钟
 201:Core/Src/main.c ****   sRundata.Tcala1 = Tcala1; // 温度补偿
 202:Core/Src/main.c ****   sRundata.Tcala2 = Tcala2;
 203:Core/Src/main.c ****   sRundata.Tcala3 = Tcala3;
 204:Core/Src/main.c ****   sRundata.Tset1 = Tset1; // 温度阈值
ARM GAS  C:\Users\57298\AppData\Local\Temp\cc5d07uv.s 			page 5


 205:Core/Src/main.c ****   sRundata.Tset2 = Tset2;
 206:Core/Src/main.c ****   sRundata.Tset3 = Tset3;
 207:Core/Src/main.c ****   sRundata.Tset4 = Tset4;
 208:Core/Src/main.c ****   sRundata.cshuiCha = cshuiCha; // 除湿回差 三个回差值
 209:Core/Src/main.c ****   sRundata.cwhuiCha = cwhuiCha; // 超温报警回差
 210:Core/Src/main.c ****   sRundata.tzhuiCha = tzhuiCha; // 跳闸回差
 211:Core/Src/main.c ****   sRundata.MnTest = MnTest;     // 测试 温度值
 212:Core/Src/main.c **** 
 213:Core/Src/main.c ****   sRundata.addr = addr; // 0 无 1 偶  2 奇
 214:Core/Src/main.c ****   sRundata.jojy = jojy;
 215:Core/Src/main.c ****   sRundata.btlv = btlv;
 216:Core/Src/main.c **** 
 217:Core/Src/main.c ****   sRundata.k1 = (signed int)k1 * 10;
 218:Core/Src/main.c ****   sRundata.k2 = (signed int)k2 * 10;
 219:Core/Src/main.c ****   sRundata.k3 = (signed int)k3 * 10;
 220:Core/Src/main.c ****   sRundata.b1 = (signed int)b1 * 10;
 221:Core/Src/main.c ****   sRundata.b2 = (signed int)b2 * 10;
 222:Core/Src/main.c ****   sRundata.b3 = (signed int)b3 * 10;
 223:Core/Src/main.c ****   unsigned short i = 0;
 224:Core/Src/main.c ****   for (i = 0; i < 17; i++)
 225:Core/Src/main.c ****   {
 226:Core/Src/main.c ****     sRundata.macFlag[i] = macFlag[i];
 227:Core/Src/main.c ****   }
 228:Core/Src/main.c **** }
 229:Core/Src/main.c **** // 放到串口空闲中断里
 230:Core/Src/main.c **** void u2RxIt(void)
 231:Core/Src/main.c **** {
 232:Core/Src/main.c **** 
 233:Core/Src/main.c ****   __HAL_UART_CLEAR_IDLEFLAG(&huart2);
 234:Core/Src/main.c **** 
 235:Core/Src/main.c ****   HAL_UART_DMAStop(&huart2);
 236:Core/Src/main.c **** 
 237:Core/Src/main.c ****   __HAL_UART_CLEAR_FLAG(&huart2, UART_CLEAR_OREF | UART_CLEAR_NEF | UART_CLEAR_PEF | UART_CLEAR_FEF
 238:Core/Src/main.c **** 
 239:Core/Src/main.c ****   RxLenU2 = MAXRXU2 - huart2.hdmarx->Instance->CNDTR; // NDTR;//接收到的字节长度
 240:Core/Src/main.c ****   unsigned short i = 0;
 241:Core/Src/main.c **** 
 242:Core/Src/main.c ****   extern unsigned int addr;
 243:Core/Src/main.c ****   if (RxBufU2[0] == addr &&
 244:Core/Src/main.c ****       RxBufU2[1] == 0x03 &&
 245:Core/Src/main.c ****       RxBufU2[2] == 0x00 &&
 246:Core/Src/main.c ****       RxBufU2[3] == 0x00 &&
 247:Core/Src/main.c ****       RxBufU2[4] == 0x00 &&
 248:Core/Src/main.c ****       RxBufU2[5] == 0x05 && RxLenU2 == 8)
 249:Core/Src/main.c ****   {
 250:Core/Src/main.c ****     i = 0;
 251:Core/Src/main.c ****     TxBufU2[0] = addr;
 252:Core/Src/main.c ****     TxBufU2[1] = 0x03;
 253:Core/Src/main.c ****     TxBufU2[2] = 0x0A;
 254:Core/Src/main.c ****     unsigned short Tmp = 0;
 255:Core/Src/main.c ****     if (Ta > Tset3)
 256:Core/Src/main.c ****       Tmp = Tmp | 0x0001;
 257:Core/Src/main.c ****     else
 258:Core/Src/main.c ****       Tmp = Tmp & (~0x0001);
 259:Core/Src/main.c ****     if (Tb > Tset3)
 260:Core/Src/main.c ****       Tmp = Tmp | 0x0002;
 261:Core/Src/main.c ****     else
ARM GAS  C:\Users\57298\AppData\Local\Temp\cc5d07uv.s 			page 6


 262:Core/Src/main.c ****       Tmp = Tmp & (~0x0002);
 263:Core/Src/main.c ****     if (Tc > Tset3)
 264:Core/Src/main.c ****       Tmp = Tmp | 0x0004;
 265:Core/Src/main.c ****     else
 266:Core/Src/main.c ****       Tmp = Tmp & (~0x0004);
 267:Core/Src/main.c ****     if (macFlag[0] != 0)
 268:Core/Src/main.c ****       Tmp = Tmp | 0x0008;
 269:Core/Src/main.c ****     else
 270:Core/Src/main.c ****       Tmp = Tmp & (~0x0008);
 271:Core/Src/main.c ****     if (macFlag[1] != 0)
 272:Core/Src/main.c ****       Tmp = Tmp | 0x0010;
 273:Core/Src/main.c ****     else
 274:Core/Src/main.c ****       Tmp = Tmp & (~0x0010);
 275:Core/Src/main.c ****     if (macFlag[2] != 0)
 276:Core/Src/main.c ****       Tmp = Tmp | 0x0020;
 277:Core/Src/main.c ****     else
 278:Core/Src/main.c ****       Tmp = Tmp & (~0x0020);
 279:Core/Src/main.c ****     TxBufU2[3] = Tmp >> 8;
 280:Core/Src/main.c ****     TxBufU2[4] = Tmp >> 0;
 281:Core/Src/main.c ****     signed short Txxx = 0;
 282:Core/Src/main.c ****     Txxx = Ta * 10 + 0x23;
 283:Core/Src/main.c ****     TxBufU2[5] = Txxx >> 8;
 284:Core/Src/main.c ****     TxBufU2[6] = Txxx >> 0;
 285:Core/Src/main.c ****     Txxx = Tb * 10 + 0x23;
 286:Core/Src/main.c ****     TxBufU2[7] = Txxx >> 8;
 287:Core/Src/main.c ****     TxBufU2[8] = Txxx >> 0;
 288:Core/Src/main.c ****     Txxx = Tc * 10 + 0x23;
 289:Core/Src/main.c ****     TxBufU2[9] = Txxx >> 8;
 290:Core/Src/main.c ****     TxBufU2[10] = Txxx >> 0;
 291:Core/Src/main.c ****     TxBufU2[11] = FenH >> 8;
 292:Core/Src/main.c ****     TxBufU2[12] = FenH >> 0;
 293:Core/Src/main.c ****     unsigned short crc1, crc2;
 294:Core/Src/main.c ****     crc1 = crc2 = CRC16x(TxBufU2, 13);
 295:Core/Src/main.c ****     TxBufU2[13] = ((crc1) & 0xff);
 296:Core/Src/main.c ****     TxBufU2[14] = ((crc2 >> 8) & 0xff);
 297:Core/Src/main.c **** 
 298:Core/Src/main.c ****     TxEn;
 299:Core/Src/main.c ****     ADCPause;
 300:Core/Src/main.c ****     HAL_UART_Transmit(&huart2, TxBufU2, 15, 100);
 301:Core/Src/main.c ****     ADCContinue;
 302:Core/Src/main.c ****   }
 303:Core/Src/main.c ****   if ( // 自动 手动开 手动关
 304:Core/Src/main.c ****       RxBufU2[0] == 0xFA &&
 305:Core/Src/main.c ****       RxBufU2[1] == 0x04 &&
 306:Core/Src/main.c ****       RxBufU2[2] == 0xD1 &&
 307:Core/Src/main.c ****       RxBufU2[5] == 0xFB && RxLenU2 == 6)
 308:Core/Src/main.c ****   {
 309:Core/Src/main.c ****     macFlag[12] = RxBufU2[3];
 310:Core/Src/main.c ****     ADCPause;
 311:Core/Src/main.c ****     TxEn;
 312:Core/Src/main.c ****     HAL_UART_Transmit(&huart2, RxBufU2, rsRxIndex, 100);
 313:Core/Src/main.c ****     ADCContinue;
 314:Core/Src/main.c ****   }
 315:Core/Src/main.c **** 
 316:Core/Src/main.c ****   if ( // 非消音 消音
 317:Core/Src/main.c ****       RxBufU2[0] == 0xFA &&
 318:Core/Src/main.c ****       RxBufU2[1] == 0x04 &&
ARM GAS  C:\Users\57298\AppData\Local\Temp\cc5d07uv.s 			page 7


 319:Core/Src/main.c ****       RxBufU2[2] == 0xD2 &&
 320:Core/Src/main.c ****       RxBufU2[5] == 0xFB && RxLenU2 == 6)
 321:Core/Src/main.c ****   {
 322:Core/Src/main.c ****     macFlag[15] = RxBufU2[3];
 323:Core/Src/main.c ****     ADCPause;
 324:Core/Src/main.c ****     TxEn;
 325:Core/Src/main.c ****     HAL_UART_Transmit(&huart2, RxBufU2, rsRxIndex, 100);
 326:Core/Src/main.c ****     ADCContinue;
 327:Core/Src/main.c ****   }
 328:Core/Src/main.c **** 
 329:Core/Src/main.c ****   if ( // 读取所有参数
 330:Core/Src/main.c ****       RxBufU2[0] == 0xFA &&
 331:Core/Src/main.c ****       RxBufU2[1] == 0x04 &&
 332:Core/Src/main.c ****       RxBufU2[2] == 0xF1 &&
 333:Core/Src/main.c ****       RxBufU2[5] == 0xFB && RxLenU2 == 6)
 334:Core/Src/main.c ****   {
 335:Core/Src/main.c ****     i = 0;
 336:Core/Src/main.c ****     TxBufU2[i++] = 0xFA;
 337:Core/Src/main.c ****     TxBufU2[i++] = 0x04;
 338:Core/Src/main.c ****     TxBufU2[i++] = 0xF1;
 339:Core/Src/main.c ****     unsigned int sDataLen = sizeof(sRundata);
 340:Core/Src/main.c ****     LoadReadData();
 341:Core/Src/main.c ****     memcpy(&TxBufU2[i], (unsigned char *)&sRundata, sDataLen);
 342:Core/Src/main.c ****     i = i + sDataLen;
 343:Core/Src/main.c ****     TxBufU2[i++] = 0xFB;
 344:Core/Src/main.c ****     ADCPause;
 345:Core/Src/main.c ****     TxEn;
 346:Core/Src/main.c ****     HAL_UART_Transmit(&huart2, TxBufU2, i, 100);
 347:Core/Src/main.c ****     ADCContinue;
 348:Core/Src/main.c ****   }
 349:Core/Src/main.c ****   HAL_UART_Receive_DMA(&huart2, RxBufU2, MAXRXU2); // 再次开启DMA接收
 350:Core/Src/main.c ****   RxEn;
 351:Core/Src/main.c **** }
 352:Core/Src/main.c **** 
 353:Core/Src/main.c **** /* USER CODE END 0 */
 354:Core/Src/main.c **** 
 355:Core/Src/main.c **** /**
 356:Core/Src/main.c ****  * @brief  The application entry point.
 357:Core/Src/main.c ****  * @retval int
 358:Core/Src/main.c ****  */
 359:Core/Src/main.c **** int main(void)
 360:Core/Src/main.c **** {
 361:Core/Src/main.c ****   /* USER CODE BEGIN 1 */
 362:Core/Src/main.c **** 
 363:Core/Src/main.c ****   /* USER CODE END 1 */
 364:Core/Src/main.c **** 
 365:Core/Src/main.c ****   /* MCU Configuration--------------------------------------------------------*/
 366:Core/Src/main.c **** 
 367:Core/Src/main.c ****   /* Reset of all peripherals, Initializes the Flash interface and the Systick. */
 368:Core/Src/main.c ****   HAL_Init();
 369:Core/Src/main.c **** 
 370:Core/Src/main.c ****   /* USER CODE BEGIN Init */
 371:Core/Src/main.c **** 
 372:Core/Src/main.c ****   /* USER CODE END Init */
 373:Core/Src/main.c **** 
 374:Core/Src/main.c ****   /* Configure the system clock */
 375:Core/Src/main.c ****   SystemClock_Config();
ARM GAS  C:\Users\57298\AppData\Local\Temp\cc5d07uv.s 			page 8


 376:Core/Src/main.c **** 
 377:Core/Src/main.c ****   /* USER CODE BEGIN SysInit */
 378:Core/Src/main.c **** 
 379:Core/Src/main.c ****   /* USER CODE END SysInit */
 380:Core/Src/main.c **** 
 381:Core/Src/main.c ****   /* Initialize all configured peripherals */
 382:Core/Src/main.c ****   MX_GPIO_Init();
 383:Core/Src/main.c ****   MX_DMA_Init();
 384:Core/Src/main.c ****   MX_ADC_Init();
 385:Core/Src/main.c ****   MX_I2C1_Init();
 386:Core/Src/main.c ****   MX_USART1_UART_Init();
 387:Core/Src/main.c ****   MX_USART2_UART_Init();
 388:Core/Src/main.c ****   // MX_IWDG_Init();
 389:Core/Src/main.c ****   /* USER CODE BEGIN 2 */
 390:Core/Src/main.c ****   DS18B20Configuration();
 391:Core/Src/main.c **** 
 392:Core/Src/main.c ****   TM1640_GPIO_Config();
 393:Core/Src/main.c ****   HAL_ADC_Start_DMA(&hadc, (uint32_t *)&AdDataOrig, 1500); // 开启采样
 394:Core/Src/main.c ****   JDQ1_L;
 395:Core/Src/main.c ****   JDQ2_L;
 396:Core/Src/main.c ****   JDQ3_L;
 397:Core/Src/main.c ****   JDQ4_L;
 398:Core/Src/main.c ****   JDQ5_L;
 399:Core/Src/main.c ****   JDQ6_L;
 400:Core/Src/main.c ****   LoadPara();
 401:Core/Src/main.c ****   RxEn;
 402:Core/Src/main.c ****   HAL_UART_Receive_DMA(&huart2, RxBufU2, MAXRXU2);
 403:Core/Src/main.c ****   __HAL_UART_ENABLE_IT(&huart2, UART_IT_IDLE);
 404:Core/Src/main.c ****   BeepOn;
 405:Core/Src/main.c ****   /* USER CODE END 2 */
 406:Core/Src/main.c **** 
 407:Core/Src/main.c ****   /* Infinite loop */
 408:Core/Src/main.c ****   /* USER CODE BEGIN WHILE */
 409:Core/Src/main.c ****   while (1)
 410:Core/Src/main.c ****   {
 411:Core/Src/main.c ****     /* USER CODE END WHILE */
 412:Core/Src/main.c **** 
 413:Core/Src/main.c ****     /* USER CODE BEGIN 3 */
 414:Core/Src/main.c ****     ReadKey();
 415:Core/Src/main.c ****     // HAL_IWDG_Refresh(&hiwdg);
 416:Core/Src/main.c ****   }
 417:Core/Src/main.c ****   /* USER CODE END 3 */
 418:Core/Src/main.c **** }
 419:Core/Src/main.c **** 
 420:Core/Src/main.c **** /**
 421:Core/Src/main.c ****  * @brief System Clock Configuration
 422:Core/Src/main.c ****  * @retval None
 423:Core/Src/main.c ****  */
 424:Core/Src/main.c **** void SystemClock_Config(void)
 425:Core/Src/main.c **** {
 426:Core/Src/main.c ****   RCC_OscInitTypeDef RCC_OscInitStruct = {0};
 427:Core/Src/main.c ****   RCC_ClkInitTypeDef RCC_ClkInitStruct = {0};
 428:Core/Src/main.c ****   RCC_PeriphCLKInitTypeDef PeriphClkInit = {0};
 429:Core/Src/main.c **** 
 430:Core/Src/main.c ****   /** Initializes the RCC Oscillators according to the specified parameters
 431:Core/Src/main.c ****    * in the RCC_OscInitTypeDef structure.
 432:Core/Src/main.c ****    */
ARM GAS  C:\Users\57298\AppData\Local\Temp\cc5d07uv.s 			page 9


 433:Core/Src/main.c ****   RCC_OscInitStruct.OscillatorType = RCC_OSCILLATORTYPE_HSI | RCC_OSCILLATORTYPE_HSI14 | RCC_OSCILL
 434:Core/Src/main.c ****   RCC_OscInitStruct.HSIState = RCC_HSI_ON;
 435:Core/Src/main.c ****   RCC_OscInitStruct.HSI14State = RCC_HSI14_ON;
 436:Core/Src/main.c ****   RCC_OscInitStruct.HSICalibrationValue = RCC_HSICALIBRATION_DEFAULT;
 437:Core/Src/main.c ****   RCC_OscInitStruct.HSI14CalibrationValue = 16;
 438:Core/Src/main.c ****   RCC_OscInitStruct.LSIState = RCC_LSI_ON;
 439:Core/Src/main.c ****   RCC_OscInitStruct.PLL.PLLState = RCC_PLL_ON;
 440:Core/Src/main.c ****   RCC_OscInitStruct.PLL.PLLSource = RCC_PLLSOURCE_HSI;
 441:Core/Src/main.c ****   RCC_OscInitStruct.PLL.PLLMUL = RCC_PLL_MUL9;
 442:Core/Src/main.c ****   RCC_OscInitStruct.PLL.PREDIV = RCC_PREDIV_DIV2;
 443:Core/Src/main.c ****   if (HAL_RCC_OscConfig(&RCC_OscInitStruct) != HAL_OK)
 444:Core/Src/main.c ****   {
 445:Core/Src/main.c ****     Error_Handler();
 446:Core/Src/main.c ****   }
 447:Core/Src/main.c **** 
 448:Core/Src/main.c ****   /** Initializes the CPU, AHB and APB buses clocks
 449:Core/Src/main.c ****    */
 450:Core/Src/main.c ****   RCC_ClkInitStruct.ClockType = RCC_CLOCKTYPE_HCLK | RCC_CLOCKTYPE_SYSCLK | RCC_CLOCKTYPE_PCLK1;
 451:Core/Src/main.c ****   RCC_ClkInitStruct.SYSCLKSource = RCC_SYSCLKSOURCE_PLLCLK;
 452:Core/Src/main.c ****   RCC_ClkInitStruct.AHBCLKDivider = RCC_SYSCLK_DIV1;
 453:Core/Src/main.c ****   RCC_ClkInitStruct.APB1CLKDivider = RCC_HCLK_DIV1;
 454:Core/Src/main.c **** 
 455:Core/Src/main.c ****   if (HAL_RCC_ClockConfig(&RCC_ClkInitStruct, FLASH_LATENCY_1) != HAL_OK)
 456:Core/Src/main.c ****   {
 457:Core/Src/main.c ****     Error_Handler();
 458:Core/Src/main.c ****   }
 459:Core/Src/main.c ****   PeriphClkInit.PeriphClockSelection = RCC_PERIPHCLK_USART1 | RCC_PERIPHCLK_I2C1;
 460:Core/Src/main.c ****   PeriphClkInit.Usart1ClockSelection = RCC_USART1CLKSOURCE_PCLK1;
 461:Core/Src/main.c ****   PeriphClkInit.I2c1ClockSelection = RCC_I2C1CLKSOURCE_SYSCLK;
 462:Core/Src/main.c ****   if (HAL_RCCEx_PeriphCLKConfig(&PeriphClkInit) != HAL_OK)
 463:Core/Src/main.c ****   {
 464:Core/Src/main.c ****     Error_Handler();
 465:Core/Src/main.c ****   }
 466:Core/Src/main.c **** }
 467:Core/Src/main.c **** 
 468:Core/Src/main.c **** /**
 469:Core/Src/main.c ****  * @brief ADC Initialization Function
 470:Core/Src/main.c ****  * @param None
 471:Core/Src/main.c ****  * @retval None
 472:Core/Src/main.c ****  */
 473:Core/Src/main.c **** static void MX_ADC_Init(void)
 474:Core/Src/main.c **** {
 475:Core/Src/main.c **** 
 476:Core/Src/main.c ****   /* USER CODE BEGIN ADC_Init 0 */
 477:Core/Src/main.c **** 
 478:Core/Src/main.c ****   /* USER CODE END ADC_Init 0 */
 479:Core/Src/main.c **** 
 480:Core/Src/main.c ****   ADC_ChannelConfTypeDef sConfig = {0};
 481:Core/Src/main.c **** 
 482:Core/Src/main.c ****   /* USER CODE BEGIN ADC_Init 1 */
 483:Core/Src/main.c **** 
 484:Core/Src/main.c ****   /* USER CODE END ADC_Init 1 */
 485:Core/Src/main.c **** 
 486:Core/Src/main.c ****   /** Configure the global features of the ADC (Clock, Resolution, Data Alignment and number of con
 487:Core/Src/main.c ****    */
 488:Core/Src/main.c ****   hadc.Instance = ADC1;
 489:Core/Src/main.c ****   hadc.Init.ClockPrescaler = ADC_CLOCK_ASYNC_DIV1;
ARM GAS  C:\Users\57298\AppData\Local\Temp\cc5d07uv.s 			page 10


 490:Core/Src/main.c ****   hadc.Init.Resolution = ADC_RESOLUTION_12B;
 491:Core/Src/main.c ****   hadc.Init.DataAlign = ADC_DATAALIGN_RIGHT;
 492:Core/Src/main.c ****   hadc.Init.ScanConvMode = ADC_SCAN_DIRECTION_FORWARD;
 493:Core/Src/main.c ****   hadc.Init.EOCSelection = ADC_EOC_SINGLE_CONV;
 494:Core/Src/main.c ****   hadc.Init.LowPowerAutoWait = DISABLE;
 495:Core/Src/main.c ****   hadc.Init.LowPowerAutoPowerOff = DISABLE;
 496:Core/Src/main.c ****   hadc.Init.ContinuousConvMode = ENABLE;
 497:Core/Src/main.c ****   hadc.Init.DiscontinuousConvMode = DISABLE;
 498:Core/Src/main.c ****   hadc.Init.ExternalTrigConv = ADC_SOFTWARE_START;
 499:Core/Src/main.c ****   hadc.Init.ExternalTrigConvEdge = ADC_EXTERNALTRIGCONVEDGE_NONE;
 500:Core/Src/main.c ****   hadc.Init.DMAContinuousRequests = ENABLE;
 501:Core/Src/main.c ****   hadc.Init.Overrun = ADC_OVR_DATA_PRESERVED;
 502:Core/Src/main.c ****   if (HAL_ADC_Init(&hadc) != HAL_OK)
 503:Core/Src/main.c ****   {
 504:Core/Src/main.c ****     Error_Handler();
 505:Core/Src/main.c ****   }
 506:Core/Src/main.c **** 
 507:Core/Src/main.c ****   /** Configure for the selected ADC regular channel to be converted.
 508:Core/Src/main.c ****    */
 509:Core/Src/main.c ****   sConfig.Channel = ADC_CHANNEL_5;
 510:Core/Src/main.c ****   sConfig.Rank = ADC_RANK_CHANNEL_NUMBER;
 511:Core/Src/main.c ****   sConfig.SamplingTime = ADC_SAMPLETIME_7CYCLES_5;
 512:Core/Src/main.c ****   if (HAL_ADC_ConfigChannel(&hadc, &sConfig) != HAL_OK)
 513:Core/Src/main.c ****   {
 514:Core/Src/main.c ****     Error_Handler();
 515:Core/Src/main.c ****   }
 516:Core/Src/main.c **** 
 517:Core/Src/main.c ****   /** Configure for the selected ADC regular channel to be converted.
 518:Core/Src/main.c ****    */
 519:Core/Src/main.c ****   sConfig.Channel = ADC_CHANNEL_6;
 520:Core/Src/main.c ****   if (HAL_ADC_ConfigChannel(&hadc, &sConfig) != HAL_OK)
 521:Core/Src/main.c ****   {
 522:Core/Src/main.c ****     Error_Handler();
 523:Core/Src/main.c ****   }
 524:Core/Src/main.c **** 
 525:Core/Src/main.c ****   /** Configure for the selected ADC regular channel to be converted.
 526:Core/Src/main.c ****    */
 527:Core/Src/main.c ****   sConfig.Channel = ADC_CHANNEL_7;
 528:Core/Src/main.c ****   if (HAL_ADC_ConfigChannel(&hadc, &sConfig) != HAL_OK)
 529:Core/Src/main.c ****   {
 530:Core/Src/main.c ****     Error_Handler();
 531:Core/Src/main.c ****   }
 532:Core/Src/main.c ****   /* USER CODE BEGIN ADC_Init 2 */
 533:Core/Src/main.c **** 
 534:Core/Src/main.c ****   /* USER CODE END ADC_Init 2 */
 535:Core/Src/main.c **** }
 536:Core/Src/main.c **** 
 537:Core/Src/main.c **** /**
 538:Core/Src/main.c ****  * @brief I2C1 Initialization Function
 539:Core/Src/main.c ****  * @param None
 540:Core/Src/main.c ****  * @retval None
 541:Core/Src/main.c ****  */
 542:Core/Src/main.c **** static void MX_I2C1_Init(void)
 543:Core/Src/main.c **** {
 544:Core/Src/main.c **** 
 545:Core/Src/main.c ****   /* USER CODE BEGIN I2C1_Init 0 */
 546:Core/Src/main.c **** 
ARM GAS  C:\Users\57298\AppData\Local\Temp\cc5d07uv.s 			page 11


 547:Core/Src/main.c ****   /* USER CODE END I2C1_Init 0 */
 548:Core/Src/main.c **** 
 549:Core/Src/main.c ****   /* USER CODE BEGIN I2C1_Init 1 */
 550:Core/Src/main.c **** 
 551:Core/Src/main.c ****   /* USER CODE END I2C1_Init 1 */
 552:Core/Src/main.c ****   hi2c1.Instance = I2C1;
 553:Core/Src/main.c ****   hi2c1.Init.Timing = 0x00808CD2;
 554:Core/Src/main.c ****   hi2c1.Init.OwnAddress1 = 0;
 555:Core/Src/main.c ****   hi2c1.Init.AddressingMode = I2C_ADDRESSINGMODE_7BIT;
 556:Core/Src/main.c ****   hi2c1.Init.DualAddressMode = I2C_DUALADDRESS_DISABLE;
 557:Core/Src/main.c ****   hi2c1.Init.OwnAddress2 = 0;
 558:Core/Src/main.c ****   hi2c1.Init.OwnAddress2Masks = I2C_OA2_NOMASK;
 559:Core/Src/main.c ****   hi2c1.Init.GeneralCallMode = I2C_GENERALCALL_DISABLE;
 560:Core/Src/main.c ****   hi2c1.Init.NoStretchMode = I2C_NOSTRETCH_DISABLE;
 561:Core/Src/main.c ****   if (HAL_I2C_Init(&hi2c1) != HAL_OK)
 562:Core/Src/main.c ****   {
 563:Core/Src/main.c ****     Error_Handler();
 564:Core/Src/main.c ****   }
 565:Core/Src/main.c **** 
 566:Core/Src/main.c ****   /** Configure Analogue filter
 567:Core/Src/main.c ****    */
 568:Core/Src/main.c ****   if (HAL_I2CEx_ConfigAnalogFilter(&hi2c1, I2C_ANALOGFILTER_ENABLE) != HAL_OK)
 569:Core/Src/main.c ****   {
 570:Core/Src/main.c ****     Error_Handler();
 571:Core/Src/main.c ****   }
 572:Core/Src/main.c **** 
 573:Core/Src/main.c ****   /** Configure Digital filter
 574:Core/Src/main.c ****    */
 575:Core/Src/main.c ****   if (HAL_I2CEx_ConfigDigitalFilter(&hi2c1, 0) != HAL_OK)
 576:Core/Src/main.c ****   {
 577:Core/Src/main.c ****     Error_Handler();
 578:Core/Src/main.c ****   }
 579:Core/Src/main.c ****   /* USER CODE BEGIN I2C1_Init 2 */
 580:Core/Src/main.c **** 
 581:Core/Src/main.c ****   /* USER CODE END I2C1_Init 2 */
 582:Core/Src/main.c **** }
 583:Core/Src/main.c **** 
 584:Core/Src/main.c **** /**
 585:Core/Src/main.c ****  * @brief IWDG Initialization Function
 586:Core/Src/main.c ****  * @param None
 587:Core/Src/main.c ****  * @retval None
 588:Core/Src/main.c ****  */
 589:Core/Src/main.c **** static void MX_IWDG_Init(void)
 590:Core/Src/main.c **** {
 591:Core/Src/main.c **** 
 592:Core/Src/main.c ****   /* USER CODE BEGIN IWDG_Init 0 */
 593:Core/Src/main.c **** 
 594:Core/Src/main.c ****   /* USER CODE END IWDG_Init 0 */
 595:Core/Src/main.c **** 
 596:Core/Src/main.c ****   /* USER CODE BEGIN IWDG_Init 1 */
 597:Core/Src/main.c **** 
 598:Core/Src/main.c ****   /* USER CODE END IWDG_Init 1 */
 599:Core/Src/main.c ****   hiwdg.Instance = IWDG;
 600:Core/Src/main.c ****   hiwdg.Init.Prescaler = IWDG_PRESCALER_4;
 601:Core/Src/main.c ****   hiwdg.Init.Window = 4095;
 602:Core/Src/main.c ****   hiwdg.Init.Reload = 4095;
 603:Core/Src/main.c ****   if (HAL_IWDG_Init(&hiwdg) != HAL_OK)
ARM GAS  C:\Users\57298\AppData\Local\Temp\cc5d07uv.s 			page 12


 604:Core/Src/main.c ****   {
 605:Core/Src/main.c ****     Error_Handler();
 606:Core/Src/main.c ****   }
 607:Core/Src/main.c ****   /* USER CODE BEGIN IWDG_Init 2 */
 608:Core/Src/main.c **** 
 609:Core/Src/main.c ****   /* USER CODE END IWDG_Init 2 */
 610:Core/Src/main.c **** }
 611:Core/Src/main.c **** 
 612:Core/Src/main.c **** /**
 613:Core/Src/main.c ****  * @brief USART1 Initialization Function
 614:Core/Src/main.c ****  * @param None
 615:Core/Src/main.c ****  * @retval None
 616:Core/Src/main.c ****  */
 617:Core/Src/main.c **** static void MX_USART1_UART_Init(void)
 618:Core/Src/main.c **** {
 619:Core/Src/main.c **** 
 620:Core/Src/main.c ****   /* USER CODE BEGIN USART1_Init 0 */
 621:Core/Src/main.c **** 
 622:Core/Src/main.c ****   /* USER CODE END USART1_Init 0 */
 623:Core/Src/main.c **** 
 624:Core/Src/main.c ****   /* USER CODE BEGIN USART1_Init 1 */
 625:Core/Src/main.c **** 
 626:Core/Src/main.c ****   /* USER CODE END USART1_Init 1 */
 627:Core/Src/main.c ****   huart1.Instance = USART1;
 628:Core/Src/main.c ****   huart1.Init.BaudRate = 9600;
 629:Core/Src/main.c ****   huart1.Init.WordLength = UART_WORDLENGTH_8B;
 630:Core/Src/main.c ****   huart1.Init.StopBits = UART_STOPBITS_1;
 631:Core/Src/main.c ****   huart1.Init.Parity = UART_PARITY_NONE;
 632:Core/Src/main.c ****   huart1.Init.Mode = UART_MODE_TX_RX;
 633:Core/Src/main.c ****   huart1.Init.HwFlowCtl = UART_HWCONTROL_NONE;
 634:Core/Src/main.c ****   huart1.Init.OverSampling = UART_OVERSAMPLING_16;
 635:Core/Src/main.c ****   huart1.Init.OneBitSampling = UART_ONE_BIT_SAMPLE_DISABLE;
 636:Core/Src/main.c ****   huart1.AdvancedInit.AdvFeatureInit = UART_ADVFEATURE_NO_INIT;
 637:Core/Src/main.c ****   if (HAL_UART_Init(&huart1) != HAL_OK)
 638:Core/Src/main.c ****   {
 639:Core/Src/main.c ****     Error_Handler();
 640:Core/Src/main.c ****   }
 641:Core/Src/main.c ****   /* USER CODE BEGIN USART1_Init 2 */
 642:Core/Src/main.c **** 
 643:Core/Src/main.c ****   /* USER CODE END USART1_Init 2 */
 644:Core/Src/main.c **** }
 645:Core/Src/main.c **** 
 646:Core/Src/main.c **** /**
 647:Core/Src/main.c ****  * @brief USART2 Initialization Function
 648:Core/Src/main.c ****  * @param None
 649:Core/Src/main.c ****  * @retval None
 650:Core/Src/main.c ****  */
 651:Core/Src/main.c **** static void MX_USART2_UART_Init(void)
 652:Core/Src/main.c **** {
 653:Core/Src/main.c **** 
 654:Core/Src/main.c ****   /* USER CODE BEGIN USART2_Init 0 */
 655:Core/Src/main.c **** 
 656:Core/Src/main.c ****   /* USER CODE END USART2_Init 0 */
 657:Core/Src/main.c **** 
 658:Core/Src/main.c ****   /* USER CODE BEGIN USART2_Init 1 */
 659:Core/Src/main.c **** 
 660:Core/Src/main.c ****   /* USER CODE END USART2_Init 1 */
ARM GAS  C:\Users\57298\AppData\Local\Temp\cc5d07uv.s 			page 13


 661:Core/Src/main.c ****   huart2.Instance = USART2;
 662:Core/Src/main.c ****   huart2.Init.BaudRate = 9600;
 663:Core/Src/main.c ****   huart2.Init.WordLength = UART_WORDLENGTH_8B;
 664:Core/Src/main.c ****   huart2.Init.StopBits = UART_STOPBITS_1;
 665:Core/Src/main.c ****   huart2.Init.Parity = UART_PARITY_NONE;
 666:Core/Src/main.c ****   huart2.Init.Mode = UART_MODE_TX_RX;
 667:Core/Src/main.c ****   huart2.Init.HwFlowCtl = UART_HWCONTROL_NONE;
 668:Core/Src/main.c ****   huart2.Init.OverSampling = UART_OVERSAMPLING_16;
 669:Core/Src/main.c ****   huart2.Init.OneBitSampling = UART_ONE_BIT_SAMPLE_DISABLE;
 670:Core/Src/main.c ****   huart2.AdvancedInit.AdvFeatureInit = UART_ADVFEATURE_NO_INIT;
 671:Core/Src/main.c ****   if (HAL_UART_Init(&huart2) != HAL_OK)
 672:Core/Src/main.c ****   {
 673:Core/Src/main.c ****     Error_Handler();
 674:Core/Src/main.c ****   }
 675:Core/Src/main.c ****   /* USER CODE BEGIN USART2_Init 2 */
 676:Core/Src/main.c **** 
 677:Core/Src/main.c ****   /* USER CODE END USART2_Init 2 */
 678:Core/Src/main.c **** }
 679:Core/Src/main.c **** 
 680:Core/Src/main.c **** /**
 681:Core/Src/main.c ****  * Enable DMA controller clock
 682:Core/Src/main.c ****  */
 683:Core/Src/main.c **** static void MX_DMA_Init(void)
 684:Core/Src/main.c **** {
 685:Core/Src/main.c **** 
 686:Core/Src/main.c ****   /* DMA controller clock enable */
 687:Core/Src/main.c ****   __HAL_RCC_DMA1_CLK_ENABLE();
 688:Core/Src/main.c **** 
 689:Core/Src/main.c ****   /* DMA interrupt init */
 690:Core/Src/main.c ****   /* DMA1_Channel1_IRQn interrupt configuration */
 691:Core/Src/main.c ****   HAL_NVIC_SetPriority(DMA1_Channel1_IRQn, 0, 0);
 692:Core/Src/main.c ****   HAL_NVIC_EnableIRQ(DMA1_Channel1_IRQn);
 693:Core/Src/main.c ****   /* DMA1_Channel2_3_IRQn interrupt configuration */
 694:Core/Src/main.c ****   HAL_NVIC_SetPriority(DMA1_Channel2_3_IRQn, 0, 0);
 695:Core/Src/main.c ****   HAL_NVIC_EnableIRQ(DMA1_Channel2_3_IRQn);
 696:Core/Src/main.c ****   /* DMA1_Channel4_5_IRQn interrupt configuration */
 697:Core/Src/main.c ****   HAL_NVIC_SetPriority(DMA1_Channel4_5_IRQn, 0, 0);
 698:Core/Src/main.c ****   HAL_NVIC_EnableIRQ(DMA1_Channel4_5_IRQn);
 699:Core/Src/main.c **** }
 700:Core/Src/main.c **** 
 701:Core/Src/main.c **** /**
 702:Core/Src/main.c ****  * @brief GPIO Initialization Function
 703:Core/Src/main.c ****  * @param None
 704:Core/Src/main.c ****  * @retval None
 705:Core/Src/main.c ****  */
 706:Core/Src/main.c **** static void MX_GPIO_Init(void)
 707:Core/Src/main.c **** {
  26              		.loc 1 707 1 view -0
  27              		.cfi_startproc
  28              		@ args = 0, pretend = 0, frame = 40
  29              		@ frame_needed = 0, uses_anonymous_args = 0
  30 0000 F0B5     		push	{r4, r5, r6, r7, lr}
  31              	.LCFI0:
  32              		.cfi_def_cfa_offset 20
  33              		.cfi_offset 4, -20
  34              		.cfi_offset 5, -16
  35              		.cfi_offset 6, -12
ARM GAS  C:\Users\57298\AppData\Local\Temp\cc5d07uv.s 			page 14


  36              		.cfi_offset 7, -8
  37              		.cfi_offset 14, -4
  38 0002 DE46     		mov	lr, fp
  39 0004 5746     		mov	r7, r10
  40 0006 4E46     		mov	r6, r9
  41 0008 4546     		mov	r5, r8
  42 000a E0B5     		push	{r5, r6, r7, lr}
  43              	.LCFI1:
  44              		.cfi_def_cfa_offset 36
  45              		.cfi_offset 8, -36
  46              		.cfi_offset 9, -32
  47              		.cfi_offset 10, -28
  48              		.cfi_offset 11, -24
  49 000c 8BB0     		sub	sp, sp, #44
  50              	.LCFI2:
  51              		.cfi_def_cfa_offset 80
 708:Core/Src/main.c ****   GPIO_InitTypeDef GPIO_InitStruct = {0};
  52              		.loc 1 708 3 view .LVU1
  53              		.loc 1 708 20 is_stmt 0 view .LVU2
  54 000e 1422     		movs	r2, #20
  55 0010 0021     		movs	r1, #0
  56 0012 05A8     		add	r0, sp, #20
  57 0014 FFF7FEFF 		bl	memset
  58              	.LVL0:
 709:Core/Src/main.c ****   /* USER CODE BEGIN MX_GPIO_Init_1 */
 710:Core/Src/main.c ****   /* USER CODE END MX_GPIO_Init_1 */
 711:Core/Src/main.c **** 
 712:Core/Src/main.c ****   /* GPIO Ports Clock Enable */
 713:Core/Src/main.c ****   __HAL_RCC_GPIOC_CLK_ENABLE();
  59              		.loc 1 713 3 is_stmt 1 view .LVU3
  60              	.LBB2:
  61              		.loc 1 713 3 view .LVU4
  62              		.loc 1 713 3 view .LVU5
  63 0018 4B4B     		ldr	r3, .L2
  64 001a 5969     		ldr	r1, [r3, #20]
  65 001c 8020     		movs	r0, #128
  66 001e 0003     		lsls	r0, r0, #12
  67 0020 0143     		orrs	r1, r0
  68 0022 5961     		str	r1, [r3, #20]
  69              		.loc 1 713 3 view .LVU6
  70 0024 5A69     		ldr	r2, [r3, #20]
  71 0026 0240     		ands	r2, r0
  72 0028 0192     		str	r2, [sp, #4]
  73              		.loc 1 713 3 view .LVU7
  74 002a 019A     		ldr	r2, [sp, #4]
  75              	.LBE2:
  76              		.loc 1 713 3 view .LVU8
 714:Core/Src/main.c ****   __HAL_RCC_GPIOF_CLK_ENABLE();
  77              		.loc 1 714 3 view .LVU9
  78              	.LBB3:
  79              		.loc 1 714 3 view .LVU10
  80              		.loc 1 714 3 view .LVU11
  81 002c 5969     		ldr	r1, [r3, #20]
  82 002e 8020     		movs	r0, #128
  83 0030 C003     		lsls	r0, r0, #15
  84 0032 0143     		orrs	r1, r0
  85 0034 5961     		str	r1, [r3, #20]
ARM GAS  C:\Users\57298\AppData\Local\Temp\cc5d07uv.s 			page 15


  86              		.loc 1 714 3 view .LVU12
  87 0036 5A69     		ldr	r2, [r3, #20]
  88 0038 0240     		ands	r2, r0
  89 003a 0292     		str	r2, [sp, #8]
  90              		.loc 1 714 3 view .LVU13
  91 003c 029A     		ldr	r2, [sp, #8]
  92              	.LBE3:
  93              		.loc 1 714 3 view .LVU14
 715:Core/Src/main.c ****   __HAL_RCC_GPIOA_CLK_ENABLE();
  94              		.loc 1 715 3 view .LVU15
  95              	.LBB4:
  96              		.loc 1 715 3 view .LVU16
  97              		.loc 1 715 3 view .LVU17
  98 003e 5969     		ldr	r1, [r3, #20]
  99 0040 8020     		movs	r0, #128
 100 0042 8002     		lsls	r0, r0, #10
 101 0044 0143     		orrs	r1, r0
 102 0046 5961     		str	r1, [r3, #20]
 103              		.loc 1 715 3 view .LVU18
 104 0048 5A69     		ldr	r2, [r3, #20]
 105 004a 0240     		ands	r2, r0
 106 004c 0392     		str	r2, [sp, #12]
 107              		.loc 1 715 3 view .LVU19
 108 004e 039A     		ldr	r2, [sp, #12]
 109              	.LBE4:
 110              		.loc 1 715 3 view .LVU20
 716:Core/Src/main.c ****   __HAL_RCC_GPIOB_CLK_ENABLE();
 111              		.loc 1 716 3 view .LVU21
 112              	.LBB5:
 113              		.loc 1 716 3 view .LVU22
 114              		.loc 1 716 3 view .LVU23
 115 0050 5A69     		ldr	r2, [r3, #20]
 116 0052 8021     		movs	r1, #128
 117 0054 C902     		lsls	r1, r1, #11
 118 0056 0A43     		orrs	r2, r1
 119 0058 5A61     		str	r2, [r3, #20]
 120              		.loc 1 716 3 view .LVU24
 121 005a 5B69     		ldr	r3, [r3, #20]
 122 005c 0B40     		ands	r3, r1
 123 005e 0493     		str	r3, [sp, #16]
 124              		.loc 1 716 3 view .LVU25
 125 0060 049B     		ldr	r3, [sp, #16]
 126              	.LBE5:
 127              		.loc 1 716 3 view .LVU26
 717:Core/Src/main.c **** 
 718:Core/Src/main.c ****   /*Configure GPIO pin Output Level */
 719:Core/Src/main.c ****   HAL_GPIO_WritePin(GPIOC, GPIO_PIN_13 | GPIO_PIN_14 | GPIO_PIN_15, GPIO_PIN_RESET);
 128              		.loc 1 719 3 view .LVU27
 129 0062 E024     		movs	r4, #224
 130 0064 2402     		lsls	r4, r4, #8
 131 0066 394B     		ldr	r3, .L2+4
 132 0068 9B46     		mov	fp, r3
 133 006a 0022     		movs	r2, #0
 134 006c 2100     		movs	r1, r4
 135 006e 1800     		movs	r0, r3
 136 0070 FFF7FEFF 		bl	HAL_GPIO_WritePin
 137              	.LVL1:
ARM GAS  C:\Users\57298\AppData\Local\Temp\cc5d07uv.s 			page 16


 720:Core/Src/main.c **** 
 721:Core/Src/main.c ****   /*Configure GPIO pin Output Level */
 722:Core/Src/main.c ****   HAL_GPIO_WritePin(GPIOA, GPIO_PIN_1 | GPIO_PIN_8 | GPIO_PIN_9 | GPIO_PIN_15, GPIO_PIN_RESET);
 138              		.loc 1 722 3 view .LVU28
 139 0074 364B     		ldr	r3, .L2+8
 140 0076 9A46     		mov	r10, r3
 141 0078 9027     		movs	r7, #144
 142 007a FF05     		lsls	r7, r7, #23
 143 007c 0022     		movs	r2, #0
 144 007e 1900     		movs	r1, r3
 145 0080 3800     		movs	r0, r7
 146 0082 FFF7FEFF 		bl	HAL_GPIO_WritePin
 147              	.LVL2:
 723:Core/Src/main.c **** 
 724:Core/Src/main.c ****   /*Configure GPIO pin Output Level */
 725:Core/Src/main.c ****   HAL_GPIO_WritePin(GPIOB, GPIO_PIN_2 | GPIO_PIN_10 | GPIO_PIN_3 | GPIO_PIN_4 | GPIO_PIN_5, GPIO_PI
 148              		.loc 1 725 3 view .LVU29
 149 0086 334B     		ldr	r3, .L2+12
 150 0088 9946     		mov	r9, r3
 151 008a 334E     		ldr	r6, .L2+16
 152 008c 0022     		movs	r2, #0
 153 008e 1900     		movs	r1, r3
 154 0090 3000     		movs	r0, r6
 155 0092 FFF7FEFF 		bl	HAL_GPIO_WritePin
 156              	.LVL3:
 726:Core/Src/main.c **** 
 727:Core/Src/main.c ****   /*Configure GPIO pin Output Level */
 728:Core/Src/main.c ****   HAL_GPIO_WritePin(GPIOF, GPIO_PIN_6 | GPIO_PIN_7, GPIO_PIN_RESET);
 157              		.loc 1 728 3 view .LVU30
 158 0096 314B     		ldr	r3, .L2+20
 159 0098 9846     		mov	r8, r3
 160 009a 0022     		movs	r2, #0
 161 009c C021     		movs	r1, #192
 162 009e 1800     		movs	r0, r3
 163 00a0 FFF7FEFF 		bl	HAL_GPIO_WritePin
 164              	.LVL4:
 729:Core/Src/main.c **** 
 730:Core/Src/main.c ****   /*Configure GPIO pins : PC13 PC14 PC15 */
 731:Core/Src/main.c ****   GPIO_InitStruct.Pin = GPIO_PIN_13 | GPIO_PIN_14 | GPIO_PIN_15;
 165              		.loc 1 731 3 view .LVU31
 166              		.loc 1 731 23 is_stmt 0 view .LVU32
 167 00a4 0594     		str	r4, [sp, #20]
 732:Core/Src/main.c ****   GPIO_InitStruct.Mode = GPIO_MODE_OUTPUT_PP;
 168              		.loc 1 732 3 is_stmt 1 view .LVU33
 169              		.loc 1 732 24 is_stmt 0 view .LVU34
 170 00a6 0125     		movs	r5, #1
 171 00a8 0695     		str	r5, [sp, #24]
 733:Core/Src/main.c ****   GPIO_InitStruct.Pull = GPIO_NOPULL;
 172              		.loc 1 733 3 is_stmt 1 view .LVU35
 173              		.loc 1 733 24 is_stmt 0 view .LVU36
 174 00aa 0024     		movs	r4, #0
 175 00ac 0794     		str	r4, [sp, #28]
 734:Core/Src/main.c ****   GPIO_InitStruct.Speed = GPIO_SPEED_FREQ_LOW;
 176              		.loc 1 734 3 is_stmt 1 view .LVU37
 177              		.loc 1 734 25 is_stmt 0 view .LVU38
 178 00ae 0894     		str	r4, [sp, #32]
 735:Core/Src/main.c ****   HAL_GPIO_Init(GPIOC, &GPIO_InitStruct);
ARM GAS  C:\Users\57298\AppData\Local\Temp\cc5d07uv.s 			page 17


 179              		.loc 1 735 3 is_stmt 1 view .LVU39
 180 00b0 05A9     		add	r1, sp, #20
 181 00b2 5846     		mov	r0, fp
 182 00b4 FFF7FEFF 		bl	HAL_GPIO_Init
 183              	.LVL5:
 736:Core/Src/main.c **** 
 737:Core/Src/main.c ****   /*Configure GPIO pins : PA1 PA8 PA9 PA15 */
 738:Core/Src/main.c ****   GPIO_InitStruct.Pin = GPIO_PIN_1 | GPIO_PIN_8 | GPIO_PIN_9 | GPIO_PIN_15;
 184              		.loc 1 738 3 view .LVU40
 185              		.loc 1 738 23 is_stmt 0 view .LVU41
 186 00b8 5346     		mov	r3, r10
 187 00ba 0593     		str	r3, [sp, #20]
 739:Core/Src/main.c ****   GPIO_InitStruct.Mode = GPIO_MODE_OUTPUT_PP;
 188              		.loc 1 739 3 is_stmt 1 view .LVU42
 189              		.loc 1 739 24 is_stmt 0 view .LVU43
 190 00bc 0695     		str	r5, [sp, #24]
 740:Core/Src/main.c ****   GPIO_InitStruct.Pull = GPIO_NOPULL;
 191              		.loc 1 740 3 is_stmt 1 view .LVU44
 192              		.loc 1 740 24 is_stmt 0 view .LVU45
 193 00be 0794     		str	r4, [sp, #28]
 741:Core/Src/main.c ****   GPIO_InitStruct.Speed = GPIO_SPEED_FREQ_LOW;
 194              		.loc 1 741 3 is_stmt 1 view .LVU46
 195              		.loc 1 741 25 is_stmt 0 view .LVU47
 196 00c0 0894     		str	r4, [sp, #32]
 742:Core/Src/main.c ****   HAL_GPIO_Init(GPIOA, &GPIO_InitStruct);
 197              		.loc 1 742 3 is_stmt 1 view .LVU48
 198 00c2 05A9     		add	r1, sp, #20
 199 00c4 3800     		movs	r0, r7
 200 00c6 FFF7FEFF 		bl	HAL_GPIO_Init
 201              	.LVL6:
 743:Core/Src/main.c **** 
 744:Core/Src/main.c ****   /*Configure GPIO pin : PB1 */
 745:Core/Src/main.c ****   GPIO_InitStruct.Pin = GPIO_PIN_1;
 202              		.loc 1 745 3 view .LVU49
 203              		.loc 1 745 23 is_stmt 0 view .LVU50
 204 00ca 0223     		movs	r3, #2
 205 00cc 0593     		str	r3, [sp, #20]
 746:Core/Src/main.c ****   GPIO_InitStruct.Mode = GPIO_MODE_INPUT;
 206              		.loc 1 746 3 is_stmt 1 view .LVU51
 207              		.loc 1 746 24 is_stmt 0 view .LVU52
 208 00ce 0694     		str	r4, [sp, #24]
 747:Core/Src/main.c ****   GPIO_InitStruct.Pull = GPIO_NOPULL;
 209              		.loc 1 747 3 is_stmt 1 view .LVU53
 210              		.loc 1 747 24 is_stmt 0 view .LVU54
 211 00d0 0794     		str	r4, [sp, #28]
 748:Core/Src/main.c ****   HAL_GPIO_Init(GPIOB, &GPIO_InitStruct);
 212              		.loc 1 748 3 is_stmt 1 view .LVU55
 213 00d2 05A9     		add	r1, sp, #20
 214 00d4 3000     		movs	r0, r6
 215 00d6 FFF7FEFF 		bl	HAL_GPIO_Init
 216              	.LVL7:
 749:Core/Src/main.c **** 
 750:Core/Src/main.c ****   /*Configure GPIO pins : PB2 PB10 PB3 PB4
 751:Core/Src/main.c ****                            PB5 */
 752:Core/Src/main.c ****   GPIO_InitStruct.Pin = GPIO_PIN_2 | GPIO_PIN_10 | GPIO_PIN_3 | GPIO_PIN_4 | GPIO_PIN_5;
 217              		.loc 1 752 3 view .LVU56
 218              		.loc 1 752 23 is_stmt 0 view .LVU57
ARM GAS  C:\Users\57298\AppData\Local\Temp\cc5d07uv.s 			page 18


 219 00da 4B46     		mov	r3, r9
 220 00dc 0593     		str	r3, [sp, #20]
 753:Core/Src/main.c ****   GPIO_InitStruct.Mode = GPIO_MODE_OUTPUT_PP;
 221              		.loc 1 753 3 is_stmt 1 view .LVU58
 222              		.loc 1 753 24 is_stmt 0 view .LVU59
 223 00de 0695     		str	r5, [sp, #24]
 754:Core/Src/main.c ****   GPIO_InitStruct.Pull = GPIO_NOPULL;
 224              		.loc 1 754 3 is_stmt 1 view .LVU60
 225              		.loc 1 754 24 is_stmt 0 view .LVU61
 226 00e0 0794     		str	r4, [sp, #28]
 755:Core/Src/main.c ****   GPIO_InitStruct.Speed = GPIO_SPEED_FREQ_LOW;
 227              		.loc 1 755 3 is_stmt 1 view .LVU62
 228              		.loc 1 755 25 is_stmt 0 view .LVU63
 229 00e2 0894     		str	r4, [sp, #32]
 756:Core/Src/main.c ****   HAL_GPIO_Init(GPIOB, &GPIO_InitStruct);
 230              		.loc 1 756 3 is_stmt 1 view .LVU64
 231 00e4 05A9     		add	r1, sp, #20
 232 00e6 3000     		movs	r0, r6
 233 00e8 FFF7FEFF 		bl	HAL_GPIO_Init
 234              	.LVL8:
 757:Core/Src/main.c **** 
 758:Core/Src/main.c ****   /*Configure GPIO pin : PB11 */
 759:Core/Src/main.c ****   GPIO_InitStruct.Pin = GPIO_PIN_11;
 235              		.loc 1 759 3 view .LVU65
 236              		.loc 1 759 23 is_stmt 0 view .LVU66
 237 00ec 8023     		movs	r3, #128
 238 00ee 1B01     		lsls	r3, r3, #4
 239 00f0 0593     		str	r3, [sp, #20]
 760:Core/Src/main.c ****   GPIO_InitStruct.Mode = GPIO_MODE_IT_RISING;
 240              		.loc 1 760 3 is_stmt 1 view .LVU67
 241              		.loc 1 760 24 is_stmt 0 view .LVU68
 242 00f2 8823     		movs	r3, #136
 243 00f4 5B03     		lsls	r3, r3, #13
 244 00f6 0693     		str	r3, [sp, #24]
 761:Core/Src/main.c ****   GPIO_InitStruct.Pull = GPIO_NOPULL;
 245              		.loc 1 761 3 is_stmt 1 view .LVU69
 246              		.loc 1 761 24 is_stmt 0 view .LVU70
 247 00f8 0794     		str	r4, [sp, #28]
 762:Core/Src/main.c ****   HAL_GPIO_Init(GPIOB, &GPIO_InitStruct);
 248              		.loc 1 762 3 is_stmt 1 view .LVU71
 249 00fa 05A9     		add	r1, sp, #20
 250 00fc 3000     		movs	r0, r6
 251 00fe FFF7FEFF 		bl	HAL_GPIO_Init
 252              	.LVL9:
 763:Core/Src/main.c **** 
 764:Core/Src/main.c ****   /*Configure GPIO pins : PB12 PB13 PB14 PB15 */
 765:Core/Src/main.c ****   GPIO_InitStruct.Pin = GPIO_PIN_12 | GPIO_PIN_13 | GPIO_PIN_14 | GPIO_PIN_15;
 253              		.loc 1 765 3 view .LVU72
 254              		.loc 1 765 23 is_stmt 0 view .LVU73
 255 0102 F023     		movs	r3, #240
 256 0104 1B02     		lsls	r3, r3, #8
 257 0106 0593     		str	r3, [sp, #20]
 766:Core/Src/main.c ****   GPIO_InitStruct.Mode = GPIO_MODE_INPUT;
 258              		.loc 1 766 3 is_stmt 1 view .LVU74
 259              		.loc 1 766 24 is_stmt 0 view .LVU75
 260 0108 0694     		str	r4, [sp, #24]
 767:Core/Src/main.c ****   GPIO_InitStruct.Pull = GPIO_PULLUP;
ARM GAS  C:\Users\57298\AppData\Local\Temp\cc5d07uv.s 			page 19


 261              		.loc 1 767 3 is_stmt 1 view .LVU76
 262              		.loc 1 767 24 is_stmt 0 view .LVU77
 263 010a 0795     		str	r5, [sp, #28]
 768:Core/Src/main.c ****   HAL_GPIO_Init(GPIOB, &GPIO_InitStruct);
 264              		.loc 1 768 3 is_stmt 1 view .LVU78
 265 010c 05A9     		add	r1, sp, #20
 266 010e 3000     		movs	r0, r6
 267 0110 FFF7FEFF 		bl	HAL_GPIO_Init
 268              	.LVL10:
 769:Core/Src/main.c **** 
 770:Core/Src/main.c ****   /*Configure GPIO pins : PA10 PA11 PA12 */
 771:Core/Src/main.c ****   GPIO_InitStruct.Pin = GPIO_PIN_10 | GPIO_PIN_11 | GPIO_PIN_12;
 269              		.loc 1 771 3 view .LVU79
 270              		.loc 1 771 23 is_stmt 0 view .LVU80
 271 0114 E023     		movs	r3, #224
 272 0116 5B01     		lsls	r3, r3, #5
 273 0118 0593     		str	r3, [sp, #20]
 772:Core/Src/main.c ****   GPIO_InitStruct.Mode = GPIO_MODE_INPUT;
 274              		.loc 1 772 3 is_stmt 1 view .LVU81
 275              		.loc 1 772 24 is_stmt 0 view .LVU82
 276 011a 0694     		str	r4, [sp, #24]
 773:Core/Src/main.c ****   GPIO_InitStruct.Pull = GPIO_NOPULL;
 277              		.loc 1 773 3 is_stmt 1 view .LVU83
 278              		.loc 1 773 24 is_stmt 0 view .LVU84
 279 011c 0794     		str	r4, [sp, #28]
 774:Core/Src/main.c ****   HAL_GPIO_Init(GPIOA, &GPIO_InitStruct);
 280              		.loc 1 774 3 is_stmt 1 view .LVU85
 281 011e 05A9     		add	r1, sp, #20
 282 0120 3800     		movs	r0, r7
 283 0122 FFF7FEFF 		bl	HAL_GPIO_Init
 284              	.LVL11:
 775:Core/Src/main.c **** 
 776:Core/Src/main.c ****   /*Configure GPIO pins : PF6 PF7 */
 777:Core/Src/main.c ****   GPIO_InitStruct.Pin = GPIO_PIN_6 | GPIO_PIN_7;
 285              		.loc 1 777 3 view .LVU86
 286              		.loc 1 777 23 is_stmt 0 view .LVU87
 287 0126 C023     		movs	r3, #192
 288 0128 0593     		str	r3, [sp, #20]
 778:Core/Src/main.c ****   GPIO_InitStruct.Mode = GPIO_MODE_OUTPUT_PP;
 289              		.loc 1 778 3 is_stmt 1 view .LVU88
 290              		.loc 1 778 24 is_stmt 0 view .LVU89
 291 012a 0695     		str	r5, [sp, #24]
 779:Core/Src/main.c ****   GPIO_InitStruct.Pull = GPIO_PULLUP;
 292              		.loc 1 779 3 is_stmt 1 view .LVU90
 293              		.loc 1 779 24 is_stmt 0 view .LVU91
 294 012c 0795     		str	r5, [sp, #28]
 780:Core/Src/main.c ****   GPIO_InitStruct.Speed = GPIO_SPEED_FREQ_LOW;
 295              		.loc 1 780 3 is_stmt 1 view .LVU92
 296              		.loc 1 780 25 is_stmt 0 view .LVU93
 297 012e 0894     		str	r4, [sp, #32]
 781:Core/Src/main.c ****   HAL_GPIO_Init(GPIOF, &GPIO_InitStruct);
 298              		.loc 1 781 3 is_stmt 1 view .LVU94
 299 0130 05A9     		add	r1, sp, #20
 300 0132 4046     		mov	r0, r8
 301 0134 FFF7FEFF 		bl	HAL_GPIO_Init
 302              	.LVL12:
 782:Core/Src/main.c **** 
ARM GAS  C:\Users\57298\AppData\Local\Temp\cc5d07uv.s 			page 20


 783:Core/Src/main.c ****   /* USER CODE BEGIN MX_GPIO_Init_2 */
 784:Core/Src/main.c ****   /* USER CODE END MX_GPIO_Init_2 */
 785:Core/Src/main.c **** }
 303              		.loc 1 785 1 is_stmt 0 view .LVU95
 304 0138 0BB0     		add	sp, sp, #44
 305              		@ sp needed
 306 013a F0BC     		pop	{r4, r5, r6, r7}
 307 013c BB46     		mov	fp, r7
 308 013e B246     		mov	r10, r6
 309 0140 A946     		mov	r9, r5
 310 0142 A046     		mov	r8, r4
 311 0144 F0BD     		pop	{r4, r5, r6, r7, pc}
 312              	.L3:
 313 0146 C046     		.align	2
 314              	.L2:
 315 0148 00100240 		.word	1073876992
 316 014c 00080048 		.word	1207961600
 317 0150 02830000 		.word	33538
 318 0154 3C040000 		.word	1084
 319 0158 00040048 		.word	1207960576
 320 015c 00140048 		.word	1207964672
 321              		.cfi_endproc
 322              	.LFE54:
 324              		.section	.text.MX_DMA_Init,"ax",%progbits
 325              		.align	1
 326              		.syntax unified
 327              		.code	16
 328              		.thumb_func
 330              	MX_DMA_Init:
 331              	.LFB53:
 684:Core/Src/main.c **** 
 332              		.loc 1 684 1 is_stmt 1 view -0
 333              		.cfi_startproc
 334              		@ args = 0, pretend = 0, frame = 8
 335              		@ frame_needed = 0, uses_anonymous_args = 0
 336 0000 00B5     		push	{lr}
 337              	.LCFI3:
 338              		.cfi_def_cfa_offset 4
 339              		.cfi_offset 14, -4
 340 0002 83B0     		sub	sp, sp, #12
 341              	.LCFI4:
 342              		.cfi_def_cfa_offset 16
 687:Core/Src/main.c **** 
 343              		.loc 1 687 3 view .LVU97
 344              	.LBB6:
 687:Core/Src/main.c **** 
 345              		.loc 1 687 3 view .LVU98
 687:Core/Src/main.c **** 
 346              		.loc 1 687 3 view .LVU99
 347 0004 114A     		ldr	r2, .L5
 348 0006 5169     		ldr	r1, [r2, #20]
 349 0008 0123     		movs	r3, #1
 350 000a 1943     		orrs	r1, r3
 351 000c 5161     		str	r1, [r2, #20]
 687:Core/Src/main.c **** 
 352              		.loc 1 687 3 view .LVU100
 353 000e 5269     		ldr	r2, [r2, #20]
ARM GAS  C:\Users\57298\AppData\Local\Temp\cc5d07uv.s 			page 21


 354 0010 1340     		ands	r3, r2
 355 0012 0193     		str	r3, [sp, #4]
 687:Core/Src/main.c **** 
 356              		.loc 1 687 3 view .LVU101
 357 0014 019B     		ldr	r3, [sp, #4]
 358              	.LBE6:
 687:Core/Src/main.c **** 
 359              		.loc 1 687 3 view .LVU102
 691:Core/Src/main.c ****   HAL_NVIC_EnableIRQ(DMA1_Channel1_IRQn);
 360              		.loc 1 691 3 view .LVU103
 361 0016 0022     		movs	r2, #0
 362 0018 0021     		movs	r1, #0
 363 001a 0920     		movs	r0, #9
 364 001c FFF7FEFF 		bl	HAL_NVIC_SetPriority
 365              	.LVL13:
 692:Core/Src/main.c ****   /* DMA1_Channel2_3_IRQn interrupt configuration */
 366              		.loc 1 692 3 view .LVU104
 367 0020 0920     		movs	r0, #9
 368 0022 FFF7FEFF 		bl	HAL_NVIC_EnableIRQ
 369              	.LVL14:
 694:Core/Src/main.c ****   HAL_NVIC_EnableIRQ(DMA1_Channel2_3_IRQn);
 370              		.loc 1 694 3 view .LVU105
 371 0026 0022     		movs	r2, #0
 372 0028 0021     		movs	r1, #0
 373 002a 0A20     		movs	r0, #10
 374 002c FFF7FEFF 		bl	HAL_NVIC_SetPriority
 375              	.LVL15:
 695:Core/Src/main.c ****   /* DMA1_Channel4_5_IRQn interrupt configuration */
 376              		.loc 1 695 3 view .LVU106
 377 0030 0A20     		movs	r0, #10
 378 0032 FFF7FEFF 		bl	HAL_NVIC_EnableIRQ
 379              	.LVL16:
 697:Core/Src/main.c ****   HAL_NVIC_EnableIRQ(DMA1_Channel4_5_IRQn);
 380              		.loc 1 697 3 view .LVU107
 381 0036 0022     		movs	r2, #0
 382 0038 0021     		movs	r1, #0
 383 003a 0B20     		movs	r0, #11
 384 003c FFF7FEFF 		bl	HAL_NVIC_SetPriority
 385              	.LVL17:
 698:Core/Src/main.c **** }
 386              		.loc 1 698 3 view .LVU108
 387 0040 0B20     		movs	r0, #11
 388 0042 FFF7FEFF 		bl	HAL_NVIC_EnableIRQ
 389              	.LVL18:
 699:Core/Src/main.c **** 
 390              		.loc 1 699 1 is_stmt 0 view .LVU109
 391 0046 03B0     		add	sp, sp, #12
 392              		@ sp needed
 393 0048 00BD     		pop	{pc}
 394              	.L6:
 395 004a C046     		.align	2
 396              	.L5:
 397 004c 00100240 		.word	1073876992
 398              		.cfi_endproc
 399              	.LFE53:
 401              		.section	.text.MX_ADC_Init,"ax",%progbits
 402              		.align	1
ARM GAS  C:\Users\57298\AppData\Local\Temp\cc5d07uv.s 			page 22


 403              		.syntax unified
 404              		.code	16
 405              		.thumb_func
 407              	MX_ADC_Init:
 408              	.LFB48:
 474:Core/Src/main.c **** 
 409              		.loc 1 474 1 is_stmt 1 view -0
 410              		.cfi_startproc
 411              		@ args = 0, pretend = 0, frame = 16
 412              		@ frame_needed = 0, uses_anonymous_args = 0
 413 0000 30B5     		push	{r4, r5, lr}
 414              	.LCFI5:
 415              		.cfi_def_cfa_offset 12
 416              		.cfi_offset 4, -12
 417              		.cfi_offset 5, -8
 418              		.cfi_offset 14, -4
 419 0002 85B0     		sub	sp, sp, #20
 420              	.LCFI6:
 421              		.cfi_def_cfa_offset 32
 480:Core/Src/main.c **** 
 422              		.loc 1 480 3 view .LVU111
 480:Core/Src/main.c **** 
 423              		.loc 1 480 26 is_stmt 0 view .LVU112
 424 0004 0C22     		movs	r2, #12
 425 0006 0021     		movs	r1, #0
 426 0008 01A8     		add	r0, sp, #4
 427 000a FFF7FEFF 		bl	memset
 428              	.LVL19:
 488:Core/Src/main.c ****   hadc.Init.ClockPrescaler = ADC_CLOCK_ASYNC_DIV1;
 429              		.loc 1 488 3 is_stmt 1 view .LVU113
 488:Core/Src/main.c ****   hadc.Init.ClockPrescaler = ADC_CLOCK_ASYNC_DIV1;
 430              		.loc 1 488 17 is_stmt 0 view .LVU114
 431 000e 184C     		ldr	r4, .L8
 432 0010 184B     		ldr	r3, .L8+4
 433 0012 2360     		str	r3, [r4]
 489:Core/Src/main.c ****   hadc.Init.Resolution = ADC_RESOLUTION_12B;
 434              		.loc 1 489 3 is_stmt 1 view .LVU115
 489:Core/Src/main.c ****   hadc.Init.Resolution = ADC_RESOLUTION_12B;
 435              		.loc 1 489 28 is_stmt 0 view .LVU116
 436 0014 0023     		movs	r3, #0
 437 0016 6360     		str	r3, [r4, #4]
 490:Core/Src/main.c ****   hadc.Init.DataAlign = ADC_DATAALIGN_RIGHT;
 438              		.loc 1 490 3 is_stmt 1 view .LVU117
 490:Core/Src/main.c ****   hadc.Init.DataAlign = ADC_DATAALIGN_RIGHT;
 439              		.loc 1 490 24 is_stmt 0 view .LVU118
 440 0018 A360     		str	r3, [r4, #8]
 491:Core/Src/main.c ****   hadc.Init.ScanConvMode = ADC_SCAN_DIRECTION_FORWARD;
 441              		.loc 1 491 3 is_stmt 1 view .LVU119
 491:Core/Src/main.c ****   hadc.Init.ScanConvMode = ADC_SCAN_DIRECTION_FORWARD;
 442              		.loc 1 491 23 is_stmt 0 view .LVU120
 443 001a E360     		str	r3, [r4, #12]
 492:Core/Src/main.c ****   hadc.Init.EOCSelection = ADC_EOC_SINGLE_CONV;
 444              		.loc 1 492 3 is_stmt 1 view .LVU121
 492:Core/Src/main.c ****   hadc.Init.EOCSelection = ADC_EOC_SINGLE_CONV;
 445              		.loc 1 492 26 is_stmt 0 view .LVU122
 446 001c 0125     		movs	r5, #1
 447 001e 2561     		str	r5, [r4, #16]
ARM GAS  C:\Users\57298\AppData\Local\Temp\cc5d07uv.s 			page 23


 493:Core/Src/main.c ****   hadc.Init.LowPowerAutoWait = DISABLE;
 448              		.loc 1 493 3 is_stmt 1 view .LVU123
 493:Core/Src/main.c ****   hadc.Init.LowPowerAutoWait = DISABLE;
 449              		.loc 1 493 26 is_stmt 0 view .LVU124
 450 0020 0422     		movs	r2, #4
 451 0022 6261     		str	r2, [r4, #20]
 494:Core/Src/main.c ****   hadc.Init.LowPowerAutoPowerOff = DISABLE;
 452              		.loc 1 494 3 is_stmt 1 view .LVU125
 494:Core/Src/main.c ****   hadc.Init.LowPowerAutoPowerOff = DISABLE;
 453              		.loc 1 494 30 is_stmt 0 view .LVU126
 454 0024 2376     		strb	r3, [r4, #24]
 495:Core/Src/main.c ****   hadc.Init.ContinuousConvMode = ENABLE;
 455              		.loc 1 495 3 is_stmt 1 view .LVU127
 495:Core/Src/main.c ****   hadc.Init.ContinuousConvMode = ENABLE;
 456              		.loc 1 495 34 is_stmt 0 view .LVU128
 457 0026 6376     		strb	r3, [r4, #25]
 496:Core/Src/main.c ****   hadc.Init.DiscontinuousConvMode = DISABLE;
 458              		.loc 1 496 3 is_stmt 1 view .LVU129
 496:Core/Src/main.c ****   hadc.Init.DiscontinuousConvMode = DISABLE;
 459              		.loc 1 496 32 is_stmt 0 view .LVU130
 460 0028 A576     		strb	r5, [r4, #26]
 497:Core/Src/main.c ****   hadc.Init.ExternalTrigConv = ADC_SOFTWARE_START;
 461              		.loc 1 497 3 is_stmt 1 view .LVU131
 497:Core/Src/main.c ****   hadc.Init.ExternalTrigConv = ADC_SOFTWARE_START;
 462              		.loc 1 497 35 is_stmt 0 view .LVU132
 463 002a E376     		strb	r3, [r4, #27]
 498:Core/Src/main.c ****   hadc.Init.ExternalTrigConvEdge = ADC_EXTERNALTRIGCONVEDGE_NONE;
 464              		.loc 1 498 3 is_stmt 1 view .LVU133
 498:Core/Src/main.c ****   hadc.Init.ExternalTrigConvEdge = ADC_EXTERNALTRIGCONVEDGE_NONE;
 465              		.loc 1 498 30 is_stmt 0 view .LVU134
 466 002c C222     		movs	r2, #194
 467 002e FF32     		adds	r2, r2, #255
 468 0030 E261     		str	r2, [r4, #28]
 499:Core/Src/main.c ****   hadc.Init.DMAContinuousRequests = ENABLE;
 469              		.loc 1 499 3 is_stmt 1 view .LVU135
 499:Core/Src/main.c ****   hadc.Init.DMAContinuousRequests = ENABLE;
 470              		.loc 1 499 34 is_stmt 0 view .LVU136
 471 0032 2362     		str	r3, [r4, #32]
 500:Core/Src/main.c ****   hadc.Init.Overrun = ADC_OVR_DATA_PRESERVED;
 472              		.loc 1 500 3 is_stmt 1 view .LVU137
 500:Core/Src/main.c ****   hadc.Init.Overrun = ADC_OVR_DATA_PRESERVED;
 473              		.loc 1 500 35 is_stmt 0 view .LVU138
 474 0034 2433     		adds	r3, r3, #36
 475 0036 E554     		strb	r5, [r4, r3]
 501:Core/Src/main.c ****   if (HAL_ADC_Init(&hadc) != HAL_OK)
 476              		.loc 1 501 3 is_stmt 1 view .LVU139
 501:Core/Src/main.c ****   if (HAL_ADC_Init(&hadc) != HAL_OK)
 477              		.loc 1 501 21 is_stmt 0 view .LVU140
 478 0038 A562     		str	r5, [r4, #40]
 502:Core/Src/main.c ****   {
 479              		.loc 1 502 3 is_stmt 1 view .LVU141
 502:Core/Src/main.c ****   {
 480              		.loc 1 502 7 is_stmt 0 view .LVU142
 481 003a 2000     		movs	r0, r4
 482 003c FFF7FEFF 		bl	HAL_ADC_Init
 483              	.LVL20:
 509:Core/Src/main.c ****   sConfig.Rank = ADC_RANK_CHANNEL_NUMBER;
ARM GAS  C:\Users\57298\AppData\Local\Temp\cc5d07uv.s 			page 24


 484              		.loc 1 509 3 is_stmt 1 view .LVU143
 509:Core/Src/main.c ****   sConfig.Rank = ADC_RANK_CHANNEL_NUMBER;
 485              		.loc 1 509 19 is_stmt 0 view .LVU144
 486 0040 0523     		movs	r3, #5
 487 0042 0193     		str	r3, [sp, #4]
 510:Core/Src/main.c ****   sConfig.SamplingTime = ADC_SAMPLETIME_7CYCLES_5;
 488              		.loc 1 510 3 is_stmt 1 view .LVU145
 510:Core/Src/main.c ****   sConfig.SamplingTime = ADC_SAMPLETIME_7CYCLES_5;
 489              		.loc 1 510 16 is_stmt 0 view .LVU146
 490 0044 8023     		movs	r3, #128
 491 0046 5B01     		lsls	r3, r3, #5
 492 0048 0293     		str	r3, [sp, #8]
 511:Core/Src/main.c ****   if (HAL_ADC_ConfigChannel(&hadc, &sConfig) != HAL_OK)
 493              		.loc 1 511 3 is_stmt 1 view .LVU147
 511:Core/Src/main.c ****   if (HAL_ADC_ConfigChannel(&hadc, &sConfig) != HAL_OK)
 494              		.loc 1 511 24 is_stmt 0 view .LVU148
 495 004a 0395     		str	r5, [sp, #12]
 512:Core/Src/main.c ****   {
 496              		.loc 1 512 3 is_stmt 1 view .LVU149
 512:Core/Src/main.c ****   {
 497              		.loc 1 512 7 is_stmt 0 view .LVU150
 498 004c 01A9     		add	r1, sp, #4
 499 004e 2000     		movs	r0, r4
 500 0050 FFF7FEFF 		bl	HAL_ADC_ConfigChannel
 501              	.LVL21:
 519:Core/Src/main.c ****   if (HAL_ADC_ConfigChannel(&hadc, &sConfig) != HAL_OK)
 502              		.loc 1 519 3 is_stmt 1 view .LVU151
 519:Core/Src/main.c ****   if (HAL_ADC_ConfigChannel(&hadc, &sConfig) != HAL_OK)
 503              		.loc 1 519 19 is_stmt 0 view .LVU152
 504 0054 0623     		movs	r3, #6
 505 0056 0193     		str	r3, [sp, #4]
 520:Core/Src/main.c ****   {
 506              		.loc 1 520 3 is_stmt 1 view .LVU153
 520:Core/Src/main.c ****   {
 507              		.loc 1 520 7 is_stmt 0 view .LVU154
 508 0058 01A9     		add	r1, sp, #4
 509 005a 2000     		movs	r0, r4
 510 005c FFF7FEFF 		bl	HAL_ADC_ConfigChannel
 511              	.LVL22:
 527:Core/Src/main.c ****   if (HAL_ADC_ConfigChannel(&hadc, &sConfig) != HAL_OK)
 512              		.loc 1 527 3 is_stmt 1 view .LVU155
 527:Core/Src/main.c ****   if (HAL_ADC_ConfigChannel(&hadc, &sConfig) != HAL_OK)
 513              		.loc 1 527 19 is_stmt 0 view .LVU156
 514 0060 0723     		movs	r3, #7
 515 0062 0193     		str	r3, [sp, #4]
 528:Core/Src/main.c ****   {
 516              		.loc 1 528 3 is_stmt 1 view .LVU157
 528:Core/Src/main.c ****   {
 517              		.loc 1 528 7 is_stmt 0 view .LVU158
 518 0064 01A9     		add	r1, sp, #4
 519 0066 2000     		movs	r0, r4
 520 0068 FFF7FEFF 		bl	HAL_ADC_ConfigChannel
 521              	.LVL23:
 535:Core/Src/main.c **** 
 522              		.loc 1 535 1 view .LVU159
 523 006c 05B0     		add	sp, sp, #20
 524              		@ sp needed
ARM GAS  C:\Users\57298\AppData\Local\Temp\cc5d07uv.s 			page 25


 525 006e 30BD     		pop	{r4, r5, pc}
 526              	.L9:
 527              		.align	2
 528              	.L8:
 529 0070 00000000 		.word	.LANCHOR0
 530 0074 00240140 		.word	1073816576
 531              		.cfi_endproc
 532              	.LFE48:
 534              		.section	.text.MX_I2C1_Init,"ax",%progbits
 535              		.align	1
 536              		.syntax unified
 537              		.code	16
 538              		.thumb_func
 540              	MX_I2C1_Init:
 541              	.LFB49:
 543:Core/Src/main.c **** 
 542              		.loc 1 543 1 is_stmt 1 view -0
 543              		.cfi_startproc
 544              		@ args = 0, pretend = 0, frame = 0
 545              		@ frame_needed = 0, uses_anonymous_args = 0
 546 0000 10B5     		push	{r4, lr}
 547              	.LCFI7:
 548              		.cfi_def_cfa_offset 8
 549              		.cfi_offset 4, -8
 550              		.cfi_offset 14, -4
 552:Core/Src/main.c ****   hi2c1.Init.Timing = 0x00808CD2;
 551              		.loc 1 552 3 view .LVU161
 552:Core/Src/main.c ****   hi2c1.Init.Timing = 0x00808CD2;
 552              		.loc 1 552 18 is_stmt 0 view .LVU162
 553 0002 0D4C     		ldr	r4, .L11
 554 0004 0D4B     		ldr	r3, .L11+4
 555 0006 2360     		str	r3, [r4]
 553:Core/Src/main.c ****   hi2c1.Init.OwnAddress1 = 0;
 556              		.loc 1 553 3 is_stmt 1 view .LVU163
 553:Core/Src/main.c ****   hi2c1.Init.OwnAddress1 = 0;
 557              		.loc 1 553 21 is_stmt 0 view .LVU164
 558 0008 0D4B     		ldr	r3, .L11+8
 559 000a 6360     		str	r3, [r4, #4]
 554:Core/Src/main.c ****   hi2c1.Init.AddressingMode = I2C_ADDRESSINGMODE_7BIT;
 560              		.loc 1 554 3 is_stmt 1 view .LVU165
 554:Core/Src/main.c ****   hi2c1.Init.AddressingMode = I2C_ADDRESSINGMODE_7BIT;
 561              		.loc 1 554 26 is_stmt 0 view .LVU166
 562 000c 0023     		movs	r3, #0
 563 000e A360     		str	r3, [r4, #8]
 555:Core/Src/main.c ****   hi2c1.Init.DualAddressMode = I2C_DUALADDRESS_DISABLE;
 564              		.loc 1 555 3 is_stmt 1 view .LVU167
 555:Core/Src/main.c ****   hi2c1.Init.DualAddressMode = I2C_DUALADDRESS_DISABLE;
 565              		.loc 1 555 29 is_stmt 0 view .LVU168
 566 0010 0122     		movs	r2, #1
 567 0012 E260     		str	r2, [r4, #12]
 556:Core/Src/main.c ****   hi2c1.Init.OwnAddress2 = 0;
 568              		.loc 1 556 3 is_stmt 1 view .LVU169
 556:Core/Src/main.c ****   hi2c1.Init.OwnAddress2 = 0;
 569              		.loc 1 556 30 is_stmt 0 view .LVU170
 570 0014 2361     		str	r3, [r4, #16]
 557:Core/Src/main.c ****   hi2c1.Init.OwnAddress2Masks = I2C_OA2_NOMASK;
 571              		.loc 1 557 3 is_stmt 1 view .LVU171
ARM GAS  C:\Users\57298\AppData\Local\Temp\cc5d07uv.s 			page 26


 557:Core/Src/main.c ****   hi2c1.Init.OwnAddress2Masks = I2C_OA2_NOMASK;
 572              		.loc 1 557 26 is_stmt 0 view .LVU172
 573 0016 6361     		str	r3, [r4, #20]
 558:Core/Src/main.c ****   hi2c1.Init.GeneralCallMode = I2C_GENERALCALL_DISABLE;
 574              		.loc 1 558 3 is_stmt 1 view .LVU173
 558:Core/Src/main.c ****   hi2c1.Init.GeneralCallMode = I2C_GENERALCALL_DISABLE;
 575              		.loc 1 558 31 is_stmt 0 view .LVU174
 576 0018 A361     		str	r3, [r4, #24]
 559:Core/Src/main.c ****   hi2c1.Init.NoStretchMode = I2C_NOSTRETCH_DISABLE;
 577              		.loc 1 559 3 is_stmt 1 view .LVU175
 559:Core/Src/main.c ****   hi2c1.Init.NoStretchMode = I2C_NOSTRETCH_DISABLE;
 578              		.loc 1 559 30 is_stmt 0 view .LVU176
 579 001a E361     		str	r3, [r4, #28]
 560:Core/Src/main.c ****   if (HAL_I2C_Init(&hi2c1) != HAL_OK)
 580              		.loc 1 560 3 is_stmt 1 view .LVU177
 560:Core/Src/main.c ****   if (HAL_I2C_Init(&hi2c1) != HAL_OK)
 581              		.loc 1 560 28 is_stmt 0 view .LVU178
 582 001c 2362     		str	r3, [r4, #32]
 561:Core/Src/main.c ****   {
 583              		.loc 1 561 3 is_stmt 1 view .LVU179
 561:Core/Src/main.c ****   {
 584              		.loc 1 561 7 is_stmt 0 view .LVU180
 585 001e 2000     		movs	r0, r4
 586 0020 FFF7FEFF 		bl	HAL_I2C_Init
 587              	.LVL24:
 568:Core/Src/main.c ****   {
 588              		.loc 1 568 3 is_stmt 1 view .LVU181
 568:Core/Src/main.c ****   {
 589              		.loc 1 568 7 is_stmt 0 view .LVU182
 590 0024 0021     		movs	r1, #0
 591 0026 2000     		movs	r0, r4
 592 0028 FFF7FEFF 		bl	HAL_I2CEx_ConfigAnalogFilter
 593              	.LVL25:
 575:Core/Src/main.c ****   {
 594              		.loc 1 575 3 is_stmt 1 view .LVU183
 575:Core/Src/main.c ****   {
 595              		.loc 1 575 7 is_stmt 0 view .LVU184
 596 002c 0021     		movs	r1, #0
 597 002e 2000     		movs	r0, r4
 598 0030 FFF7FEFF 		bl	HAL_I2CEx_ConfigDigitalFilter
 599              	.LVL26:
 582:Core/Src/main.c **** 
 600              		.loc 1 582 1 view .LVU185
 601              		@ sp needed
 602 0034 10BD     		pop	{r4, pc}
 603              	.L12:
 604 0036 C046     		.align	2
 605              	.L11:
 606 0038 00000000 		.word	.LANCHOR1
 607 003c 00540040 		.word	1073763328
 608 0040 D28C8000 		.word	8424658
 609              		.cfi_endproc
 610              	.LFE49:
 612              		.section	.text.MX_USART1_UART_Init,"ax",%progbits
 613              		.align	1
 614              		.syntax unified
 615              		.code	16
ARM GAS  C:\Users\57298\AppData\Local\Temp\cc5d07uv.s 			page 27


 616              		.thumb_func
 618              	MX_USART1_UART_Init:
 619              	.LFB51:
 618:Core/Src/main.c **** 
 620              		.loc 1 618 1 is_stmt 1 view -0
 621              		.cfi_startproc
 622              		@ args = 0, pretend = 0, frame = 0
 623              		@ frame_needed = 0, uses_anonymous_args = 0
 624 0000 10B5     		push	{r4, lr}
 625              	.LCFI8:
 626              		.cfi_def_cfa_offset 8
 627              		.cfi_offset 4, -8
 628              		.cfi_offset 14, -4
 627:Core/Src/main.c ****   huart1.Init.BaudRate = 9600;
 629              		.loc 1 627 3 view .LVU187
 627:Core/Src/main.c ****   huart1.Init.BaudRate = 9600;
 630              		.loc 1 627 19 is_stmt 0 view .LVU188
 631 0002 0948     		ldr	r0, .L14
 632 0004 094B     		ldr	r3, .L14+4
 633 0006 0360     		str	r3, [r0]
 628:Core/Src/main.c ****   huart1.Init.WordLength = UART_WORDLENGTH_8B;
 634              		.loc 1 628 3 is_stmt 1 view .LVU189
 628:Core/Src/main.c ****   huart1.Init.WordLength = UART_WORDLENGTH_8B;
 635              		.loc 1 628 24 is_stmt 0 view .LVU190
 636 0008 9623     		movs	r3, #150
 637 000a 9B01     		lsls	r3, r3, #6
 638 000c 4360     		str	r3, [r0, #4]
 629:Core/Src/main.c ****   huart1.Init.StopBits = UART_STOPBITS_1;
 639              		.loc 1 629 3 is_stmt 1 view .LVU191
 629:Core/Src/main.c ****   huart1.Init.StopBits = UART_STOPBITS_1;
 640              		.loc 1 629 26 is_stmt 0 view .LVU192
 641 000e 0023     		movs	r3, #0
 642 0010 8360     		str	r3, [r0, #8]
 630:Core/Src/main.c ****   huart1.Init.Parity = UART_PARITY_NONE;
 643              		.loc 1 630 3 is_stmt 1 view .LVU193
 630:Core/Src/main.c ****   huart1.Init.Parity = UART_PARITY_NONE;
 644              		.loc 1 630 24 is_stmt 0 view .LVU194
 645 0012 C360     		str	r3, [r0, #12]
 631:Core/Src/main.c ****   huart1.Init.Mode = UART_MODE_TX_RX;
 646              		.loc 1 631 3 is_stmt 1 view .LVU195
 631:Core/Src/main.c ****   huart1.Init.Mode = UART_MODE_TX_RX;
 647              		.loc 1 631 22 is_stmt 0 view .LVU196
 648 0014 0361     		str	r3, [r0, #16]
 632:Core/Src/main.c ****   huart1.Init.HwFlowCtl = UART_HWCONTROL_NONE;
 649              		.loc 1 632 3 is_stmt 1 view .LVU197
 632:Core/Src/main.c ****   huart1.Init.HwFlowCtl = UART_HWCONTROL_NONE;
 650              		.loc 1 632 20 is_stmt 0 view .LVU198
 651 0016 0C22     		movs	r2, #12
 652 0018 4261     		str	r2, [r0, #20]
 633:Core/Src/main.c ****   huart1.Init.OverSampling = UART_OVERSAMPLING_16;
 653              		.loc 1 633 3 is_stmt 1 view .LVU199
 633:Core/Src/main.c ****   huart1.Init.OverSampling = UART_OVERSAMPLING_16;
 654              		.loc 1 633 25 is_stmt 0 view .LVU200
 655 001a 8361     		str	r3, [r0, #24]
 634:Core/Src/main.c ****   huart1.Init.OneBitSampling = UART_ONE_BIT_SAMPLE_DISABLE;
 656              		.loc 1 634 3 is_stmt 1 view .LVU201
 634:Core/Src/main.c ****   huart1.Init.OneBitSampling = UART_ONE_BIT_SAMPLE_DISABLE;
ARM GAS  C:\Users\57298\AppData\Local\Temp\cc5d07uv.s 			page 28


 657              		.loc 1 634 28 is_stmt 0 view .LVU202
 658 001c C361     		str	r3, [r0, #28]
 635:Core/Src/main.c ****   huart1.AdvancedInit.AdvFeatureInit = UART_ADVFEATURE_NO_INIT;
 659              		.loc 1 635 3 is_stmt 1 view .LVU203
 635:Core/Src/main.c ****   huart1.AdvancedInit.AdvFeatureInit = UART_ADVFEATURE_NO_INIT;
 660              		.loc 1 635 30 is_stmt 0 view .LVU204
 661 001e 0362     		str	r3, [r0, #32]
 636:Core/Src/main.c ****   if (HAL_UART_Init(&huart1) != HAL_OK)
 662              		.loc 1 636 3 is_stmt 1 view .LVU205
 636:Core/Src/main.c ****   if (HAL_UART_Init(&huart1) != HAL_OK)
 663              		.loc 1 636 38 is_stmt 0 view .LVU206
 664 0020 4362     		str	r3, [r0, #36]
 637:Core/Src/main.c ****   {
 665              		.loc 1 637 3 is_stmt 1 view .LVU207
 637:Core/Src/main.c ****   {
 666              		.loc 1 637 7 is_stmt 0 view .LVU208
 667 0022 FFF7FEFF 		bl	HAL_UART_Init
 668              	.LVL27:
 644:Core/Src/main.c **** 
 669              		.loc 1 644 1 view .LVU209
 670              		@ sp needed
 671 0026 10BD     		pop	{r4, pc}
 672              	.L15:
 673              		.align	2
 674              	.L14:
 675 0028 00000000 		.word	huart1
 676 002c 00380140 		.word	1073821696
 677              		.cfi_endproc
 678              	.LFE51:
 680              		.section	.text.MX_USART2_UART_Init,"ax",%progbits
 681              		.align	1
 682              		.syntax unified
 683              		.code	16
 684              		.thumb_func
 686              	MX_USART2_UART_Init:
 687              	.LFB52:
 652:Core/Src/main.c **** 
 688              		.loc 1 652 1 is_stmt 1 view -0
 689              		.cfi_startproc
 690              		@ args = 0, pretend = 0, frame = 0
 691              		@ frame_needed = 0, uses_anonymous_args = 0
 692 0000 10B5     		push	{r4, lr}
 693              	.LCFI9:
 694              		.cfi_def_cfa_offset 8
 695              		.cfi_offset 4, -8
 696              		.cfi_offset 14, -4
 661:Core/Src/main.c ****   huart2.Init.BaudRate = 9600;
 697              		.loc 1 661 3 view .LVU211
 661:Core/Src/main.c ****   huart2.Init.BaudRate = 9600;
 698              		.loc 1 661 19 is_stmt 0 view .LVU212
 699 0002 0948     		ldr	r0, .L17
 700 0004 094B     		ldr	r3, .L17+4
 701 0006 0360     		str	r3, [r0]
 662:Core/Src/main.c ****   huart2.Init.WordLength = UART_WORDLENGTH_8B;
 702              		.loc 1 662 3 is_stmt 1 view .LVU213
 662:Core/Src/main.c ****   huart2.Init.WordLength = UART_WORDLENGTH_8B;
 703              		.loc 1 662 24 is_stmt 0 view .LVU214
ARM GAS  C:\Users\57298\AppData\Local\Temp\cc5d07uv.s 			page 29


 704 0008 9623     		movs	r3, #150
 705 000a 9B01     		lsls	r3, r3, #6
 706 000c 4360     		str	r3, [r0, #4]
 663:Core/Src/main.c ****   huart2.Init.StopBits = UART_STOPBITS_1;
 707              		.loc 1 663 3 is_stmt 1 view .LVU215
 663:Core/Src/main.c ****   huart2.Init.StopBits = UART_STOPBITS_1;
 708              		.loc 1 663 26 is_stmt 0 view .LVU216
 709 000e 0023     		movs	r3, #0
 710 0010 8360     		str	r3, [r0, #8]
 664:Core/Src/main.c ****   huart2.Init.Parity = UART_PARITY_NONE;
 711              		.loc 1 664 3 is_stmt 1 view .LVU217
 664:Core/Src/main.c ****   huart2.Init.Parity = UART_PARITY_NONE;
 712              		.loc 1 664 24 is_stmt 0 view .LVU218
 713 0012 C360     		str	r3, [r0, #12]
 665:Core/Src/main.c ****   huart2.Init.Mode = UART_MODE_TX_RX;
 714              		.loc 1 665 3 is_stmt 1 view .LVU219
 665:Core/Src/main.c ****   huart2.Init.Mode = UART_MODE_TX_RX;
 715              		.loc 1 665 22 is_stmt 0 view .LVU220
 716 0014 0361     		str	r3, [r0, #16]
 666:Core/Src/main.c ****   huart2.Init.HwFlowCtl = UART_HWCONTROL_NONE;
 717              		.loc 1 666 3 is_stmt 1 view .LVU221
 666:Core/Src/main.c ****   huart2.Init.HwFlowCtl = UART_HWCONTROL_NONE;
 718              		.loc 1 666 20 is_stmt 0 view .LVU222
 719 0016 0C22     		movs	r2, #12
 720 0018 4261     		str	r2, [r0, #20]
 667:Core/Src/main.c ****   huart2.Init.OverSampling = UART_OVERSAMPLING_16;
 721              		.loc 1 667 3 is_stmt 1 view .LVU223
 667:Core/Src/main.c ****   huart2.Init.OverSampling = UART_OVERSAMPLING_16;
 722              		.loc 1 667 25 is_stmt 0 view .LVU224
 723 001a 8361     		str	r3, [r0, #24]
 668:Core/Src/main.c ****   huart2.Init.OneBitSampling = UART_ONE_BIT_SAMPLE_DISABLE;
 724              		.loc 1 668 3 is_stmt 1 view .LVU225
 668:Core/Src/main.c ****   huart2.Init.OneBitSampling = UART_ONE_BIT_SAMPLE_DISABLE;
 725              		.loc 1 668 28 is_stmt 0 view .LVU226
 726 001c C361     		str	r3, [r0, #28]
 669:Core/Src/main.c ****   huart2.AdvancedInit.AdvFeatureInit = UART_ADVFEATURE_NO_INIT;
 727              		.loc 1 669 3 is_stmt 1 view .LVU227
 669:Core/Src/main.c ****   huart2.AdvancedInit.AdvFeatureInit = UART_ADVFEATURE_NO_INIT;
 728              		.loc 1 669 30 is_stmt 0 view .LVU228
 729 001e 0362     		str	r3, [r0, #32]
 670:Core/Src/main.c ****   if (HAL_UART_Init(&huart2) != HAL_OK)
 730              		.loc 1 670 3 is_stmt 1 view .LVU229
 670:Core/Src/main.c ****   if (HAL_UART_Init(&huart2) != HAL_OK)
 731              		.loc 1 670 38 is_stmt 0 view .LVU230
 732 0020 4362     		str	r3, [r0, #36]
 671:Core/Src/main.c ****   {
 733              		.loc 1 671 3 is_stmt 1 view .LVU231
 671:Core/Src/main.c ****   {
 734              		.loc 1 671 7 is_stmt 0 view .LVU232
 735 0022 FFF7FEFF 		bl	HAL_UART_Init
 736              	.LVL28:
 678:Core/Src/main.c **** 
 737              		.loc 1 678 1 view .LVU233
 738              		@ sp needed
 739 0026 10BD     		pop	{r4, pc}
 740              	.L18:
 741              		.align	2
ARM GAS  C:\Users\57298\AppData\Local\Temp\cc5d07uv.s 			page 30


 742              	.L17:
 743 0028 00000000 		.word	huart2
 744 002c 00440040 		.word	1073759232
 745              		.cfi_endproc
 746              	.LFE52:
 748              		.section	.text.CRC16x,"ax",%progbits
 749              		.align	1
 750              		.global	CRC16x
 751              		.syntax unified
 752              		.code	16
 753              		.thumb_func
 755              	CRC16x:
 756              	.LVL29:
 757              	.LFB43:
 177:Core/Src/main.c ****   unsigned char ucCRCHi = 0xFF;
 758              		.loc 1 177 1 is_stmt 1 view -0
 759              		.cfi_startproc
 760              		@ args = 0, pretend = 0, frame = 0
 761              		@ frame_needed = 0, uses_anonymous_args = 0
 177:Core/Src/main.c ****   unsigned char ucCRCHi = 0xFF;
 762              		.loc 1 177 1 is_stmt 0 view .LVU235
 763 0000 30B5     		push	{r4, r5, lr}
 764              	.LCFI10:
 765              		.cfi_def_cfa_offset 12
 766              		.cfi_offset 4, -12
 767              		.cfi_offset 5, -8
 768              		.cfi_offset 14, -4
 178:Core/Src/main.c ****   unsigned char ucCRCLo = 0xFF;
 769              		.loc 1 178 3 is_stmt 1 view .LVU236
 770              	.LVL30:
 179:Core/Src/main.c ****   int iIndex;
 771              		.loc 1 179 3 view .LVU237
 180:Core/Src/main.c **** 
 772              		.loc 1 180 3 view .LVU238
 182:Core/Src/main.c ****   {
 773              		.loc 1 182 3 view .LVU239
 179:Core/Src/main.c ****   int iIndex;
 774              		.loc 1 179 17 is_stmt 0 view .LVU240
 775 0002 FF24     		movs	r4, #255
 178:Core/Src/main.c ****   unsigned char ucCRCLo = 0xFF;
 776              		.loc 1 178 17 view .LVU241
 777 0004 FF25     		movs	r5, #255
 182:Core/Src/main.c ****   {
 778              		.loc 1 182 9 view .LVU242
 779 0006 08E0     		b	.L20
 780              	.LVL31:
 781              	.L21:
 184:Core/Src/main.c ****     ucCRCLo = (unsigned char)(ucCRCHi ^ aucCRCHi[iIndex]);
 782              		.loc 1 184 5 is_stmt 1 view .LVU243
 184:Core/Src/main.c ****     ucCRCLo = (unsigned char)(ucCRCHi ^ aucCRCHi[iIndex]);
 783              		.loc 1 184 24 is_stmt 0 view .LVU244
 784 0008 0378     		ldrb	r3, [r0]
 184:Core/Src/main.c ****     ucCRCLo = (unsigned char)(ucCRCHi ^ aucCRCHi[iIndex]);
 785              		.loc 1 184 22 view .LVU245
 786 000a 6340     		eors	r3, r4
 787              	.LVL32:
 185:Core/Src/main.c ****     ucCRCHi = aucCRCLo[iIndex];
ARM GAS  C:\Users\57298\AppData\Local\Temp\cc5d07uv.s 			page 31


 788              		.loc 1 185 5 is_stmt 1 view .LVU246
 185:Core/Src/main.c ****     ucCRCHi = aucCRCLo[iIndex];
 789              		.loc 1 185 49 is_stmt 0 view .LVU247
 790 000c 0749     		ldr	r1, .L22
 791 000e CC5C     		ldrb	r4, [r1, r3]
 792              	.LVL33:
 185:Core/Src/main.c ****     ucCRCHi = aucCRCLo[iIndex];
 793              		.loc 1 185 13 view .LVU248
 794 0010 6C40     		eors	r4, r5
 795              	.LVL34:
 186:Core/Src/main.c ****   }
 796              		.loc 1 186 5 is_stmt 1 view .LVU249
 186:Core/Src/main.c ****   }
 797              		.loc 1 186 13 is_stmt 0 view .LVU250
 798 0012 0749     		ldr	r1, .L22+4
 799 0014 CD5C     		ldrb	r5, [r1, r3]
 800              	.LVL35:
 182:Core/Src/main.c ****   {
 801              		.loc 1 182 15 view .LVU251
 802 0016 1100     		movs	r1, r2
 184:Core/Src/main.c ****     ucCRCLo = (unsigned char)(ucCRCHi ^ aucCRCHi[iIndex]);
 803              		.loc 1 184 34 view .LVU252
 804 0018 0130     		adds	r0, r0, #1
 805              	.LVL36:
 806              	.L20:
 182:Core/Src/main.c ****   {
 807              		.loc 1 182 9 is_stmt 1 view .LVU253
 182:Core/Src/main.c ****   {
 808              		.loc 1 182 15 is_stmt 0 view .LVU254
 809 001a 4A1E     		subs	r2, r1, #1
 810 001c 92B2     		uxth	r2, r2
 811              	.LVL37:
 182:Core/Src/main.c ****   {
 812              		.loc 1 182 9 view .LVU255
 813 001e 0029     		cmp	r1, #0
 814 0020 F2D1     		bne	.L21
 188:Core/Src/main.c **** }
 815              		.loc 1 188 3 is_stmt 1 view .LVU256
 188:Core/Src/main.c **** }
 816              		.loc 1 188 35 is_stmt 0 view .LVU257
 817 0022 2802     		lsls	r0, r5, #8
 818              	.LVL38:
 188:Core/Src/main.c **** }
 819              		.loc 1 188 40 view .LVU258
 820 0024 2043     		orrs	r0, r4
 188:Core/Src/main.c **** }
 821              		.loc 1 188 10 view .LVU259
 822 0026 80B2     		uxth	r0, r0
 189:Core/Src/main.c **** void LoadReadData(void)
 823              		.loc 1 189 1 view .LVU260
 824              		@ sp needed
 825              	.LVL39:
 826              	.LVL40:
 189:Core/Src/main.c **** void LoadReadData(void)
 827              		.loc 1 189 1 view .LVU261
 828 0028 30BD     		pop	{r4, r5, pc}
 829              	.L23:
ARM GAS  C:\Users\57298\AppData\Local\Temp\cc5d07uv.s 			page 32


 830 002a C046     		.align	2
 831              	.L22:
 832 002c 00000000 		.word	aucCRCHi
 833 0030 00000000 		.word	aucCRCLo
 834              		.cfi_endproc
 835              	.LFE43:
 837              		.global	__aeabi_f2iz
 838              		.section	.text.LoadReadData,"ax",%progbits
 839              		.align	1
 840              		.global	LoadReadData
 841              		.syntax unified
 842              		.code	16
 843              		.thumb_func
 845              	LoadReadData:
 846              	.LFB44:
 191:Core/Src/main.c ****   sRundata.Ta = Ta; // 三个温度
 847              		.loc 1 191 1 is_stmt 1 view -0
 848              		.cfi_startproc
 849              		@ args = 0, pretend = 0, frame = 0
 850              		@ frame_needed = 0, uses_anonymous_args = 0
 851 0000 10B5     		push	{r4, lr}
 852              	.LCFI11:
 853              		.cfi_def_cfa_offset 8
 854              		.cfi_offset 4, -8
 855              		.cfi_offset 14, -4
 192:Core/Src/main.c ****   sRundata.Tb = Tb;
 856              		.loc 1 192 3 view .LVU263
 192:Core/Src/main.c ****   sRundata.Tb = Tb;
 857              		.loc 1 192 15 is_stmt 0 view .LVU264
 858 0002 404C     		ldr	r4, .L27
 859 0004 404B     		ldr	r3, .L27+4
 860 0006 1B68     		ldr	r3, [r3]
 861 0008 2360     		str	r3, [r4]
 193:Core/Src/main.c ****   sRundata.Tc = Tc;
 862              		.loc 1 193 3 is_stmt 1 view .LVU265
 193:Core/Src/main.c ****   sRundata.Tc = Tc;
 863              		.loc 1 193 15 is_stmt 0 view .LVU266
 864 000a 404B     		ldr	r3, .L27+8
 865 000c 1B68     		ldr	r3, [r3]
 866 000e 6360     		str	r3, [r4, #4]
 194:Core/Src/main.c ****   sRundata.pTa = pTa; // 断电前三个温度
 867              		.loc 1 194 3 is_stmt 1 view .LVU267
 194:Core/Src/main.c ****   sRundata.pTa = pTa; // 断电前三个温度
 868              		.loc 1 194 15 is_stmt 0 view .LVU268
 869 0010 3F4B     		ldr	r3, .L27+12
 870 0012 1B68     		ldr	r3, [r3]
 871 0014 A360     		str	r3, [r4, #8]
 195:Core/Src/main.c ****   sRundata.pTb = pTb;
 872              		.loc 1 195 3 is_stmt 1 view .LVU269
 195:Core/Src/main.c ****   sRundata.pTb = pTb;
 873              		.loc 1 195 16 is_stmt 0 view .LVU270
 874 0016 3F4B     		ldr	r3, .L27+16
 875 0018 1B68     		ldr	r3, [r3]
 876 001a E360     		str	r3, [r4, #12]
 196:Core/Src/main.c ****   sRundata.pTc = pTc;
 877              		.loc 1 196 3 is_stmt 1 view .LVU271
 196:Core/Src/main.c ****   sRundata.pTc = pTc;
ARM GAS  C:\Users\57298\AppData\Local\Temp\cc5d07uv.s 			page 33


 878              		.loc 1 196 16 is_stmt 0 view .LVU272
 879 001c 3E4B     		ldr	r3, .L27+20
 880 001e 1B68     		ldr	r3, [r3]
 881 0020 2361     		str	r3, [r4, #16]
 197:Core/Src/main.c **** 
 882              		.loc 1 197 3 is_stmt 1 view .LVU273
 197:Core/Src/main.c **** 
 883              		.loc 1 197 16 is_stmt 0 view .LVU274
 884 0022 3E4B     		ldr	r3, .L27+24
 885 0024 1B68     		ldr	r3, [r3]
 886 0026 6361     		str	r3, [r4, #20]
 199:Core/Src/main.c ****   sRundata.FenM = FenM;     // 风机定时  持续转几分钟
 887              		.loc 1 199 3 is_stmt 1 view .LVU275
 199:Core/Src/main.c ****   sRundata.FenM = FenM;     // 风机定时  持续转几分钟
 888              		.loc 1 199 17 is_stmt 0 view .LVU276
 889 0028 3D4B     		ldr	r3, .L27+28
 890 002a 1B68     		ldr	r3, [r3]
 891 002c A361     		str	r3, [r4, #24]
 200:Core/Src/main.c ****   sRundata.Tcala1 = Tcala1; // 温度补偿
 892              		.loc 1 200 3 is_stmt 1 view .LVU277
 200:Core/Src/main.c ****   sRundata.Tcala1 = Tcala1; // 温度补偿
 893              		.loc 1 200 17 is_stmt 0 view .LVU278
 894 002e 3D4B     		ldr	r3, .L27+32
 895 0030 1B68     		ldr	r3, [r3]
 896 0032 E361     		str	r3, [r4, #28]
 201:Core/Src/main.c ****   sRundata.Tcala2 = Tcala2;
 897              		.loc 1 201 3 is_stmt 1 view .LVU279
 201:Core/Src/main.c ****   sRundata.Tcala2 = Tcala2;
 898              		.loc 1 201 19 is_stmt 0 view .LVU280
 899 0034 3C4B     		ldr	r3, .L27+36
 900 0036 1B68     		ldr	r3, [r3]
 901 0038 2362     		str	r3, [r4, #32]
 202:Core/Src/main.c ****   sRundata.Tcala3 = Tcala3;
 902              		.loc 1 202 3 is_stmt 1 view .LVU281
 202:Core/Src/main.c ****   sRundata.Tcala3 = Tcala3;
 903              		.loc 1 202 19 is_stmt 0 view .LVU282
 904 003a 3C4B     		ldr	r3, .L27+40
 905 003c 1B68     		ldr	r3, [r3]
 906 003e 6362     		str	r3, [r4, #36]
 203:Core/Src/main.c ****   sRundata.Tset1 = Tset1; // 温度阈值
 907              		.loc 1 203 3 is_stmt 1 view .LVU283
 203:Core/Src/main.c ****   sRundata.Tset1 = Tset1; // 温度阈值
 908              		.loc 1 203 19 is_stmt 0 view .LVU284
 909 0040 3B4B     		ldr	r3, .L27+44
 910 0042 1B68     		ldr	r3, [r3]
 911 0044 A362     		str	r3, [r4, #40]
 204:Core/Src/main.c ****   sRundata.Tset2 = Tset2;
 912              		.loc 1 204 3 is_stmt 1 view .LVU285
 204:Core/Src/main.c ****   sRundata.Tset2 = Tset2;
 913              		.loc 1 204 18 is_stmt 0 view .LVU286
 914 0046 3B4B     		ldr	r3, .L27+48
 915 0048 1B68     		ldr	r3, [r3]
 916 004a E362     		str	r3, [r4, #44]
 205:Core/Src/main.c ****   sRundata.Tset3 = Tset3;
 917              		.loc 1 205 3 is_stmt 1 view .LVU287
 205:Core/Src/main.c ****   sRundata.Tset3 = Tset3;
 918              		.loc 1 205 18 is_stmt 0 view .LVU288
ARM GAS  C:\Users\57298\AppData\Local\Temp\cc5d07uv.s 			page 34


 919 004c 3A4B     		ldr	r3, .L27+52
 920 004e 1B68     		ldr	r3, [r3]
 921 0050 2363     		str	r3, [r4, #48]
 206:Core/Src/main.c ****   sRundata.Tset4 = Tset4;
 922              		.loc 1 206 3 is_stmt 1 view .LVU289
 206:Core/Src/main.c ****   sRundata.Tset4 = Tset4;
 923              		.loc 1 206 18 is_stmt 0 view .LVU290
 924 0052 3A4B     		ldr	r3, .L27+56
 925 0054 1B68     		ldr	r3, [r3]
 926 0056 6363     		str	r3, [r4, #52]
 207:Core/Src/main.c ****   sRundata.cshuiCha = cshuiCha; // 除湿回差 三个回差值
 927              		.loc 1 207 3 is_stmt 1 view .LVU291
 207:Core/Src/main.c ****   sRundata.cshuiCha = cshuiCha; // 除湿回差 三个回差值
 928              		.loc 1 207 18 is_stmt 0 view .LVU292
 929 0058 394B     		ldr	r3, .L27+60
 930 005a 1B68     		ldr	r3, [r3]
 931 005c A363     		str	r3, [r4, #56]
 208:Core/Src/main.c ****   sRundata.cwhuiCha = cwhuiCha; // 超温报警回差
 932              		.loc 1 208 3 is_stmt 1 view .LVU293
 208:Core/Src/main.c ****   sRundata.cwhuiCha = cwhuiCha; // 超温报警回差
 933              		.loc 1 208 21 is_stmt 0 view .LVU294
 934 005e 394B     		ldr	r3, .L27+64
 935 0060 1B68     		ldr	r3, [r3]
 936 0062 E363     		str	r3, [r4, #60]
 209:Core/Src/main.c ****   sRundata.tzhuiCha = tzhuiCha; // 跳闸回差
 937              		.loc 1 209 3 is_stmt 1 view .LVU295
 209:Core/Src/main.c ****   sRundata.tzhuiCha = tzhuiCha; // 跳闸回差
 938              		.loc 1 209 21 is_stmt 0 view .LVU296
 939 0064 384B     		ldr	r3, .L27+68
 940 0066 1B68     		ldr	r3, [r3]
 941 0068 2364     		str	r3, [r4, #64]
 210:Core/Src/main.c ****   sRundata.MnTest = MnTest;     // 测试 温度值
 942              		.loc 1 210 3 is_stmt 1 view .LVU297
 210:Core/Src/main.c ****   sRundata.MnTest = MnTest;     // 测试 温度值
 943              		.loc 1 210 21 is_stmt 0 view .LVU298
 944 006a 384B     		ldr	r3, .L27+72
 945 006c 1B68     		ldr	r3, [r3]
 946 006e 6364     		str	r3, [r4, #68]
 211:Core/Src/main.c **** 
 947              		.loc 1 211 3 is_stmt 1 view .LVU299
 211:Core/Src/main.c **** 
 948              		.loc 1 211 19 is_stmt 0 view .LVU300
 949 0070 374B     		ldr	r3, .L27+76
 950 0072 1B68     		ldr	r3, [r3]
 951 0074 A364     		str	r3, [r4, #72]
 213:Core/Src/main.c ****   sRundata.jojy = jojy;
 952              		.loc 1 213 3 is_stmt 1 view .LVU301
 213:Core/Src/main.c ****   sRundata.jojy = jojy;
 953              		.loc 1 213 17 is_stmt 0 view .LVU302
 954 0076 374B     		ldr	r3, .L27+80
 955 0078 1B68     		ldr	r3, [r3]
 956 007a E364     		str	r3, [r4, #76]
 214:Core/Src/main.c ****   sRundata.btlv = btlv;
 957              		.loc 1 214 3 is_stmt 1 view .LVU303
 214:Core/Src/main.c ****   sRundata.btlv = btlv;
 958              		.loc 1 214 17 is_stmt 0 view .LVU304
 959 007c 364B     		ldr	r3, .L27+84
ARM GAS  C:\Users\57298\AppData\Local\Temp\cc5d07uv.s 			page 35


 960 007e 1B68     		ldr	r3, [r3]
 961 0080 2365     		str	r3, [r4, #80]
 215:Core/Src/main.c **** 
 962              		.loc 1 215 3 is_stmt 1 view .LVU305
 215:Core/Src/main.c **** 
 963              		.loc 1 215 17 is_stmt 0 view .LVU306
 964 0082 364B     		ldr	r3, .L27+88
 965 0084 1B68     		ldr	r3, [r3]
 966 0086 6365     		str	r3, [r4, #84]
 217:Core/Src/main.c ****   sRundata.k2 = (signed int)k2 * 10;
 967              		.loc 1 217 3 is_stmt 1 view .LVU307
 217:Core/Src/main.c ****   sRundata.k2 = (signed int)k2 * 10;
 968              		.loc 1 217 17 is_stmt 0 view .LVU308
 969 0088 354B     		ldr	r3, .L27+92
 970 008a 1868     		ldr	r0, [r3]
 971 008c FFF7FEFF 		bl	__aeabi_f2iz
 972              	.LVL41:
 217:Core/Src/main.c ****   sRundata.k2 = (signed int)k2 * 10;
 973              		.loc 1 217 32 view .LVU309
 974 0090 8300     		lsls	r3, r0, #2
 975 0092 1B18     		adds	r3, r3, r0
 976 0094 5B00     		lsls	r3, r3, #1
 217:Core/Src/main.c ****   sRundata.k2 = (signed int)k2 * 10;
 977              		.loc 1 217 15 view .LVU310
 978 0096 A365     		str	r3, [r4, #88]
 218:Core/Src/main.c ****   sRundata.k3 = (signed int)k3 * 10;
 979              		.loc 1 218 3 is_stmt 1 view .LVU311
 218:Core/Src/main.c ****   sRundata.k3 = (signed int)k3 * 10;
 980              		.loc 1 218 17 is_stmt 0 view .LVU312
 981 0098 324B     		ldr	r3, .L27+96
 982 009a 1868     		ldr	r0, [r3]
 983 009c FFF7FEFF 		bl	__aeabi_f2iz
 984              	.LVL42:
 218:Core/Src/main.c ****   sRundata.k3 = (signed int)k3 * 10;
 985              		.loc 1 218 32 view .LVU313
 986 00a0 8300     		lsls	r3, r0, #2
 987 00a2 1B18     		adds	r3, r3, r0
 988 00a4 5B00     		lsls	r3, r3, #1
 218:Core/Src/main.c ****   sRundata.k3 = (signed int)k3 * 10;
 989              		.loc 1 218 15 view .LVU314
 990 00a6 E365     		str	r3, [r4, #92]
 219:Core/Src/main.c ****   sRundata.b1 = (signed int)b1 * 10;
 991              		.loc 1 219 3 is_stmt 1 view .LVU315
 219:Core/Src/main.c ****   sRundata.b1 = (signed int)b1 * 10;
 992              		.loc 1 219 17 is_stmt 0 view .LVU316
 993 00a8 2F4B     		ldr	r3, .L27+100
 994 00aa 1868     		ldr	r0, [r3]
 995 00ac FFF7FEFF 		bl	__aeabi_f2iz
 996              	.LVL43:
 219:Core/Src/main.c ****   sRundata.b1 = (signed int)b1 * 10;
 997              		.loc 1 219 32 view .LVU317
 998 00b0 8300     		lsls	r3, r0, #2
 999 00b2 1B18     		adds	r3, r3, r0
 1000 00b4 5B00     		lsls	r3, r3, #1
 219:Core/Src/main.c ****   sRundata.b1 = (signed int)b1 * 10;
 1001              		.loc 1 219 15 view .LVU318
 1002 00b6 2366     		str	r3, [r4, #96]
ARM GAS  C:\Users\57298\AppData\Local\Temp\cc5d07uv.s 			page 36


 220:Core/Src/main.c ****   sRundata.b2 = (signed int)b2 * 10;
 1003              		.loc 1 220 3 is_stmt 1 view .LVU319
 220:Core/Src/main.c ****   sRundata.b2 = (signed int)b2 * 10;
 1004              		.loc 1 220 17 is_stmt 0 view .LVU320
 1005 00b8 2C4B     		ldr	r3, .L27+104
 1006 00ba 1868     		ldr	r0, [r3]
 1007 00bc FFF7FEFF 		bl	__aeabi_f2iz
 1008              	.LVL44:
 220:Core/Src/main.c ****   sRundata.b2 = (signed int)b2 * 10;
 1009              		.loc 1 220 32 view .LVU321
 1010 00c0 8300     		lsls	r3, r0, #2
 1011 00c2 1B18     		adds	r3, r3, r0
 1012 00c4 5B00     		lsls	r3, r3, #1
 220:Core/Src/main.c ****   sRundata.b2 = (signed int)b2 * 10;
 1013              		.loc 1 220 15 view .LVU322
 1014 00c6 6366     		str	r3, [r4, #100]
 221:Core/Src/main.c ****   sRundata.b3 = (signed int)b3 * 10;
 1015              		.loc 1 221 3 is_stmt 1 view .LVU323
 221:Core/Src/main.c ****   sRundata.b3 = (signed int)b3 * 10;
 1016              		.loc 1 221 17 is_stmt 0 view .LVU324
 1017 00c8 294B     		ldr	r3, .L27+108
 1018 00ca 1868     		ldr	r0, [r3]
 1019 00cc FFF7FEFF 		bl	__aeabi_f2iz
 1020              	.LVL45:
 221:Core/Src/main.c ****   sRundata.b3 = (signed int)b3 * 10;
 1021              		.loc 1 221 32 view .LVU325
 1022 00d0 8300     		lsls	r3, r0, #2
 1023 00d2 1B18     		adds	r3, r3, r0
 1024 00d4 5B00     		lsls	r3, r3, #1
 221:Core/Src/main.c ****   sRundata.b3 = (signed int)b3 * 10;
 1025              		.loc 1 221 15 view .LVU326
 1026 00d6 A366     		str	r3, [r4, #104]
 222:Core/Src/main.c ****   unsigned short i = 0;
 1027              		.loc 1 222 3 is_stmt 1 view .LVU327
 222:Core/Src/main.c ****   unsigned short i = 0;
 1028              		.loc 1 222 17 is_stmt 0 view .LVU328
 1029 00d8 264B     		ldr	r3, .L27+112
 1030 00da 1868     		ldr	r0, [r3]
 1031 00dc FFF7FEFF 		bl	__aeabi_f2iz
 1032              	.LVL46:
 222:Core/Src/main.c ****   unsigned short i = 0;
 1033              		.loc 1 222 32 view .LVU329
 1034 00e0 8300     		lsls	r3, r0, #2
 1035 00e2 1B18     		adds	r3, r3, r0
 1036 00e4 5B00     		lsls	r3, r3, #1
 222:Core/Src/main.c ****   unsigned short i = 0;
 1037              		.loc 1 222 15 view .LVU330
 1038 00e6 E366     		str	r3, [r4, #108]
 223:Core/Src/main.c ****   for (i = 0; i < 17; i++)
 1039              		.loc 1 223 3 is_stmt 1 view .LVU331
 1040              	.LVL47:
 224:Core/Src/main.c ****   {
 1041              		.loc 1 224 3 view .LVU332
 224:Core/Src/main.c ****   {
 1042              		.loc 1 224 10 is_stmt 0 view .LVU333
 1043 00e8 0023     		movs	r3, #0
 224:Core/Src/main.c ****   {
ARM GAS  C:\Users\57298\AppData\Local\Temp\cc5d07uv.s 			page 37


 1044              		.loc 1 224 3 view .LVU334
 1045 00ea 07E0     		b	.L25
 1046              	.LVL48:
 1047              	.L26:
 226:Core/Src/main.c ****   }
 1048              		.loc 1 226 5 is_stmt 1 discriminator 3 view .LVU335
 226:Core/Src/main.c ****   }
 1049              		.loc 1 226 34 is_stmt 0 discriminator 3 view .LVU336
 1050 00ec 224A     		ldr	r2, .L27+116
 1051 00ee D15C     		ldrb	r1, [r2, r3]
 226:Core/Src/main.c ****   }
 1052              		.loc 1 226 25 discriminator 3 view .LVU337
 1053 00f0 044A     		ldr	r2, .L27
 1054 00f2 D218     		adds	r2, r2, r3
 1055 00f4 7032     		adds	r2, r2, #112
 1056 00f6 1170     		strb	r1, [r2]
 224:Core/Src/main.c ****   {
 1057              		.loc 1 224 23 is_stmt 1 discriminator 3 view .LVU338
 224:Core/Src/main.c ****   {
 1058              		.loc 1 224 24 is_stmt 0 discriminator 3 view .LVU339
 1059 00f8 0133     		adds	r3, r3, #1
 1060              	.LVL49:
 224:Core/Src/main.c ****   {
 1061              		.loc 1 224 24 discriminator 3 view .LVU340
 1062 00fa 9BB2     		uxth	r3, r3
 1063              	.LVL50:
 1064              	.L25:
 224:Core/Src/main.c ****   {
 1065              		.loc 1 224 15 is_stmt 1 discriminator 1 view .LVU341
 224:Core/Src/main.c ****   {
 1066              		.loc 1 224 3 is_stmt 0 discriminator 1 view .LVU342
 1067 00fc 102B     		cmp	r3, #16
 1068 00fe F5D9     		bls	.L26
 228:Core/Src/main.c **** // 放到串口空闲中断里
 1069              		.loc 1 228 1 view .LVU343
 1070              		@ sp needed
 1071 0100 10BD     		pop	{r4, pc}
 1072              	.L28:
 1073 0102 C046     		.align	2
 1074              	.L27:
 1075 0104 00000000 		.word	sRundata
 1076 0108 00000000 		.word	Ta
 1077 010c 00000000 		.word	Tb
 1078 0110 00000000 		.word	Tc
 1079 0114 00000000 		.word	pTa
 1080 0118 00000000 		.word	pTb
 1081 011c 00000000 		.word	pTc
 1082 0120 00000000 		.word	FenH
 1083 0124 00000000 		.word	FenM
 1084 0128 00000000 		.word	Tcala1
 1085 012c 00000000 		.word	Tcala2
 1086 0130 00000000 		.word	Tcala3
 1087 0134 00000000 		.word	Tset1
 1088 0138 00000000 		.word	Tset2
 1089 013c 00000000 		.word	Tset3
 1090 0140 00000000 		.word	Tset4
 1091 0144 00000000 		.word	cshuiCha
ARM GAS  C:\Users\57298\AppData\Local\Temp\cc5d07uv.s 			page 38


 1092 0148 00000000 		.word	cwhuiCha
 1093 014c 00000000 		.word	tzhuiCha
 1094 0150 00000000 		.word	MnTest
 1095 0154 00000000 		.word	addr
 1096 0158 00000000 		.word	jojy
 1097 015c 00000000 		.word	btlv
 1098 0160 00000000 		.word	k1
 1099 0164 00000000 		.word	k2
 1100 0168 00000000 		.word	k3
 1101 016c 00000000 		.word	b1
 1102 0170 00000000 		.word	b2
 1103 0174 00000000 		.word	b3
 1104 0178 00000000 		.word	macFlag
 1105              		.cfi_endproc
 1106              	.LFE44:
 1108              		.section	.text.u2RxIt,"ax",%progbits
 1109              		.align	1
 1110              		.global	u2RxIt
 1111              		.syntax unified
 1112              		.code	16
 1113              		.thumb_func
 1115              	u2RxIt:
 1116              	.LFB45:
 231:Core/Src/main.c **** 
 1117              		.loc 1 231 1 is_stmt 1 view -0
 1118              		.cfi_startproc
 1119              		@ args = 0, pretend = 0, frame = 0
 1120              		@ frame_needed = 0, uses_anonymous_args = 0
 1121 0000 70B5     		push	{r4, r5, r6, lr}
 1122              	.LCFI12:
 1123              		.cfi_def_cfa_offset 16
 1124              		.cfi_offset 4, -16
 1125              		.cfi_offset 5, -12
 1126              		.cfi_offset 6, -8
 1127              		.cfi_offset 14, -4
 233:Core/Src/main.c **** 
 1128              		.loc 1 233 3 view .LVU345
 1129 0002 AD4C     		ldr	r4, .L50
 1130 0004 2368     		ldr	r3, [r4]
 1131 0006 1022     		movs	r2, #16
 1132 0008 1A62     		str	r2, [r3, #32]
 235:Core/Src/main.c **** 
 1133              		.loc 1 235 3 view .LVU346
 1134 000a 2000     		movs	r0, r4
 1135 000c FFF7FEFF 		bl	HAL_UART_DMAStop
 1136              	.LVL51:
 237:Core/Src/main.c **** 
 1137              		.loc 1 237 3 view .LVU347
 1138 0010 2368     		ldr	r3, [r4]
 1139 0012 0F22     		movs	r2, #15
 1140 0014 1A62     		str	r2, [r3, #32]
 239:Core/Src/main.c ****   unsigned short i = 0;
 1141              		.loc 1 239 3 view .LVU348
 239:Core/Src/main.c ****   unsigned short i = 0;
 1142              		.loc 1 239 29 is_stmt 0 view .LVU349
 1143 0016 636F     		ldr	r3, [r4, #116]
 239:Core/Src/main.c ****   unsigned short i = 0;
ARM GAS  C:\Users\57298\AppData\Local\Temp\cc5d07uv.s 			page 39


 1144              		.loc 1 239 36 view .LVU350
 1145 0018 1B68     		ldr	r3, [r3]
 239:Core/Src/main.c ****   unsigned short i = 0;
 1146              		.loc 1 239 46 view .LVU351
 1147 001a 5A68     		ldr	r2, [r3, #4]
 239:Core/Src/main.c ****   unsigned short i = 0;
 1148              		.loc 1 239 21 view .LVU352
 1149 001c FA23     		movs	r3, #250
 1150 001e 5B00     		lsls	r3, r3, #1
 1151 0020 9B1A     		subs	r3, r3, r2
 1152 0022 9BB2     		uxth	r3, r3
 239:Core/Src/main.c ****   unsigned short i = 0;
 1153              		.loc 1 239 11 view .LVU353
 1154 0024 A54A     		ldr	r2, .L50+4
 1155 0026 1380     		strh	r3, [r2]
 240:Core/Src/main.c **** 
 1156              		.loc 1 240 3 is_stmt 1 view .LVU354
 1157              	.LVL52:
 242:Core/Src/main.c ****   if (RxBufU2[0] == addr &&
 1158              		.loc 1 242 3 view .LVU355
 243:Core/Src/main.c ****       RxBufU2[1] == 0x03 &&
 1159              		.loc 1 243 3 view .LVU356
 243:Core/Src/main.c ****       RxBufU2[1] == 0x03 &&
 1160              		.loc 1 243 14 is_stmt 0 view .LVU357
 1161 0028 A54A     		ldr	r2, .L50+8
 1162 002a 1178     		ldrb	r1, [r2]
 243:Core/Src/main.c ****       RxBufU2[1] == 0x03 &&
 1163              		.loc 1 243 18 view .LVU358
 1164 002c A54A     		ldr	r2, .L50+12
 1165 002e 1268     		ldr	r2, [r2]
 243:Core/Src/main.c ****       RxBufU2[1] == 0x03 &&
 1166              		.loc 1 243 6 view .LVU359
 1167 0030 9142     		cmp	r1, r2
 1168 0032 1BD0     		beq	.L46
 1169              	.L30:
 303:Core/Src/main.c ****       RxBufU2[0] == 0xFA &&
 1170              		.loc 1 303 3 is_stmt 1 view .LVU360
 304:Core/Src/main.c ****       RxBufU2[1] == 0x04 &&
 1171              		.loc 1 304 14 is_stmt 0 view .LVU361
 1172 0034 A24B     		ldr	r3, .L50+8
 1173 0036 1B78     		ldrb	r3, [r3]
 303:Core/Src/main.c ****       RxBufU2[0] == 0xFA &&
 1174              		.loc 1 303 6 view .LVU362
 1175 0038 FA2B     		cmp	r3, #250
 1176 003a 00D1     		bne	.LCB961
 1177 003c A3E0     		b	.L47	@long jump
 1178              	.LCB961:
 1179              	.L42:
 316:Core/Src/main.c ****       RxBufU2[0] == 0xFA &&
 1180              		.loc 1 316 3 is_stmt 1 view .LVU363
 317:Core/Src/main.c ****       RxBufU2[1] == 0x04 &&
 1181              		.loc 1 317 14 is_stmt 0 view .LVU364
 1182 003e A04B     		ldr	r3, .L50+8
 1183 0040 1B78     		ldrb	r3, [r3]
 316:Core/Src/main.c ****       RxBufU2[0] == 0xFA &&
 1184              		.loc 1 316 6 view .LVU365
 1185 0042 FA2B     		cmp	r3, #250
ARM GAS  C:\Users\57298\AppData\Local\Temp\cc5d07uv.s 			page 40


 1186 0044 00D1     		bne	.LCB967
 1187 0046 CDE0     		b	.L48	@long jump
 1188              	.LCB967:
 1189              	.L43:
 329:Core/Src/main.c ****       RxBufU2[0] == 0xFA &&
 1190              		.loc 1 329 3 is_stmt 1 view .LVU366
 330:Core/Src/main.c ****       RxBufU2[1] == 0x04 &&
 1191              		.loc 1 330 14 is_stmt 0 view .LVU367
 1192 0048 9D4B     		ldr	r3, .L50+8
 1193 004a 1B78     		ldrb	r3, [r3]
 329:Core/Src/main.c ****       RxBufU2[0] == 0xFA &&
 1194              		.loc 1 329 6 view .LVU368
 1195 004c FA2B     		cmp	r3, #250
 1196 004e 00D1     		bne	.LCB973
 1197 0050 F7E0     		b	.L49	@long jump
 1198              	.LCB973:
 1199              	.LVL53:
 1200              	.L44:
 349:Core/Src/main.c ****   RxEn;
 1201              		.loc 1 349 3 is_stmt 1 view .LVU369
 1202 0052 FA22     		movs	r2, #250
 1203 0054 5200     		lsls	r2, r2, #1
 1204 0056 9A49     		ldr	r1, .L50+8
 1205 0058 9748     		ldr	r0, .L50
 1206 005a FFF7FEFF 		bl	HAL_UART_Receive_DMA
 1207              	.LVL54:
 350:Core/Src/main.c **** }
 1208              		.loc 1 350 3 view .LVU370
 1209 005e 9020     		movs	r0, #144
 1210 0060 0022     		movs	r2, #0
 1211 0062 0221     		movs	r1, #2
 1212 0064 C005     		lsls	r0, r0, #23
 1213 0066 FFF7FEFF 		bl	HAL_GPIO_WritePin
 1214              	.LVL55:
 351:Core/Src/main.c **** 
 1215              		.loc 1 351 1 is_stmt 0 view .LVU371
 1216              		@ sp needed
 1217 006a 70BD     		pop	{r4, r5, r6, pc}
 1218              	.LVL56:
 1219              	.L46:
 244:Core/Src/main.c ****       RxBufU2[2] == 0x00 &&
 1220              		.loc 1 244 14 discriminator 1 view .LVU372
 1221 006c 9449     		ldr	r1, .L50+8
 1222 006e 4978     		ldrb	r1, [r1, #1]
 243:Core/Src/main.c ****       RxBufU2[1] == 0x03 &&
 1223              		.loc 1 243 26 discriminator 1 view .LVU373
 1224 0070 0329     		cmp	r1, #3
 1225 0072 DFD1     		bne	.L30
 245:Core/Src/main.c ****       RxBufU2[3] == 0x00 &&
 1226              		.loc 1 245 14 view .LVU374
 1227 0074 9249     		ldr	r1, .L50+8
 1228 0076 8978     		ldrb	r1, [r1, #2]
 244:Core/Src/main.c ****       RxBufU2[2] == 0x00 &&
 1229              		.loc 1 244 26 view .LVU375
 1230 0078 0029     		cmp	r1, #0
 1231 007a DBD1     		bne	.L30
 246:Core/Src/main.c ****       RxBufU2[4] == 0x00 &&
ARM GAS  C:\Users\57298\AppData\Local\Temp\cc5d07uv.s 			page 41


 1232              		.loc 1 246 14 view .LVU376
 1233 007c 9049     		ldr	r1, .L50+8
 1234 007e C978     		ldrb	r1, [r1, #3]
 245:Core/Src/main.c ****       RxBufU2[3] == 0x00 &&
 1235              		.loc 1 245 26 view .LVU377
 1236 0080 0029     		cmp	r1, #0
 1237 0082 D7D1     		bne	.L30
 247:Core/Src/main.c ****       RxBufU2[5] == 0x05 && RxLenU2 == 8)
 1238              		.loc 1 247 14 view .LVU378
 1239 0084 8E49     		ldr	r1, .L50+8
 1240 0086 0979     		ldrb	r1, [r1, #4]
 246:Core/Src/main.c ****       RxBufU2[4] == 0x00 &&
 1241              		.loc 1 246 26 view .LVU379
 1242 0088 0029     		cmp	r1, #0
 1243 008a D3D1     		bne	.L30
 248:Core/Src/main.c ****   {
 1244              		.loc 1 248 14 view .LVU380
 1245 008c 8C49     		ldr	r1, .L50+8
 1246 008e 4979     		ldrb	r1, [r1, #5]
 247:Core/Src/main.c ****       RxBufU2[5] == 0x05 && RxLenU2 == 8)
 1247              		.loc 1 247 26 view .LVU381
 1248 0090 0529     		cmp	r1, #5
 1249 0092 CFD1     		bne	.L30
 248:Core/Src/main.c ****   {
 1250              		.loc 1 248 26 view .LVU382
 1251 0094 082B     		cmp	r3, #8
 1252 0096 CDD1     		bne	.L30
 1253              	.LBB7:
 250:Core/Src/main.c ****     TxBufU2[0] = addr;
 1254              		.loc 1 250 5 is_stmt 1 view .LVU383
 251:Core/Src/main.c ****     TxBufU2[1] = 0x03;
 1255              		.loc 1 251 5 view .LVU384
 251:Core/Src/main.c ****     TxBufU2[1] = 0x03;
 1256              		.loc 1 251 16 is_stmt 0 view .LVU385
 1257 0098 8B4B     		ldr	r3, .L50+16
 1258 009a 1A70     		strb	r2, [r3]
 252:Core/Src/main.c ****     TxBufU2[2] = 0x0A;
 1259              		.loc 1 252 5 is_stmt 1 view .LVU386
 252:Core/Src/main.c ****     TxBufU2[2] = 0x0A;
 1260              		.loc 1 252 16 is_stmt 0 view .LVU387
 1261 009c 0322     		movs	r2, #3
 1262 009e 5A70     		strb	r2, [r3, #1]
 253:Core/Src/main.c ****     unsigned short Tmp = 0;
 1263              		.loc 1 253 5 is_stmt 1 view .LVU388
 253:Core/Src/main.c ****     unsigned short Tmp = 0;
 1264              		.loc 1 253 16 is_stmt 0 view .LVU389
 1265 00a0 0732     		adds	r2, r2, #7
 1266 00a2 9A70     		strb	r2, [r3, #2]
 254:Core/Src/main.c ****     if (Ta > Tset3)
 1267              		.loc 1 254 5 is_stmt 1 view .LVU390
 1268              	.LVL57:
 255:Core/Src/main.c ****       Tmp = Tmp | 0x0001;
 1269              		.loc 1 255 5 view .LVU391
 255:Core/Src/main.c ****       Tmp = Tmp | 0x0001;
 1270              		.loc 1 255 12 is_stmt 0 view .LVU392
 1271 00a4 894B     		ldr	r3, .L50+20
 1272 00a6 1868     		ldr	r0, [r3]
ARM GAS  C:\Users\57298\AppData\Local\Temp\cc5d07uv.s 			page 42


 1273 00a8 894B     		ldr	r3, .L50+24
 1274 00aa 1C68     		ldr	r4, [r3]
 255:Core/Src/main.c ****       Tmp = Tmp | 0x0001;
 1275              		.loc 1 255 8 view .LVU393
 1276 00ac A042     		cmp	r0, r4
 1277 00ae 5CDD     		ble	.L45
 256:Core/Src/main.c ****     else
 1278              		.loc 1 256 11 view .LVU394
 1279 00b0 0123     		movs	r3, #1
 1280              	.L31:
 1281              	.LVL58:
 259:Core/Src/main.c ****       Tmp = Tmp | 0x0002;
 1282              		.loc 1 259 5 is_stmt 1 view .LVU395
 259:Core/Src/main.c ****       Tmp = Tmp | 0x0002;
 1283              		.loc 1 259 12 is_stmt 0 view .LVU396
 1284 00b2 884A     		ldr	r2, .L50+28
 1285 00b4 1168     		ldr	r1, [r2]
 259:Core/Src/main.c ****       Tmp = Tmp | 0x0002;
 1286              		.loc 1 259 8 view .LVU397
 1287 00b6 8C42     		cmp	r4, r1
 1288 00b8 01DA     		bge	.L33
 260:Core/Src/main.c ****     else
 1289              		.loc 1 260 7 is_stmt 1 view .LVU398
 260:Core/Src/main.c ****     else
 1290              		.loc 1 260 11 is_stmt 0 view .LVU399
 1291 00ba 0222     		movs	r2, #2
 1292 00bc 1343     		orrs	r3, r2
 1293              	.LVL59:
 1294              	.L33:
 263:Core/Src/main.c ****       Tmp = Tmp | 0x0004;
 1295              		.loc 1 263 5 is_stmt 1 view .LVU400
 263:Core/Src/main.c ****       Tmp = Tmp | 0x0004;
 1296              		.loc 1 263 12 is_stmt 0 view .LVU401
 1297 00be 864A     		ldr	r2, .L50+32
 1298 00c0 1268     		ldr	r2, [r2]
 263:Core/Src/main.c ****       Tmp = Tmp | 0x0004;
 1299              		.loc 1 263 8 view .LVU402
 1300 00c2 9442     		cmp	r4, r2
 1301 00c4 53DA     		bge	.L34
 264:Core/Src/main.c ****     else
 1302              		.loc 1 264 7 is_stmt 1 view .LVU403
 264:Core/Src/main.c ****     else
 1303              		.loc 1 264 11 is_stmt 0 view .LVU404
 1304 00c6 0424     		movs	r4, #4
 1305 00c8 2343     		orrs	r3, r4
 1306              	.LVL60:
 1307              	.L35:
 267:Core/Src/main.c ****       Tmp = Tmp | 0x0008;
 1308              		.loc 1 267 5 is_stmt 1 view .LVU405
 267:Core/Src/main.c ****       Tmp = Tmp | 0x0008;
 1309              		.loc 1 267 16 is_stmt 0 view .LVU406
 1310 00ca 844C     		ldr	r4, .L50+36
 1311 00cc 2478     		ldrb	r4, [r4]
 267:Core/Src/main.c ****       Tmp = Tmp | 0x0008;
 1312              		.loc 1 267 8 view .LVU407
 1313 00ce 002C     		cmp	r4, #0
 1314 00d0 50D0     		beq	.L36
ARM GAS  C:\Users\57298\AppData\Local\Temp\cc5d07uv.s 			page 43


 268:Core/Src/main.c ****     else
 1315              		.loc 1 268 7 is_stmt 1 view .LVU408
 268:Core/Src/main.c ****     else
 1316              		.loc 1 268 11 is_stmt 0 view .LVU409
 1317 00d2 0824     		movs	r4, #8
 1318 00d4 2343     		orrs	r3, r4
 1319              	.LVL61:
 1320              	.L37:
 271:Core/Src/main.c ****       Tmp = Tmp | 0x0010;
 1321              		.loc 1 271 5 is_stmt 1 view .LVU410
 271:Core/Src/main.c ****       Tmp = Tmp | 0x0010;
 1322              		.loc 1 271 16 is_stmt 0 view .LVU411
 1323 00d6 814C     		ldr	r4, .L50+36
 1324 00d8 6478     		ldrb	r4, [r4, #1]
 271:Core/Src/main.c ****       Tmp = Tmp | 0x0010;
 1325              		.loc 1 271 8 view .LVU412
 1326 00da 002C     		cmp	r4, #0
 1327 00dc 4DD0     		beq	.L38
 272:Core/Src/main.c ****     else
 1328              		.loc 1 272 7 is_stmt 1 view .LVU413
 272:Core/Src/main.c ****     else
 1329              		.loc 1 272 11 is_stmt 0 view .LVU414
 1330 00de 1024     		movs	r4, #16
 1331 00e0 2343     		orrs	r3, r4
 1332              	.LVL62:
 1333              	.L39:
 275:Core/Src/main.c ****       Tmp = Tmp | 0x0020;
 1334              		.loc 1 275 5 is_stmt 1 view .LVU415
 275:Core/Src/main.c ****       Tmp = Tmp | 0x0020;
 1335              		.loc 1 275 16 is_stmt 0 view .LVU416
 1336 00e2 7E4C     		ldr	r4, .L50+36
 1337 00e4 A478     		ldrb	r4, [r4, #2]
 275:Core/Src/main.c ****       Tmp = Tmp | 0x0020;
 1338              		.loc 1 275 8 view .LVU417
 1339 00e6 002C     		cmp	r4, #0
 1340 00e8 4AD0     		beq	.L40
 276:Core/Src/main.c ****     else
 1341              		.loc 1 276 7 is_stmt 1 view .LVU418
 276:Core/Src/main.c ****     else
 1342              		.loc 1 276 11 is_stmt 0 view .LVU419
 1343 00ea 2024     		movs	r4, #32
 1344 00ec 2343     		orrs	r3, r4
 1345              	.LVL63:
 1346              	.L41:
 279:Core/Src/main.c ****     TxBufU2[4] = Tmp >> 0;
 1347              		.loc 1 279 5 is_stmt 1 view .LVU420
 279:Core/Src/main.c ****     TxBufU2[4] = Tmp >> 0;
 1348              		.loc 1 279 16 is_stmt 0 view .LVU421
 1349 00ee 764C     		ldr	r4, .L50+16
 1350 00f0 1D0A     		lsrs	r5, r3, #8
 1351 00f2 E570     		strb	r5, [r4, #3]
 280:Core/Src/main.c ****     signed short Txxx = 0;
 1352              		.loc 1 280 5 is_stmt 1 view .LVU422
 280:Core/Src/main.c ****     signed short Txxx = 0;
 1353              		.loc 1 280 16 is_stmt 0 view .LVU423
 1354 00f4 2371     		strb	r3, [r4, #4]
 281:Core/Src/main.c ****     Txxx = Ta * 10 + 0x23;
ARM GAS  C:\Users\57298\AppData\Local\Temp\cc5d07uv.s 			page 44


 1355              		.loc 1 281 5 is_stmt 1 view .LVU424
 1356              	.LVL64:
 282:Core/Src/main.c ****     TxBufU2[5] = Txxx >> 8;
 1357              		.loc 1 282 5 view .LVU425
 282:Core/Src/main.c ****     TxBufU2[5] = Txxx >> 8;
 1358              		.loc 1 282 20 is_stmt 0 view .LVU426
 1359 00f6 8300     		lsls	r3, r0, #2
 1360              	.LVL65:
 282:Core/Src/main.c ****     TxBufU2[5] = Txxx >> 8;
 1361              		.loc 1 282 20 view .LVU427
 1362 00f8 C318     		adds	r3, r0, r3
 1363 00fa 5B00     		lsls	r3, r3, #1
 1364 00fc 2333     		adds	r3, r3, #35
 282:Core/Src/main.c ****     TxBufU2[5] = Txxx >> 8;
 1365              		.loc 1 282 10 view .LVU428
 1366 00fe 18B2     		sxth	r0, r3
 1367              	.LVL66:
 283:Core/Src/main.c ****     TxBufU2[6] = Txxx >> 0;
 1368              		.loc 1 283 5 is_stmt 1 view .LVU429
 283:Core/Src/main.c ****     TxBufU2[6] = Txxx >> 0;
 1369              		.loc 1 283 16 is_stmt 0 view .LVU430
 1370 0100 0012     		asrs	r0, r0, #8
 1371              	.LVL67:
 283:Core/Src/main.c ****     TxBufU2[6] = Txxx >> 0;
 1372              		.loc 1 283 16 view .LVU431
 1373 0102 6071     		strb	r0, [r4, #5]
 284:Core/Src/main.c ****     Txxx = Tb * 10 + 0x23;
 1374              		.loc 1 284 5 is_stmt 1 view .LVU432
 284:Core/Src/main.c ****     Txxx = Tb * 10 + 0x23;
 1375              		.loc 1 284 16 is_stmt 0 view .LVU433
 1376 0104 A371     		strb	r3, [r4, #6]
 285:Core/Src/main.c ****     TxBufU2[7] = Txxx >> 8;
 1377              		.loc 1 285 5 is_stmt 1 view .LVU434
 285:Core/Src/main.c ****     TxBufU2[7] = Txxx >> 8;
 1378              		.loc 1 285 20 is_stmt 0 view .LVU435
 1379 0106 8B00     		lsls	r3, r1, #2
 1380              	.LVL68:
 285:Core/Src/main.c ****     TxBufU2[7] = Txxx >> 8;
 1381              		.loc 1 285 20 view .LVU436
 1382 0108 CB18     		adds	r3, r1, r3
 1383 010a 5B00     		lsls	r3, r3, #1
 1384 010c 2333     		adds	r3, r3, #35
 285:Core/Src/main.c ****     TxBufU2[7] = Txxx >> 8;
 1385              		.loc 1 285 10 view .LVU437
 1386 010e 19B2     		sxth	r1, r3
 1387              	.LVL69:
 286:Core/Src/main.c ****     TxBufU2[8] = Txxx >> 0;
 1388              		.loc 1 286 5 is_stmt 1 view .LVU438
 286:Core/Src/main.c ****     TxBufU2[8] = Txxx >> 0;
 1389              		.loc 1 286 16 is_stmt 0 view .LVU439
 1390 0110 0912     		asrs	r1, r1, #8
 1391              	.LVL70:
 286:Core/Src/main.c ****     TxBufU2[8] = Txxx >> 0;
 1392              		.loc 1 286 16 view .LVU440
 1393 0112 E171     		strb	r1, [r4, #7]
 287:Core/Src/main.c ****     Txxx = Tc * 10 + 0x23;
 1394              		.loc 1 287 5 is_stmt 1 view .LVU441
ARM GAS  C:\Users\57298\AppData\Local\Temp\cc5d07uv.s 			page 45


 287:Core/Src/main.c ****     Txxx = Tc * 10 + 0x23;
 1395              		.loc 1 287 16 is_stmt 0 view .LVU442
 1396 0114 2372     		strb	r3, [r4, #8]
 288:Core/Src/main.c ****     TxBufU2[9] = Txxx >> 8;
 1397              		.loc 1 288 5 is_stmt 1 view .LVU443
 288:Core/Src/main.c ****     TxBufU2[9] = Txxx >> 8;
 1398              		.loc 1 288 20 is_stmt 0 view .LVU444
 1399 0116 9300     		lsls	r3, r2, #2
 1400              	.LVL71:
 288:Core/Src/main.c ****     TxBufU2[9] = Txxx >> 8;
 1401              		.loc 1 288 20 view .LVU445
 1402 0118 D318     		adds	r3, r2, r3
 1403 011a 5B00     		lsls	r3, r3, #1
 1404 011c 2333     		adds	r3, r3, #35
 288:Core/Src/main.c ****     TxBufU2[9] = Txxx >> 8;
 1405              		.loc 1 288 10 view .LVU446
 1406 011e 1AB2     		sxth	r2, r3
 1407              	.LVL72:
 289:Core/Src/main.c ****     TxBufU2[10] = Txxx >> 0;
 1408              		.loc 1 289 5 is_stmt 1 view .LVU447
 289:Core/Src/main.c ****     TxBufU2[10] = Txxx >> 0;
 1409              		.loc 1 289 16 is_stmt 0 view .LVU448
 1410 0120 1212     		asrs	r2, r2, #8
 1411              	.LVL73:
 289:Core/Src/main.c ****     TxBufU2[10] = Txxx >> 0;
 1412              		.loc 1 289 16 view .LVU449
 1413 0122 6272     		strb	r2, [r4, #9]
 290:Core/Src/main.c ****     TxBufU2[11] = FenH >> 8;
 1414              		.loc 1 290 5 is_stmt 1 view .LVU450
 290:Core/Src/main.c ****     TxBufU2[11] = FenH >> 8;
 1415              		.loc 1 290 17 is_stmt 0 view .LVU451
 1416 0124 A372     		strb	r3, [r4, #10]
 291:Core/Src/main.c ****     TxBufU2[12] = FenH >> 0;
 1417              		.loc 1 291 5 is_stmt 1 view .LVU452
 291:Core/Src/main.c ****     TxBufU2[12] = FenH >> 0;
 1418              		.loc 1 291 24 is_stmt 0 view .LVU453
 1419 0126 6E4B     		ldr	r3, .L50+40
 1420              	.LVL74:
 291:Core/Src/main.c ****     TxBufU2[12] = FenH >> 0;
 1421              		.loc 1 291 24 view .LVU454
 1422 0128 1B68     		ldr	r3, [r3]
 1423 012a 1A0A     		lsrs	r2, r3, #8
 291:Core/Src/main.c ****     TxBufU2[12] = FenH >> 0;
 1424              		.loc 1 291 17 view .LVU455
 1425 012c E272     		strb	r2, [r4, #11]
 292:Core/Src/main.c ****     unsigned short crc1, crc2;
 1426              		.loc 1 292 5 is_stmt 1 view .LVU456
 292:Core/Src/main.c ****     unsigned short crc1, crc2;
 1427              		.loc 1 292 17 is_stmt 0 view .LVU457
 1428 012e 2373     		strb	r3, [r4, #12]
 293:Core/Src/main.c ****     crc1 = crc2 = CRC16x(TxBufU2, 13);
 1429              		.loc 1 293 5 is_stmt 1 view .LVU458
 294:Core/Src/main.c ****     TxBufU2[13] = ((crc1) & 0xff);
 1430              		.loc 1 294 5 view .LVU459
 294:Core/Src/main.c ****     TxBufU2[13] = ((crc1) & 0xff);
 1431              		.loc 1 294 19 is_stmt 0 view .LVU460
 1432 0130 0D21     		movs	r1, #13
ARM GAS  C:\Users\57298\AppData\Local\Temp\cc5d07uv.s 			page 46


 1433 0132 2000     		movs	r0, r4
 1434 0134 FFF7FEFF 		bl	CRC16x
 1435              	.LVL75:
 295:Core/Src/main.c ****     TxBufU2[14] = ((crc2 >> 8) & 0xff);
 1436              		.loc 1 295 5 is_stmt 1 view .LVU461
 295:Core/Src/main.c ****     TxBufU2[14] = ((crc2 >> 8) & 0xff);
 1437              		.loc 1 295 17 is_stmt 0 view .LVU462
 1438 0138 6073     		strb	r0, [r4, #13]
 296:Core/Src/main.c **** 
 1439              		.loc 1 296 5 is_stmt 1 view .LVU463
 296:Core/Src/main.c **** 
 1440              		.loc 1 296 17 is_stmt 0 view .LVU464
 1441 013a 000A     		lsrs	r0, r0, #8
 1442              	.LVL76:
 296:Core/Src/main.c **** 
 1443              		.loc 1 296 17 view .LVU465
 1444 013c A073     		strb	r0, [r4, #14]
 298:Core/Src/main.c ****     ADCPause;
 1445              		.loc 1 298 5 is_stmt 1 view .LVU466
 1446 013e 9020     		movs	r0, #144
 1447 0140 0122     		movs	r2, #1
 1448 0142 0221     		movs	r1, #2
 1449 0144 C005     		lsls	r0, r0, #23
 1450 0146 FFF7FEFF 		bl	HAL_GPIO_WritePin
 1451              	.LVL77:
 299:Core/Src/main.c ****     HAL_UART_Transmit(&huart2, TxBufU2, 15, 100);
 1452              		.loc 1 299 5 view .LVU467
 1453 014a 664D     		ldr	r5, .L50+44
 1454 014c 2800     		movs	r0, r5
 1455 014e FFF7FEFF 		bl	HAL_ADC_Stop_DMA
 1456              	.LVL78:
 300:Core/Src/main.c ****     ADCContinue;
 1457              		.loc 1 300 5 view .LVU468
 1458 0152 6423     		movs	r3, #100
 1459 0154 0F22     		movs	r2, #15
 1460 0156 2100     		movs	r1, r4
 1461 0158 5748     		ldr	r0, .L50
 1462 015a FFF7FEFF 		bl	HAL_UART_Transmit
 1463              	.LVL79:
 301:Core/Src/main.c ****   }
 1464              		.loc 1 301 5 view .LVU469
 1465 015e 624A     		ldr	r2, .L50+48
 1466 0160 6249     		ldr	r1, .L50+52
 1467 0162 2800     		movs	r0, r5
 1468 0164 FFF7FEFF 		bl	HAL_ADC_Start_DMA
 1469              	.LVL80:
 1470 0168 64E7     		b	.L30
 1471              	.LVL81:
 1472              	.L45:
 258:Core/Src/main.c ****     if (Tb > Tset3)
 1473              		.loc 1 258 11 is_stmt 0 view .LVU470
 1474 016a 0023     		movs	r3, #0
 1475 016c A1E7     		b	.L31
 1476              	.LVL82:
 1477              	.L34:
 266:Core/Src/main.c ****     if (macFlag[0] != 0)
 1478              		.loc 1 266 7 is_stmt 1 view .LVU471
ARM GAS  C:\Users\57298\AppData\Local\Temp\cc5d07uv.s 			page 47


 266:Core/Src/main.c ****     if (macFlag[0] != 0)
 1479              		.loc 1 266 11 is_stmt 0 view .LVU472
 1480 016e 0424     		movs	r4, #4
 1481 0170 A343     		bics	r3, r4
 1482              	.LVL83:
 266:Core/Src/main.c ****     if (macFlag[0] != 0)
 1483              		.loc 1 266 11 view .LVU473
 1484 0172 AAE7     		b	.L35
 1485              	.L36:
 270:Core/Src/main.c ****     if (macFlag[1] != 0)
 1486              		.loc 1 270 7 is_stmt 1 view .LVU474
 270:Core/Src/main.c ****     if (macFlag[1] != 0)
 1487              		.loc 1 270 11 is_stmt 0 view .LVU475
 1488 0174 0824     		movs	r4, #8
 1489 0176 A343     		bics	r3, r4
 1490              	.LVL84:
 270:Core/Src/main.c ****     if (macFlag[1] != 0)
 1491              		.loc 1 270 11 view .LVU476
 1492 0178 ADE7     		b	.L37
 1493              	.L38:
 274:Core/Src/main.c ****     if (macFlag[2] != 0)
 1494              		.loc 1 274 7 is_stmt 1 view .LVU477
 274:Core/Src/main.c ****     if (macFlag[2] != 0)
 1495              		.loc 1 274 11 is_stmt 0 view .LVU478
 1496 017a 1024     		movs	r4, #16
 1497 017c A343     		bics	r3, r4
 1498              	.LVL85:
 274:Core/Src/main.c ****     if (macFlag[2] != 0)
 1499              		.loc 1 274 11 view .LVU479
 1500 017e B0E7     		b	.L39
 1501              	.L40:
 278:Core/Src/main.c ****     TxBufU2[3] = Tmp >> 8;
 1502              		.loc 1 278 7 is_stmt 1 view .LVU480
 278:Core/Src/main.c ****     TxBufU2[3] = Tmp >> 8;
 1503              		.loc 1 278 11 is_stmt 0 view .LVU481
 1504 0180 2024     		movs	r4, #32
 1505 0182 A343     		bics	r3, r4
 1506              	.LVL86:
 278:Core/Src/main.c ****     TxBufU2[3] = Tmp >> 8;
 1507              		.loc 1 278 11 view .LVU482
 1508 0184 B3E7     		b	.L41
 1509              	.LVL87:
 1510              	.L47:
 278:Core/Src/main.c ****     TxBufU2[3] = Tmp >> 8;
 1511              		.loc 1 278 11 view .LVU483
 1512              	.LBE7:
 305:Core/Src/main.c ****       RxBufU2[2] == 0xD1 &&
 1513              		.loc 1 305 14 view .LVU484
 1514 0186 4E4B     		ldr	r3, .L50+8
 1515 0188 5B78     		ldrb	r3, [r3, #1]
 304:Core/Src/main.c ****       RxBufU2[1] == 0x04 &&
 1516              		.loc 1 304 26 view .LVU485
 1517 018a 042B     		cmp	r3, #4
 1518 018c 00D0     		beq	.LCB1282
 1519 018e 56E7     		b	.L42	@long jump
 1520              	.LCB1282:
 306:Core/Src/main.c ****       RxBufU2[5] == 0xFB && RxLenU2 == 6)
ARM GAS  C:\Users\57298\AppData\Local\Temp\cc5d07uv.s 			page 48


 1521              		.loc 1 306 14 view .LVU486
 1522 0190 4B4B     		ldr	r3, .L50+8
 1523 0192 9B78     		ldrb	r3, [r3, #2]
 305:Core/Src/main.c ****       RxBufU2[2] == 0xD1 &&
 1524              		.loc 1 305 26 view .LVU487
 1525 0194 D12B     		cmp	r3, #209
 1526 0196 00D0     		beq	.LCB1286
 1527 0198 51E7     		b	.L42	@long jump
 1528              	.LCB1286:
 307:Core/Src/main.c ****   {
 1529              		.loc 1 307 14 view .LVU488
 1530 019a 494B     		ldr	r3, .L50+8
 1531 019c 5B79     		ldrb	r3, [r3, #5]
 306:Core/Src/main.c ****       RxBufU2[5] == 0xFB && RxLenU2 == 6)
 1532              		.loc 1 306 26 view .LVU489
 1533 019e FB2B     		cmp	r3, #251
 1534 01a0 00D0     		beq	.LCB1290
 1535 01a2 4CE7     		b	.L42	@long jump
 1536              	.LCB1290:
 307:Core/Src/main.c ****   {
 1537              		.loc 1 307 37 view .LVU490
 1538 01a4 454B     		ldr	r3, .L50+4
 1539 01a6 1B88     		ldrh	r3, [r3]
 307:Core/Src/main.c ****   {
 1540              		.loc 1 307 26 view .LVU491
 1541 01a8 062B     		cmp	r3, #6
 1542 01aa 00D0     		beq	.LCB1294
 1543 01ac 47E7     		b	.L42	@long jump
 1544              	.LCB1294:
 309:Core/Src/main.c ****     ADCPause;
 1545              		.loc 1 309 5 is_stmt 1 view .LVU492
 309:Core/Src/main.c ****     ADCPause;
 1546              		.loc 1 309 26 is_stmt 0 view .LVU493
 1547 01ae 444D     		ldr	r5, .L50+8
 1548 01b0 EA78     		ldrb	r2, [r5, #3]
 309:Core/Src/main.c ****     ADCPause;
 1549              		.loc 1 309 17 view .LVU494
 1550 01b2 4A4B     		ldr	r3, .L50+36
 1551 01b4 1A73     		strb	r2, [r3, #12]
 310:Core/Src/main.c ****     TxEn;
 1552              		.loc 1 310 5 is_stmt 1 view .LVU495
 1553 01b6 4B4C     		ldr	r4, .L50+44
 1554 01b8 2000     		movs	r0, r4
 1555 01ba FFF7FEFF 		bl	HAL_ADC_Stop_DMA
 1556              	.LVL88:
 311:Core/Src/main.c ****     HAL_UART_Transmit(&huart2, RxBufU2, rsRxIndex, 100);
 1557              		.loc 1 311 5 view .LVU496
 1558 01be 9020     		movs	r0, #144
 1559 01c0 0122     		movs	r2, #1
 1560 01c2 0221     		movs	r1, #2
 1561 01c4 C005     		lsls	r0, r0, #23
 1562 01c6 FFF7FEFF 		bl	HAL_GPIO_WritePin
 1563              	.LVL89:
 312:Core/Src/main.c ****     ADCContinue;
 1564              		.loc 1 312 5 view .LVU497
 1565 01ca 494B     		ldr	r3, .L50+56
 1566 01cc 1A88     		ldrh	r2, [r3]
ARM GAS  C:\Users\57298\AppData\Local\Temp\cc5d07uv.s 			page 49


 1567 01ce 6423     		movs	r3, #100
 1568 01d0 2900     		movs	r1, r5
 1569 01d2 3948     		ldr	r0, .L50
 1570 01d4 FFF7FEFF 		bl	HAL_UART_Transmit
 1571              	.LVL90:
 313:Core/Src/main.c ****   }
 1572              		.loc 1 313 5 view .LVU498
 1573 01d8 434A     		ldr	r2, .L50+48
 1574 01da 4449     		ldr	r1, .L50+52
 1575 01dc 2000     		movs	r0, r4
 1576 01de FFF7FEFF 		bl	HAL_ADC_Start_DMA
 1577              	.LVL91:
 1578 01e2 2CE7     		b	.L42
 1579              	.L48:
 318:Core/Src/main.c ****       RxBufU2[2] == 0xD2 &&
 1580              		.loc 1 318 14 is_stmt 0 view .LVU499
 1581 01e4 364B     		ldr	r3, .L50+8
 1582 01e6 5B78     		ldrb	r3, [r3, #1]
 317:Core/Src/main.c ****       RxBufU2[1] == 0x04 &&
 1583              		.loc 1 317 26 view .LVU500
 1584 01e8 042B     		cmp	r3, #4
 1585 01ea 00D0     		beq	.LCB1329
 1586 01ec 2CE7     		b	.L43	@long jump
 1587              	.LCB1329:
 319:Core/Src/main.c ****       RxBufU2[5] == 0xFB && RxLenU2 == 6)
 1588              		.loc 1 319 14 view .LVU501
 1589 01ee 344B     		ldr	r3, .L50+8
 1590 01f0 9B78     		ldrb	r3, [r3, #2]
 318:Core/Src/main.c ****       RxBufU2[2] == 0xD2 &&
 1591              		.loc 1 318 26 view .LVU502
 1592 01f2 D22B     		cmp	r3, #210
 1593 01f4 00D0     		beq	.LCB1333
 1594 01f6 27E7     		b	.L43	@long jump
 1595              	.LCB1333:
 320:Core/Src/main.c ****   {
 1596              		.loc 1 320 14 view .LVU503
 1597 01f8 314B     		ldr	r3, .L50+8
 1598 01fa 5B79     		ldrb	r3, [r3, #5]
 319:Core/Src/main.c ****       RxBufU2[5] == 0xFB && RxLenU2 == 6)
 1599              		.loc 1 319 26 view .LVU504
 1600 01fc FB2B     		cmp	r3, #251
 1601 01fe 00D0     		beq	.LCB1337
 1602 0200 22E7     		b	.L43	@long jump
 1603              	.LCB1337:
 320:Core/Src/main.c ****   {
 1604              		.loc 1 320 37 view .LVU505
 1605 0202 2E4B     		ldr	r3, .L50+4
 1606 0204 1B88     		ldrh	r3, [r3]
 320:Core/Src/main.c ****   {
 1607              		.loc 1 320 26 view .LVU506
 1608 0206 062B     		cmp	r3, #6
 1609 0208 00D0     		beq	.LCB1341
 1610 020a 1DE7     		b	.L43	@long jump
 1611              	.LCB1341:
 322:Core/Src/main.c ****     ADCPause;
 1612              		.loc 1 322 5 is_stmt 1 view .LVU507
 322:Core/Src/main.c ****     ADCPause;
ARM GAS  C:\Users\57298\AppData\Local\Temp\cc5d07uv.s 			page 50


 1613              		.loc 1 322 26 is_stmt 0 view .LVU508
 1614 020c 2C4D     		ldr	r5, .L50+8
 1615 020e EA78     		ldrb	r2, [r5, #3]
 322:Core/Src/main.c ****     ADCPause;
 1616              		.loc 1 322 17 view .LVU509
 1617 0210 324B     		ldr	r3, .L50+36
 1618 0212 DA73     		strb	r2, [r3, #15]
 323:Core/Src/main.c ****     TxEn;
 1619              		.loc 1 323 5 is_stmt 1 view .LVU510
 1620 0214 334C     		ldr	r4, .L50+44
 1621 0216 2000     		movs	r0, r4
 1622 0218 FFF7FEFF 		bl	HAL_ADC_Stop_DMA
 1623              	.LVL92:
 324:Core/Src/main.c ****     HAL_UART_Transmit(&huart2, RxBufU2, rsRxIndex, 100);
 1624              		.loc 1 324 5 view .LVU511
 1625 021c 9020     		movs	r0, #144
 1626 021e 0122     		movs	r2, #1
 1627 0220 0221     		movs	r1, #2
 1628 0222 C005     		lsls	r0, r0, #23
 1629 0224 FFF7FEFF 		bl	HAL_GPIO_WritePin
 1630              	.LVL93:
 325:Core/Src/main.c ****     ADCContinue;
 1631              		.loc 1 325 5 view .LVU512
 1632 0228 314B     		ldr	r3, .L50+56
 1633 022a 1A88     		ldrh	r2, [r3]
 1634 022c 6423     		movs	r3, #100
 1635 022e 2900     		movs	r1, r5
 1636 0230 2148     		ldr	r0, .L50
 1637 0232 FFF7FEFF 		bl	HAL_UART_Transmit
 1638              	.LVL94:
 326:Core/Src/main.c ****   }
 1639              		.loc 1 326 5 view .LVU513
 1640 0236 2C4A     		ldr	r2, .L50+48
 1641 0238 2C49     		ldr	r1, .L50+52
 1642 023a 2000     		movs	r0, r4
 1643 023c FFF7FEFF 		bl	HAL_ADC_Start_DMA
 1644              	.LVL95:
 1645 0240 02E7     		b	.L43
 1646              	.L49:
 331:Core/Src/main.c ****       RxBufU2[2] == 0xF1 &&
 1647              		.loc 1 331 14 is_stmt 0 view .LVU514
 1648 0242 1F4B     		ldr	r3, .L50+8
 1649 0244 5B78     		ldrb	r3, [r3, #1]
 330:Core/Src/main.c ****       RxBufU2[1] == 0x04 &&
 1650              		.loc 1 330 26 view .LVU515
 1651 0246 042B     		cmp	r3, #4
 1652 0248 00D0     		beq	.LCB1376
 1653 024a 02E7     		b	.L44	@long jump
 1654              	.LCB1376:
 332:Core/Src/main.c ****       RxBufU2[5] == 0xFB && RxLenU2 == 6)
 1655              		.loc 1 332 14 view .LVU516
 1656 024c 1C4B     		ldr	r3, .L50+8
 1657 024e 9B78     		ldrb	r3, [r3, #2]
 331:Core/Src/main.c ****       RxBufU2[2] == 0xF1 &&
 1658              		.loc 1 331 26 view .LVU517
 1659 0250 F12B     		cmp	r3, #241
 1660 0252 00D0     		beq	.LCB1380
ARM GAS  C:\Users\57298\AppData\Local\Temp\cc5d07uv.s 			page 51


 1661 0254 FDE6     		b	.L44	@long jump
 1662              	.LCB1380:
 333:Core/Src/main.c ****   {
 1663              		.loc 1 333 14 view .LVU518
 1664 0256 1A4B     		ldr	r3, .L50+8
 1665 0258 5B79     		ldrb	r3, [r3, #5]
 332:Core/Src/main.c ****       RxBufU2[5] == 0xFB && RxLenU2 == 6)
 1666              		.loc 1 332 26 view .LVU519
 1667 025a FB2B     		cmp	r3, #251
 1668 025c 00D0     		beq	.LCB1384
 1669 025e F8E6     		b	.L44	@long jump
 1670              	.LCB1384:
 333:Core/Src/main.c ****   {
 1671              		.loc 1 333 37 view .LVU520
 1672 0260 164B     		ldr	r3, .L50+4
 1673 0262 1B88     		ldrh	r3, [r3]
 333:Core/Src/main.c ****   {
 1674              		.loc 1 333 26 view .LVU521
 1675 0264 062B     		cmp	r3, #6
 1676 0266 00D0     		beq	.LCB1388
 1677 0268 F3E6     		b	.L44	@long jump
 1678              	.LCB1388:
 1679              	.LBB8:
 335:Core/Src/main.c ****     TxBufU2[i++] = 0xFA;
 1680              		.loc 1 335 5 is_stmt 1 view .LVU522
 336:Core/Src/main.c ****     TxBufU2[i++] = 0x04;
 1681              		.loc 1 336 5 view .LVU523
 1682              	.LVL96:
 336:Core/Src/main.c ****     TxBufU2[i++] = 0x04;
 1683              		.loc 1 336 18 is_stmt 0 view .LVU524
 1684 026a 174C     		ldr	r4, .L50+16
 1685 026c F433     		adds	r3, r3, #244
 1686 026e 2370     		strb	r3, [r4]
 337:Core/Src/main.c ****     TxBufU2[i++] = 0xF1;
 1687              		.loc 1 337 5 is_stmt 1 view .LVU525
 1688              	.LVL97:
 337:Core/Src/main.c ****     TxBufU2[i++] = 0xF1;
 1689              		.loc 1 337 18 is_stmt 0 view .LVU526
 1690 0270 F63B     		subs	r3, r3, #246
 1691 0272 6370     		strb	r3, [r4, #1]
 338:Core/Src/main.c ****     unsigned int sDataLen = sizeof(sRundata);
 1692              		.loc 1 338 5 is_stmt 1 view .LVU527
 1693              	.LVL98:
 338:Core/Src/main.c ****     unsigned int sDataLen = sizeof(sRundata);
 1694              		.loc 1 338 18 is_stmt 0 view .LVU528
 1695 0274 ED33     		adds	r3, r3, #237
 1696 0276 A370     		strb	r3, [r4, #2]
 339:Core/Src/main.c ****     LoadReadData();
 1697              		.loc 1 339 5 is_stmt 1 view .LVU529
 1698              	.LVL99:
 340:Core/Src/main.c ****     memcpy(&TxBufU2[i], (unsigned char *)&sRundata, sDataLen);
 1699              		.loc 1 340 5 view .LVU530
 1700 0278 FFF7FEFF 		bl	LoadReadData
 1701              	.LVL100:
 341:Core/Src/main.c ****     i = i + sDataLen;
 1702              		.loc 1 341 5 view .LVU531
 1703 027c E01C     		adds	r0, r4, #3
ARM GAS  C:\Users\57298\AppData\Local\Temp\cc5d07uv.s 			page 52


 1704 027e 8122     		movs	r2, #129
 1705 0280 1C49     		ldr	r1, .L50+60
 1706 0282 FFF7FEFF 		bl	memcpy
 1707              	.LVL101:
 342:Core/Src/main.c ****     TxBufU2[i++] = 0xFB;
 1708              		.loc 1 342 5 view .LVU532
 343:Core/Src/main.c ****     ADCPause;
 1709              		.loc 1 343 5 view .LVU533
 343:Core/Src/main.c ****     ADCPause;
 1710              		.loc 1 343 18 is_stmt 0 view .LVU534
 1711 0286 8423     		movs	r3, #132
 1712 0288 FB22     		movs	r2, #251
 1713 028a E254     		strb	r2, [r4, r3]
 344:Core/Src/main.c ****     TxEn;
 1714              		.loc 1 344 5 is_stmt 1 view .LVU535
 1715 028c 154D     		ldr	r5, .L50+44
 1716 028e 2800     		movs	r0, r5
 1717 0290 FFF7FEFF 		bl	HAL_ADC_Stop_DMA
 1718              	.LVL102:
 345:Core/Src/main.c ****     HAL_UART_Transmit(&huart2, TxBufU2, i, 100);
 1719              		.loc 1 345 5 view .LVU536
 1720 0294 9020     		movs	r0, #144
 1721 0296 0122     		movs	r2, #1
 1722 0298 0221     		movs	r1, #2
 1723 029a C005     		lsls	r0, r0, #23
 1724 029c FFF7FEFF 		bl	HAL_GPIO_WritePin
 1725              	.LVL103:
 346:Core/Src/main.c ****     ADCContinue;
 1726              		.loc 1 346 5 view .LVU537
 1727 02a0 6423     		movs	r3, #100
 1728 02a2 8522     		movs	r2, #133
 1729 02a4 2100     		movs	r1, r4
 1730 02a6 0448     		ldr	r0, .L50
 1731 02a8 FFF7FEFF 		bl	HAL_UART_Transmit
 1732              	.LVL104:
 347:Core/Src/main.c ****   }
 1733              		.loc 1 347 5 view .LVU538
 1734 02ac 0E4A     		ldr	r2, .L50+48
 1735 02ae 0F49     		ldr	r1, .L50+52
 1736 02b0 2800     		movs	r0, r5
 1737 02b2 FFF7FEFF 		bl	HAL_ADC_Start_DMA
 1738              	.LVL105:
 1739 02b6 CCE6     		b	.L44
 1740              	.L51:
 1741              		.align	2
 1742              	.L50:
 1743 02b8 00000000 		.word	huart2
 1744 02bc 00000000 		.word	.LANCHOR2
 1745 02c0 00000000 		.word	RxBufU2
 1746 02c4 00000000 		.word	addr
 1747 02c8 00000000 		.word	TxBufU2
 1748 02cc 00000000 		.word	Ta
 1749 02d0 00000000 		.word	Tset3
 1750 02d4 00000000 		.word	Tb
 1751 02d8 00000000 		.word	Tc
 1752 02dc 00000000 		.word	macFlag
 1753 02e0 00000000 		.word	FenH
ARM GAS  C:\Users\57298\AppData\Local\Temp\cc5d07uv.s 			page 53


 1754 02e4 00000000 		.word	.LANCHOR0
 1755 02e8 DC050000 		.word	1500
 1756 02ec 00000000 		.word	AdDataOrig
 1757 02f0 00000000 		.word	.LANCHOR3
 1758 02f4 00000000 		.word	sRundata
 1759              	.LBE8:
 1760              		.cfi_endproc
 1761              	.LFE45:
 1763              		.section	.text.SystemClock_Config,"ax",%progbits
 1764              		.align	1
 1765              		.global	SystemClock_Config
 1766              		.syntax unified
 1767              		.code	16
 1768              		.thumb_func
 1770              	SystemClock_Config:
 1771              	.LFB47:
 425:Core/Src/main.c ****   RCC_OscInitTypeDef RCC_OscInitStruct = {0};
 1772              		.loc 1 425 1 view -0
 1773              		.cfi_startproc
 1774              		@ args = 0, pretend = 0, frame = 80
 1775              		@ frame_needed = 0, uses_anonymous_args = 0
 1776 0000 30B5     		push	{r4, r5, lr}
 1777              	.LCFI13:
 1778              		.cfi_def_cfa_offset 12
 1779              		.cfi_offset 4, -12
 1780              		.cfi_offset 5, -8
 1781              		.cfi_offset 14, -4
 1782 0002 95B0     		sub	sp, sp, #84
 1783              	.LCFI14:
 1784              		.cfi_def_cfa_offset 96
 426:Core/Src/main.c ****   RCC_ClkInitTypeDef RCC_ClkInitStruct = {0};
 1785              		.loc 1 426 3 view .LVU540
 426:Core/Src/main.c ****   RCC_ClkInitTypeDef RCC_ClkInitStruct = {0};
 1786              		.loc 1 426 22 is_stmt 0 view .LVU541
 1787 0004 3022     		movs	r2, #48
 1788 0006 0021     		movs	r1, #0
 1789 0008 08A8     		add	r0, sp, #32
 1790 000a FFF7FEFF 		bl	memset
 1791              	.LVL106:
 427:Core/Src/main.c ****   RCC_PeriphCLKInitTypeDef PeriphClkInit = {0};
 1792              		.loc 1 427 3 is_stmt 1 view .LVU542
 427:Core/Src/main.c ****   RCC_PeriphCLKInitTypeDef PeriphClkInit = {0};
 1793              		.loc 1 427 22 is_stmt 0 view .LVU543
 1794 000e 1024     		movs	r4, #16
 1795 0010 1022     		movs	r2, #16
 1796 0012 0021     		movs	r1, #0
 1797 0014 04A8     		add	r0, sp, #16
 1798 0016 FFF7FEFF 		bl	memset
 1799              	.LVL107:
 428:Core/Src/main.c **** 
 1800              		.loc 1 428 3 is_stmt 1 view .LVU544
 428:Core/Src/main.c **** 
 1801              		.loc 1 428 28 is_stmt 0 view .LVU545
 1802 001a 1022     		movs	r2, #16
 1803 001c 0021     		movs	r1, #0
 1804 001e 6846     		mov	r0, sp
 1805 0020 FFF7FEFF 		bl	memset
ARM GAS  C:\Users\57298\AppData\Local\Temp\cc5d07uv.s 			page 54


 1806              	.LVL108:
 433:Core/Src/main.c ****   RCC_OscInitStruct.HSIState = RCC_HSI_ON;
 1807              		.loc 1 433 3 is_stmt 1 view .LVU546
 433:Core/Src/main.c ****   RCC_OscInitStruct.HSIState = RCC_HSI_ON;
 1808              		.loc 1 433 36 is_stmt 0 view .LVU547
 1809 0024 1A23     		movs	r3, #26
 1810 0026 0893     		str	r3, [sp, #32]
 434:Core/Src/main.c ****   RCC_OscInitStruct.HSI14State = RCC_HSI14_ON;
 1811              		.loc 1 434 3 is_stmt 1 view .LVU548
 434:Core/Src/main.c ****   RCC_OscInitStruct.HSI14State = RCC_HSI14_ON;
 1812              		.loc 1 434 30 is_stmt 0 view .LVU549
 1813 0028 193B     		subs	r3, r3, #25
 1814 002a 0B93     		str	r3, [sp, #44]
 435:Core/Src/main.c ****   RCC_OscInitStruct.HSICalibrationValue = RCC_HSICALIBRATION_DEFAULT;
 1815              		.loc 1 435 3 is_stmt 1 view .LVU550
 435:Core/Src/main.c ****   RCC_OscInitStruct.HSICalibrationValue = RCC_HSICALIBRATION_DEFAULT;
 1816              		.loc 1 435 32 is_stmt 0 view .LVU551
 1817 002c 0D93     		str	r3, [sp, #52]
 436:Core/Src/main.c ****   RCC_OscInitStruct.HSI14CalibrationValue = 16;
 1818              		.loc 1 436 3 is_stmt 1 view .LVU552
 436:Core/Src/main.c ****   RCC_OscInitStruct.HSI14CalibrationValue = 16;
 1819              		.loc 1 436 41 is_stmt 0 view .LVU553
 1820 002e 0C94     		str	r4, [sp, #48]
 437:Core/Src/main.c ****   RCC_OscInitStruct.LSIState = RCC_LSI_ON;
 1821              		.loc 1 437 3 is_stmt 1 view .LVU554
 437:Core/Src/main.c ****   RCC_OscInitStruct.LSIState = RCC_LSI_ON;
 1822              		.loc 1 437 43 is_stmt 0 view .LVU555
 1823 0030 0E94     		str	r4, [sp, #56]
 438:Core/Src/main.c ****   RCC_OscInitStruct.PLL.PLLState = RCC_PLL_ON;
 1824              		.loc 1 438 3 is_stmt 1 view .LVU556
 438:Core/Src/main.c ****   RCC_OscInitStruct.PLL.PLLState = RCC_PLL_ON;
 1825              		.loc 1 438 30 is_stmt 0 view .LVU557
 1826 0032 0F93     		str	r3, [sp, #60]
 439:Core/Src/main.c ****   RCC_OscInitStruct.PLL.PLLSource = RCC_PLLSOURCE_HSI;
 1827              		.loc 1 439 3 is_stmt 1 view .LVU558
 439:Core/Src/main.c ****   RCC_OscInitStruct.PLL.PLLSource = RCC_PLLSOURCE_HSI;
 1828              		.loc 1 439 34 is_stmt 0 view .LVU559
 1829 0034 0225     		movs	r5, #2
 1830 0036 1095     		str	r5, [sp, #64]
 440:Core/Src/main.c ****   RCC_OscInitStruct.PLL.PLLMUL = RCC_PLL_MUL9;
 1831              		.loc 1 440 3 is_stmt 1 view .LVU560
 441:Core/Src/main.c ****   RCC_OscInitStruct.PLL.PREDIV = RCC_PREDIV_DIV2;
 1832              		.loc 1 441 3 view .LVU561
 441:Core/Src/main.c ****   RCC_OscInitStruct.PLL.PREDIV = RCC_PREDIV_DIV2;
 1833              		.loc 1 441 32 is_stmt 0 view .LVU562
 1834 0038 E022     		movs	r2, #224
 1835 003a 5203     		lsls	r2, r2, #13
 1836 003c 1292     		str	r2, [sp, #72]
 442:Core/Src/main.c ****   if (HAL_RCC_OscConfig(&RCC_OscInitStruct) != HAL_OK)
 1837              		.loc 1 442 3 is_stmt 1 view .LVU563
 442:Core/Src/main.c ****   if (HAL_RCC_OscConfig(&RCC_OscInitStruct) != HAL_OK)
 1838              		.loc 1 442 32 is_stmt 0 view .LVU564
 1839 003e 1393     		str	r3, [sp, #76]
 443:Core/Src/main.c ****   {
 1840              		.loc 1 443 3 is_stmt 1 view .LVU565
 443:Core/Src/main.c ****   {
 1841              		.loc 1 443 7 is_stmt 0 view .LVU566
ARM GAS  C:\Users\57298\AppData\Local\Temp\cc5d07uv.s 			page 55


 1842 0040 08A8     		add	r0, sp, #32
 1843 0042 FFF7FEFF 		bl	HAL_RCC_OscConfig
 1844              	.LVL109:
 450:Core/Src/main.c ****   RCC_ClkInitStruct.SYSCLKSource = RCC_SYSCLKSOURCE_PLLCLK;
 1845              		.loc 1 450 3 is_stmt 1 view .LVU567
 450:Core/Src/main.c ****   RCC_ClkInitStruct.SYSCLKSource = RCC_SYSCLKSOURCE_PLLCLK;
 1846              		.loc 1 450 31 is_stmt 0 view .LVU568
 1847 0046 0723     		movs	r3, #7
 1848 0048 0493     		str	r3, [sp, #16]
 451:Core/Src/main.c ****   RCC_ClkInitStruct.AHBCLKDivider = RCC_SYSCLK_DIV1;
 1849              		.loc 1 451 3 is_stmt 1 view .LVU569
 451:Core/Src/main.c ****   RCC_ClkInitStruct.AHBCLKDivider = RCC_SYSCLK_DIV1;
 1850              		.loc 1 451 34 is_stmt 0 view .LVU570
 1851 004a 0595     		str	r5, [sp, #20]
 452:Core/Src/main.c ****   RCC_ClkInitStruct.APB1CLKDivider = RCC_HCLK_DIV1;
 1852              		.loc 1 452 3 is_stmt 1 view .LVU571
 452:Core/Src/main.c ****   RCC_ClkInitStruct.APB1CLKDivider = RCC_HCLK_DIV1;
 1853              		.loc 1 452 35 is_stmt 0 view .LVU572
 1854 004c 0025     		movs	r5, #0
 1855 004e 0695     		str	r5, [sp, #24]
 453:Core/Src/main.c **** 
 1856              		.loc 1 453 3 is_stmt 1 view .LVU573
 453:Core/Src/main.c **** 
 1857              		.loc 1 453 36 is_stmt 0 view .LVU574
 1858 0050 0795     		str	r5, [sp, #28]
 455:Core/Src/main.c ****   {
 1859              		.loc 1 455 3 is_stmt 1 view .LVU575
 455:Core/Src/main.c ****   {
 1860              		.loc 1 455 7 is_stmt 0 view .LVU576
 1861 0052 0121     		movs	r1, #1
 1862 0054 04A8     		add	r0, sp, #16
 1863 0056 FFF7FEFF 		bl	HAL_RCC_ClockConfig
 1864              	.LVL110:
 459:Core/Src/main.c ****   PeriphClkInit.Usart1ClockSelection = RCC_USART1CLKSOURCE_PCLK1;
 1865              		.loc 1 459 3 is_stmt 1 view .LVU577
 459:Core/Src/main.c ****   PeriphClkInit.Usart1ClockSelection = RCC_USART1CLKSOURCE_PCLK1;
 1866              		.loc 1 459 38 is_stmt 0 view .LVU578
 1867 005a 2123     		movs	r3, #33
 1868 005c 0093     		str	r3, [sp]
 460:Core/Src/main.c ****   PeriphClkInit.I2c1ClockSelection = RCC_I2C1CLKSOURCE_SYSCLK;
 1869              		.loc 1 460 3 is_stmt 1 view .LVU579
 460:Core/Src/main.c ****   PeriphClkInit.I2c1ClockSelection = RCC_I2C1CLKSOURCE_SYSCLK;
 1870              		.loc 1 460 38 is_stmt 0 view .LVU580
 1871 005e 0295     		str	r5, [sp, #8]
 461:Core/Src/main.c ****   if (HAL_RCCEx_PeriphCLKConfig(&PeriphClkInit) != HAL_OK)
 1872              		.loc 1 461 3 is_stmt 1 view .LVU581
 461:Core/Src/main.c ****   if (HAL_RCCEx_PeriphCLKConfig(&PeriphClkInit) != HAL_OK)
 1873              		.loc 1 461 36 is_stmt 0 view .LVU582
 1874 0060 0394     		str	r4, [sp, #12]
 462:Core/Src/main.c ****   {
 1875              		.loc 1 462 3 is_stmt 1 view .LVU583
 462:Core/Src/main.c ****   {
 1876              		.loc 1 462 7 is_stmt 0 view .LVU584
 1877 0062 6846     		mov	r0, sp
 1878 0064 FFF7FEFF 		bl	HAL_RCCEx_PeriphCLKConfig
 1879              	.LVL111:
 466:Core/Src/main.c **** 
ARM GAS  C:\Users\57298\AppData\Local\Temp\cc5d07uv.s 			page 56


 1880              		.loc 1 466 1 view .LVU585
 1881 0068 15B0     		add	sp, sp, #84
 1882              		@ sp needed
 1883 006a 30BD     		pop	{r4, r5, pc}
 1884              		.cfi_endproc
 1885              	.LFE47:
 1887              		.section	.text.main,"ax",%progbits
 1888              		.align	1
 1889              		.global	main
 1890              		.syntax unified
 1891              		.code	16
 1892              		.thumb_func
 1894              	main:
 1895              	.LFB46:
 360:Core/Src/main.c ****   /* USER CODE BEGIN 1 */
 1896              		.loc 1 360 1 is_stmt 1 view -0
 1897              		.cfi_startproc
 1898              		@ Volatile: function does not return.
 1899              		@ args = 0, pretend = 0, frame = 0
 1900              		@ frame_needed = 0, uses_anonymous_args = 0
 1901 0000 10B5     		push	{r4, lr}
 1902              	.LCFI15:
 1903              		.cfi_def_cfa_offset 8
 1904              		.cfi_offset 4, -8
 1905              		.cfi_offset 14, -4
 368:Core/Src/main.c **** 
 1906              		.loc 1 368 3 view .LVU587
 1907 0002 FFF7FEFF 		bl	HAL_Init
 1908              	.LVL112:
 375:Core/Src/main.c **** 
 1909              		.loc 1 375 3 view .LVU588
 1910 0006 FFF7FEFF 		bl	SystemClock_Config
 1911              	.LVL113:
 382:Core/Src/main.c ****   MX_DMA_Init();
 1912              		.loc 1 382 3 view .LVU589
 1913 000a FFF7FEFF 		bl	MX_GPIO_Init
 1914              	.LVL114:
 383:Core/Src/main.c ****   MX_ADC_Init();
 1915              		.loc 1 383 3 view .LVU590
 1916 000e FFF7FEFF 		bl	MX_DMA_Init
 1917              	.LVL115:
 384:Core/Src/main.c ****   MX_I2C1_Init();
 1918              		.loc 1 384 3 view .LVU591
 1919 0012 FFF7FEFF 		bl	MX_ADC_Init
 1920              	.LVL116:
 385:Core/Src/main.c ****   MX_USART1_UART_Init();
 1921              		.loc 1 385 3 view .LVU592
 1922 0016 FFF7FEFF 		bl	MX_I2C1_Init
 1923              	.LVL117:
 386:Core/Src/main.c ****   MX_USART2_UART_Init();
 1924              		.loc 1 386 3 view .LVU593
 1925 001a FFF7FEFF 		bl	MX_USART1_UART_Init
 1926              	.LVL118:
 387:Core/Src/main.c ****   // MX_IWDG_Init();
 1927              		.loc 1 387 3 view .LVU594
 1928 001e FFF7FEFF 		bl	MX_USART2_UART_Init
 1929              	.LVL119:
ARM GAS  C:\Users\57298\AppData\Local\Temp\cc5d07uv.s 			page 57


 390:Core/Src/main.c **** 
 1930              		.loc 1 390 3 view .LVU595
 1931 0022 FFF7FEFF 		bl	DS18B20Configuration
 1932              	.LVL120:
 392:Core/Src/main.c ****   HAL_ADC_Start_DMA(&hadc, (uint32_t *)&AdDataOrig, 1500); // 开启采样
 1933              		.loc 1 392 3 view .LVU596
 1934 0026 FFF7FEFF 		bl	TM1640_GPIO_Config
 1935              	.LVL121:
 393:Core/Src/main.c ****   JDQ1_L;
 1936              		.loc 1 393 3 view .LVU597
 1937 002a 224A     		ldr	r2, .L55
 1938 002c 2249     		ldr	r1, .L55+4
 1939 002e 2348     		ldr	r0, .L55+8
 1940 0030 FFF7FEFF 		bl	HAL_ADC_Start_DMA
 1941              	.LVL122:
 394:Core/Src/main.c ****   JDQ2_L;
 1942              		.loc 1 394 3 view .LVU598
 1943 0034 8021     		movs	r1, #128
 1944 0036 224C     		ldr	r4, .L55+12
 1945 0038 0022     		movs	r2, #0
 1946 003a 8901     		lsls	r1, r1, #6
 1947 003c 2000     		movs	r0, r4
 1948 003e FFF7FEFF 		bl	HAL_GPIO_WritePin
 1949              	.LVL123:
 395:Core/Src/main.c ****   JDQ3_L;
 1950              		.loc 1 395 3 view .LVU599
 1951 0042 8021     		movs	r1, #128
 1952 0044 0022     		movs	r2, #0
 1953 0046 C901     		lsls	r1, r1, #7
 1954 0048 2000     		movs	r0, r4
 1955 004a FFF7FEFF 		bl	HAL_GPIO_WritePin
 1956              	.LVL124:
 396:Core/Src/main.c ****   JDQ4_L;
 1957              		.loc 1 396 3 view .LVU600
 1958 004e 1D4C     		ldr	r4, .L55+16
 1959 0050 0022     		movs	r2, #0
 1960 0052 1021     		movs	r1, #16
 1961 0054 2000     		movs	r0, r4
 1962 0056 FFF7FEFF 		bl	HAL_GPIO_WritePin
 1963              	.LVL125:
 397:Core/Src/main.c ****   JDQ5_L;
 1964              		.loc 1 397 3 view .LVU601
 1965 005a 0022     		movs	r2, #0
 1966 005c 2021     		movs	r1, #32
 1967 005e 2000     		movs	r0, r4
 1968 0060 FFF7FEFF 		bl	HAL_GPIO_WritePin
 1969              	.LVL126:
 398:Core/Src/main.c ****   JDQ6_L;
 1970              		.loc 1 398 3 view .LVU602
 1971 0064 0022     		movs	r2, #0
 1972 0066 0821     		movs	r1, #8
 1973 0068 2000     		movs	r0, r4
 1974 006a FFF7FEFF 		bl	HAL_GPIO_WritePin
 1975              	.LVL127:
 399:Core/Src/main.c ****   LoadPara();
 1976              		.loc 1 399 3 view .LVU603
 1977 006e 8021     		movs	r1, #128
ARM GAS  C:\Users\57298\AppData\Local\Temp\cc5d07uv.s 			page 58


 1978 0070 9024     		movs	r4, #144
 1979 0072 E405     		lsls	r4, r4, #23
 1980 0074 0022     		movs	r2, #0
 1981 0076 0902     		lsls	r1, r1, #8
 1982 0078 2000     		movs	r0, r4
 1983 007a FFF7FEFF 		bl	HAL_GPIO_WritePin
 1984              	.LVL128:
 400:Core/Src/main.c ****   RxEn;
 1985              		.loc 1 400 3 view .LVU604
 1986 007e FFF7FEFF 		bl	LoadPara
 1987              	.LVL129:
 401:Core/Src/main.c ****   HAL_UART_Receive_DMA(&huart2, RxBufU2, MAXRXU2);
 1988              		.loc 1 401 3 view .LVU605
 1989 0082 0022     		movs	r2, #0
 1990 0084 0221     		movs	r1, #2
 1991 0086 2000     		movs	r0, r4
 1992 0088 FFF7FEFF 		bl	HAL_GPIO_WritePin
 1993              	.LVL130:
 402:Core/Src/main.c ****   __HAL_UART_ENABLE_IT(&huart2, UART_IT_IDLE);
 1994              		.loc 1 402 3 view .LVU606
 1995 008c FA22     		movs	r2, #250
 1996 008e 0E4C     		ldr	r4, .L55+20
 1997 0090 5200     		lsls	r2, r2, #1
 1998 0092 0E49     		ldr	r1, .L55+24
 1999 0094 2000     		movs	r0, r4
 2000 0096 FFF7FEFF 		bl	HAL_UART_Receive_DMA
 2001              	.LVL131:
 403:Core/Src/main.c ****   BeepOn;
 2002              		.loc 1 403 3 view .LVU607
 2003 009a 2268     		ldr	r2, [r4]
 2004 009c 1368     		ldr	r3, [r2]
 2005 009e 1021     		movs	r1, #16
 2006 00a0 0B43     		orrs	r3, r1
 2007 00a2 1360     		str	r3, [r2]
 404:Core/Src/main.c ****   /* USER CODE END 2 */
 2008              		.loc 1 404 3 view .LVU608
 2009 00a4 0122     		movs	r2, #1
 2010 00a6 7031     		adds	r1, r1, #112
 2011 00a8 0948     		ldr	r0, .L55+28
 2012 00aa FFF7FEFF 		bl	HAL_GPIO_WritePin
 2013              	.LVL132:
 2014              	.L54:
 409:Core/Src/main.c ****   {
 2015              		.loc 1 409 3 discriminator 1 view .LVU609
 414:Core/Src/main.c ****     // HAL_IWDG_Refresh(&hiwdg);
 2016              		.loc 1 414 5 discriminator 1 view .LVU610
 2017 00ae FFF7FEFF 		bl	ReadKey
 2018              	.LVL133:
 409:Core/Src/main.c ****   {
 2019              		.loc 1 409 9 discriminator 1 view .LVU611
 2020 00b2 FCE7     		b	.L54
 2021              	.L56:
 2022              		.align	2
 2023              	.L55:
 2024 00b4 DC050000 		.word	1500
 2025 00b8 00000000 		.word	AdDataOrig
 2026 00bc 00000000 		.word	.LANCHOR0
ARM GAS  C:\Users\57298\AppData\Local\Temp\cc5d07uv.s 			page 59


 2027 00c0 00080048 		.word	1207961600
 2028 00c4 00040048 		.word	1207960576
 2029 00c8 00000000 		.word	huart2
 2030 00cc 00000000 		.word	RxBufU2
 2031 00d0 00140048 		.word	1207964672
 2032              		.cfi_endproc
 2033              	.LFE46:
 2035              		.section	.text.Error_Handler,"ax",%progbits
 2036              		.align	1
 2037              		.global	Error_Handler
 2038              		.syntax unified
 2039              		.code	16
 2040              		.thumb_func
 2042              	Error_Handler:
 2043              	.LFB55:
 786:Core/Src/main.c **** 
 787:Core/Src/main.c **** /* USER CODE BEGIN 4 */
 788:Core/Src/main.c **** 
 789:Core/Src/main.c **** /* USER CODE END 4 */
 790:Core/Src/main.c **** 
 791:Core/Src/main.c **** /**
 792:Core/Src/main.c ****  * @brief  This function is executed in case of error occurrence.
 793:Core/Src/main.c ****  * @retval None
 794:Core/Src/main.c ****  */
 795:Core/Src/main.c **** void Error_Handler(void)
 796:Core/Src/main.c **** {
 2044              		.loc 1 796 1 view -0
 2045              		.cfi_startproc
 2046              		@ args = 0, pretend = 0, frame = 0
 2047              		@ frame_needed = 0, uses_anonymous_args = 0
 2048              		@ link register save eliminated.
 797:Core/Src/main.c ****   /* USER CODE BEGIN Error_Handler_Debug */
 798:Core/Src/main.c ****   /* User can add his own implementation to report the HAL error return state */
 799:Core/Src/main.c **** 
 800:Core/Src/main.c ****   /* USER CODE END Error_Handler_Debug */
 801:Core/Src/main.c **** }
 2049              		.loc 1 801 1 view .LVU613
 2050              		@ sp needed
 2051 0000 7047     		bx	lr
 2052              		.cfi_endproc
 2053              	.LFE55:
 2055              		.global	sRundata
 2056              		.global	rsRxBuf
 2057              		.global	rsRxLen
 2058              		.global	rsRxTime
 2059              		.global	rsPackFlag
 2060              		.global	rsRxIndex
 2061              		.global	RxLenU2
 2062              		.global	TxBufU2
 2063              		.global	RxBufU2
 2064              		.global	hdma_usart2_rx
 2065              		.global	hdma_usart1_rx
 2066              		.global	huart2
 2067              		.global	huart1
 2068              		.global	hiwdg
 2069              		.global	hi2c1
 2070              		.global	hdma_adc
ARM GAS  C:\Users\57298\AppData\Local\Temp\cc5d07uv.s 			page 60


 2071              		.global	hadc
 2072              		.section	.bss.RxBufU2,"aw",%nobits
 2073              		.align	2
 2076              	RxBufU2:
 2077 0000 00000000 		.space	500
 2077      00000000 
 2077      00000000 
 2077      00000000 
 2077      00000000 
 2078              		.section	.bss.RxLenU2,"aw",%nobits
 2079              		.align	1
 2080              		.set	.LANCHOR2,. + 0
 2083              	RxLenU2:
 2084 0000 0000     		.space	2
 2085              		.section	.bss.TxBufU2,"aw",%nobits
 2086              		.align	2
 2089              	TxBufU2:
 2090 0000 00000000 		.space	200
 2090      00000000 
 2090      00000000 
 2090      00000000 
 2090      00000000 
 2091              		.section	.bss.hadc,"aw",%nobits
 2092              		.align	2
 2093              		.set	.LANCHOR0,. + 0
 2096              	hadc:
 2097 0000 00000000 		.space	64
 2097      00000000 
 2097      00000000 
 2097      00000000 
 2097      00000000 
 2098              		.section	.bss.hdma_adc,"aw",%nobits
 2099              		.align	2
 2102              	hdma_adc:
 2103 0000 00000000 		.space	68
 2103      00000000 
 2103      00000000 
 2103      00000000 
 2103      00000000 
 2104              		.section	.bss.hdma_usart1_rx,"aw",%nobits
 2105              		.align	2
 2108              	hdma_usart1_rx:
 2109 0000 00000000 		.space	68
 2109      00000000 
 2109      00000000 
 2109      00000000 
 2109      00000000 
 2110              		.section	.bss.hdma_usart2_rx,"aw",%nobits
 2111              		.align	2
 2114              	hdma_usart2_rx:
 2115 0000 00000000 		.space	68
 2115      00000000 
 2115      00000000 
 2115      00000000 
 2115      00000000 
 2116              		.section	.bss.hi2c1,"aw",%nobits
 2117              		.align	2
ARM GAS  C:\Users\57298\AppData\Local\Temp\cc5d07uv.s 			page 61


 2118              		.set	.LANCHOR1,. + 0
 2121              	hi2c1:
 2122 0000 00000000 		.space	84
 2122      00000000 
 2122      00000000 
 2122      00000000 
 2122      00000000 
 2123              		.section	.bss.hiwdg,"aw",%nobits
 2124              		.align	2
 2127              	hiwdg:
 2128 0000 00000000 		.space	16
 2128      00000000 
 2128      00000000 
 2128      00000000 
 2129              		.section	.bss.huart1,"aw",%nobits
 2130              		.align	2
 2133              	huart1:
 2134 0000 00000000 		.space	136
 2134      00000000 
 2134      00000000 
 2134      00000000 
 2134      00000000 
 2135              		.section	.bss.huart2,"aw",%nobits
 2136              		.align	2
 2139              	huart2:
 2140 0000 00000000 		.space	136
 2140      00000000 
 2140      00000000 
 2140      00000000 
 2140      00000000 
 2141              		.section	.bss.rsPackFlag,"aw",%nobits
 2144              	rsPackFlag:
 2145 0000 00       		.space	1
 2146              		.section	.bss.rsRxBuf,"aw",%nobits
 2147              		.align	2
 2150              	rsRxBuf:
 2151 0000 00000000 		.space	200
 2151      00000000 
 2151      00000000 
 2151      00000000 
 2151      00000000 
 2152              		.section	.bss.rsRxIndex,"aw",%nobits
 2153              		.align	1
 2154              		.set	.LANCHOR3,. + 0
 2157              	rsRxIndex:
 2158 0000 0000     		.space	2
 2159              		.section	.bss.rsRxLen,"aw",%nobits
 2160              		.align	1
 2163              	rsRxLen:
 2164 0000 0000     		.space	2
 2165              		.section	.bss.rsRxTime,"aw",%nobits
 2166              		.align	1
 2169              	rsRxTime:
 2170 0000 0000     		.space	2
 2171              		.section	.bss.sRundata,"aw",%nobits
 2172              		.align	2
 2175              	sRundata:
ARM GAS  C:\Users\57298\AppData\Local\Temp\cc5d07uv.s 			page 62


 2176 0000 00000000 		.space	129
 2176      00000000 
 2176      00000000 
 2176      00000000 
 2176      00000000 
 2177              		.section	.rodata.aucCRCHi,"a"
 2178              		.align	2
 2181              	aucCRCHi:
 2182 0000 00C18140 		.ascii	"\000\301\201@\001\300\200A\001\300\200A\000\301\201"
 2182      01C08041 
 2182      01C08041 
 2182      00C181
 2183 000f 4001C080 		.ascii	"@\001\300\200A\000\301\201@\000\301\201@\001\300\200"
 2183      4100C181 
 2183      4000C181 
 2183      4001C080 
 2184 001f 4101C080 		.ascii	"A\001\300\200A\000\301\201@\000\301\201@\001\300\200"
 2184      4100C181 
 2184      4000C181 
 2184      4001C080 
 2185 002f 4100C181 		.ascii	"A\000\301\201@\001\300\200A\001\300\200A\000\301\201"
 2185      4001C080 
 2185      4101C080 
 2185      4100C181 
 2186 003f 4001C080 		.ascii	"@\001\300\200A\000\301\201@\000\301\201@\001\300\200"
 2186      4100C181 
 2186      4000C181 
 2186      4001C080 
 2187 004f 4100C181 		.ascii	"A\000\301\201@\001\300\200A\001\300\200A\000\301\201"
 2187      4001C080 
 2187      4101C080 
 2187      4100C181 
 2188 005f 4000C181 		.ascii	"@\000\301\201@\001\300\200A\001\300\200A\000\301\201"
 2188      4001C080 
 2188      4101C080 
 2188      4100C181 
 2189 006f 4001C080 		.ascii	"@\001\300\200A\000\301\201@\000\301\201@\001\300\200"
 2189      4100C181 
 2189      4000C181 
 2189      4001C080 
 2190 007f 4101C080 		.ascii	"A\001\300\200A\000\301\201@\000\301\201@\001\300\200"
 2190      4100C181 
 2190      4000C181 
 2190      4001C080 
 2191 008f 4100C181 		.ascii	"A\000\301\201@\001\300\200A\001\300\200A\000\301\201"
 2191      4001C080 
 2191      4101C080 
 2191      4100C181 
 2192 009f 4000C181 		.ascii	"@\000\301\201@\001\300\200A\001\300\200A\000\301\201"
 2192      4001C080 
 2192      4101C080 
 2192      4100C181 
 2193 00af 4001C080 		.ascii	"@\001\300\200A\000\301\201@\000\301\201@\001\300\200"
 2193      4100C181 
 2193      4000C181 
 2193      4001C080 
 2194 00bf 4100C181 		.ascii	"A\000\301\201@\001\300\200A\001\300\200A\000\301\201"
ARM GAS  C:\Users\57298\AppData\Local\Temp\cc5d07uv.s 			page 63


 2194      4001C080 
 2194      4101C080 
 2194      4100C181 
 2195 00cf 4001C080 		.ascii	"@\001\300\200A\000\301\201@\000\301\201@\001\300\200"
 2195      4100C181 
 2195      4000C181 
 2195      4001C080 
 2196 00df 4101C080 		.ascii	"A\001\300\200A\000\301\201@\000\301\201@\001\300\200"
 2196      4100C181 
 2196      4000C181 
 2196      4001C080 
 2197 00ef 4100C181 		.ascii	"A\000\301\201@\001\300\200A\001\300\200A\000\301\201"
 2197      4001C080 
 2197      4101C080 
 2197      4100C181 
 2198 00ff 40       		.ascii	"@"
 2199              		.section	.rodata.aucCRCLo,"a"
 2200              		.align	2
 2203              	aucCRCLo:
 2204 0000 00C0C101 		.ascii	"\000\300\301\001\303\003\002\302\306\006\007\307\005"
 2204      C30302C2 
 2204      C60607C7 
 2204      05
 2205 000d C5C404CC 		.ascii	"\305\304\004\314\014\015\315\017\317\316\016\012\312"
 2205      0C0DCD0F 
 2205      CFCE0E0A 
 2205      CA
 2206 001a CB0BC909 		.ascii	"\313\013\311\011\010\310\330\030\031\331\033\333\332"
 2206      08C8D818 
 2206      19D91BDB 
 2206      DA
 2207 0027 1A1EDEDF 		.ascii	"\032\036\336\337\037\335\035\034\334\024\324\325\025"
 2207      1FDD1D1C 
 2207      DC14D4D5 
 2207      15
 2208 0034 D71716D6 		.ascii	"\327\027\026\326\322\022\023\323\021\321\320\020\360"
 2208      D21213D3 
 2208      11D1D010 
 2208      F0
 2209 0041 3031F133 		.ascii	"01\3613\363\36226\366\3677\36554\364<\374\375=\377?"
 2209      F3F23236 
 2209      F6F737F5 
 2209      3534F43C 
 2209      FCFD3DFF 
 2210 0056 3EFEFA3A 		.ascii	">\376\372:;\3739\371\3708(\350\351)\353+*\352\356./"
 2210      3BFB39F9 
 2210      F83828E8 
 2210      E929EB2B 
 2210      2AEAEE2E 
 2211 006b EF2DEDEC 		.ascii	"\357-\355\354,\344$%\345'\347\346&\"\342\343#\341! "
 2211      2CE42425 
 2211      E527E7E6 
 2211      2622E2E3 
 2211      23E12120 
 2212 007f E0A06061 		.ascii	"\340\240`a\241c\243\242bf\246\247g\245ed\244l\254\255"
 2212      A163A3A2 
 2212      6266A6A7 
ARM GAS  C:\Users\57298\AppData\Local\Temp\cc5d07uv.s 			page 64


 2212      67A56564 
 2212      A46CACAD 
 2213 0093 6DAF6F6E 		.ascii	"m\257on\256\252jk\253i\251\250hx\270\271y\273{z\272"
 2213      AEAA6A6B 
 2213      AB69A9A8 
 2213      6878B8B9 
 2213      79BB7B7A 
 2214 00a8 BE7E7FBF 		.ascii	"\276~\177\277}\275\274|\264tu\265w\267\266vr\262\263"
 2214      7DBDBC7C 
 2214      B47475B5 
 2214      77B7B676 
 2214      72B2B3
 2215 00bb 73B17170 		.ascii	"s\261qp\260P\220\221Q\223SR\222\226VW\227U\225\224T"
 2215      B0509091 
 2215      51935352 
 2215      92965657 
 2215      97559594 
 2216 00d0 9C5C5D9D 		.ascii	"\234\\]\235_\237\236^Z\232\233[\231YX\230\210HI\211"
 2216      5F9F9E5E 
 2216      5A9A9B5B 
 2216      99595898 
 2216      88484989 
 2217 00e4 4B8B8A4A 		.ascii	"K\213\212JN\216\217O\215ML\214D\204\205E\207GF\206\202"
 2217      4E8E8F4F 
 2217      8D4D4C8C 
 2217      44848545 
 2217      87474686 
 2218 00f9 42438341 		.ascii	"BC\203A\201\200@"
 2218      818040
 2219              		.text
 2220              	.Letext0:
 2221              		.file 2 "c:\\program files\\gcc-arm-none-eabi-10.3-2021.10\\arm-none-eabi\\include\\machine\\_defa
 2222              		.file 3 "c:\\program files\\gcc-arm-none-eabi-10.3-2021.10\\arm-none-eabi\\include\\sys\\_stdint.h
 2223              		.file 4 "Drivers/CMSIS/Device/ST/STM32F0xx/Include/stm32f030x8.h"
 2224              		.file 5 "Drivers/CMSIS/Device/ST/STM32F0xx/Include/stm32f0xx.h"
 2225              		.file 6 "Drivers/STM32F0xx_HAL_Driver/Inc/stm32f0xx_hal_def.h"
 2226              		.file 7 "Drivers/STM32F0xx_HAL_Driver/Inc/stm32f0xx_hal_rcc.h"
 2227              		.file 8 "Drivers/STM32F0xx_HAL_Driver/Inc/stm32f0xx_hal_rcc_ex.h"
 2228              		.file 9 "Drivers/STM32F0xx_HAL_Driver/Inc/stm32f0xx_hal_gpio.h"
 2229              		.file 10 "Drivers/STM32F0xx_HAL_Driver/Inc/stm32f0xx_hal_dma.h"
 2230              		.file 11 "Drivers/STM32F0xx_HAL_Driver/Inc/stm32f0xx_hal_adc.h"
 2231              		.file 12 "Drivers/STM32F0xx_HAL_Driver/Inc/stm32f0xx_hal_i2c.h"
 2232              		.file 13 "Drivers/STM32F0xx_HAL_Driver/Inc/stm32f0xx_hal_iwdg.h"
 2233              		.file 14 "Drivers/STM32F0xx_HAL_Driver/Inc/stm32f0xx_hal_uart.h"
 2234              		.file 15 "Core/Inc/control.h"
 2235              		.file 16 "Core/Inc/TM1640.h"
 2236              		.file 17 "Drivers/STM32F0xx_HAL_Driver/Inc/stm32f0xx_hal_cortex.h"
 2237              		.file 18 "Drivers/STM32F0xx_HAL_Driver/Inc/stm32f0xx_hal_i2c_ex.h"
 2238              		.file 19 "Drivers/STM32F0xx_HAL_Driver/Inc/stm32f0xx_hal.h"
 2239              		.file 20 "Core/Inc/ds18b20.h"
 2240              		.file 21 "<built-in>"
ARM GAS  C:\Users\57298\AppData\Local\Temp\cc5d07uv.s 			page 65

