ARM GAS  /tmp/ccqvBbOy.s 			page 1


   1              		.cpu cortex-m3
   2              		.eabi_attribute 20, 1
   3              		.eabi_attribute 21, 1
   4              		.eabi_attribute 23, 3
   5              		.eabi_attribute 24, 1
   6              		.eabi_attribute 25, 1
   7              		.eabi_attribute 26, 1
   8              		.eabi_attribute 30, 6
   9              		.eabi_attribute 34, 1
  10              		.eabi_attribute 18, 4
  11              		.file	"oled.c"
  12              		.text
  13              	.Ltext0:
  14              		.cfi_sections	.debug_frame
  15              		.global	F6x8
  16              		.section	.rodata.F6x8,"a",%progbits
  17              		.align	2
  20              	F6x8:
  21 0000 00       		.byte	0
  22 0001 00       		.byte	0
  23 0002 00       		.byte	0
  24 0003 00       		.byte	0
  25 0004 00       		.byte	0
  26 0005 00       		.byte	0
  27 0006 00       		.byte	0
  28 0007 00       		.byte	0
  29 0008 00       		.byte	0
  30 0009 2F       		.byte	47
  31 000a 00       		.byte	0
  32 000b 00       		.byte	0
  33 000c 00       		.byte	0
  34 000d 00       		.byte	0
  35 000e 07       		.byte	7
  36 000f 00       		.byte	0
  37 0010 07       		.byte	7
  38 0011 00       		.byte	0
  39 0012 00       		.byte	0
  40 0013 14       		.byte	20
  41 0014 7F       		.byte	127
  42 0015 14       		.byte	20
  43 0016 7F       		.byte	127
  44 0017 14       		.byte	20
  45 0018 00       		.byte	0
  46 0019 24       		.byte	36
  47 001a 2A       		.byte	42
  48 001b 7F       		.byte	127
  49 001c 2A       		.byte	42
  50 001d 12       		.byte	18
  51 001e 00       		.byte	0
  52 001f 62       		.byte	98
  53 0020 64       		.byte	100
  54 0021 08       		.byte	8
  55 0022 13       		.byte	19
  56 0023 23       		.byte	35
  57 0024 00       		.byte	0
  58 0025 36       		.byte	54
  59 0026 49       		.byte	73
ARM GAS  /tmp/ccqvBbOy.s 			page 2


  60 0027 55       		.byte	85
  61 0028 22       		.byte	34
  62 0029 50       		.byte	80
  63 002a 00       		.byte	0
  64 002b 00       		.byte	0
  65 002c 05       		.byte	5
  66 002d 03       		.byte	3
  67 002e 00       		.byte	0
  68 002f 00       		.byte	0
  69 0030 00       		.byte	0
  70 0031 00       		.byte	0
  71 0032 1C       		.byte	28
  72 0033 22       		.byte	34
  73 0034 41       		.byte	65
  74 0035 00       		.byte	0
  75 0036 00       		.byte	0
  76 0037 00       		.byte	0
  77 0038 41       		.byte	65
  78 0039 22       		.byte	34
  79 003a 1C       		.byte	28
  80 003b 00       		.byte	0
  81 003c 00       		.byte	0
  82 003d 14       		.byte	20
  83 003e 08       		.byte	8
  84 003f 3E       		.byte	62
  85 0040 08       		.byte	8
  86 0041 14       		.byte	20
  87 0042 00       		.byte	0
  88 0043 08       		.byte	8
  89 0044 08       		.byte	8
  90 0045 3E       		.byte	62
  91 0046 08       		.byte	8
  92 0047 08       		.byte	8
  93 0048 00       		.byte	0
  94 0049 00       		.byte	0
  95 004a 00       		.byte	0
  96 004b A0       		.byte	-96
  97 004c 60       		.byte	96
  98 004d 00       		.byte	0
  99 004e 00       		.byte	0
 100 004f 08       		.byte	8
 101 0050 08       		.byte	8
 102 0051 08       		.byte	8
 103 0052 08       		.byte	8
 104 0053 08       		.byte	8
 105 0054 00       		.byte	0
 106 0055 00       		.byte	0
 107 0056 60       		.byte	96
 108 0057 60       		.byte	96
 109 0058 00       		.byte	0
 110 0059 00       		.byte	0
 111 005a 00       		.byte	0
 112 005b 20       		.byte	32
 113 005c 10       		.byte	16
 114 005d 08       		.byte	8
 115 005e 04       		.byte	4
 116 005f 02       		.byte	2
ARM GAS  /tmp/ccqvBbOy.s 			page 3


 117 0060 00       		.byte	0
 118 0061 3E       		.byte	62
 119 0062 51       		.byte	81
 120 0063 49       		.byte	73
 121 0064 45       		.byte	69
 122 0065 3E       		.byte	62
 123 0066 00       		.byte	0
 124 0067 00       		.byte	0
 125 0068 42       		.byte	66
 126 0069 7F       		.byte	127
 127 006a 40       		.byte	64
 128 006b 00       		.byte	0
 129 006c 00       		.byte	0
 130 006d 42       		.byte	66
 131 006e 61       		.byte	97
 132 006f 51       		.byte	81
 133 0070 49       		.byte	73
 134 0071 46       		.byte	70
 135 0072 00       		.byte	0
 136 0073 21       		.byte	33
 137 0074 41       		.byte	65
 138 0075 45       		.byte	69
 139 0076 4B       		.byte	75
 140 0077 31       		.byte	49
 141 0078 00       		.byte	0
 142 0079 18       		.byte	24
 143 007a 14       		.byte	20
 144 007b 12       		.byte	18
 145 007c 7F       		.byte	127
 146 007d 10       		.byte	16
 147 007e 00       		.byte	0
 148 007f 27       		.byte	39
 149 0080 45       		.byte	69
 150 0081 45       		.byte	69
 151 0082 45       		.byte	69
 152 0083 39       		.byte	57
 153 0084 00       		.byte	0
 154 0085 3C       		.byte	60
 155 0086 4A       		.byte	74
 156 0087 49       		.byte	73
 157 0088 49       		.byte	73
 158 0089 30       		.byte	48
 159 008a 00       		.byte	0
 160 008b 01       		.byte	1
 161 008c 71       		.byte	113
 162 008d 09       		.byte	9
 163 008e 05       		.byte	5
 164 008f 03       		.byte	3
 165 0090 00       		.byte	0
 166 0091 36       		.byte	54
 167 0092 49       		.byte	73
 168 0093 49       		.byte	73
 169 0094 49       		.byte	73
 170 0095 36       		.byte	54
 171 0096 00       		.byte	0
 172 0097 06       		.byte	6
 173 0098 49       		.byte	73
ARM GAS  /tmp/ccqvBbOy.s 			page 4


 174 0099 49       		.byte	73
 175 009a 29       		.byte	41
 176 009b 1E       		.byte	30
 177 009c 00       		.byte	0
 178 009d 00       		.byte	0
 179 009e 36       		.byte	54
 180 009f 36       		.byte	54
 181 00a0 00       		.byte	0
 182 00a1 00       		.byte	0
 183 00a2 00       		.byte	0
 184 00a3 00       		.byte	0
 185 00a4 56       		.byte	86
 186 00a5 36       		.byte	54
 187 00a6 00       		.byte	0
 188 00a7 00       		.byte	0
 189 00a8 00       		.byte	0
 190 00a9 08       		.byte	8
 191 00aa 14       		.byte	20
 192 00ab 22       		.byte	34
 193 00ac 41       		.byte	65
 194 00ad 00       		.byte	0
 195 00ae 00       		.byte	0
 196 00af 14       		.byte	20
 197 00b0 14       		.byte	20
 198 00b1 14       		.byte	20
 199 00b2 14       		.byte	20
 200 00b3 14       		.byte	20
 201 00b4 00       		.byte	0
 202 00b5 00       		.byte	0
 203 00b6 41       		.byte	65
 204 00b7 22       		.byte	34
 205 00b8 14       		.byte	20
 206 00b9 08       		.byte	8
 207 00ba 00       		.byte	0
 208 00bb 02       		.byte	2
 209 00bc 01       		.byte	1
 210 00bd 51       		.byte	81
 211 00be 09       		.byte	9
 212 00bf 06       		.byte	6
 213 00c0 00       		.byte	0
 214 00c1 32       		.byte	50
 215 00c2 49       		.byte	73
 216 00c3 59       		.byte	89
 217 00c4 51       		.byte	81
 218 00c5 3E       		.byte	62
 219 00c6 00       		.byte	0
 220 00c7 7C       		.byte	124
 221 00c8 12       		.byte	18
 222 00c9 11       		.byte	17
 223 00ca 12       		.byte	18
 224 00cb 7C       		.byte	124
 225 00cc 00       		.byte	0
 226 00cd 7F       		.byte	127
 227 00ce 49       		.byte	73
 228 00cf 49       		.byte	73
 229 00d0 49       		.byte	73
 230 00d1 36       		.byte	54
ARM GAS  /tmp/ccqvBbOy.s 			page 5


 231 00d2 00       		.byte	0
 232 00d3 3E       		.byte	62
 233 00d4 41       		.byte	65
 234 00d5 41       		.byte	65
 235 00d6 41       		.byte	65
 236 00d7 22       		.byte	34
 237 00d8 00       		.byte	0
 238 00d9 7F       		.byte	127
 239 00da 41       		.byte	65
 240 00db 41       		.byte	65
 241 00dc 22       		.byte	34
 242 00dd 1C       		.byte	28
 243 00de 00       		.byte	0
 244 00df 7F       		.byte	127
 245 00e0 49       		.byte	73
 246 00e1 49       		.byte	73
 247 00e2 49       		.byte	73
 248 00e3 41       		.byte	65
 249 00e4 00       		.byte	0
 250 00e5 7F       		.byte	127
 251 00e6 09       		.byte	9
 252 00e7 09       		.byte	9
 253 00e8 09       		.byte	9
 254 00e9 01       		.byte	1
 255 00ea 00       		.byte	0
 256 00eb 3E       		.byte	62
 257 00ec 41       		.byte	65
 258 00ed 49       		.byte	73
 259 00ee 49       		.byte	73
 260 00ef 7A       		.byte	122
 261 00f0 00       		.byte	0
 262 00f1 7F       		.byte	127
 263 00f2 08       		.byte	8
 264 00f3 08       		.byte	8
 265 00f4 08       		.byte	8
 266 00f5 7F       		.byte	127
 267 00f6 00       		.byte	0
 268 00f7 00       		.byte	0
 269 00f8 41       		.byte	65
 270 00f9 7F       		.byte	127
 271 00fa 41       		.byte	65
 272 00fb 00       		.byte	0
 273 00fc 00       		.byte	0
 274 00fd 20       		.byte	32
 275 00fe 40       		.byte	64
 276 00ff 41       		.byte	65
 277 0100 3F       		.byte	63
 278 0101 01       		.byte	1
 279 0102 00       		.byte	0
 280 0103 7F       		.byte	127
 281 0104 08       		.byte	8
 282 0105 14       		.byte	20
 283 0106 22       		.byte	34
 284 0107 41       		.byte	65
 285 0108 00       		.byte	0
 286 0109 7F       		.byte	127
 287 010a 40       		.byte	64
ARM GAS  /tmp/ccqvBbOy.s 			page 6


 288 010b 40       		.byte	64
 289 010c 40       		.byte	64
 290 010d 40       		.byte	64
 291 010e 00       		.byte	0
 292 010f 7F       		.byte	127
 293 0110 02       		.byte	2
 294 0111 0C       		.byte	12
 295 0112 02       		.byte	2
 296 0113 7F       		.byte	127
 297 0114 00       		.byte	0
 298 0115 7F       		.byte	127
 299 0116 04       		.byte	4
 300 0117 08       		.byte	8
 301 0118 10       		.byte	16
 302 0119 7F       		.byte	127
 303 011a 00       		.byte	0
 304 011b 3E       		.byte	62
 305 011c 41       		.byte	65
 306 011d 41       		.byte	65
 307 011e 41       		.byte	65
 308 011f 3E       		.byte	62
 309 0120 00       		.byte	0
 310 0121 7F       		.byte	127
 311 0122 09       		.byte	9
 312 0123 09       		.byte	9
 313 0124 09       		.byte	9
 314 0125 06       		.byte	6
 315 0126 00       		.byte	0
 316 0127 3E       		.byte	62
 317 0128 41       		.byte	65
 318 0129 51       		.byte	81
 319 012a 21       		.byte	33
 320 012b 5E       		.byte	94
 321 012c 00       		.byte	0
 322 012d 7F       		.byte	127
 323 012e 09       		.byte	9
 324 012f 19       		.byte	25
 325 0130 29       		.byte	41
 326 0131 46       		.byte	70
 327 0132 00       		.byte	0
 328 0133 46       		.byte	70
 329 0134 49       		.byte	73
 330 0135 49       		.byte	73
 331 0136 49       		.byte	73
 332 0137 31       		.byte	49
 333 0138 00       		.byte	0
 334 0139 01       		.byte	1
 335 013a 01       		.byte	1
 336 013b 7F       		.byte	127
 337 013c 01       		.byte	1
 338 013d 01       		.byte	1
 339 013e 00       		.byte	0
 340 013f 3F       		.byte	63
 341 0140 40       		.byte	64
 342 0141 40       		.byte	64
 343 0142 40       		.byte	64
 344 0143 3F       		.byte	63
ARM GAS  /tmp/ccqvBbOy.s 			page 7


 345 0144 00       		.byte	0
 346 0145 1F       		.byte	31
 347 0146 20       		.byte	32
 348 0147 40       		.byte	64
 349 0148 20       		.byte	32
 350 0149 1F       		.byte	31
 351 014a 00       		.byte	0
 352 014b 3F       		.byte	63
 353 014c 40       		.byte	64
 354 014d 38       		.byte	56
 355 014e 40       		.byte	64
 356 014f 3F       		.byte	63
 357 0150 00       		.byte	0
 358 0151 63       		.byte	99
 359 0152 14       		.byte	20
 360 0153 08       		.byte	8
 361 0154 14       		.byte	20
 362 0155 63       		.byte	99
 363 0156 00       		.byte	0
 364 0157 07       		.byte	7
 365 0158 08       		.byte	8
 366 0159 70       		.byte	112
 367 015a 08       		.byte	8
 368 015b 07       		.byte	7
 369 015c 00       		.byte	0
 370 015d 61       		.byte	97
 371 015e 51       		.byte	81
 372 015f 49       		.byte	73
 373 0160 45       		.byte	69
 374 0161 43       		.byte	67
 375 0162 00       		.byte	0
 376 0163 00       		.byte	0
 377 0164 7F       		.byte	127
 378 0165 41       		.byte	65
 379 0166 41       		.byte	65
 380 0167 00       		.byte	0
 381 0168 00       		.byte	0
 382 0169 55       		.byte	85
 383 016a 2A       		.byte	42
 384 016b 55       		.byte	85
 385 016c 2A       		.byte	42
 386 016d 55       		.byte	85
 387 016e 00       		.byte	0
 388 016f 00       		.byte	0
 389 0170 41       		.byte	65
 390 0171 41       		.byte	65
 391 0172 7F       		.byte	127
 392 0173 00       		.byte	0
 393 0174 00       		.byte	0
 394 0175 04       		.byte	4
 395 0176 02       		.byte	2
 396 0177 01       		.byte	1
 397 0178 02       		.byte	2
 398 0179 04       		.byte	4
 399 017a 00       		.byte	0
 400 017b 40       		.byte	64
 401 017c 40       		.byte	64
ARM GAS  /tmp/ccqvBbOy.s 			page 8


 402 017d 40       		.byte	64
 403 017e 40       		.byte	64
 404 017f 40       		.byte	64
 405 0180 00       		.byte	0
 406 0181 00       		.byte	0
 407 0182 01       		.byte	1
 408 0183 02       		.byte	2
 409 0184 04       		.byte	4
 410 0185 00       		.byte	0
 411 0186 00       		.byte	0
 412 0187 20       		.byte	32
 413 0188 54       		.byte	84
 414 0189 54       		.byte	84
 415 018a 54       		.byte	84
 416 018b 78       		.byte	120
 417 018c 00       		.byte	0
 418 018d 7F       		.byte	127
 419 018e 48       		.byte	72
 420 018f 44       		.byte	68
 421 0190 44       		.byte	68
 422 0191 38       		.byte	56
 423 0192 00       		.byte	0
 424 0193 38       		.byte	56
 425 0194 44       		.byte	68
 426 0195 44       		.byte	68
 427 0196 44       		.byte	68
 428 0197 20       		.byte	32
 429 0198 00       		.byte	0
 430 0199 38       		.byte	56
 431 019a 44       		.byte	68
 432 019b 44       		.byte	68
 433 019c 48       		.byte	72
 434 019d 7F       		.byte	127
 435 019e 00       		.byte	0
 436 019f 38       		.byte	56
 437 01a0 54       		.byte	84
 438 01a1 54       		.byte	84
 439 01a2 54       		.byte	84
 440 01a3 18       		.byte	24
 441 01a4 00       		.byte	0
 442 01a5 08       		.byte	8
 443 01a6 7E       		.byte	126
 444 01a7 09       		.byte	9
 445 01a8 01       		.byte	1
 446 01a9 02       		.byte	2
 447 01aa 00       		.byte	0
 448 01ab 18       		.byte	24
 449 01ac A4       		.byte	-92
 450 01ad A4       		.byte	-92
 451 01ae A4       		.byte	-92
 452 01af 7C       		.byte	124
 453 01b0 00       		.byte	0
 454 01b1 7F       		.byte	127
 455 01b2 08       		.byte	8
 456 01b3 04       		.byte	4
 457 01b4 04       		.byte	4
 458 01b5 78       		.byte	120
ARM GAS  /tmp/ccqvBbOy.s 			page 9


 459 01b6 00       		.byte	0
 460 01b7 00       		.byte	0
 461 01b8 44       		.byte	68
 462 01b9 7D       		.byte	125
 463 01ba 40       		.byte	64
 464 01bb 00       		.byte	0
 465 01bc 00       		.byte	0
 466 01bd 40       		.byte	64
 467 01be 80       		.byte	-128
 468 01bf 84       		.byte	-124
 469 01c0 7D       		.byte	125
 470 01c1 00       		.byte	0
 471 01c2 00       		.byte	0
 472 01c3 7F       		.byte	127
 473 01c4 10       		.byte	16
 474 01c5 28       		.byte	40
 475 01c6 44       		.byte	68
 476 01c7 00       		.byte	0
 477 01c8 00       		.byte	0
 478 01c9 00       		.byte	0
 479 01ca 41       		.byte	65
 480 01cb 7F       		.byte	127
 481 01cc 40       		.byte	64
 482 01cd 00       		.byte	0
 483 01ce 00       		.byte	0
 484 01cf 7C       		.byte	124
 485 01d0 04       		.byte	4
 486 01d1 18       		.byte	24
 487 01d2 04       		.byte	4
 488 01d3 78       		.byte	120
 489 01d4 00       		.byte	0
 490 01d5 7C       		.byte	124
 491 01d6 08       		.byte	8
 492 01d7 04       		.byte	4
 493 01d8 04       		.byte	4
 494 01d9 78       		.byte	120
 495 01da 00       		.byte	0
 496 01db 38       		.byte	56
 497 01dc 44       		.byte	68
 498 01dd 44       		.byte	68
 499 01de 44       		.byte	68
 500 01df 38       		.byte	56
 501 01e0 00       		.byte	0
 502 01e1 FC       		.byte	-4
 503 01e2 24       		.byte	36
 504 01e3 24       		.byte	36
 505 01e4 24       		.byte	36
 506 01e5 18       		.byte	24
 507 01e6 00       		.byte	0
 508 01e7 18       		.byte	24
 509 01e8 24       		.byte	36
 510 01e9 24       		.byte	36
 511 01ea 18       		.byte	24
 512 01eb FC       		.byte	-4
 513 01ec 00       		.byte	0
 514 01ed 7C       		.byte	124
 515 01ee 08       		.byte	8
ARM GAS  /tmp/ccqvBbOy.s 			page 10


 516 01ef 04       		.byte	4
 517 01f0 04       		.byte	4
 518 01f1 08       		.byte	8
 519 01f2 00       		.byte	0
 520 01f3 48       		.byte	72
 521 01f4 54       		.byte	84
 522 01f5 54       		.byte	84
 523 01f6 54       		.byte	84
 524 01f7 20       		.byte	32
 525 01f8 00       		.byte	0
 526 01f9 04       		.byte	4
 527 01fa 3F       		.byte	63
 528 01fb 44       		.byte	68
 529 01fc 40       		.byte	64
 530 01fd 20       		.byte	32
 531 01fe 00       		.byte	0
 532 01ff 3C       		.byte	60
 533 0200 40       		.byte	64
 534 0201 40       		.byte	64
 535 0202 20       		.byte	32
 536 0203 7C       		.byte	124
 537 0204 00       		.byte	0
 538 0205 1C       		.byte	28
 539 0206 20       		.byte	32
 540 0207 40       		.byte	64
 541 0208 20       		.byte	32
 542 0209 1C       		.byte	28
 543 020a 00       		.byte	0
 544 020b 3C       		.byte	60
 545 020c 40       		.byte	64
 546 020d 30       		.byte	48
 547 020e 40       		.byte	64
 548 020f 3C       		.byte	60
 549 0210 00       		.byte	0
 550 0211 44       		.byte	68
 551 0212 28       		.byte	40
 552 0213 10       		.byte	16
 553 0214 28       		.byte	40
 554 0215 44       		.byte	68
 555 0216 00       		.byte	0
 556 0217 1C       		.byte	28
 557 0218 A0       		.byte	-96
 558 0219 A0       		.byte	-96
 559 021a A0       		.byte	-96
 560 021b 7C       		.byte	124
 561 021c 00       		.byte	0
 562 021d 44       		.byte	68
 563 021e 64       		.byte	100
 564 021f 54       		.byte	84
 565 0220 4C       		.byte	76
 566 0221 44       		.byte	68
 567 0222 14       		.byte	20
 568 0223 14       		.byte	20
 569 0224 14       		.byte	20
 570 0225 14       		.byte	20
 571 0226 14       		.byte	20
 572 0227 14       		.byte	20
ARM GAS  /tmp/ccqvBbOy.s 			page 11


 573              		.global	F8X16
 574              		.section	.rodata.F8X16,"a",%progbits
 575              		.align	2
 578              	F8X16:
 579 0000 00       		.byte	0
 580 0001 00       		.byte	0
 581 0002 00       		.byte	0
 582 0003 00       		.byte	0
 583 0004 00       		.byte	0
 584 0005 00       		.byte	0
 585 0006 00       		.byte	0
 586 0007 00       		.byte	0
 587 0008 00       		.byte	0
 588 0009 00       		.byte	0
 589 000a 00       		.byte	0
 590 000b 00       		.byte	0
 591 000c 00       		.byte	0
 592 000d 00       		.byte	0
 593 000e 00       		.byte	0
 594 000f 00       		.byte	0
 595 0010 00       		.byte	0
 596 0011 00       		.byte	0
 597 0012 00       		.byte	0
 598 0013 F8       		.byte	-8
 599 0014 00       		.byte	0
 600 0015 00       		.byte	0
 601 0016 00       		.byte	0
 602 0017 00       		.byte	0
 603 0018 00       		.byte	0
 604 0019 00       		.byte	0
 605 001a 00       		.byte	0
 606 001b 33       		.byte	51
 607 001c 30       		.byte	48
 608 001d 00       		.byte	0
 609 001e 00       		.byte	0
 610 001f 00       		.byte	0
 611 0020 00       		.byte	0
 612 0021 10       		.byte	16
 613 0022 0C       		.byte	12
 614 0023 06       		.byte	6
 615 0024 10       		.byte	16
 616 0025 0C       		.byte	12
 617 0026 06       		.byte	6
 618 0027 00       		.byte	0
 619 0028 00       		.byte	0
 620 0029 00       		.byte	0
 621 002a 00       		.byte	0
 622 002b 00       		.byte	0
 623 002c 00       		.byte	0
 624 002d 00       		.byte	0
 625 002e 00       		.byte	0
 626 002f 00       		.byte	0
 627 0030 40       		.byte	64
 628 0031 C0       		.byte	-64
 629 0032 78       		.byte	120
 630 0033 40       		.byte	64
 631 0034 C0       		.byte	-64
ARM GAS  /tmp/ccqvBbOy.s 			page 12


 632 0035 78       		.byte	120
 633 0036 40       		.byte	64
 634 0037 00       		.byte	0
 635 0038 04       		.byte	4
 636 0039 3F       		.byte	63
 637 003a 04       		.byte	4
 638 003b 04       		.byte	4
 639 003c 3F       		.byte	63
 640 003d 04       		.byte	4
 641 003e 04       		.byte	4
 642 003f 00       		.byte	0
 643 0040 00       		.byte	0
 644 0041 70       		.byte	112
 645 0042 88       		.byte	-120
 646 0043 FC       		.byte	-4
 647 0044 08       		.byte	8
 648 0045 30       		.byte	48
 649 0046 00       		.byte	0
 650 0047 00       		.byte	0
 651 0048 00       		.byte	0
 652 0049 18       		.byte	24
 653 004a 20       		.byte	32
 654 004b FF       		.byte	-1
 655 004c 21       		.byte	33
 656 004d 1E       		.byte	30
 657 004e 00       		.byte	0
 658 004f 00       		.byte	0
 659 0050 F0       		.byte	-16
 660 0051 08       		.byte	8
 661 0052 F0       		.byte	-16
 662 0053 00       		.byte	0
 663 0054 E0       		.byte	-32
 664 0055 18       		.byte	24
 665 0056 00       		.byte	0
 666 0057 00       		.byte	0
 667 0058 00       		.byte	0
 668 0059 21       		.byte	33
 669 005a 1C       		.byte	28
 670 005b 03       		.byte	3
 671 005c 1E       		.byte	30
 672 005d 21       		.byte	33
 673 005e 1E       		.byte	30
 674 005f 00       		.byte	0
 675 0060 00       		.byte	0
 676 0061 F0       		.byte	-16
 677 0062 08       		.byte	8
 678 0063 88       		.byte	-120
 679 0064 70       		.byte	112
 680 0065 00       		.byte	0
 681 0066 00       		.byte	0
 682 0067 00       		.byte	0
 683 0068 1E       		.byte	30
 684 0069 21       		.byte	33
 685 006a 23       		.byte	35
 686 006b 24       		.byte	36
 687 006c 19       		.byte	25
 688 006d 27       		.byte	39
ARM GAS  /tmp/ccqvBbOy.s 			page 13


 689 006e 21       		.byte	33
 690 006f 10       		.byte	16
 691 0070 10       		.byte	16
 692 0071 16       		.byte	22
 693 0072 0E       		.byte	14
 694 0073 00       		.byte	0
 695 0074 00       		.byte	0
 696 0075 00       		.byte	0
 697 0076 00       		.byte	0
 698 0077 00       		.byte	0
 699 0078 00       		.byte	0
 700 0079 00       		.byte	0
 701 007a 00       		.byte	0
 702 007b 00       		.byte	0
 703 007c 00       		.byte	0
 704 007d 00       		.byte	0
 705 007e 00       		.byte	0
 706 007f 00       		.byte	0
 707 0080 00       		.byte	0
 708 0081 00       		.byte	0
 709 0082 00       		.byte	0
 710 0083 E0       		.byte	-32
 711 0084 18       		.byte	24
 712 0085 04       		.byte	4
 713 0086 02       		.byte	2
 714 0087 00       		.byte	0
 715 0088 00       		.byte	0
 716 0089 00       		.byte	0
 717 008a 00       		.byte	0
 718 008b 07       		.byte	7
 719 008c 18       		.byte	24
 720 008d 20       		.byte	32
 721 008e 40       		.byte	64
 722 008f 00       		.byte	0
 723 0090 00       		.byte	0
 724 0091 02       		.byte	2
 725 0092 04       		.byte	4
 726 0093 18       		.byte	24
 727 0094 E0       		.byte	-32
 728 0095 00       		.byte	0
 729 0096 00       		.byte	0
 730 0097 00       		.byte	0
 731 0098 00       		.byte	0
 732 0099 40       		.byte	64
 733 009a 20       		.byte	32
 734 009b 18       		.byte	24
 735 009c 07       		.byte	7
 736 009d 00       		.byte	0
 737 009e 00       		.byte	0
 738 009f 00       		.byte	0
 739 00a0 40       		.byte	64
 740 00a1 40       		.byte	64
 741 00a2 80       		.byte	-128
 742 00a3 F0       		.byte	-16
 743 00a4 80       		.byte	-128
 744 00a5 40       		.byte	64
 745 00a6 40       		.byte	64
ARM GAS  /tmp/ccqvBbOy.s 			page 14


 746 00a7 00       		.byte	0
 747 00a8 02       		.byte	2
 748 00a9 02       		.byte	2
 749 00aa 01       		.byte	1
 750 00ab 0F       		.byte	15
 751 00ac 01       		.byte	1
 752 00ad 02       		.byte	2
 753 00ae 02       		.byte	2
 754 00af 00       		.byte	0
 755 00b0 00       		.byte	0
 756 00b1 00       		.byte	0
 757 00b2 00       		.byte	0
 758 00b3 F0       		.byte	-16
 759 00b4 00       		.byte	0
 760 00b5 00       		.byte	0
 761 00b6 00       		.byte	0
 762 00b7 00       		.byte	0
 763 00b8 01       		.byte	1
 764 00b9 01       		.byte	1
 765 00ba 01       		.byte	1
 766 00bb 1F       		.byte	31
 767 00bc 01       		.byte	1
 768 00bd 01       		.byte	1
 769 00be 01       		.byte	1
 770 00bf 00       		.byte	0
 771 00c0 00       		.byte	0
 772 00c1 00       		.byte	0
 773 00c2 00       		.byte	0
 774 00c3 00       		.byte	0
 775 00c4 00       		.byte	0
 776 00c5 00       		.byte	0
 777 00c6 00       		.byte	0
 778 00c7 00       		.byte	0
 779 00c8 80       		.byte	-128
 780 00c9 B0       		.byte	-80
 781 00ca 70       		.byte	112
 782 00cb 00       		.byte	0
 783 00cc 00       		.byte	0
 784 00cd 00       		.byte	0
 785 00ce 00       		.byte	0
 786 00cf 00       		.byte	0
 787 00d0 00       		.byte	0
 788 00d1 00       		.byte	0
 789 00d2 00       		.byte	0
 790 00d3 00       		.byte	0
 791 00d4 00       		.byte	0
 792 00d5 00       		.byte	0
 793 00d6 00       		.byte	0
 794 00d7 00       		.byte	0
 795 00d8 00       		.byte	0
 796 00d9 01       		.byte	1
 797 00da 01       		.byte	1
 798 00db 01       		.byte	1
 799 00dc 01       		.byte	1
 800 00dd 01       		.byte	1
 801 00de 01       		.byte	1
 802 00df 01       		.byte	1
ARM GAS  /tmp/ccqvBbOy.s 			page 15


 803 00e0 00       		.byte	0
 804 00e1 00       		.byte	0
 805 00e2 00       		.byte	0
 806 00e3 00       		.byte	0
 807 00e4 00       		.byte	0
 808 00e5 00       		.byte	0
 809 00e6 00       		.byte	0
 810 00e7 00       		.byte	0
 811 00e8 00       		.byte	0
 812 00e9 30       		.byte	48
 813 00ea 30       		.byte	48
 814 00eb 00       		.byte	0
 815 00ec 00       		.byte	0
 816 00ed 00       		.byte	0
 817 00ee 00       		.byte	0
 818 00ef 00       		.byte	0
 819 00f0 00       		.byte	0
 820 00f1 00       		.byte	0
 821 00f2 00       		.byte	0
 822 00f3 00       		.byte	0
 823 00f4 80       		.byte	-128
 824 00f5 60       		.byte	96
 825 00f6 18       		.byte	24
 826 00f7 04       		.byte	4
 827 00f8 00       		.byte	0
 828 00f9 60       		.byte	96
 829 00fa 18       		.byte	24
 830 00fb 06       		.byte	6
 831 00fc 01       		.byte	1
 832 00fd 00       		.byte	0
 833 00fe 00       		.byte	0
 834 00ff 00       		.byte	0
 835 0100 00       		.byte	0
 836 0101 E0       		.byte	-32
 837 0102 10       		.byte	16
 838 0103 08       		.byte	8
 839 0104 08       		.byte	8
 840 0105 10       		.byte	16
 841 0106 E0       		.byte	-32
 842 0107 00       		.byte	0
 843 0108 00       		.byte	0
 844 0109 0F       		.byte	15
 845 010a 10       		.byte	16
 846 010b 20       		.byte	32
 847 010c 20       		.byte	32
 848 010d 10       		.byte	16
 849 010e 0F       		.byte	15
 850 010f 00       		.byte	0
 851 0110 00       		.byte	0
 852 0111 10       		.byte	16
 853 0112 10       		.byte	16
 854 0113 F8       		.byte	-8
 855 0114 00       		.byte	0
 856 0115 00       		.byte	0
 857 0116 00       		.byte	0
 858 0117 00       		.byte	0
 859 0118 00       		.byte	0
ARM GAS  /tmp/ccqvBbOy.s 			page 16


 860 0119 20       		.byte	32
 861 011a 20       		.byte	32
 862 011b 3F       		.byte	63
 863 011c 20       		.byte	32
 864 011d 20       		.byte	32
 865 011e 00       		.byte	0
 866 011f 00       		.byte	0
 867 0120 00       		.byte	0
 868 0121 70       		.byte	112
 869 0122 08       		.byte	8
 870 0123 08       		.byte	8
 871 0124 08       		.byte	8
 872 0125 88       		.byte	-120
 873 0126 70       		.byte	112
 874 0127 00       		.byte	0
 875 0128 00       		.byte	0
 876 0129 30       		.byte	48
 877 012a 28       		.byte	40
 878 012b 24       		.byte	36
 879 012c 22       		.byte	34
 880 012d 21       		.byte	33
 881 012e 30       		.byte	48
 882 012f 00       		.byte	0
 883 0130 00       		.byte	0
 884 0131 30       		.byte	48
 885 0132 08       		.byte	8
 886 0133 88       		.byte	-120
 887 0134 88       		.byte	-120
 888 0135 48       		.byte	72
 889 0136 30       		.byte	48
 890 0137 00       		.byte	0
 891 0138 00       		.byte	0
 892 0139 18       		.byte	24
 893 013a 20       		.byte	32
 894 013b 20       		.byte	32
 895 013c 20       		.byte	32
 896 013d 11       		.byte	17
 897 013e 0E       		.byte	14
 898 013f 00       		.byte	0
 899 0140 00       		.byte	0
 900 0141 00       		.byte	0
 901 0142 C0       		.byte	-64
 902 0143 20       		.byte	32
 903 0144 10       		.byte	16
 904 0145 F8       		.byte	-8
 905 0146 00       		.byte	0
 906 0147 00       		.byte	0
 907 0148 00       		.byte	0
 908 0149 07       		.byte	7
 909 014a 04       		.byte	4
 910 014b 24       		.byte	36
 911 014c 24       		.byte	36
 912 014d 3F       		.byte	63
 913 014e 24       		.byte	36
 914 014f 00       		.byte	0
 915 0150 00       		.byte	0
 916 0151 F8       		.byte	-8
ARM GAS  /tmp/ccqvBbOy.s 			page 17


 917 0152 08       		.byte	8
 918 0153 88       		.byte	-120
 919 0154 88       		.byte	-120
 920 0155 08       		.byte	8
 921 0156 08       		.byte	8
 922 0157 00       		.byte	0
 923 0158 00       		.byte	0
 924 0159 19       		.byte	25
 925 015a 21       		.byte	33
 926 015b 20       		.byte	32
 927 015c 20       		.byte	32
 928 015d 11       		.byte	17
 929 015e 0E       		.byte	14
 930 015f 00       		.byte	0
 931 0160 00       		.byte	0
 932 0161 E0       		.byte	-32
 933 0162 10       		.byte	16
 934 0163 88       		.byte	-120
 935 0164 88       		.byte	-120
 936 0165 18       		.byte	24
 937 0166 00       		.byte	0
 938 0167 00       		.byte	0
 939 0168 00       		.byte	0
 940 0169 0F       		.byte	15
 941 016a 11       		.byte	17
 942 016b 20       		.byte	32
 943 016c 20       		.byte	32
 944 016d 11       		.byte	17
 945 016e 0E       		.byte	14
 946 016f 00       		.byte	0
 947 0170 00       		.byte	0
 948 0171 38       		.byte	56
 949 0172 08       		.byte	8
 950 0173 08       		.byte	8
 951 0174 C8       		.byte	-56
 952 0175 38       		.byte	56
 953 0176 08       		.byte	8
 954 0177 00       		.byte	0
 955 0178 00       		.byte	0
 956 0179 00       		.byte	0
 957 017a 00       		.byte	0
 958 017b 3F       		.byte	63
 959 017c 00       		.byte	0
 960 017d 00       		.byte	0
 961 017e 00       		.byte	0
 962 017f 00       		.byte	0
 963 0180 00       		.byte	0
 964 0181 70       		.byte	112
 965 0182 88       		.byte	-120
 966 0183 08       		.byte	8
 967 0184 08       		.byte	8
 968 0185 88       		.byte	-120
 969 0186 70       		.byte	112
 970 0187 00       		.byte	0
 971 0188 00       		.byte	0
 972 0189 1C       		.byte	28
 973 018a 22       		.byte	34
ARM GAS  /tmp/ccqvBbOy.s 			page 18


 974 018b 21       		.byte	33
 975 018c 21       		.byte	33
 976 018d 22       		.byte	34
 977 018e 1C       		.byte	28
 978 018f 00       		.byte	0
 979 0190 00       		.byte	0
 980 0191 E0       		.byte	-32
 981 0192 10       		.byte	16
 982 0193 08       		.byte	8
 983 0194 08       		.byte	8
 984 0195 10       		.byte	16
 985 0196 E0       		.byte	-32
 986 0197 00       		.byte	0
 987 0198 00       		.byte	0
 988 0199 00       		.byte	0
 989 019a 31       		.byte	49
 990 019b 22       		.byte	34
 991 019c 22       		.byte	34
 992 019d 11       		.byte	17
 993 019e 0F       		.byte	15
 994 019f 00       		.byte	0
 995 01a0 00       		.byte	0
 996 01a1 00       		.byte	0
 997 01a2 00       		.byte	0
 998 01a3 C0       		.byte	-64
 999 01a4 C0       		.byte	-64
 1000 01a5 00       		.byte	0
 1001 01a6 00       		.byte	0
 1002 01a7 00       		.byte	0
 1003 01a8 00       		.byte	0
 1004 01a9 00       		.byte	0
 1005 01aa 00       		.byte	0
 1006 01ab 30       		.byte	48
 1007 01ac 30       		.byte	48
 1008 01ad 00       		.byte	0
 1009 01ae 00       		.byte	0
 1010 01af 00       		.byte	0
 1011 01b0 00       		.byte	0
 1012 01b1 00       		.byte	0
 1013 01b2 00       		.byte	0
 1014 01b3 80       		.byte	-128
 1015 01b4 00       		.byte	0
 1016 01b5 00       		.byte	0
 1017 01b6 00       		.byte	0
 1018 01b7 00       		.byte	0
 1019 01b8 00       		.byte	0
 1020 01b9 00       		.byte	0
 1021 01ba 80       		.byte	-128
 1022 01bb 60       		.byte	96
 1023 01bc 00       		.byte	0
 1024 01bd 00       		.byte	0
 1025 01be 00       		.byte	0
 1026 01bf 00       		.byte	0
 1027 01c0 00       		.byte	0
 1028 01c1 00       		.byte	0
 1029 01c2 80       		.byte	-128
 1030 01c3 40       		.byte	64
ARM GAS  /tmp/ccqvBbOy.s 			page 19


 1031 01c4 20       		.byte	32
 1032 01c5 10       		.byte	16
 1033 01c6 08       		.byte	8
 1034 01c7 00       		.byte	0
 1035 01c8 00       		.byte	0
 1036 01c9 01       		.byte	1
 1037 01ca 02       		.byte	2
 1038 01cb 04       		.byte	4
 1039 01cc 08       		.byte	8
 1040 01cd 10       		.byte	16
 1041 01ce 20       		.byte	32
 1042 01cf 00       		.byte	0
 1043 01d0 40       		.byte	64
 1044 01d1 40       		.byte	64
 1045 01d2 40       		.byte	64
 1046 01d3 40       		.byte	64
 1047 01d4 40       		.byte	64
 1048 01d5 40       		.byte	64
 1049 01d6 40       		.byte	64
 1050 01d7 00       		.byte	0
 1051 01d8 04       		.byte	4
 1052 01d9 04       		.byte	4
 1053 01da 04       		.byte	4
 1054 01db 04       		.byte	4
 1055 01dc 04       		.byte	4
 1056 01dd 04       		.byte	4
 1057 01de 04       		.byte	4
 1058 01df 00       		.byte	0
 1059 01e0 00       		.byte	0
 1060 01e1 08       		.byte	8
 1061 01e2 10       		.byte	16
 1062 01e3 20       		.byte	32
 1063 01e4 40       		.byte	64
 1064 01e5 80       		.byte	-128
 1065 01e6 00       		.byte	0
 1066 01e7 00       		.byte	0
 1067 01e8 00       		.byte	0
 1068 01e9 20       		.byte	32
 1069 01ea 10       		.byte	16
 1070 01eb 08       		.byte	8
 1071 01ec 04       		.byte	4
 1072 01ed 02       		.byte	2
 1073 01ee 01       		.byte	1
 1074 01ef 00       		.byte	0
 1075 01f0 00       		.byte	0
 1076 01f1 70       		.byte	112
 1077 01f2 48       		.byte	72
 1078 01f3 08       		.byte	8
 1079 01f4 08       		.byte	8
 1080 01f5 08       		.byte	8
 1081 01f6 F0       		.byte	-16
 1082 01f7 00       		.byte	0
 1083 01f8 00       		.byte	0
 1084 01f9 00       		.byte	0
 1085 01fa 00       		.byte	0
 1086 01fb 30       		.byte	48
 1087 01fc 36       		.byte	54
ARM GAS  /tmp/ccqvBbOy.s 			page 20


 1088 01fd 01       		.byte	1
 1089 01fe 00       		.byte	0
 1090 01ff 00       		.byte	0
 1091 0200 C0       		.byte	-64
 1092 0201 30       		.byte	48
 1093 0202 C8       		.byte	-56
 1094 0203 28       		.byte	40
 1095 0204 E8       		.byte	-24
 1096 0205 10       		.byte	16
 1097 0206 E0       		.byte	-32
 1098 0207 00       		.byte	0
 1099 0208 07       		.byte	7
 1100 0209 18       		.byte	24
 1101 020a 27       		.byte	39
 1102 020b 24       		.byte	36
 1103 020c 23       		.byte	35
 1104 020d 14       		.byte	20
 1105 020e 0B       		.byte	11
 1106 020f 00       		.byte	0
 1107 0210 00       		.byte	0
 1108 0211 00       		.byte	0
 1109 0212 C0       		.byte	-64
 1110 0213 38       		.byte	56
 1111 0214 E0       		.byte	-32
 1112 0215 00       		.byte	0
 1113 0216 00       		.byte	0
 1114 0217 00       		.byte	0
 1115 0218 20       		.byte	32
 1116 0219 3C       		.byte	60
 1117 021a 23       		.byte	35
 1118 021b 02       		.byte	2
 1119 021c 02       		.byte	2
 1120 021d 27       		.byte	39
 1121 021e 38       		.byte	56
 1122 021f 20       		.byte	32
 1123 0220 08       		.byte	8
 1124 0221 F8       		.byte	-8
 1125 0222 88       		.byte	-120
 1126 0223 88       		.byte	-120
 1127 0224 88       		.byte	-120
 1128 0225 70       		.byte	112
 1129 0226 00       		.byte	0
 1130 0227 00       		.byte	0
 1131 0228 20       		.byte	32
 1132 0229 3F       		.byte	63
 1133 022a 20       		.byte	32
 1134 022b 20       		.byte	32
 1135 022c 20       		.byte	32
 1136 022d 11       		.byte	17
 1137 022e 0E       		.byte	14
 1138 022f 00       		.byte	0
 1139 0230 C0       		.byte	-64
 1140 0231 30       		.byte	48
 1141 0232 08       		.byte	8
 1142 0233 08       		.byte	8
 1143 0234 08       		.byte	8
 1144 0235 08       		.byte	8
ARM GAS  /tmp/ccqvBbOy.s 			page 21


 1145 0236 38       		.byte	56
 1146 0237 00       		.byte	0
 1147 0238 07       		.byte	7
 1148 0239 18       		.byte	24
 1149 023a 20       		.byte	32
 1150 023b 20       		.byte	32
 1151 023c 20       		.byte	32
 1152 023d 10       		.byte	16
 1153 023e 08       		.byte	8
 1154 023f 00       		.byte	0
 1155 0240 08       		.byte	8
 1156 0241 F8       		.byte	-8
 1157 0242 08       		.byte	8
 1158 0243 08       		.byte	8
 1159 0244 08       		.byte	8
 1160 0245 10       		.byte	16
 1161 0246 E0       		.byte	-32
 1162 0247 00       		.byte	0
 1163 0248 20       		.byte	32
 1164 0249 3F       		.byte	63
 1165 024a 20       		.byte	32
 1166 024b 20       		.byte	32
 1167 024c 20       		.byte	32
 1168 024d 10       		.byte	16
 1169 024e 0F       		.byte	15
 1170 024f 00       		.byte	0
 1171 0250 08       		.byte	8
 1172 0251 F8       		.byte	-8
 1173 0252 88       		.byte	-120
 1174 0253 88       		.byte	-120
 1175 0254 E8       		.byte	-24
 1176 0255 08       		.byte	8
 1177 0256 10       		.byte	16
 1178 0257 00       		.byte	0
 1179 0258 20       		.byte	32
 1180 0259 3F       		.byte	63
 1181 025a 20       		.byte	32
 1182 025b 20       		.byte	32
 1183 025c 23       		.byte	35
 1184 025d 20       		.byte	32
 1185 025e 18       		.byte	24
 1186 025f 00       		.byte	0
 1187 0260 08       		.byte	8
 1188 0261 F8       		.byte	-8
 1189 0262 88       		.byte	-120
 1190 0263 88       		.byte	-120
 1191 0264 E8       		.byte	-24
 1192 0265 08       		.byte	8
 1193 0266 10       		.byte	16
 1194 0267 00       		.byte	0
 1195 0268 20       		.byte	32
 1196 0269 3F       		.byte	63
 1197 026a 20       		.byte	32
 1198 026b 00       		.byte	0
 1199 026c 03       		.byte	3
 1200 026d 00       		.byte	0
 1201 026e 00       		.byte	0
ARM GAS  /tmp/ccqvBbOy.s 			page 22


 1202 026f 00       		.byte	0
 1203 0270 C0       		.byte	-64
 1204 0271 30       		.byte	48
 1205 0272 08       		.byte	8
 1206 0273 08       		.byte	8
 1207 0274 08       		.byte	8
 1208 0275 38       		.byte	56
 1209 0276 00       		.byte	0
 1210 0277 00       		.byte	0
 1211 0278 07       		.byte	7
 1212 0279 18       		.byte	24
 1213 027a 20       		.byte	32
 1214 027b 20       		.byte	32
 1215 027c 22       		.byte	34
 1216 027d 1E       		.byte	30
 1217 027e 02       		.byte	2
 1218 027f 00       		.byte	0
 1219 0280 08       		.byte	8
 1220 0281 F8       		.byte	-8
 1221 0282 08       		.byte	8
 1222 0283 00       		.byte	0
 1223 0284 00       		.byte	0
 1224 0285 08       		.byte	8
 1225 0286 F8       		.byte	-8
 1226 0287 08       		.byte	8
 1227 0288 20       		.byte	32
 1228 0289 3F       		.byte	63
 1229 028a 21       		.byte	33
 1230 028b 01       		.byte	1
 1231 028c 01       		.byte	1
 1232 028d 21       		.byte	33
 1233 028e 3F       		.byte	63
 1234 028f 20       		.byte	32
 1235 0290 00       		.byte	0
 1236 0291 08       		.byte	8
 1237 0292 08       		.byte	8
 1238 0293 F8       		.byte	-8
 1239 0294 08       		.byte	8
 1240 0295 08       		.byte	8
 1241 0296 00       		.byte	0
 1242 0297 00       		.byte	0
 1243 0298 00       		.byte	0
 1244 0299 20       		.byte	32
 1245 029a 20       		.byte	32
 1246 029b 3F       		.byte	63
 1247 029c 20       		.byte	32
 1248 029d 20       		.byte	32
 1249 029e 00       		.byte	0
 1250 029f 00       		.byte	0
 1251 02a0 00       		.byte	0
 1252 02a1 00       		.byte	0
 1253 02a2 08       		.byte	8
 1254 02a3 08       		.byte	8
 1255 02a4 F8       		.byte	-8
 1256 02a5 08       		.byte	8
 1257 02a6 08       		.byte	8
 1258 02a7 00       		.byte	0
ARM GAS  /tmp/ccqvBbOy.s 			page 23


 1259 02a8 C0       		.byte	-64
 1260 02a9 80       		.byte	-128
 1261 02aa 80       		.byte	-128
 1262 02ab 80       		.byte	-128
 1263 02ac 7F       		.byte	127
 1264 02ad 00       		.byte	0
 1265 02ae 00       		.byte	0
 1266 02af 00       		.byte	0
 1267 02b0 08       		.byte	8
 1268 02b1 F8       		.byte	-8
 1269 02b2 88       		.byte	-120
 1270 02b3 C0       		.byte	-64
 1271 02b4 28       		.byte	40
 1272 02b5 18       		.byte	24
 1273 02b6 08       		.byte	8
 1274 02b7 00       		.byte	0
 1275 02b8 20       		.byte	32
 1276 02b9 3F       		.byte	63
 1277 02ba 20       		.byte	32
 1278 02bb 01       		.byte	1
 1279 02bc 26       		.byte	38
 1280 02bd 38       		.byte	56
 1281 02be 20       		.byte	32
 1282 02bf 00       		.byte	0
 1283 02c0 08       		.byte	8
 1284 02c1 F8       		.byte	-8
 1285 02c2 08       		.byte	8
 1286 02c3 00       		.byte	0
 1287 02c4 00       		.byte	0
 1288 02c5 00       		.byte	0
 1289 02c6 00       		.byte	0
 1290 02c7 00       		.byte	0
 1291 02c8 20       		.byte	32
 1292 02c9 3F       		.byte	63
 1293 02ca 20       		.byte	32
 1294 02cb 20       		.byte	32
 1295 02cc 20       		.byte	32
 1296 02cd 20       		.byte	32
 1297 02ce 30       		.byte	48
 1298 02cf 00       		.byte	0
 1299 02d0 08       		.byte	8
 1300 02d1 F8       		.byte	-8
 1301 02d2 F8       		.byte	-8
 1302 02d3 00       		.byte	0
 1303 02d4 F8       		.byte	-8
 1304 02d5 F8       		.byte	-8
 1305 02d6 08       		.byte	8
 1306 02d7 00       		.byte	0
 1307 02d8 20       		.byte	32
 1308 02d9 3F       		.byte	63
 1309 02da 00       		.byte	0
 1310 02db 3F       		.byte	63
 1311 02dc 00       		.byte	0
 1312 02dd 3F       		.byte	63
 1313 02de 20       		.byte	32
 1314 02df 00       		.byte	0
 1315 02e0 08       		.byte	8
ARM GAS  /tmp/ccqvBbOy.s 			page 24


 1316 02e1 F8       		.byte	-8
 1317 02e2 30       		.byte	48
 1318 02e3 C0       		.byte	-64
 1319 02e4 00       		.byte	0
 1320 02e5 08       		.byte	8
 1321 02e6 F8       		.byte	-8
 1322 02e7 08       		.byte	8
 1323 02e8 20       		.byte	32
 1324 02e9 3F       		.byte	63
 1325 02ea 20       		.byte	32
 1326 02eb 00       		.byte	0
 1327 02ec 07       		.byte	7
 1328 02ed 18       		.byte	24
 1329 02ee 3F       		.byte	63
 1330 02ef 00       		.byte	0
 1331 02f0 E0       		.byte	-32
 1332 02f1 10       		.byte	16
 1333 02f2 08       		.byte	8
 1334 02f3 08       		.byte	8
 1335 02f4 08       		.byte	8
 1336 02f5 10       		.byte	16
 1337 02f6 E0       		.byte	-32
 1338 02f7 00       		.byte	0
 1339 02f8 0F       		.byte	15
 1340 02f9 10       		.byte	16
 1341 02fa 20       		.byte	32
 1342 02fb 20       		.byte	32
 1343 02fc 20       		.byte	32
 1344 02fd 10       		.byte	16
 1345 02fe 0F       		.byte	15
 1346 02ff 00       		.byte	0
 1347 0300 08       		.byte	8
 1348 0301 F8       		.byte	-8
 1349 0302 08       		.byte	8
 1350 0303 08       		.byte	8
 1351 0304 08       		.byte	8
 1352 0305 08       		.byte	8
 1353 0306 F0       		.byte	-16
 1354 0307 00       		.byte	0
 1355 0308 20       		.byte	32
 1356 0309 3F       		.byte	63
 1357 030a 21       		.byte	33
 1358 030b 01       		.byte	1
 1359 030c 01       		.byte	1
 1360 030d 01       		.byte	1
 1361 030e 00       		.byte	0
 1362 030f 00       		.byte	0
 1363 0310 E0       		.byte	-32
 1364 0311 10       		.byte	16
 1365 0312 08       		.byte	8
 1366 0313 08       		.byte	8
 1367 0314 08       		.byte	8
 1368 0315 10       		.byte	16
 1369 0316 E0       		.byte	-32
 1370 0317 00       		.byte	0
 1371 0318 0F       		.byte	15
 1372 0319 18       		.byte	24
ARM GAS  /tmp/ccqvBbOy.s 			page 25


 1373 031a 24       		.byte	36
 1374 031b 24       		.byte	36
 1375 031c 38       		.byte	56
 1376 031d 50       		.byte	80
 1377 031e 4F       		.byte	79
 1378 031f 00       		.byte	0
 1379 0320 08       		.byte	8
 1380 0321 F8       		.byte	-8
 1381 0322 88       		.byte	-120
 1382 0323 88       		.byte	-120
 1383 0324 88       		.byte	-120
 1384 0325 88       		.byte	-120
 1385 0326 70       		.byte	112
 1386 0327 00       		.byte	0
 1387 0328 20       		.byte	32
 1388 0329 3F       		.byte	63
 1389 032a 20       		.byte	32
 1390 032b 00       		.byte	0
 1391 032c 03       		.byte	3
 1392 032d 0C       		.byte	12
 1393 032e 30       		.byte	48
 1394 032f 20       		.byte	32
 1395 0330 00       		.byte	0
 1396 0331 70       		.byte	112
 1397 0332 88       		.byte	-120
 1398 0333 08       		.byte	8
 1399 0334 08       		.byte	8
 1400 0335 08       		.byte	8
 1401 0336 38       		.byte	56
 1402 0337 00       		.byte	0
 1403 0338 00       		.byte	0
 1404 0339 38       		.byte	56
 1405 033a 20       		.byte	32
 1406 033b 21       		.byte	33
 1407 033c 21       		.byte	33
 1408 033d 22       		.byte	34
 1409 033e 1C       		.byte	28
 1410 033f 00       		.byte	0
 1411 0340 18       		.byte	24
 1412 0341 08       		.byte	8
 1413 0342 08       		.byte	8
 1414 0343 F8       		.byte	-8
 1415 0344 08       		.byte	8
 1416 0345 08       		.byte	8
 1417 0346 18       		.byte	24
 1418 0347 00       		.byte	0
 1419 0348 00       		.byte	0
 1420 0349 00       		.byte	0
 1421 034a 20       		.byte	32
 1422 034b 3F       		.byte	63
 1423 034c 20       		.byte	32
 1424 034d 00       		.byte	0
 1425 034e 00       		.byte	0
 1426 034f 00       		.byte	0
 1427 0350 08       		.byte	8
 1428 0351 F8       		.byte	-8
 1429 0352 08       		.byte	8
ARM GAS  /tmp/ccqvBbOy.s 			page 26


 1430 0353 00       		.byte	0
 1431 0354 00       		.byte	0
 1432 0355 08       		.byte	8
 1433 0356 F8       		.byte	-8
 1434 0357 08       		.byte	8
 1435 0358 00       		.byte	0
 1436 0359 1F       		.byte	31
 1437 035a 20       		.byte	32
 1438 035b 20       		.byte	32
 1439 035c 20       		.byte	32
 1440 035d 20       		.byte	32
 1441 035e 1F       		.byte	31
 1442 035f 00       		.byte	0
 1443 0360 08       		.byte	8
 1444 0361 78       		.byte	120
 1445 0362 88       		.byte	-120
 1446 0363 00       		.byte	0
 1447 0364 00       		.byte	0
 1448 0365 C8       		.byte	-56
 1449 0366 38       		.byte	56
 1450 0367 08       		.byte	8
 1451 0368 00       		.byte	0
 1452 0369 00       		.byte	0
 1453 036a 07       		.byte	7
 1454 036b 38       		.byte	56
 1455 036c 0E       		.byte	14
 1456 036d 01       		.byte	1
 1457 036e 00       		.byte	0
 1458 036f 00       		.byte	0
 1459 0370 F8       		.byte	-8
 1460 0371 08       		.byte	8
 1461 0372 00       		.byte	0
 1462 0373 F8       		.byte	-8
 1463 0374 00       		.byte	0
 1464 0375 08       		.byte	8
 1465 0376 F8       		.byte	-8
 1466 0377 00       		.byte	0
 1467 0378 03       		.byte	3
 1468 0379 3C       		.byte	60
 1469 037a 07       		.byte	7
 1470 037b 00       		.byte	0
 1471 037c 07       		.byte	7
 1472 037d 3C       		.byte	60
 1473 037e 03       		.byte	3
 1474 037f 00       		.byte	0
 1475 0380 08       		.byte	8
 1476 0381 18       		.byte	24
 1477 0382 68       		.byte	104
 1478 0383 80       		.byte	-128
 1479 0384 80       		.byte	-128
 1480 0385 68       		.byte	104
 1481 0386 18       		.byte	24
 1482 0387 08       		.byte	8
 1483 0388 20       		.byte	32
 1484 0389 30       		.byte	48
 1485 038a 2C       		.byte	44
 1486 038b 03       		.byte	3
ARM GAS  /tmp/ccqvBbOy.s 			page 27


 1487 038c 03       		.byte	3
 1488 038d 2C       		.byte	44
 1489 038e 30       		.byte	48
 1490 038f 20       		.byte	32
 1491 0390 08       		.byte	8
 1492 0391 38       		.byte	56
 1493 0392 C8       		.byte	-56
 1494 0393 00       		.byte	0
 1495 0394 C8       		.byte	-56
 1496 0395 38       		.byte	56
 1497 0396 08       		.byte	8
 1498 0397 00       		.byte	0
 1499 0398 00       		.byte	0
 1500 0399 00       		.byte	0
 1501 039a 20       		.byte	32
 1502 039b 3F       		.byte	63
 1503 039c 20       		.byte	32
 1504 039d 00       		.byte	0
 1505 039e 00       		.byte	0
 1506 039f 00       		.byte	0
 1507 03a0 10       		.byte	16
 1508 03a1 08       		.byte	8
 1509 03a2 08       		.byte	8
 1510 03a3 08       		.byte	8
 1511 03a4 C8       		.byte	-56
 1512 03a5 38       		.byte	56
 1513 03a6 08       		.byte	8
 1514 03a7 00       		.byte	0
 1515 03a8 20       		.byte	32
 1516 03a9 38       		.byte	56
 1517 03aa 26       		.byte	38
 1518 03ab 21       		.byte	33
 1519 03ac 20       		.byte	32
 1520 03ad 20       		.byte	32
 1521 03ae 18       		.byte	24
 1522 03af 00       		.byte	0
 1523 03b0 00       		.byte	0
 1524 03b1 00       		.byte	0
 1525 03b2 00       		.byte	0
 1526 03b3 FE       		.byte	-2
 1527 03b4 02       		.byte	2
 1528 03b5 02       		.byte	2
 1529 03b6 02       		.byte	2
 1530 03b7 00       		.byte	0
 1531 03b8 00       		.byte	0
 1532 03b9 00       		.byte	0
 1533 03ba 00       		.byte	0
 1534 03bb 7F       		.byte	127
 1535 03bc 40       		.byte	64
 1536 03bd 40       		.byte	64
 1537 03be 40       		.byte	64
 1538 03bf 00       		.byte	0
 1539 03c0 00       		.byte	0
 1540 03c1 0C       		.byte	12
 1541 03c2 30       		.byte	48
 1542 03c3 C0       		.byte	-64
 1543 03c4 00       		.byte	0
ARM GAS  /tmp/ccqvBbOy.s 			page 28


 1544 03c5 00       		.byte	0
 1545 03c6 00       		.byte	0
 1546 03c7 00       		.byte	0
 1547 03c8 00       		.byte	0
 1548 03c9 00       		.byte	0
 1549 03ca 00       		.byte	0
 1550 03cb 01       		.byte	1
 1551 03cc 06       		.byte	6
 1552 03cd 38       		.byte	56
 1553 03ce C0       		.byte	-64
 1554 03cf 00       		.byte	0
 1555 03d0 00       		.byte	0
 1556 03d1 02       		.byte	2
 1557 03d2 02       		.byte	2
 1558 03d3 02       		.byte	2
 1559 03d4 FE       		.byte	-2
 1560 03d5 00       		.byte	0
 1561 03d6 00       		.byte	0
 1562 03d7 00       		.byte	0
 1563 03d8 00       		.byte	0
 1564 03d9 40       		.byte	64
 1565 03da 40       		.byte	64
 1566 03db 40       		.byte	64
 1567 03dc 7F       		.byte	127
 1568 03dd 00       		.byte	0
 1569 03de 00       		.byte	0
 1570 03df 00       		.byte	0
 1571 03e0 00       		.byte	0
 1572 03e1 00       		.byte	0
 1573 03e2 04       		.byte	4
 1574 03e3 02       		.byte	2
 1575 03e4 02       		.byte	2
 1576 03e5 02       		.byte	2
 1577 03e6 04       		.byte	4
 1578 03e7 00       		.byte	0
 1579 03e8 00       		.byte	0
 1580 03e9 00       		.byte	0
 1581 03ea 00       		.byte	0
 1582 03eb 00       		.byte	0
 1583 03ec 00       		.byte	0
 1584 03ed 00       		.byte	0
 1585 03ee 00       		.byte	0
 1586 03ef 00       		.byte	0
 1587 03f0 00       		.byte	0
 1588 03f1 00       		.byte	0
 1589 03f2 00       		.byte	0
 1590 03f3 00       		.byte	0
 1591 03f4 00       		.byte	0
 1592 03f5 00       		.byte	0
 1593 03f6 00       		.byte	0
 1594 03f7 00       		.byte	0
 1595 03f8 80       		.byte	-128
 1596 03f9 80       		.byte	-128
 1597 03fa 80       		.byte	-128
 1598 03fb 80       		.byte	-128
 1599 03fc 80       		.byte	-128
 1600 03fd 80       		.byte	-128
ARM GAS  /tmp/ccqvBbOy.s 			page 29


 1601 03fe 80       		.byte	-128
 1602 03ff 80       		.byte	-128
 1603 0400 00       		.byte	0
 1604 0401 02       		.byte	2
 1605 0402 02       		.byte	2
 1606 0403 04       		.byte	4
 1607 0404 00       		.byte	0
 1608 0405 00       		.byte	0
 1609 0406 00       		.byte	0
 1610 0407 00       		.byte	0
 1611 0408 00       		.byte	0
 1612 0409 00       		.byte	0
 1613 040a 00       		.byte	0
 1614 040b 00       		.byte	0
 1615 040c 00       		.byte	0
 1616 040d 00       		.byte	0
 1617 040e 00       		.byte	0
 1618 040f 00       		.byte	0
 1619 0410 00       		.byte	0
 1620 0411 00       		.byte	0
 1621 0412 80       		.byte	-128
 1622 0413 80       		.byte	-128
 1623 0414 80       		.byte	-128
 1624 0415 80       		.byte	-128
 1625 0416 00       		.byte	0
 1626 0417 00       		.byte	0
 1627 0418 00       		.byte	0
 1628 0419 19       		.byte	25
 1629 041a 24       		.byte	36
 1630 041b 22       		.byte	34
 1631 041c 22       		.byte	34
 1632 041d 22       		.byte	34
 1633 041e 3F       		.byte	63
 1634 041f 20       		.byte	32
 1635 0420 08       		.byte	8
 1636 0421 F8       		.byte	-8
 1637 0422 00       		.byte	0
 1638 0423 80       		.byte	-128
 1639 0424 80       		.byte	-128
 1640 0425 00       		.byte	0
 1641 0426 00       		.byte	0
 1642 0427 00       		.byte	0
 1643 0428 00       		.byte	0
 1644 0429 3F       		.byte	63
 1645 042a 11       		.byte	17
 1646 042b 20       		.byte	32
 1647 042c 20       		.byte	32
 1648 042d 11       		.byte	17
 1649 042e 0E       		.byte	14
 1650 042f 00       		.byte	0
 1651 0430 00       		.byte	0
 1652 0431 00       		.byte	0
 1653 0432 00       		.byte	0
 1654 0433 80       		.byte	-128
 1655 0434 80       		.byte	-128
 1656 0435 80       		.byte	-128
 1657 0436 00       		.byte	0
ARM GAS  /tmp/ccqvBbOy.s 			page 30


 1658 0437 00       		.byte	0
 1659 0438 00       		.byte	0
 1660 0439 0E       		.byte	14
 1661 043a 11       		.byte	17
 1662 043b 20       		.byte	32
 1663 043c 20       		.byte	32
 1664 043d 20       		.byte	32
 1665 043e 11       		.byte	17
 1666 043f 00       		.byte	0
 1667 0440 00       		.byte	0
 1668 0441 00       		.byte	0
 1669 0442 00       		.byte	0
 1670 0443 80       		.byte	-128
 1671 0444 80       		.byte	-128
 1672 0445 88       		.byte	-120
 1673 0446 F8       		.byte	-8
 1674 0447 00       		.byte	0
 1675 0448 00       		.byte	0
 1676 0449 0E       		.byte	14
 1677 044a 11       		.byte	17
 1678 044b 20       		.byte	32
 1679 044c 20       		.byte	32
 1680 044d 10       		.byte	16
 1681 044e 3F       		.byte	63
 1682 044f 20       		.byte	32
 1683 0450 00       		.byte	0
 1684 0451 00       		.byte	0
 1685 0452 80       		.byte	-128
 1686 0453 80       		.byte	-128
 1687 0454 80       		.byte	-128
 1688 0455 80       		.byte	-128
 1689 0456 00       		.byte	0
 1690 0457 00       		.byte	0
 1691 0458 00       		.byte	0
 1692 0459 1F       		.byte	31
 1693 045a 22       		.byte	34
 1694 045b 22       		.byte	34
 1695 045c 22       		.byte	34
 1696 045d 22       		.byte	34
 1697 045e 13       		.byte	19
 1698 045f 00       		.byte	0
 1699 0460 00       		.byte	0
 1700 0461 80       		.byte	-128
 1701 0462 80       		.byte	-128
 1702 0463 F0       		.byte	-16
 1703 0464 88       		.byte	-120
 1704 0465 88       		.byte	-120
 1705 0466 88       		.byte	-120
 1706 0467 18       		.byte	24
 1707 0468 00       		.byte	0
 1708 0469 20       		.byte	32
 1709 046a 20       		.byte	32
 1710 046b 3F       		.byte	63
 1711 046c 20       		.byte	32
 1712 046d 20       		.byte	32
 1713 046e 00       		.byte	0
 1714 046f 00       		.byte	0
ARM GAS  /tmp/ccqvBbOy.s 			page 31


 1715 0470 00       		.byte	0
 1716 0471 00       		.byte	0
 1717 0472 80       		.byte	-128
 1718 0473 80       		.byte	-128
 1719 0474 80       		.byte	-128
 1720 0475 80       		.byte	-128
 1721 0476 80       		.byte	-128
 1722 0477 00       		.byte	0
 1723 0478 00       		.byte	0
 1724 0479 6B       		.byte	107
 1725 047a 94       		.byte	-108
 1726 047b 94       		.byte	-108
 1727 047c 94       		.byte	-108
 1728 047d 93       		.byte	-109
 1729 047e 60       		.byte	96
 1730 047f 00       		.byte	0
 1731 0480 08       		.byte	8
 1732 0481 F8       		.byte	-8
 1733 0482 00       		.byte	0
 1734 0483 80       		.byte	-128
 1735 0484 80       		.byte	-128
 1736 0485 80       		.byte	-128
 1737 0486 00       		.byte	0
 1738 0487 00       		.byte	0
 1739 0488 20       		.byte	32
 1740 0489 3F       		.byte	63
 1741 048a 21       		.byte	33
 1742 048b 00       		.byte	0
 1743 048c 00       		.byte	0
 1744 048d 20       		.byte	32
 1745 048e 3F       		.byte	63
 1746 048f 20       		.byte	32
 1747 0490 00       		.byte	0
 1748 0491 80       		.byte	-128
 1749 0492 98       		.byte	-104
 1750 0493 98       		.byte	-104
 1751 0494 00       		.byte	0
 1752 0495 00       		.byte	0
 1753 0496 00       		.byte	0
 1754 0497 00       		.byte	0
 1755 0498 00       		.byte	0
 1756 0499 20       		.byte	32
 1757 049a 20       		.byte	32
 1758 049b 3F       		.byte	63
 1759 049c 20       		.byte	32
 1760 049d 20       		.byte	32
 1761 049e 00       		.byte	0
 1762 049f 00       		.byte	0
 1763 04a0 00       		.byte	0
 1764 04a1 00       		.byte	0
 1765 04a2 00       		.byte	0
 1766 04a3 80       		.byte	-128
 1767 04a4 98       		.byte	-104
 1768 04a5 98       		.byte	-104
 1769 04a6 00       		.byte	0
 1770 04a7 00       		.byte	0
 1771 04a8 00       		.byte	0
ARM GAS  /tmp/ccqvBbOy.s 			page 32


 1772 04a9 C0       		.byte	-64
 1773 04aa 80       		.byte	-128
 1774 04ab 80       		.byte	-128
 1775 04ac 80       		.byte	-128
 1776 04ad 7F       		.byte	127
 1777 04ae 00       		.byte	0
 1778 04af 00       		.byte	0
 1779 04b0 08       		.byte	8
 1780 04b1 F8       		.byte	-8
 1781 04b2 00       		.byte	0
 1782 04b3 00       		.byte	0
 1783 04b4 80       		.byte	-128
 1784 04b5 80       		.byte	-128
 1785 04b6 80       		.byte	-128
 1786 04b7 00       		.byte	0
 1787 04b8 20       		.byte	32
 1788 04b9 3F       		.byte	63
 1789 04ba 24       		.byte	36
 1790 04bb 02       		.byte	2
 1791 04bc 2D       		.byte	45
 1792 04bd 30       		.byte	48
 1793 04be 20       		.byte	32
 1794 04bf 00       		.byte	0
 1795 04c0 00       		.byte	0
 1796 04c1 08       		.byte	8
 1797 04c2 08       		.byte	8
 1798 04c3 F8       		.byte	-8
 1799 04c4 00       		.byte	0
 1800 04c5 00       		.byte	0
 1801 04c6 00       		.byte	0
 1802 04c7 00       		.byte	0
 1803 04c8 00       		.byte	0
 1804 04c9 20       		.byte	32
 1805 04ca 20       		.byte	32
 1806 04cb 3F       		.byte	63
 1807 04cc 20       		.byte	32
 1808 04cd 20       		.byte	32
 1809 04ce 00       		.byte	0
 1810 04cf 00       		.byte	0
 1811 04d0 80       		.byte	-128
 1812 04d1 80       		.byte	-128
 1813 04d2 80       		.byte	-128
 1814 04d3 80       		.byte	-128
 1815 04d4 80       		.byte	-128
 1816 04d5 80       		.byte	-128
 1817 04d6 80       		.byte	-128
 1818 04d7 00       		.byte	0
 1819 04d8 20       		.byte	32
 1820 04d9 3F       		.byte	63
 1821 04da 20       		.byte	32
 1822 04db 00       		.byte	0
 1823 04dc 3F       		.byte	63
 1824 04dd 20       		.byte	32
 1825 04de 00       		.byte	0
 1826 04df 3F       		.byte	63
 1827 04e0 80       		.byte	-128
 1828 04e1 80       		.byte	-128
ARM GAS  /tmp/ccqvBbOy.s 			page 33


 1829 04e2 00       		.byte	0
 1830 04e3 80       		.byte	-128
 1831 04e4 80       		.byte	-128
 1832 04e5 80       		.byte	-128
 1833 04e6 00       		.byte	0
 1834 04e7 00       		.byte	0
 1835 04e8 20       		.byte	32
 1836 04e9 3F       		.byte	63
 1837 04ea 21       		.byte	33
 1838 04eb 00       		.byte	0
 1839 04ec 00       		.byte	0
 1840 04ed 20       		.byte	32
 1841 04ee 3F       		.byte	63
 1842 04ef 20       		.byte	32
 1843 04f0 00       		.byte	0
 1844 04f1 00       		.byte	0
 1845 04f2 80       		.byte	-128
 1846 04f3 80       		.byte	-128
 1847 04f4 80       		.byte	-128
 1848 04f5 80       		.byte	-128
 1849 04f6 00       		.byte	0
 1850 04f7 00       		.byte	0
 1851 04f8 00       		.byte	0
 1852 04f9 1F       		.byte	31
 1853 04fa 20       		.byte	32
 1854 04fb 20       		.byte	32
 1855 04fc 20       		.byte	32
 1856 04fd 20       		.byte	32
 1857 04fe 1F       		.byte	31
 1858 04ff 00       		.byte	0
 1859 0500 80       		.byte	-128
 1860 0501 80       		.byte	-128
 1861 0502 00       		.byte	0
 1862 0503 80       		.byte	-128
 1863 0504 80       		.byte	-128
 1864 0505 00       		.byte	0
 1865 0506 00       		.byte	0
 1866 0507 00       		.byte	0
 1867 0508 80       		.byte	-128
 1868 0509 FF       		.byte	-1
 1869 050a A1       		.byte	-95
 1870 050b 20       		.byte	32
 1871 050c 20       		.byte	32
 1872 050d 11       		.byte	17
 1873 050e 0E       		.byte	14
 1874 050f 00       		.byte	0
 1875 0510 00       		.byte	0
 1876 0511 00       		.byte	0
 1877 0512 00       		.byte	0
 1878 0513 80       		.byte	-128
 1879 0514 80       		.byte	-128
 1880 0515 80       		.byte	-128
 1881 0516 80       		.byte	-128
 1882 0517 00       		.byte	0
 1883 0518 00       		.byte	0
 1884 0519 0E       		.byte	14
 1885 051a 11       		.byte	17
ARM GAS  /tmp/ccqvBbOy.s 			page 34


 1886 051b 20       		.byte	32
 1887 051c 20       		.byte	32
 1888 051d A0       		.byte	-96
 1889 051e FF       		.byte	-1
 1890 051f 80       		.byte	-128
 1891 0520 80       		.byte	-128
 1892 0521 80       		.byte	-128
 1893 0522 80       		.byte	-128
 1894 0523 00       		.byte	0
 1895 0524 80       		.byte	-128
 1896 0525 80       		.byte	-128
 1897 0526 80       		.byte	-128
 1898 0527 00       		.byte	0
 1899 0528 20       		.byte	32
 1900 0529 20       		.byte	32
 1901 052a 3F       		.byte	63
 1902 052b 21       		.byte	33
 1903 052c 20       		.byte	32
 1904 052d 00       		.byte	0
 1905 052e 01       		.byte	1
 1906 052f 00       		.byte	0
 1907 0530 00       		.byte	0
 1908 0531 00       		.byte	0
 1909 0532 80       		.byte	-128
 1910 0533 80       		.byte	-128
 1911 0534 80       		.byte	-128
 1912 0535 80       		.byte	-128
 1913 0536 80       		.byte	-128
 1914 0537 00       		.byte	0
 1915 0538 00       		.byte	0
 1916 0539 33       		.byte	51
 1917 053a 24       		.byte	36
 1918 053b 24       		.byte	36
 1919 053c 24       		.byte	36
 1920 053d 24       		.byte	36
 1921 053e 19       		.byte	25
 1922 053f 00       		.byte	0
 1923 0540 00       		.byte	0
 1924 0541 80       		.byte	-128
 1925 0542 80       		.byte	-128
 1926 0543 E0       		.byte	-32
 1927 0544 80       		.byte	-128
 1928 0545 80       		.byte	-128
 1929 0546 00       		.byte	0
 1930 0547 00       		.byte	0
 1931 0548 00       		.byte	0
 1932 0549 00       		.byte	0
 1933 054a 00       		.byte	0
 1934 054b 1F       		.byte	31
 1935 054c 20       		.byte	32
 1936 054d 20       		.byte	32
 1937 054e 00       		.byte	0
 1938 054f 00       		.byte	0
 1939 0550 80       		.byte	-128
 1940 0551 80       		.byte	-128
 1941 0552 00       		.byte	0
 1942 0553 00       		.byte	0
ARM GAS  /tmp/ccqvBbOy.s 			page 35


 1943 0554 00       		.byte	0
 1944 0555 80       		.byte	-128
 1945 0556 80       		.byte	-128
 1946 0557 00       		.byte	0
 1947 0558 00       		.byte	0
 1948 0559 1F       		.byte	31
 1949 055a 20       		.byte	32
 1950 055b 20       		.byte	32
 1951 055c 20       		.byte	32
 1952 055d 10       		.byte	16
 1953 055e 3F       		.byte	63
 1954 055f 20       		.byte	32
 1955 0560 80       		.byte	-128
 1956 0561 80       		.byte	-128
 1957 0562 80       		.byte	-128
 1958 0563 00       		.byte	0
 1959 0564 00       		.byte	0
 1960 0565 80       		.byte	-128
 1961 0566 80       		.byte	-128
 1962 0567 80       		.byte	-128
 1963 0568 00       		.byte	0
 1964 0569 01       		.byte	1
 1965 056a 0E       		.byte	14
 1966 056b 30       		.byte	48
 1967 056c 08       		.byte	8
 1968 056d 06       		.byte	6
 1969 056e 01       		.byte	1
 1970 056f 00       		.byte	0
 1971 0570 80       		.byte	-128
 1972 0571 80       		.byte	-128
 1973 0572 00       		.byte	0
 1974 0573 80       		.byte	-128
 1975 0574 00       		.byte	0
 1976 0575 80       		.byte	-128
 1977 0576 80       		.byte	-128
 1978 0577 80       		.byte	-128
 1979 0578 0F       		.byte	15
 1980 0579 30       		.byte	48
 1981 057a 0C       		.byte	12
 1982 057b 03       		.byte	3
 1983 057c 0C       		.byte	12
 1984 057d 30       		.byte	48
 1985 057e 0F       		.byte	15
 1986 057f 00       		.byte	0
 1987 0580 00       		.byte	0
 1988 0581 80       		.byte	-128
 1989 0582 80       		.byte	-128
 1990 0583 00       		.byte	0
 1991 0584 80       		.byte	-128
 1992 0585 80       		.byte	-128
 1993 0586 80       		.byte	-128
 1994 0587 00       		.byte	0
 1995 0588 00       		.byte	0
 1996 0589 20       		.byte	32
 1997 058a 31       		.byte	49
 1998 058b 2E       		.byte	46
 1999 058c 0E       		.byte	14
ARM GAS  /tmp/ccqvBbOy.s 			page 36


 2000 058d 31       		.byte	49
 2001 058e 20       		.byte	32
 2002 058f 00       		.byte	0
 2003 0590 80       		.byte	-128
 2004 0591 80       		.byte	-128
 2005 0592 80       		.byte	-128
 2006 0593 00       		.byte	0
 2007 0594 00       		.byte	0
 2008 0595 80       		.byte	-128
 2009 0596 80       		.byte	-128
 2010 0597 80       		.byte	-128
 2011 0598 80       		.byte	-128
 2012 0599 81       		.byte	-127
 2013 059a 8E       		.byte	-114
 2014 059b 70       		.byte	112
 2015 059c 18       		.byte	24
 2016 059d 06       		.byte	6
 2017 059e 01       		.byte	1
 2018 059f 00       		.byte	0
 2019 05a0 00       		.byte	0
 2020 05a1 80       		.byte	-128
 2021 05a2 80       		.byte	-128
 2022 05a3 80       		.byte	-128
 2023 05a4 80       		.byte	-128
 2024 05a5 80       		.byte	-128
 2025 05a6 80       		.byte	-128
 2026 05a7 00       		.byte	0
 2027 05a8 00       		.byte	0
 2028 05a9 21       		.byte	33
 2029 05aa 30       		.byte	48
 2030 05ab 2C       		.byte	44
 2031 05ac 22       		.byte	34
 2032 05ad 21       		.byte	33
 2033 05ae 30       		.byte	48
 2034 05af 00       		.byte	0
 2035 05b0 00       		.byte	0
 2036 05b1 00       		.byte	0
 2037 05b2 00       		.byte	0
 2038 05b3 00       		.byte	0
 2039 05b4 80       		.byte	-128
 2040 05b5 7C       		.byte	124
 2041 05b6 02       		.byte	2
 2042 05b7 02       		.byte	2
 2043 05b8 00       		.byte	0
 2044 05b9 00       		.byte	0
 2045 05ba 00       		.byte	0
 2046 05bb 00       		.byte	0
 2047 05bc 00       		.byte	0
 2048 05bd 3F       		.byte	63
 2049 05be 40       		.byte	64
 2050 05bf 40       		.byte	64
 2051 05c0 00       		.byte	0
 2052 05c1 00       		.byte	0
 2053 05c2 00       		.byte	0
 2054 05c3 00       		.byte	0
 2055 05c4 FF       		.byte	-1
 2056 05c5 00       		.byte	0
ARM GAS  /tmp/ccqvBbOy.s 			page 37


 2057 05c6 00       		.byte	0
 2058 05c7 00       		.byte	0
 2059 05c8 00       		.byte	0
 2060 05c9 00       		.byte	0
 2061 05ca 00       		.byte	0
 2062 05cb 00       		.byte	0
 2063 05cc FF       		.byte	-1
 2064 05cd 00       		.byte	0
 2065 05ce 00       		.byte	0
 2066 05cf 00       		.byte	0
 2067 05d0 00       		.byte	0
 2068 05d1 02       		.byte	2
 2069 05d2 02       		.byte	2
 2070 05d3 7C       		.byte	124
 2071 05d4 80       		.byte	-128
 2072 05d5 00       		.byte	0
 2073 05d6 00       		.byte	0
 2074 05d7 00       		.byte	0
 2075 05d8 00       		.byte	0
 2076 05d9 40       		.byte	64
 2077 05da 40       		.byte	64
 2078 05db 3F       		.byte	63
 2079 05dc 00       		.byte	0
 2080 05dd 00       		.byte	0
 2081 05de 00       		.byte	0
 2082 05df 00       		.byte	0
 2083 05e0 00       		.byte	0
 2084 05e1 06       		.byte	6
 2085 05e2 01       		.byte	1
 2086 05e3 01       		.byte	1
 2087 05e4 02       		.byte	2
 2088 05e5 02       		.byte	2
 2089 05e6 04       		.byte	4
 2090 05e7 04       		.byte	4
 2091 05e8 00       		.byte	0
 2092 05e9 00       		.byte	0
 2093 05ea 00       		.byte	0
 2094 05eb 00       		.byte	0
 2095 05ec 00       		.byte	0
 2096 05ed 00       		.byte	0
 2097 05ee 00       		.byte	0
 2098 05ef 00       		.byte	0
 2099              		.section	.text.delay_us,"ax",%progbits
 2100              		.align	1
 2101              		.syntax unified
 2102              		.thumb
 2103              		.thumb_func
 2104              		.fpu softvfp
 2106              	delay_us:
 2107              	.LFB66:
 2108              		.file 1 "Src/oled.c"
   1:Src/oled.c    **** #include "oled.h"
   2:Src/oled.c    **** #include "ec20.h"
   3:Src/oled.c    ****  
   4:Src/oled.c    **** const unsigned char F6x8[][6] =		
   5:Src/oled.c    **** {
   6:Src/oled.c    ****   0x00, 0x00, 0x00, 0x00, 0x00, 0x00,// sp
ARM GAS  /tmp/ccqvBbOy.s 			page 38


   7:Src/oled.c    ****   0x00, 0x00, 0x00, 0x2f, 0x00, 0x00,// !
   8:Src/oled.c    ****   0x00, 0x00, 0x07, 0x00, 0x07, 0x00,// "
   9:Src/oled.c    ****   0x00, 0x14, 0x7f, 0x14, 0x7f, 0x14,// #
  10:Src/oled.c    ****   0x00, 0x24, 0x2a, 0x7f, 0x2a, 0x12,// $
  11:Src/oled.c    ****   0x00, 0x62, 0x64, 0x08, 0x13, 0x23,// %
  12:Src/oled.c    ****   0x00, 0x36, 0x49, 0x55, 0x22, 0x50,// &
  13:Src/oled.c    ****   0x00, 0x00, 0x05, 0x03, 0x00, 0x00,// '
  14:Src/oled.c    ****   0x00, 0x00, 0x1c, 0x22, 0x41, 0x00,// (
  15:Src/oled.c    ****   0x00, 0x00, 0x41, 0x22, 0x1c, 0x00,// )
  16:Src/oled.c    ****   0x00, 0x14, 0x08, 0x3E, 0x08, 0x14,// *
  17:Src/oled.c    ****   0x00, 0x08, 0x08, 0x3E, 0x08, 0x08,// +
  18:Src/oled.c    ****   0x00, 0x00, 0x00, 0xA0, 0x60, 0x00,// ,
  19:Src/oled.c    ****   0x00, 0x08, 0x08, 0x08, 0x08, 0x08,// -
  20:Src/oled.c    ****   0x00, 0x00, 0x60, 0x60, 0x00, 0x00,// .
  21:Src/oled.c    ****   0x00, 0x20, 0x10, 0x08, 0x04, 0x02,// /
  22:Src/oled.c    ****   0x00, 0x3E, 0x51, 0x49, 0x45, 0x3E,// 0
  23:Src/oled.c    ****   0x00, 0x00, 0x42, 0x7F, 0x40, 0x00,// 1
  24:Src/oled.c    ****   0x00, 0x42, 0x61, 0x51, 0x49, 0x46,// 2
  25:Src/oled.c    ****   0x00, 0x21, 0x41, 0x45, 0x4B, 0x31,// 3
  26:Src/oled.c    ****   0x00, 0x18, 0x14, 0x12, 0x7F, 0x10,// 4
  27:Src/oled.c    ****   0x00, 0x27, 0x45, 0x45, 0x45, 0x39,// 5
  28:Src/oled.c    ****   0x00, 0x3C, 0x4A, 0x49, 0x49, 0x30,// 6
  29:Src/oled.c    ****   0x00, 0x01, 0x71, 0x09, 0x05, 0x03,// 7
  30:Src/oled.c    ****   0x00, 0x36, 0x49, 0x49, 0x49, 0x36,// 8
  31:Src/oled.c    ****   0x00, 0x06, 0x49, 0x49, 0x29, 0x1E,// 9
  32:Src/oled.c    ****   0x00, 0x00, 0x36, 0x36, 0x00, 0x00,// :
  33:Src/oled.c    ****   0x00, 0x00, 0x56, 0x36, 0x00, 0x00,// ;
  34:Src/oled.c    ****   0x00, 0x08, 0x14, 0x22, 0x41, 0x00,// <
  35:Src/oled.c    ****   0x00, 0x14, 0x14, 0x14, 0x14, 0x14,// =
  36:Src/oled.c    ****   0x00, 0x00, 0x41, 0x22, 0x14, 0x08,// >
  37:Src/oled.c    ****   0x00, 0x02, 0x01, 0x51, 0x09, 0x06,// ?
  38:Src/oled.c    ****   0x00, 0x32, 0x49, 0x59, 0x51, 0x3E,// @
  39:Src/oled.c    ****   0x00, 0x7C, 0x12, 0x11, 0x12, 0x7C,// A
  40:Src/oled.c    ****   0x00, 0x7F, 0x49, 0x49, 0x49, 0x36,// B
  41:Src/oled.c    ****   0x00, 0x3E, 0x41, 0x41, 0x41, 0x22,// C
  42:Src/oled.c    ****   0x00, 0x7F, 0x41, 0x41, 0x22, 0x1C,// D
  43:Src/oled.c    ****   0x00, 0x7F, 0x49, 0x49, 0x49, 0x41,// E
  44:Src/oled.c    ****   0x00, 0x7F, 0x09, 0x09, 0x09, 0x01,// F
  45:Src/oled.c    ****   0x00, 0x3E, 0x41, 0x49, 0x49, 0x7A,// G
  46:Src/oled.c    ****   0x00, 0x7F, 0x08, 0x08, 0x08, 0x7F,// H
  47:Src/oled.c    ****   0x00, 0x00, 0x41, 0x7F, 0x41, 0x00,// I
  48:Src/oled.c    ****   0x00, 0x20, 0x40, 0x41, 0x3F, 0x01,// J
  49:Src/oled.c    ****   0x00, 0x7F, 0x08, 0x14, 0x22, 0x41,// K
  50:Src/oled.c    ****   0x00, 0x7F, 0x40, 0x40, 0x40, 0x40,// L
  51:Src/oled.c    ****   0x00, 0x7F, 0x02, 0x0C, 0x02, 0x7F,// M
  52:Src/oled.c    ****   0x00, 0x7F, 0x04, 0x08, 0x10, 0x7F,// N
  53:Src/oled.c    ****   0x00, 0x3E, 0x41, 0x41, 0x41, 0x3E,// O
  54:Src/oled.c    ****   0x00, 0x7F, 0x09, 0x09, 0x09, 0x06,// P
  55:Src/oled.c    ****   0x00, 0x3E, 0x41, 0x51, 0x21, 0x5E,// Q
  56:Src/oled.c    ****   0x00, 0x7F, 0x09, 0x19, 0x29, 0x46,// R
  57:Src/oled.c    ****   0x00, 0x46, 0x49, 0x49, 0x49, 0x31,// S
  58:Src/oled.c    ****   0x00, 0x01, 0x01, 0x7F, 0x01, 0x01,// T
  59:Src/oled.c    ****   0x00, 0x3F, 0x40, 0x40, 0x40, 0x3F,// U
  60:Src/oled.c    ****   0x00, 0x1F, 0x20, 0x40, 0x20, 0x1F,// V
  61:Src/oled.c    ****   0x00, 0x3F, 0x40, 0x38, 0x40, 0x3F,// W
  62:Src/oled.c    ****   0x00, 0x63, 0x14, 0x08, 0x14, 0x63,// X
  63:Src/oled.c    ****   0x00, 0x07, 0x08, 0x70, 0x08, 0x07,// Y
ARM GAS  /tmp/ccqvBbOy.s 			page 39


  64:Src/oled.c    ****   0x00, 0x61, 0x51, 0x49, 0x45, 0x43,// Z
  65:Src/oled.c    ****   0x00, 0x00, 0x7F, 0x41, 0x41, 0x00,// [
  66:Src/oled.c    ****   0x00, 0x55, 0x2A, 0x55, 0x2A, 0x55,// 55
  67:Src/oled.c    ****   0x00, 0x00, 0x41, 0x41, 0x7F, 0x00,// ]
  68:Src/oled.c    ****   0x00, 0x04, 0x02, 0x01, 0x02, 0x04,// ^
  69:Src/oled.c    ****   0x00, 0x40, 0x40, 0x40, 0x40, 0x40,// _
  70:Src/oled.c    ****   0x00, 0x00, 0x01, 0x02, 0x04, 0x00,// '
  71:Src/oled.c    ****   0x00, 0x20, 0x54, 0x54, 0x54, 0x78,// a
  72:Src/oled.c    ****   0x00, 0x7F, 0x48, 0x44, 0x44, 0x38,// b
  73:Src/oled.c    ****   0x00, 0x38, 0x44, 0x44, 0x44, 0x20,// c
  74:Src/oled.c    ****   0x00, 0x38, 0x44, 0x44, 0x48, 0x7F,// d
  75:Src/oled.c    ****   0x00, 0x38, 0x54, 0x54, 0x54, 0x18,// e
  76:Src/oled.c    ****   0x00, 0x08, 0x7E, 0x09, 0x01, 0x02,// f
  77:Src/oled.c    ****   0x00, 0x18, 0xA4, 0xA4, 0xA4, 0x7C,// g
  78:Src/oled.c    ****   0x00, 0x7F, 0x08, 0x04, 0x04, 0x78,// h
  79:Src/oled.c    ****   0x00, 0x00, 0x44, 0x7D, 0x40, 0x00,// i
  80:Src/oled.c    ****   0x00, 0x40, 0x80, 0x84, 0x7D, 0x00,// j
  81:Src/oled.c    ****   0x00, 0x7F, 0x10, 0x28, 0x44, 0x00,// k
  82:Src/oled.c    ****   0x00, 0x00, 0x41, 0x7F, 0x40, 0x00,// l
  83:Src/oled.c    ****   0x00, 0x7C, 0x04, 0x18, 0x04, 0x78,// m
  84:Src/oled.c    ****   0x00, 0x7C, 0x08, 0x04, 0x04, 0x78,// n
  85:Src/oled.c    ****   0x00, 0x38, 0x44, 0x44, 0x44, 0x38,// o
  86:Src/oled.c    ****   0x00, 0xFC, 0x24, 0x24, 0x24, 0x18,// p
  87:Src/oled.c    ****   0x00, 0x18, 0x24, 0x24, 0x18, 0xFC,// q
  88:Src/oled.c    ****   0x00, 0x7C, 0x08, 0x04, 0x04, 0x08,// r
  89:Src/oled.c    ****   0x00, 0x48, 0x54, 0x54, 0x54, 0x20,// s
  90:Src/oled.c    ****   0x00, 0x04, 0x3F, 0x44, 0x40, 0x20,// t
  91:Src/oled.c    ****   0x00, 0x3C, 0x40, 0x40, 0x20, 0x7C,// u
  92:Src/oled.c    ****   0x00, 0x1C, 0x20, 0x40, 0x20, 0x1C,// v
  93:Src/oled.c    ****   0x00, 0x3C, 0x40, 0x30, 0x40, 0x3C,// w
  94:Src/oled.c    ****   0x00, 0x44, 0x28, 0x10, 0x28, 0x44,// x
  95:Src/oled.c    ****   0x00, 0x1C, 0xA0, 0xA0, 0xA0, 0x7C,// y
  96:Src/oled.c    ****   0x00, 0x44, 0x64, 0x54, 0x4C, 0x44,// z
  97:Src/oled.c    ****   0x14, 0x14, 0x14, 0x14, 0x14, 0x14,// horiz lines
  98:Src/oled.c    **** };
  99:Src/oled.c    **** 
 100:Src/oled.c    **** /****************************************8*16************************************/
 101:Src/oled.c    **** const unsigned char F8X16[]=	  
 102:Src/oled.c    **** {
 103:Src/oled.c    ****   0x00,0x00,0x00,0x00,0x00,0x00,0x00,0x00,0x00,0x00,0x00,0x00,0x00,0x00,0x00,0x00,// 0
 104:Src/oled.c    ****   0x00,0x00,0x00,0xF8,0x00,0x00,0x00,0x00,0x00,0x00,0x00,0x33,0x30,0x00,0x00,0x00,//! 1
 105:Src/oled.c    ****   0x00,0x10,0x0C,0x06,0x10,0x0C,0x06,0x00,0x00,0x00,0x00,0x00,0x00,0x00,0x00,0x00,//" 2
 106:Src/oled.c    ****   0x40,0xC0,0x78,0x40,0xC0,0x78,0x40,0x00,0x04,0x3F,0x04,0x04,0x3F,0x04,0x04,0x00,//# 3
 107:Src/oled.c    ****   0x00,0x70,0x88,0xFC,0x08,0x30,0x00,0x00,0x00,0x18,0x20,0xFF,0x21,0x1E,0x00,0x00,//$ 4
 108:Src/oled.c    ****   0xF0,0x08,0xF0,0x00,0xE0,0x18,0x00,0x00,0x00,0x21,0x1C,0x03,0x1E,0x21,0x1E,0x00,//% 5
 109:Src/oled.c    ****   0x00,0xF0,0x08,0x88,0x70,0x00,0x00,0x00,0x1E,0x21,0x23,0x24,0x19,0x27,0x21,0x10,//& 6
 110:Src/oled.c    ****   0x10,0x16,0x0E,0x00,0x00,0x00,0x00,0x00,0x00,0x00,0x00,0x00,0x00,0x00,0x00,0x00,//' 7
 111:Src/oled.c    ****   0x00,0x00,0x00,0xE0,0x18,0x04,0x02,0x00,0x00,0x00,0x00,0x07,0x18,0x20,0x40,0x00,//( 8
 112:Src/oled.c    ****   0x00,0x02,0x04,0x18,0xE0,0x00,0x00,0x00,0x00,0x40,0x20,0x18,0x07,0x00,0x00,0x00,//) 9
 113:Src/oled.c    ****   0x40,0x40,0x80,0xF0,0x80,0x40,0x40,0x00,0x02,0x02,0x01,0x0F,0x01,0x02,0x02,0x00,//* 10
 114:Src/oled.c    ****   0x00,0x00,0x00,0xF0,0x00,0x00,0x00,0x00,0x01,0x01,0x01,0x1F,0x01,0x01,0x01,0x00,//+ 11
 115:Src/oled.c    ****   0x00,0x00,0x00,0x00,0x00,0x00,0x00,0x00,0x80,0xB0,0x70,0x00,0x00,0x00,0x00,0x00,//, 12
 116:Src/oled.c    ****   0x00,0x00,0x00,0x00,0x00,0x00,0x00,0x00,0x00,0x01,0x01,0x01,0x01,0x01,0x01,0x01,//- 13
 117:Src/oled.c    ****   0x00,0x00,0x00,0x00,0x00,0x00,0x00,0x00,0x00,0x30,0x30,0x00,0x00,0x00,0x00,0x00,//. 14
 118:Src/oled.c    ****   0x00,0x00,0x00,0x00,0x80,0x60,0x18,0x04,0x00,0x60,0x18,0x06,0x01,0x00,0x00,0x00,/// 15
 119:Src/oled.c    ****   0x00,0xE0,0x10,0x08,0x08,0x10,0xE0,0x00,0x00,0x0F,0x10,0x20,0x20,0x10,0x0F,0x00,//0 16
 120:Src/oled.c    ****   0x00,0x10,0x10,0xF8,0x00,0x00,0x00,0x00,0x00,0x20,0x20,0x3F,0x20,0x20,0x00,0x00,//1 17
ARM GAS  /tmp/ccqvBbOy.s 			page 40


 121:Src/oled.c    ****   0x00,0x70,0x08,0x08,0x08,0x88,0x70,0x00,0x00,0x30,0x28,0x24,0x22,0x21,0x30,0x00,//2 18
 122:Src/oled.c    ****   0x00,0x30,0x08,0x88,0x88,0x48,0x30,0x00,0x00,0x18,0x20,0x20,0x20,0x11,0x0E,0x00,//3 19
 123:Src/oled.c    ****   0x00,0x00,0xC0,0x20,0x10,0xF8,0x00,0x00,0x00,0x07,0x04,0x24,0x24,0x3F,0x24,0x00,//4 20
 124:Src/oled.c    ****   0x00,0xF8,0x08,0x88,0x88,0x08,0x08,0x00,0x00,0x19,0x21,0x20,0x20,0x11,0x0E,0x00,//5 21
 125:Src/oled.c    ****   0x00,0xE0,0x10,0x88,0x88,0x18,0x00,0x00,0x00,0x0F,0x11,0x20,0x20,0x11,0x0E,0x00,//6 22
 126:Src/oled.c    ****   0x00,0x38,0x08,0x08,0xC8,0x38,0x08,0x00,0x00,0x00,0x00,0x3F,0x00,0x00,0x00,0x00,//7 23
 127:Src/oled.c    ****   0x00,0x70,0x88,0x08,0x08,0x88,0x70,0x00,0x00,0x1C,0x22,0x21,0x21,0x22,0x1C,0x00,//8 24
 128:Src/oled.c    ****   0x00,0xE0,0x10,0x08,0x08,0x10,0xE0,0x00,0x00,0x00,0x31,0x22,0x22,0x11,0x0F,0x00,//9 25
 129:Src/oled.c    ****   0x00,0x00,0x00,0xC0,0xC0,0x00,0x00,0x00,0x00,0x00,0x00,0x30,0x30,0x00,0x00,0x00,//: 26
 130:Src/oled.c    ****   0x00,0x00,0x00,0x80,0x00,0x00,0x00,0x00,0x00,0x00,0x80,0x60,0x00,0x00,0x00,0x00,//; 27
 131:Src/oled.c    ****   0x00,0x00,0x80,0x40,0x20,0x10,0x08,0x00,0x00,0x01,0x02,0x04,0x08,0x10,0x20,0x00,//< 28
 132:Src/oled.c    ****   0x40,0x40,0x40,0x40,0x40,0x40,0x40,0x00,0x04,0x04,0x04,0x04,0x04,0x04,0x04,0x00,//= 29
 133:Src/oled.c    ****   0x00,0x08,0x10,0x20,0x40,0x80,0x00,0x00,0x00,0x20,0x10,0x08,0x04,0x02,0x01,0x00,//> 30
 134:Src/oled.c    ****   0x00,0x70,0x48,0x08,0x08,0x08,0xF0,0x00,0x00,0x00,0x00,0x30,0x36,0x01,0x00,0x00,//? 31
 135:Src/oled.c    ****   0xC0,0x30,0xC8,0x28,0xE8,0x10,0xE0,0x00,0x07,0x18,0x27,0x24,0x23,0x14,0x0B,0x00,//@ 32
 136:Src/oled.c    ****   0x00,0x00,0xC0,0x38,0xE0,0x00,0x00,0x00,0x20,0x3C,0x23,0x02,0x02,0x27,0x38,0x20,//A 33
 137:Src/oled.c    ****   0x08,0xF8,0x88,0x88,0x88,0x70,0x00,0x00,0x20,0x3F,0x20,0x20,0x20,0x11,0x0E,0x00,//B 34
 138:Src/oled.c    ****   0xC0,0x30,0x08,0x08,0x08,0x08,0x38,0x00,0x07,0x18,0x20,0x20,0x20,0x10,0x08,0x00,//C 35
 139:Src/oled.c    ****   0x08,0xF8,0x08,0x08,0x08,0x10,0xE0,0x00,0x20,0x3F,0x20,0x20,0x20,0x10,0x0F,0x00,//D 36
 140:Src/oled.c    ****   0x08,0xF8,0x88,0x88,0xE8,0x08,0x10,0x00,0x20,0x3F,0x20,0x20,0x23,0x20,0x18,0x00,//E 37
 141:Src/oled.c    ****   0x08,0xF8,0x88,0x88,0xE8,0x08,0x10,0x00,0x20,0x3F,0x20,0x00,0x03,0x00,0x00,0x00,//F 38
 142:Src/oled.c    ****   0xC0,0x30,0x08,0x08,0x08,0x38,0x00,0x00,0x07,0x18,0x20,0x20,0x22,0x1E,0x02,0x00,//G 39
 143:Src/oled.c    ****   0x08,0xF8,0x08,0x00,0x00,0x08,0xF8,0x08,0x20,0x3F,0x21,0x01,0x01,0x21,0x3F,0x20,//H 40
 144:Src/oled.c    ****   0x00,0x08,0x08,0xF8,0x08,0x08,0x00,0x00,0x00,0x20,0x20,0x3F,0x20,0x20,0x00,0x00,//I 41
 145:Src/oled.c    ****   0x00,0x00,0x08,0x08,0xF8,0x08,0x08,0x00,0xC0,0x80,0x80,0x80,0x7F,0x00,0x00,0x00,//J 42
 146:Src/oled.c    ****   0x08,0xF8,0x88,0xC0,0x28,0x18,0x08,0x00,0x20,0x3F,0x20,0x01,0x26,0x38,0x20,0x00,//K 43
 147:Src/oled.c    ****   0x08,0xF8,0x08,0x00,0x00,0x00,0x00,0x00,0x20,0x3F,0x20,0x20,0x20,0x20,0x30,0x00,//L 44
 148:Src/oled.c    ****   0x08,0xF8,0xF8,0x00,0xF8,0xF8,0x08,0x00,0x20,0x3F,0x00,0x3F,0x00,0x3F,0x20,0x00,//M 45
 149:Src/oled.c    ****   0x08,0xF8,0x30,0xC0,0x00,0x08,0xF8,0x08,0x20,0x3F,0x20,0x00,0x07,0x18,0x3F,0x00,//N 46
 150:Src/oled.c    ****   0xE0,0x10,0x08,0x08,0x08,0x10,0xE0,0x00,0x0F,0x10,0x20,0x20,0x20,0x10,0x0F,0x00,//O 47
 151:Src/oled.c    ****   0x08,0xF8,0x08,0x08,0x08,0x08,0xF0,0x00,0x20,0x3F,0x21,0x01,0x01,0x01,0x00,0x00,//P 48
 152:Src/oled.c    ****   0xE0,0x10,0x08,0x08,0x08,0x10,0xE0,0x00,0x0F,0x18,0x24,0x24,0x38,0x50,0x4F,0x00,//Q 49
 153:Src/oled.c    ****   0x08,0xF8,0x88,0x88,0x88,0x88,0x70,0x00,0x20,0x3F,0x20,0x00,0x03,0x0C,0x30,0x20,//R 50
 154:Src/oled.c    ****   0x00,0x70,0x88,0x08,0x08,0x08,0x38,0x00,0x00,0x38,0x20,0x21,0x21,0x22,0x1C,0x00,//S 51
 155:Src/oled.c    ****   0x18,0x08,0x08,0xF8,0x08,0x08,0x18,0x00,0x00,0x00,0x20,0x3F,0x20,0x00,0x00,0x00,//T 52
 156:Src/oled.c    ****   0x08,0xF8,0x08,0x00,0x00,0x08,0xF8,0x08,0x00,0x1F,0x20,0x20,0x20,0x20,0x1F,0x00,//U 53
 157:Src/oled.c    ****   0x08,0x78,0x88,0x00,0x00,0xC8,0x38,0x08,0x00,0x00,0x07,0x38,0x0E,0x01,0x00,0x00,//V 54
 158:Src/oled.c    ****   0xF8,0x08,0x00,0xF8,0x00,0x08,0xF8,0x00,0x03,0x3C,0x07,0x00,0x07,0x3C,0x03,0x00,//W 55
 159:Src/oled.c    ****   0x08,0x18,0x68,0x80,0x80,0x68,0x18,0x08,0x20,0x30,0x2C,0x03,0x03,0x2C,0x30,0x20,//X 56
 160:Src/oled.c    ****   0x08,0x38,0xC8,0x00,0xC8,0x38,0x08,0x00,0x00,0x00,0x20,0x3F,0x20,0x00,0x00,0x00,//Y 57
 161:Src/oled.c    ****   0x10,0x08,0x08,0x08,0xC8,0x38,0x08,0x00,0x20,0x38,0x26,0x21,0x20,0x20,0x18,0x00,//Z 58
 162:Src/oled.c    ****   0x00,0x00,0x00,0xFE,0x02,0x02,0x02,0x00,0x00,0x00,0x00,0x7F,0x40,0x40,0x40,0x00,//[ 59
 163:Src/oled.c    ****   0x00,0x0C,0x30,0xC0,0x00,0x00,0x00,0x00,0x00,0x00,0x00,0x01,0x06,0x38,0xC0,0x00,//\ 60
 164:Src/oled.c    ****   0x00,0x02,0x02,0x02,0xFE,0x00,0x00,0x00,0x00,0x40,0x40,0x40,0x7F,0x00,0x00,0x00,//] 61
 165:Src/oled.c    ****   0x00,0x00,0x04,0x02,0x02,0x02,0x04,0x00,0x00,0x00,0x00,0x00,0x00,0x00,0x00,0x00,//^ 62
 166:Src/oled.c    ****   0x00,0x00,0x00,0x00,0x00,0x00,0x00,0x00,0x80,0x80,0x80,0x80,0x80,0x80,0x80,0x80,//_ 63
 167:Src/oled.c    ****   0x00,0x02,0x02,0x04,0x00,0x00,0x00,0x00,0x00,0x00,0x00,0x00,0x00,0x00,0x00,0x00,//` 64
 168:Src/oled.c    ****   0x00,0x00,0x80,0x80,0x80,0x80,0x00,0x00,0x00,0x19,0x24,0x22,0x22,0x22,0x3F,0x20,//a 65
 169:Src/oled.c    ****   0x08,0xF8,0x00,0x80,0x80,0x00,0x00,0x00,0x00,0x3F,0x11,0x20,0x20,0x11,0x0E,0x00,//b 66
 170:Src/oled.c    ****   0x00,0x00,0x00,0x80,0x80,0x80,0x00,0x00,0x00,0x0E,0x11,0x20,0x20,0x20,0x11,0x00,//c 67
 171:Src/oled.c    ****   0x00,0x00,0x00,0x80,0x80,0x88,0xF8,0x00,0x00,0x0E,0x11,0x20,0x20,0x10,0x3F,0x20,//d 68
 172:Src/oled.c    ****   0x00,0x00,0x80,0x80,0x80,0x80,0x00,0x00,0x00,0x1F,0x22,0x22,0x22,0x22,0x13,0x00,//e 69
 173:Src/oled.c    ****   0x00,0x80,0x80,0xF0,0x88,0x88,0x88,0x18,0x00,0x20,0x20,0x3F,0x20,0x20,0x00,0x00,//f 70
 174:Src/oled.c    ****   0x00,0x00,0x80,0x80,0x80,0x80,0x80,0x00,0x00,0x6B,0x94,0x94,0x94,0x93,0x60,0x00,//g 71
 175:Src/oled.c    ****   0x08,0xF8,0x00,0x80,0x80,0x80,0x00,0x00,0x20,0x3F,0x21,0x00,0x00,0x20,0x3F,0x20,//h 72
 176:Src/oled.c    ****   0x00,0x80,0x98,0x98,0x00,0x00,0x00,0x00,0x00,0x20,0x20,0x3F,0x20,0x20,0x00,0x00,//i 73
 177:Src/oled.c    ****   0x00,0x00,0x00,0x80,0x98,0x98,0x00,0x00,0x00,0xC0,0x80,0x80,0x80,0x7F,0x00,0x00,//j 74
ARM GAS  /tmp/ccqvBbOy.s 			page 41


 178:Src/oled.c    ****   0x08,0xF8,0x00,0x00,0x80,0x80,0x80,0x00,0x20,0x3F,0x24,0x02,0x2D,0x30,0x20,0x00,//k 75
 179:Src/oled.c    ****   0x00,0x08,0x08,0xF8,0x00,0x00,0x00,0x00,0x00,0x20,0x20,0x3F,0x20,0x20,0x00,0x00,//l 76
 180:Src/oled.c    ****   0x80,0x80,0x80,0x80,0x80,0x80,0x80,0x00,0x20,0x3F,0x20,0x00,0x3F,0x20,0x00,0x3F,//m 77
 181:Src/oled.c    ****   0x80,0x80,0x00,0x80,0x80,0x80,0x00,0x00,0x20,0x3F,0x21,0x00,0x00,0x20,0x3F,0x20,//n 78
 182:Src/oled.c    ****   0x00,0x00,0x80,0x80,0x80,0x80,0x00,0x00,0x00,0x1F,0x20,0x20,0x20,0x20,0x1F,0x00,//o 79
 183:Src/oled.c    ****   0x80,0x80,0x00,0x80,0x80,0x00,0x00,0x00,0x80,0xFF,0xA1,0x20,0x20,0x11,0x0E,0x00,//p 80
 184:Src/oled.c    ****   0x00,0x00,0x00,0x80,0x80,0x80,0x80,0x00,0x00,0x0E,0x11,0x20,0x20,0xA0,0xFF,0x80,//q 81
 185:Src/oled.c    ****   0x80,0x80,0x80,0x00,0x80,0x80,0x80,0x00,0x20,0x20,0x3F,0x21,0x20,0x00,0x01,0x00,//r 82
 186:Src/oled.c    ****   0x00,0x00,0x80,0x80,0x80,0x80,0x80,0x00,0x00,0x33,0x24,0x24,0x24,0x24,0x19,0x00,//s 83
 187:Src/oled.c    ****   0x00,0x80,0x80,0xE0,0x80,0x80,0x00,0x00,0x00,0x00,0x00,0x1F,0x20,0x20,0x00,0x00,//t 84
 188:Src/oled.c    ****   0x80,0x80,0x00,0x00,0x00,0x80,0x80,0x00,0x00,0x1F,0x20,0x20,0x20,0x10,0x3F,0x20,//u 85
 189:Src/oled.c    ****   0x80,0x80,0x80,0x00,0x00,0x80,0x80,0x80,0x00,0x01,0x0E,0x30,0x08,0x06,0x01,0x00,//v 86
 190:Src/oled.c    ****   0x80,0x80,0x00,0x80,0x00,0x80,0x80,0x80,0x0F,0x30,0x0C,0x03,0x0C,0x30,0x0F,0x00,//w 87
 191:Src/oled.c    ****   0x00,0x80,0x80,0x00,0x80,0x80,0x80,0x00,0x00,0x20,0x31,0x2E,0x0E,0x31,0x20,0x00,//x 88
 192:Src/oled.c    ****   0x80,0x80,0x80,0x00,0x00,0x80,0x80,0x80,0x80,0x81,0x8E,0x70,0x18,0x06,0x01,0x00,//y 89
 193:Src/oled.c    ****   0x00,0x80,0x80,0x80,0x80,0x80,0x80,0x00,0x00,0x21,0x30,0x2C,0x22,0x21,0x30,0x00,//z 90
 194:Src/oled.c    ****   0x00,0x00,0x00,0x00,0x80,0x7C,0x02,0x02,0x00,0x00,0x00,0x00,0x00,0x3F,0x40,0x40,//{ 91
 195:Src/oled.c    ****   0x00,0x00,0x00,0x00,0xFF,0x00,0x00,0x00,0x00,0x00,0x00,0x00,0xFF,0x00,0x00,0x00,//| 92
 196:Src/oled.c    ****   0x00,0x02,0x02,0x7C,0x80,0x00,0x00,0x00,0x00,0x40,0x40,0x3F,0x00,0x00,0x00,0x00,//} 93
 197:Src/oled.c    ****   0x00,0x06,0x01,0x01,0x02,0x02,0x04,0x04,0x00,0x00,0x00,0x00,0x00,0x00,0x00,0x00,//~ 94
 198:Src/oled.c    **** };
 199:Src/oled.c    **** 
 200:Src/oled.c    **** 
 201:Src/oled.c    **** 
 202:Src/oled.c    **** static void delay_us(unsigned int us)
 203:Src/oled.c    **** {    
 2109              		.loc 1 203 0
 2110              		.cfi_startproc
 2111              		@ args = 0, pretend = 0, frame = 16
 2112              		@ frame_needed = 1, uses_anonymous_args = 0
 2113              		@ link register save eliminated.
 2114 0000 80B4     		push	{r7}
 2115              	.LCFI0:
 2116              		.cfi_def_cfa_offset 4
 2117              		.cfi_offset 7, -4
 2118 0002 85B0     		sub	sp, sp, #20
 2119              	.LCFI1:
 2120              		.cfi_def_cfa_offset 24
 2121 0004 00AF     		add	r7, sp, #0
 2122              	.LCFI2:
 2123              		.cfi_def_cfa_register 7
 2124 0006 7860     		str	r0, [r7, #4]
 204:Src/oled.c    ****   unsigned int i=0;
 2125              		.loc 1 204 0
 2126 0008 0023     		movs	r3, #0
 2127 000a FB60     		str	r3, [r7, #12]
 205:Src/oled.c    **** 
 206:Src/oled.c    ****   for(;i<us;)
 2128              		.loc 1 206 0
 2129 000c 02E0     		b	.L2
 2130              	.L3:
 207:Src/oled.c    ****   {
 208:Src/oled.c    ****     i++;
 2131              		.loc 1 208 0
 2132 000e FB68     		ldr	r3, [r7, #12]
 2133 0010 0133     		adds	r3, r3, #1
 2134 0012 FB60     		str	r3, [r7, #12]
ARM GAS  /tmp/ccqvBbOy.s 			page 42


 2135              	.L2:
 206:Src/oled.c    ****   {
 2136              		.loc 1 206 0
 2137 0014 FA68     		ldr	r2, [r7, #12]
 2138 0016 7B68     		ldr	r3, [r7, #4]
 2139 0018 9A42     		cmp	r2, r3
 2140 001a F8D3     		bcc	.L3
 209:Src/oled.c    **** 
 210:Src/oled.c    ****   }
 211:Src/oled.c    **** 
 212:Src/oled.c    ****   
 213:Src/oled.c    **** }
 2141              		.loc 1 213 0
 2142 001c 00BF     		nop
 2143 001e 1437     		adds	r7, r7, #20
 2144              	.LCFI3:
 2145              		.cfi_def_cfa_offset 4
 2146 0020 BD46     		mov	sp, r7
 2147              	.LCFI4:
 2148              		.cfi_def_cfa_register 13
 2149              		@ sp needed
 2150 0022 80BC     		pop	{r7}
 2151              	.LCFI5:
 2152              		.cfi_restore 7
 2153              		.cfi_def_cfa_offset 0
 2154 0024 7047     		bx	lr
 2155              		.cfi_endproc
 2156              	.LFE66:
 2158              		.section	.text.delay_oledms,"ax",%progbits
 2159              		.align	1
 2160              		.global	delay_oledms
 2161              		.syntax unified
 2162              		.thumb
 2163              		.thumb_func
 2164              		.fpu softvfp
 2166              	delay_oledms:
 2167              	.LFB67:
 214:Src/oled.c    **** 
 215:Src/oled.c    **** 
 216:Src/oled.c    **** void delay_oledms(unsigned int ms)
 217:Src/oled.c    **** {
 2168              		.loc 1 217 0
 2169              		.cfi_startproc
 2170              		@ args = 0, pretend = 0, frame = 8
 2171              		@ frame_needed = 1, uses_anonymous_args = 0
 2172 0000 80B5     		push	{r7, lr}
 2173              	.LCFI6:
 2174              		.cfi_def_cfa_offset 8
 2175              		.cfi_offset 7, -8
 2176              		.cfi_offset 14, -4
 2177 0002 82B0     		sub	sp, sp, #8
 2178              	.LCFI7:
 2179              		.cfi_def_cfa_offset 16
 2180 0004 00AF     		add	r7, sp, #0
 2181              	.LCFI8:
 2182              		.cfi_def_cfa_register 7
 2183 0006 7860     		str	r0, [r7, #4]
ARM GAS  /tmp/ccqvBbOy.s 			page 43


 218:Src/oled.c    ****   while(ms > 0)
 2184              		.loc 1 218 0
 2185 0008 06E0     		b	.L5
 2186              	.L6:
 219:Src/oled.c    ****   {
 220:Src/oled.c    ****     ms--;
 2187              		.loc 1 220 0
 2188 000a 7B68     		ldr	r3, [r7, #4]
 2189 000c 013B     		subs	r3, r3, #1
 2190 000e 7B60     		str	r3, [r7, #4]
 221:Src/oled.c    ****     delay_us(998);
 2191              		.loc 1 221 0
 2192 0010 40F2E630 		movw	r0, #998
 2193 0014 FFF7FEFF 		bl	delay_us
 2194              	.L5:
 218:Src/oled.c    ****   while(ms > 0)
 2195              		.loc 1 218 0
 2196 0018 7B68     		ldr	r3, [r7, #4]
 2197 001a 002B     		cmp	r3, #0
 2198 001c F5D1     		bne	.L6
 222:Src/oled.c    ****   }
 223:Src/oled.c    **** }
 2199              		.loc 1 223 0
 2200 001e 00BF     		nop
 2201 0020 0837     		adds	r7, r7, #8
 2202              	.LCFI9:
 2203              		.cfi_def_cfa_offset 8
 2204 0022 BD46     		mov	sp, r7
 2205              	.LCFI10:
 2206              		.cfi_def_cfa_register 13
 2207              		@ sp needed
 2208 0024 80BD     		pop	{r7, pc}
 2209              		.cfi_endproc
 2210              	.LFE67:
 2212              		.section	.text.WriteCmd,"ax",%progbits
 2213              		.align	1
 2214              		.global	WriteCmd
 2215              		.syntax unified
 2216              		.thumb
 2217              		.thumb_func
 2218              		.fpu softvfp
 2220              	WriteCmd:
 2221              	.LFB68:
 224:Src/oled.c    **** 
 225:Src/oled.c    **** 
 226:Src/oled.c    **** void WriteCmd(unsigned char IIC_Cmd)
 227:Src/oled.c    **** {
 2222              		.loc 1 227 0
 2223              		.cfi_startproc
 2224              		@ args = 0, pretend = 0, frame = 8
 2225              		@ frame_needed = 1, uses_anonymous_args = 0
 2226              		@ link register save eliminated.
 2227 0000 80B4     		push	{r7}
 2228              	.LCFI11:
 2229              		.cfi_def_cfa_offset 4
 2230              		.cfi_offset 7, -4
 2231 0002 83B0     		sub	sp, sp, #12
ARM GAS  /tmp/ccqvBbOy.s 			page 44


 2232              	.LCFI12:
 2233              		.cfi_def_cfa_offset 16
 2234 0004 00AF     		add	r7, sp, #0
 2235              	.LCFI13:
 2236              		.cfi_def_cfa_register 7
 2237 0006 0346     		mov	r3, r0
 2238 0008 FB71     		strb	r3, [r7, #7]
 228:Src/oled.c    **** #if DEBUGMODE==0//
 229:Src/oled.c    ****   uint8_t *pData;
 230:Src/oled.c    ****   pData = &IIC_Cmd;
 231:Src/oled.c    ****   HAL_I2C_Mem_Write(&hi2c1,OLED_ADDRESS,0x00,I2C_MEMADD_SIZE_8BIT,pData,1,100);
 232:Src/oled.c    **** #endif
 233:Src/oled.c    ****   
 234:Src/oled.c    ****   
 235:Src/oled.c    **** }
 2239              		.loc 1 235 0
 2240 000a 00BF     		nop
 2241 000c 0C37     		adds	r7, r7, #12
 2242              	.LCFI14:
 2243              		.cfi_def_cfa_offset 4
 2244 000e BD46     		mov	sp, r7
 2245              	.LCFI15:
 2246              		.cfi_def_cfa_register 13
 2247              		@ sp needed
 2248 0010 80BC     		pop	{r7}
 2249              	.LCFI16:
 2250              		.cfi_restore 7
 2251              		.cfi_def_cfa_offset 0
 2252 0012 7047     		bx	lr
 2253              		.cfi_endproc
 2254              	.LFE68:
 2256              		.section	.text.WriteDat,"ax",%progbits
 2257              		.align	1
 2258              		.global	WriteDat
 2259              		.syntax unified
 2260              		.thumb
 2261              		.thumb_func
 2262              		.fpu softvfp
 2264              	WriteDat:
 2265              	.LFB69:
 236:Src/oled.c    **** //------------------------------------------------------
 237:Src/oled.c    **** //
 238:Src/oled.c    **** //------------------------------------------------------
 239:Src/oled.c    **** void WriteDat(unsigned char IIC_Dat)
 240:Src/oled.c    **** {
 2266              		.loc 1 240 0
 2267              		.cfi_startproc
 2268              		@ args = 0, pretend = 0, frame = 8
 2269              		@ frame_needed = 1, uses_anonymous_args = 0
 2270              		@ link register save eliminated.
 2271 0000 80B4     		push	{r7}
 2272              	.LCFI17:
 2273              		.cfi_def_cfa_offset 4
 2274              		.cfi_offset 7, -4
 2275 0002 83B0     		sub	sp, sp, #12
 2276              	.LCFI18:
 2277              		.cfi_def_cfa_offset 16
ARM GAS  /tmp/ccqvBbOy.s 			page 45


 2278 0004 00AF     		add	r7, sp, #0
 2279              	.LCFI19:
 2280              		.cfi_def_cfa_register 7
 2281 0006 0346     		mov	r3, r0
 2282 0008 FB71     		strb	r3, [r7, #7]
 241:Src/oled.c    ****  #if DEBUGMODE==0//
 242:Src/oled.c    ****   uint8_t *pData;
 243:Src/oled.c    ****   pData = &IIC_Dat;
 244:Src/oled.c    ****   HAL_I2C_Mem_Write(&hi2c1,OLED_ADDRESS,0x40,I2C_MEMADD_SIZE_8BIT,pData,1,100);
 245:Src/oled.c    **** #endif
 246:Src/oled.c    ****   
 247:Src/oled.c    **** }
 2283              		.loc 1 247 0
 2284 000a 00BF     		nop
 2285 000c 0C37     		adds	r7, r7, #12
 2286              	.LCFI20:
 2287              		.cfi_def_cfa_offset 4
 2288 000e BD46     		mov	sp, r7
 2289              	.LCFI21:
 2290              		.cfi_def_cfa_register 13
 2291              		@ sp needed
 2292 0010 80BC     		pop	{r7}
 2293              	.LCFI22:
 2294              		.cfi_restore 7
 2295              		.cfi_def_cfa_offset 0
 2296 0012 7047     		bx	lr
 2297              		.cfi_endproc
 2298              	.LFE69:
 2300              		.section	.text.OLED_Init,"ax",%progbits
 2301              		.align	1
 2302              		.global	OLED_Init
 2303              		.syntax unified
 2304              		.thumb
 2305              		.thumb_func
 2306              		.fpu softvfp
 2308              	OLED_Init:
 2309              	.LFB70:
 248:Src/oled.c    **** //-----------------------------------------------------
 249:Src/oled.c    **** //OLED
 250:Src/oled.c    **** //-----------------------------------------------------
 251:Src/oled.c    **** void OLED_Init(void)
 252:Src/oled.c    **** {
 2310              		.loc 1 252 0
 2311              		.cfi_startproc
 2312              		@ args = 0, pretend = 0, frame = 0
 2313              		@ frame_needed = 1, uses_anonymous_args = 0
 2314 0000 80B5     		push	{r7, lr}
 2315              	.LCFI23:
 2316              		.cfi_def_cfa_offset 8
 2317              		.cfi_offset 7, -8
 2318              		.cfi_offset 14, -4
 2319 0002 00AF     		add	r7, sp, #0
 2320              	.LCFI24:
 2321              		.cfi_def_cfa_register 7
 253:Src/oled.c    ****   delay_oledms(500);
 2322              		.loc 1 253 0
 2323 0004 4FF4FA70 		mov	r0, #500
ARM GAS  /tmp/ccqvBbOy.s 			page 46


 2324 0008 FFF7FEFF 		bl	delay_oledms
 254:Src/oled.c    **** #if 0
 255:Src/oled.c    ****   WriteCmd(0xae);
 256:Src/oled.c    ****   WriteCmd(0x00);
 257:Src/oled.c    ****   WriteCmd(0x10);
 258:Src/oled.c    ****   WriteCmd(0x40);
 259:Src/oled.c    ****   WriteCmd(0x81);
 260:Src/oled.c    ****   WriteCmd(0xcf);
 261:Src/oled.c    ****   WriteCmd(0xa1);
 262:Src/oled.c    ****   WriteCmd(0xc8);
 263:Src/oled.c    ****   WriteCmd(0xa6);
 264:Src/oled.c    ****   WriteCmd(0xa8);
 265:Src/oled.c    ****   WriteCmd(0x3f);
 266:Src/oled.c    ****   WriteCmd(0xd3);
 267:Src/oled.c    ****   WriteCmd(0x00);
 268:Src/oled.c    ****   WriteCmd(0xd5);
 269:Src/oled.c    ****   WriteCmd(0x80);
 270:Src/oled.c    ****   WriteCmd(0xd9);
 271:Src/oled.c    ****   WriteCmd(0xf1);
 272:Src/oled.c    ****   WriteCmd(0xda);
 273:Src/oled.c    ****   WriteCmd(0x12);
 274:Src/oled.c    ****   WriteCmd(0xdb);
 275:Src/oled.c    ****   WriteCmd(0x40);
 276:Src/oled.c    ****   WriteCmd(0x20);
 277:Src/oled.c    ****   WriteCmd(0x02);
 278:Src/oled.c    ****   WriteCmd(0x8d);
 279:Src/oled.c    ****   WriteCmd(0x14);
 280:Src/oled.c    ****   WriteCmd(0xa4);
 281:Src/oled.c    ****   WriteCmd(0xa6);
 282:Src/oled.c    ****   WriteCmd(0xaf);
 283:Src/oled.c    **** #endif 
 284:Src/oled.c    ****   WriteCmd(0xAE);//1?????
 2325              		.loc 1 284 0
 2326 000c AE20     		movs	r0, #174
 2327 000e FFF7FEFF 		bl	WriteCmd
 285:Src/oled.c    ****   WriteCmd(0x40);//---set low column address
 2328              		.loc 1 285 0
 2329 0012 4020     		movs	r0, #64
 2330 0014 FFF7FEFF 		bl	WriteCmd
 286:Src/oled.c    ****   WriteCmd(0xB0);//---set high column addres
 2331              		.loc 1 286 0
 2332 0018 B020     		movs	r0, #176
 2333 001a FFF7FEFF 		bl	WriteCmd
 287:Src/oled.c    ****   WriteCmd(0xC8);//-not offset
 2334              		.loc 1 287 0
 2335 001e C820     		movs	r0, #200
 2336 0020 FFF7FEFF 		bl	WriteCmd
 288:Src/oled.c    ****   WriteCmd(0x81);//?????
 2337              		.loc 1 288 0
 2338 0024 8120     		movs	r0, #129
 2339 0026 FFF7FEFF 		bl	WriteCmd
 289:Src/oled.c    ****   WriteCmd(0xff);
 2340              		.loc 1 289 0
 2341 002a FF20     		movs	r0, #255
 2342 002c FFF7FEFF 		bl	WriteCmd
 290:Src/oled.c    ****   WriteCmd(0xa1);//????????
 2343              		.loc 1 290 0
ARM GAS  /tmp/ccqvBbOy.s 			page 47


 2344 0030 A120     		movs	r0, #161
 2345 0032 FFF7FEFF 		bl	WriteCmd
 291:Src/oled.c    ****   WriteCmd(0xa6);
 2346              		.loc 1 291 0
 2347 0036 A620     		movs	r0, #166
 2348 0038 FFF7FEFF 		bl	WriteCmd
 292:Src/oled.c    ****   WriteCmd(0xa8);
 2349              		.loc 1 292 0
 2350 003c A820     		movs	r0, #168
 2351 003e FFF7FEFF 		bl	WriteCmd
 293:Src/oled.c    ****   WriteCmd(0x1f);
 2352              		.loc 1 293 0
 2353 0042 1F20     		movs	r0, #31
 2354 0044 FFF7FEFF 		bl	WriteCmd
 294:Src/oled.c    ****   WriteCmd(0xd3);
 2355              		.loc 1 294 0
 2356 0048 D320     		movs	r0, #211
 2357 004a FFF7FEFF 		bl	WriteCmd
 295:Src/oled.c    ****   WriteCmd(0x00);
 2358              		.loc 1 295 0
 2359 004e 0020     		movs	r0, #0
 2360 0050 FFF7FEFF 		bl	WriteCmd
 296:Src/oled.c    ****   WriteCmd(0xd5);
 2361              		.loc 1 296 0
 2362 0054 D520     		movs	r0, #213
 2363 0056 FFF7FEFF 		bl	WriteCmd
 297:Src/oled.c    ****   WriteCmd(0xf0);
 2364              		.loc 1 297 0
 2365 005a F020     		movs	r0, #240
 2366 005c FFF7FEFF 		bl	WriteCmd
 298:Src/oled.c    ****   WriteCmd(0xd9);
 2367              		.loc 1 298 0
 2368 0060 D920     		movs	r0, #217
 2369 0062 FFF7FEFF 		bl	WriteCmd
 299:Src/oled.c    ****   WriteCmd(0x22);
 2370              		.loc 1 299 0
 2371 0066 2220     		movs	r0, #34
 2372 0068 FFF7FEFF 		bl	WriteCmd
 300:Src/oled.c    ****   WriteCmd(0xda);
 2373              		.loc 1 300 0
 2374 006c DA20     		movs	r0, #218
 2375 006e FFF7FEFF 		bl	WriteCmd
 301:Src/oled.c    ****   WriteCmd(0x02);
 2376              		.loc 1 301 0
 2377 0072 0220     		movs	r0, #2
 2378 0074 FFF7FEFF 		bl	WriteCmd
 302:Src/oled.c    ****   WriteCmd(0xdb);
 2379              		.loc 1 302 0
 2380 0078 DB20     		movs	r0, #219
 2381 007a FFF7FEFF 		bl	WriteCmd
 303:Src/oled.c    ****   WriteCmd(0x49);
 2382              		.loc 1 303 0
 2383 007e 4920     		movs	r0, #73
 2384 0080 FFF7FEFF 		bl	WriteCmd
 304:Src/oled.c    ****   WriteCmd(0x8d);
 2385              		.loc 1 304 0
 2386 0084 8D20     		movs	r0, #141
ARM GAS  /tmp/ccqvBbOy.s 			page 48


 2387 0086 FFF7FEFF 		bl	WriteCmd
 305:Src/oled.c    ****   WriteCmd(0x14);
 2388              		.loc 1 305 0
 2389 008a 1420     		movs	r0, #20
 2390 008c FFF7FEFF 		bl	WriteCmd
 306:Src/oled.c    ****   WriteCmd(0xaf);
 2391              		.loc 1 306 0
 2392 0090 AF20     		movs	r0, #175
 2393 0092 FFF7FEFF 		bl	WriteCmd
 307:Src/oled.c    ****   OLED_CLS();
 2394              		.loc 1 307 0
 2395 0096 FFF7FEFF 		bl	OLED_CLS
 308:Src/oled.c    **** }
 2396              		.loc 1 308 0
 2397 009a 00BF     		nop
 2398 009c 80BD     		pop	{r7, pc}
 2399              		.cfi_endproc
 2400              	.LFE70:
 2402              		.section	.text.OLED_Fill,"ax",%progbits
 2403              		.align	1
 2404              		.global	OLED_Fill
 2405              		.syntax unified
 2406              		.thumb
 2407              		.thumb_func
 2408              		.fpu softvfp
 2410              	OLED_Fill:
 2411              	.LFB71:
 309:Src/oled.c    **** 
 310:Src/oled.c    **** 
 311:Src/oled.c    **** //-----------------------------------------------------------------------
 312:Src/oled.c    **** //OLED
 313:Src/oled.c    **** //----------------------------------------------------------------------
 314:Src/oled.c    **** void OLED_Fill(unsigned char fill_Data)
 315:Src/oled.c    **** {
 2412              		.loc 1 315 0
 2413              		.cfi_startproc
 2414              		@ args = 0, pretend = 0, frame = 16
 2415              		@ frame_needed = 1, uses_anonymous_args = 0
 2416 0000 80B5     		push	{r7, lr}
 2417              	.LCFI25:
 2418              		.cfi_def_cfa_offset 8
 2419              		.cfi_offset 7, -8
 2420              		.cfi_offset 14, -4
 2421 0002 84B0     		sub	sp, sp, #16
 2422              	.LCFI26:
 2423              		.cfi_def_cfa_offset 24
 2424 0004 00AF     		add	r7, sp, #0
 2425              	.LCFI27:
 2426              		.cfi_def_cfa_register 7
 2427 0006 0346     		mov	r3, r0
 2428 0008 FB71     		strb	r3, [r7, #7]
 316:Src/oled.c    **** 
 317:Src/oled.c    ****   unsigned char m,n;
 318:Src/oled.c    ****   for(m=0;m<8;m++)
 2429              		.loc 1 318 0
 2430 000a 0023     		movs	r3, #0
 2431 000c FB73     		strb	r3, [r7, #15]
ARM GAS  /tmp/ccqvBbOy.s 			page 49


 2432 000e 1CE0     		b	.L11
 2433              	.L14:
 319:Src/oled.c    ****   {
 320:Src/oled.c    ****     WriteCmd(0xb0+m);
 2434              		.loc 1 320 0
 2435 0010 FB7B     		ldrb	r3, [r7, #15]
 2436 0012 503B     		subs	r3, r3, #80
 2437 0014 DBB2     		uxtb	r3, r3
 2438 0016 1846     		mov	r0, r3
 2439 0018 FFF7FEFF 		bl	WriteCmd
 321:Src/oled.c    ****     WriteCmd(0x00);
 2440              		.loc 1 321 0
 2441 001c 0020     		movs	r0, #0
 2442 001e FFF7FEFF 		bl	WriteCmd
 322:Src/oled.c    ****     WriteCmd(0x10);
 2443              		.loc 1 322 0
 2444 0022 1020     		movs	r0, #16
 2445 0024 FFF7FEFF 		bl	WriteCmd
 323:Src/oled.c    ****     for(n=0;n<128;n++)
 2446              		.loc 1 323 0
 2447 0028 0023     		movs	r3, #0
 2448 002a BB73     		strb	r3, [r7, #14]
 2449 002c 06E0     		b	.L12
 2450              	.L13:
 324:Src/oled.c    ****     {
 325:Src/oled.c    ****       WriteDat(fill_Data);
 2451              		.loc 1 325 0 discriminator 3
 2452 002e FB79     		ldrb	r3, [r7, #7]	@ zero_extendqisi2
 2453 0030 1846     		mov	r0, r3
 2454 0032 FFF7FEFF 		bl	WriteDat
 323:Src/oled.c    ****     for(n=0;n<128;n++)
 2455              		.loc 1 323 0 discriminator 3
 2456 0036 BB7B     		ldrb	r3, [r7, #14]	@ zero_extendqisi2
 2457 0038 0133     		adds	r3, r3, #1
 2458 003a BB73     		strb	r3, [r7, #14]
 2459              	.L12:
 323:Src/oled.c    ****     for(n=0;n<128;n++)
 2460              		.loc 1 323 0 is_stmt 0 discriminator 1
 2461 003c 97F90E30 		ldrsb	r3, [r7, #14]
 2462 0040 002B     		cmp	r3, #0
 2463 0042 F4DA     		bge	.L13
 318:Src/oled.c    ****   {
 2464              		.loc 1 318 0 is_stmt 1 discriminator 2
 2465 0044 FB7B     		ldrb	r3, [r7, #15]	@ zero_extendqisi2
 2466 0046 0133     		adds	r3, r3, #1
 2467 0048 FB73     		strb	r3, [r7, #15]
 2468              	.L11:
 318:Src/oled.c    ****   {
 2469              		.loc 1 318 0 is_stmt 0 discriminator 1
 2470 004a FB7B     		ldrb	r3, [r7, #15]	@ zero_extendqisi2
 2471 004c 072B     		cmp	r3, #7
 2472 004e DFD9     		bls	.L14
 326:Src/oled.c    ****     }
 327:Src/oled.c    ****   }
 328:Src/oled.c    **** 
 329:Src/oled.c    **** }
 2473              		.loc 1 329 0 is_stmt 1
ARM GAS  /tmp/ccqvBbOy.s 			page 50


 2474 0050 00BF     		nop
 2475 0052 1037     		adds	r7, r7, #16
 2476              	.LCFI28:
 2477              		.cfi_def_cfa_offset 8
 2478 0054 BD46     		mov	sp, r7
 2479              	.LCFI29:
 2480              		.cfi_def_cfa_register 13
 2481              		@ sp needed
 2482 0056 80BD     		pop	{r7, pc}
 2483              		.cfi_endproc
 2484              	.LFE71:
 2486              		.section	.text.OLED_CLS,"ax",%progbits
 2487              		.align	1
 2488              		.global	OLED_CLS
 2489              		.syntax unified
 2490              		.thumb
 2491              		.thumb_func
 2492              		.fpu softvfp
 2494              	OLED_CLS:
 2495              	.LFB72:
 330:Src/oled.c    **** //--------------------------------------------------------------
 331:Src/oled.c    **** void OLED_CLS(void)
 332:Src/oled.c    **** {
 2496              		.loc 1 332 0
 2497              		.cfi_startproc
 2498              		@ args = 0, pretend = 0, frame = 0
 2499              		@ frame_needed = 1, uses_anonymous_args = 0
 2500 0000 80B5     		push	{r7, lr}
 2501              	.LCFI30:
 2502              		.cfi_def_cfa_offset 8
 2503              		.cfi_offset 7, -8
 2504              		.cfi_offset 14, -4
 2505 0002 00AF     		add	r7, sp, #0
 2506              	.LCFI31:
 2507              		.cfi_def_cfa_register 7
 333:Src/oled.c    **** 
 334:Src/oled.c    ****   OLED_Fill(0x00);
 2508              		.loc 1 334 0
 2509 0004 0020     		movs	r0, #0
 2510 0006 FFF7FEFF 		bl	OLED_Fill
 335:Src/oled.c    **** 
 336:Src/oled.c    **** }
 2511              		.loc 1 336 0
 2512 000a 00BF     		nop
 2513 000c 80BD     		pop	{r7, pc}
 2514              		.cfi_endproc
 2515              	.LFE72:
 2517              		.section	.text.OLED_ON,"ax",%progbits
 2518              		.align	1
 2519              		.global	OLED_ON
 2520              		.syntax unified
 2521              		.thumb
 2522              		.thumb_func
 2523              		.fpu softvfp
 2525              	OLED_ON:
 2526              	.LFB73:
 337:Src/oled.c    ****  
ARM GAS  /tmp/ccqvBbOy.s 			page 51


 338:Src/oled.c    **** void OLED_ON(void)
 339:Src/oled.c    **** {
 2527              		.loc 1 339 0
 2528              		.cfi_startproc
 2529              		@ args = 0, pretend = 0, frame = 0
 2530              		@ frame_needed = 1, uses_anonymous_args = 0
 2531 0000 80B5     		push	{r7, lr}
 2532              	.LCFI32:
 2533              		.cfi_def_cfa_offset 8
 2534              		.cfi_offset 7, -8
 2535              		.cfi_offset 14, -4
 2536 0002 00AF     		add	r7, sp, #0
 2537              	.LCFI33:
 2538              		.cfi_def_cfa_register 7
 340:Src/oled.c    **** 
 341:Src/oled.c    ****   WriteCmd(0x8d);
 2539              		.loc 1 341 0
 2540 0004 8D20     		movs	r0, #141
 2541 0006 FFF7FEFF 		bl	WriteCmd
 342:Src/oled.c    ****   WriteCmd(0x10);
 2542              		.loc 1 342 0
 2543 000a 1020     		movs	r0, #16
 2544 000c FFF7FEFF 		bl	WriteCmd
 343:Src/oled.c    ****   WriteCmd(0xae);
 2545              		.loc 1 343 0
 2546 0010 AE20     		movs	r0, #174
 2547 0012 FFF7FEFF 		bl	WriteCmd
 344:Src/oled.c    **** 
 345:Src/oled.c    **** }
 2548              		.loc 1 345 0
 2549 0016 00BF     		nop
 2550 0018 80BD     		pop	{r7, pc}
 2551              		.cfi_endproc
 2552              	.LFE73:
 2554              		.section	.text.OLED_OFF,"ax",%progbits
 2555              		.align	1
 2556              		.global	OLED_OFF
 2557              		.syntax unified
 2558              		.thumb
 2559              		.thumb_func
 2560              		.fpu softvfp
 2562              	OLED_OFF:
 2563              	.LFB74:
 346:Src/oled.c    **** 
 347:Src/oled.c    **** 
 348:Src/oled.c    **** 
 349:Src/oled.c    **** void OLED_OFF(void)
 350:Src/oled.c    **** {
 2564              		.loc 1 350 0
 2565              		.cfi_startproc
 2566              		@ args = 0, pretend = 0, frame = 0
 2567              		@ frame_needed = 1, uses_anonymous_args = 0
 2568 0000 80B5     		push	{r7, lr}
 2569              	.LCFI34:
 2570              		.cfi_def_cfa_offset 8
 2571              		.cfi_offset 7, -8
 2572              		.cfi_offset 14, -4
ARM GAS  /tmp/ccqvBbOy.s 			page 52


 2573 0002 00AF     		add	r7, sp, #0
 2574              	.LCFI35:
 2575              		.cfi_def_cfa_register 7
 351:Src/oled.c    **** 
 352:Src/oled.c    ****   WriteCmd(0x8d);
 2576              		.loc 1 352 0
 2577 0004 8D20     		movs	r0, #141
 2578 0006 FFF7FEFF 		bl	WriteCmd
 353:Src/oled.c    ****   WriteCmd(0x10);
 2579              		.loc 1 353 0
 2580 000a 1020     		movs	r0, #16
 2581 000c FFF7FEFF 		bl	WriteCmd
 354:Src/oled.c    ****   WriteCmd(0xae);
 2582              		.loc 1 354 0
 2583 0010 AE20     		movs	r0, #174
 2584 0012 FFF7FEFF 		bl	WriteCmd
 355:Src/oled.c    **** 
 356:Src/oled.c    **** }
 2585              		.loc 1 356 0
 2586 0016 00BF     		nop
 2587 0018 80BD     		pop	{r7, pc}
 2588              		.cfi_endproc
 2589              	.LFE74:
 2591              		.section	.text.OLED_Set_Pos,"ax",%progbits
 2592              		.align	1
 2593              		.global	OLED_Set_Pos
 2594              		.syntax unified
 2595              		.thumb
 2596              		.thumb_func
 2597              		.fpu softvfp
 2599              	OLED_Set_Pos:
 2600              	.LFB75:
 357:Src/oled.c    **** 
 358:Src/oled.c    **** 
 359:Src/oled.c    **** //----------------------------------------------------------------------
 360:Src/oled.c    **** //
 361:Src/oled.c    **** //----------------------------------------------------------------------
 362:Src/oled.c    **** void OLED_Set_Pos(unsigned char x, unsigned char y) 
 363:Src/oled.c    **** {
 2601              		.loc 1 363 0
 2602              		.cfi_startproc
 2603              		@ args = 0, pretend = 0, frame = 8
 2604              		@ frame_needed = 1, uses_anonymous_args = 0
 2605 0000 80B5     		push	{r7, lr}
 2606              	.LCFI36:
 2607              		.cfi_def_cfa_offset 8
 2608              		.cfi_offset 7, -8
 2609              		.cfi_offset 14, -4
 2610 0002 82B0     		sub	sp, sp, #8
 2611              	.LCFI37:
 2612              		.cfi_def_cfa_offset 16
 2613 0004 00AF     		add	r7, sp, #0
 2614              	.LCFI38:
 2615              		.cfi_def_cfa_register 7
 2616 0006 0346     		mov	r3, r0
 2617 0008 0A46     		mov	r2, r1
 2618 000a FB71     		strb	r3, [r7, #7]
ARM GAS  /tmp/ccqvBbOy.s 			page 53


 2619 000c 1346     		mov	r3, r2
 2620 000e BB71     		strb	r3, [r7, #6]
 364:Src/oled.c    **** 
 365:Src/oled.c    ****   WriteCmd(0xb0+y);
 2621              		.loc 1 365 0
 2622 0010 BB79     		ldrb	r3, [r7, #6]
 2623 0012 503B     		subs	r3, r3, #80
 2624 0014 DBB2     		uxtb	r3, r3
 2625 0016 1846     		mov	r0, r3
 2626 0018 FFF7FEFF 		bl	WriteCmd
 366:Src/oled.c    ****   delay_us(DELAYUS);
 2627              		.loc 1 366 0
 2628 001c 0520     		movs	r0, #5
 2629 001e FFF7FEFF 		bl	delay_us
 367:Src/oled.c    ****   WriteCmd(((x&0xf0)>>4)|0x10);
 2630              		.loc 1 367 0
 2631 0022 FB79     		ldrb	r3, [r7, #7]	@ zero_extendqisi2
 2632 0024 1B09     		lsrs	r3, r3, #4
 2633 0026 DBB2     		uxtb	r3, r3
 2634 0028 43F01003 		orr	r3, r3, #16
 2635 002c DBB2     		uxtb	r3, r3
 2636 002e 1846     		mov	r0, r3
 2637 0030 FFF7FEFF 		bl	WriteCmd
 368:Src/oled.c    ****   delay_us(DELAYUS);
 2638              		.loc 1 368 0
 2639 0034 0520     		movs	r0, #5
 2640 0036 FFF7FEFF 		bl	delay_us
 369:Src/oled.c    ****   WriteCmd((x&0x0f)); 
 2641              		.loc 1 369 0
 2642 003a FB79     		ldrb	r3, [r7, #7]
 2643 003c 03F00F03 		and	r3, r3, #15
 2644 0040 DBB2     		uxtb	r3, r3
 2645 0042 1846     		mov	r0, r3
 2646 0044 FFF7FEFF 		bl	WriteCmd
 370:Src/oled.c    ****   delay_us(DELAYUS);
 2647              		.loc 1 370 0
 2648 0048 0520     		movs	r0, #5
 2649 004a FFF7FEFF 		bl	delay_us
 371:Src/oled.c    **** 
 372:Src/oled.c    **** }   
 2650              		.loc 1 372 0
 2651 004e 00BF     		nop
 2652 0050 0837     		adds	r7, r7, #8
 2653              	.LCFI39:
 2654              		.cfi_def_cfa_offset 8
 2655 0052 BD46     		mov	sp, r7
 2656              	.LCFI40:
 2657              		.cfi_def_cfa_register 13
 2658              		@ sp needed
 2659 0054 80BD     		pop	{r7, pc}
 2660              		.cfi_endproc
 2661              	.LFE75:
 2663              		.section	.text.OLED_WR_Byte,"ax",%progbits
 2664              		.align	1
 2665              		.global	OLED_WR_Byte
 2666              		.syntax unified
 2667              		.thumb
ARM GAS  /tmp/ccqvBbOy.s 			page 54


 2668              		.thumb_func
 2669              		.fpu softvfp
 2671              	OLED_WR_Byte:
 2672              	.LFB76:
 373:Src/oled.c    **** 
 374:Src/oled.c    **** //
 375:Src/oled.c    **** //-----------------------------------------------------------------------------
 376:Src/oled.c    **** void OLED_WR_Byte(unsigned dat,unsigned cmd)
 377:Src/oled.c    **** {
 2673              		.loc 1 377 0
 2674              		.cfi_startproc
 2675              		@ args = 0, pretend = 0, frame = 8
 2676              		@ frame_needed = 1, uses_anonymous_args = 0
 2677 0000 80B5     		push	{r7, lr}
 2678              	.LCFI41:
 2679              		.cfi_def_cfa_offset 8
 2680              		.cfi_offset 7, -8
 2681              		.cfi_offset 14, -4
 2682 0002 82B0     		sub	sp, sp, #8
 2683              	.LCFI42:
 2684              		.cfi_def_cfa_offset 16
 2685 0004 00AF     		add	r7, sp, #0
 2686              	.LCFI43:
 2687              		.cfi_def_cfa_register 7
 2688 0006 7860     		str	r0, [r7, #4]
 2689 0008 3960     		str	r1, [r7]
 378:Src/oled.c    **** 
 379:Src/oled.c    ****   if(cmd)
 2690              		.loc 1 379 0
 2691 000a 3B68     		ldr	r3, [r7]
 2692 000c 002B     		cmp	r3, #0
 2693 000e 05D0     		beq	.L20
 380:Src/oled.c    ****   {
 381:Src/oled.c    ****     WriteDat(dat);
 2694              		.loc 1 381 0
 2695 0010 7B68     		ldr	r3, [r7, #4]
 2696 0012 DBB2     		uxtb	r3, r3
 2697 0014 1846     		mov	r0, r3
 2698 0016 FFF7FEFF 		bl	WriteDat
 382:Src/oled.c    ****   }
 383:Src/oled.c    ****   else 
 384:Src/oled.c    ****   {
 385:Src/oled.c    ****     WriteCmd(dat); 
 386:Src/oled.c    ****   }
 387:Src/oled.c    **** 
 388:Src/oled.c    **** }
 2699              		.loc 1 388 0
 2700 001a 04E0     		b	.L22
 2701              	.L20:
 385:Src/oled.c    ****   }
 2702              		.loc 1 385 0
 2703 001c 7B68     		ldr	r3, [r7, #4]
 2704 001e DBB2     		uxtb	r3, r3
 2705 0020 1846     		mov	r0, r3
 2706 0022 FFF7FEFF 		bl	WriteCmd
 2707              	.L22:
 2708              		.loc 1 388 0
ARM GAS  /tmp/ccqvBbOy.s 			page 55


 2709 0026 00BF     		nop
 2710 0028 0837     		adds	r7, r7, #8
 2711              	.LCFI44:
 2712              		.cfi_def_cfa_offset 8
 2713 002a BD46     		mov	sp, r7
 2714              	.LCFI45:
 2715              		.cfi_def_cfa_register 13
 2716              		@ sp needed
 2717 002c 80BD     		pop	{r7, pc}
 2718              		.cfi_endproc
 2719              	.LFE76:
 2721              		.section	.text.OLED_Clear,"ax",%progbits
 2722              		.align	1
 2723              		.global	OLED_Clear
 2724              		.syntax unified
 2725              		.thumb
 2726              		.thumb_func
 2727              		.fpu softvfp
 2729              	OLED_Clear:
 2730              	.LFB77:
 389:Src/oled.c    **** 
 390:Src/oled.c    **** //,,!!!!	  
 391:Src/oled.c    **** void OLED_Clear(void)  
 392:Src/oled.c    **** {
 2731              		.loc 1 392 0
 2732              		.cfi_startproc
 2733              		@ args = 0, pretend = 0, frame = 8
 2734              		@ frame_needed = 1, uses_anonymous_args = 0
 2735 0000 80B5     		push	{r7, lr}
 2736              	.LCFI46:
 2737              		.cfi_def_cfa_offset 8
 2738              		.cfi_offset 7, -8
 2739              		.cfi_offset 14, -4
 2740 0002 82B0     		sub	sp, sp, #8
 2741              	.LCFI47:
 2742              		.cfi_def_cfa_offset 16
 2743 0004 00AF     		add	r7, sp, #0
 2744              	.LCFI48:
 2745              		.cfi_def_cfa_register 7
 393:Src/oled.c    **** 
 394:Src/oled.c    ****   unsigned char i,n;		    
 395:Src/oled.c    ****   for(i=0;i<8;i++)  
 2746              		.loc 1 395 0
 2747 0006 0023     		movs	r3, #0
 2748 0008 FB71     		strb	r3, [r7, #7]
 2749 000a 1EE0     		b	.L24
 2750              	.L27:
 396:Src/oled.c    ****   {  
 397:Src/oled.c    ****     OLED_WR_Byte (0xb0+i,OLED_CMD);    //0~7
 2751              		.loc 1 397 0
 2752 000c FB79     		ldrb	r3, [r7, #7]	@ zero_extendqisi2
 2753 000e B033     		adds	r3, r3, #176
 2754 0010 0021     		movs	r1, #0
 2755 0012 1846     		mov	r0, r3
 2756 0014 FFF7FEFF 		bl	OLED_WR_Byte
 398:Src/oled.c    ****     OLED_WR_Byte (0x00,OLED_CMD);      //
 2757              		.loc 1 398 0
ARM GAS  /tmp/ccqvBbOy.s 			page 56


 2758 0018 0021     		movs	r1, #0
 2759 001a 0020     		movs	r0, #0
 2760 001c FFF7FEFF 		bl	OLED_WR_Byte
 399:Src/oled.c    ****     OLED_WR_Byte (0x10,OLED_CMD);      //   
 2761              		.loc 1 399 0
 2762 0020 0021     		movs	r1, #0
 2763 0022 1020     		movs	r0, #16
 2764 0024 FFF7FEFF 		bl	OLED_WR_Byte
 400:Src/oled.c    ****     for(n=0;n<128;n++)OLED_WR_Byte(0,OLED_DATA); 
 2765              		.loc 1 400 0
 2766 0028 0023     		movs	r3, #0
 2767 002a BB71     		strb	r3, [r7, #6]
 2768 002c 06E0     		b	.L25
 2769              	.L26:
 2770              		.loc 1 400 0 is_stmt 0 discriminator 3
 2771 002e 0121     		movs	r1, #1
 2772 0030 0020     		movs	r0, #0
 2773 0032 FFF7FEFF 		bl	OLED_WR_Byte
 2774 0036 BB79     		ldrb	r3, [r7, #6]	@ zero_extendqisi2
 2775 0038 0133     		adds	r3, r3, #1
 2776 003a BB71     		strb	r3, [r7, #6]
 2777              	.L25:
 2778              		.loc 1 400 0 discriminator 1
 2779 003c 97F90630 		ldrsb	r3, [r7, #6]
 2780 0040 002B     		cmp	r3, #0
 2781 0042 F4DA     		bge	.L26
 395:Src/oled.c    ****   {  
 2782              		.loc 1 395 0 is_stmt 1 discriminator 2
 2783 0044 FB79     		ldrb	r3, [r7, #7]	@ zero_extendqisi2
 2784 0046 0133     		adds	r3, r3, #1
 2785 0048 FB71     		strb	r3, [r7, #7]
 2786              	.L24:
 395:Src/oled.c    ****   {  
 2787              		.loc 1 395 0 is_stmt 0 discriminator 1
 2788 004a FB79     		ldrb	r3, [r7, #7]	@ zero_extendqisi2
 2789 004c 072B     		cmp	r3, #7
 2790 004e DDD9     		bls	.L27
 401:Src/oled.c    ****   } //
 402:Src/oled.c    **** 
 403:Src/oled.c    **** }
 2791              		.loc 1 403 0 is_stmt 1
 2792 0050 00BF     		nop
 2793 0052 0837     		adds	r7, r7, #8
 2794              	.LCFI49:
 2795              		.cfi_def_cfa_offset 8
 2796 0054 BD46     		mov	sp, r7
 2797              	.LCFI50:
 2798              		.cfi_def_cfa_register 13
 2799              		@ sp needed
 2800 0056 80BD     		pop	{r7, pc}
 2801              		.cfi_endproc
 2802              	.LFE77:
 2804              		.section	.text.OLED_ShowChar,"ax",%progbits
 2805              		.align	1
 2806              		.global	OLED_ShowChar
 2807              		.syntax unified
 2808              		.thumb
ARM GAS  /tmp/ccqvBbOy.s 			page 57


 2809              		.thumb_func
 2810              		.fpu softvfp
 2812              	OLED_ShowChar:
 2813              	.LFB78:
 404:Src/oled.c    **** //,
 405:Src/oled.c    **** //x:0~127
 406:Src/oled.c    **** //y:0~63
 407:Src/oled.c    **** //mode:0,;1,				 
 408:Src/oled.c    **** //size: 16/12  
 409:Src/oled.c    **** void OLED_ShowChar(unsigned char x,unsigned char y,unsigned char chr,unsigned char Char_Size)
 410:Src/oled.c    **** { 
 2814              		.loc 1 410 0
 2815              		.cfi_startproc
 2816              		@ args = 0, pretend = 0, frame = 16
 2817              		@ frame_needed = 1, uses_anonymous_args = 0
 2818 0000 90B5     		push	{r4, r7, lr}
 2819              	.LCFI51:
 2820              		.cfi_def_cfa_offset 12
 2821              		.cfi_offset 4, -12
 2822              		.cfi_offset 7, -8
 2823              		.cfi_offset 14, -4
 2824 0002 85B0     		sub	sp, sp, #20
 2825              	.LCFI52:
 2826              		.cfi_def_cfa_offset 32
 2827 0004 00AF     		add	r7, sp, #0
 2828              	.LCFI53:
 2829              		.cfi_def_cfa_register 7
 2830 0006 0446     		mov	r4, r0
 2831 0008 0846     		mov	r0, r1
 2832 000a 1146     		mov	r1, r2
 2833 000c 1A46     		mov	r2, r3
 2834 000e 2346     		mov	r3, r4
 2835 0010 FB71     		strb	r3, [r7, #7]
 2836 0012 0346     		mov	r3, r0
 2837 0014 BB71     		strb	r3, [r7, #6]
 2838 0016 0B46     		mov	r3, r1
 2839 0018 7B71     		strb	r3, [r7, #5]
 2840 001a 1346     		mov	r3, r2
 2841 001c 3B71     		strb	r3, [r7, #4]
 411:Src/oled.c    **** 
 412:Src/oled.c    ****   unsigned char c=0,i=0;	
 2842              		.loc 1 412 0
 2843 001e 0023     		movs	r3, #0
 2844 0020 BB73     		strb	r3, [r7, #14]
 2845 0022 0023     		movs	r3, #0
 2846 0024 FB73     		strb	r3, [r7, #15]
 413:Src/oled.c    ****   c=chr-' ';//			
 2847              		.loc 1 413 0
 2848 0026 7B79     		ldrb	r3, [r7, #5]
 2849 0028 203B     		subs	r3, r3, #32
 2850 002a BB73     		strb	r3, [r7, #14]
 414:Src/oled.c    ****   if(x>Max_Column-1){x=0;y=y+2;}
 2851              		.loc 1 414 0
 2852 002c 97F90730 		ldrsb	r3, [r7, #7]
 2853 0030 002B     		cmp	r3, #0
 2854 0032 04DA     		bge	.L29
 2855              		.loc 1 414 0 is_stmt 0 discriminator 1
ARM GAS  /tmp/ccqvBbOy.s 			page 58


 2856 0034 0023     		movs	r3, #0
 2857 0036 FB71     		strb	r3, [r7, #7]
 2858 0038 BB79     		ldrb	r3, [r7, #6]
 2859 003a 0233     		adds	r3, r3, #2
 2860 003c BB71     		strb	r3, [r7, #6]
 2861              	.L29:
 415:Src/oled.c    ****   if(Char_Size ==16)
 2862              		.loc 1 415 0 is_stmt 1
 2863 003e 3B79     		ldrb	r3, [r7, #4]	@ zero_extendqisi2
 2864 0040 102B     		cmp	r3, #16
 2865 0042 35D1     		bne	.L30
 416:Src/oled.c    ****   {
 417:Src/oled.c    ****     OLED_Set_Pos(x,y);	
 2866              		.loc 1 417 0
 2867 0044 BA79     		ldrb	r2, [r7, #6]	@ zero_extendqisi2
 2868 0046 FB79     		ldrb	r3, [r7, #7]	@ zero_extendqisi2
 2869 0048 1146     		mov	r1, r2
 2870 004a 1846     		mov	r0, r3
 2871 004c FFF7FEFF 		bl	OLED_Set_Pos
 418:Src/oled.c    ****     for(i=0;i<8;i++)
 2872              		.loc 1 418 0
 2873 0050 0023     		movs	r3, #0
 2874 0052 FB73     		strb	r3, [r7, #15]
 2875 0054 0CE0     		b	.L31
 2876              	.L32:
 419:Src/oled.c    ****       OLED_WR_Byte(F8X16[c*16+i],OLED_DATA);
 2877              		.loc 1 419 0 discriminator 3
 2878 0056 BB7B     		ldrb	r3, [r7, #14]	@ zero_extendqisi2
 2879 0058 1A01     		lsls	r2, r3, #4
 2880 005a FB7B     		ldrb	r3, [r7, #15]	@ zero_extendqisi2
 2881 005c 1344     		add	r3, r3, r2
 2882 005e 254A     		ldr	r2, .L39
 2883 0060 D35C     		ldrb	r3, [r2, r3]	@ zero_extendqisi2
 2884 0062 0121     		movs	r1, #1
 2885 0064 1846     		mov	r0, r3
 2886 0066 FFF7FEFF 		bl	OLED_WR_Byte
 418:Src/oled.c    ****     for(i=0;i<8;i++)
 2887              		.loc 1 418 0 discriminator 3
 2888 006a FB7B     		ldrb	r3, [r7, #15]	@ zero_extendqisi2
 2889 006c 0133     		adds	r3, r3, #1
 2890 006e FB73     		strb	r3, [r7, #15]
 2891              	.L31:
 418:Src/oled.c    ****     for(i=0;i<8;i++)
 2892              		.loc 1 418 0 is_stmt 0 discriminator 1
 2893 0070 FB7B     		ldrb	r3, [r7, #15]	@ zero_extendqisi2
 2894 0072 072B     		cmp	r3, #7
 2895 0074 EFD9     		bls	.L32
 420:Src/oled.c    ****     OLED_Set_Pos(x,y+1);
 2896              		.loc 1 420 0 is_stmt 1
 2897 0076 BB79     		ldrb	r3, [r7, #6]
 2898 0078 0133     		adds	r3, r3, #1
 2899 007a DAB2     		uxtb	r2, r3
 2900 007c FB79     		ldrb	r3, [r7, #7]	@ zero_extendqisi2
 2901 007e 1146     		mov	r1, r2
 2902 0080 1846     		mov	r0, r3
 2903 0082 FFF7FEFF 		bl	OLED_Set_Pos
 421:Src/oled.c    ****     for(i=0;i<8;i++)
ARM GAS  /tmp/ccqvBbOy.s 			page 59


 2904              		.loc 1 421 0
 2905 0086 0023     		movs	r3, #0
 2906 0088 FB73     		strb	r3, [r7, #15]
 2907 008a 0DE0     		b	.L33
 2908              	.L34:
 422:Src/oled.c    ****       OLED_WR_Byte(F8X16[c*16+i+8],OLED_DATA);
 2909              		.loc 1 422 0 discriminator 3
 2910 008c BB7B     		ldrb	r3, [r7, #14]	@ zero_extendqisi2
 2911 008e 1A01     		lsls	r2, r3, #4
 2912 0090 FB7B     		ldrb	r3, [r7, #15]	@ zero_extendqisi2
 2913 0092 1344     		add	r3, r3, r2
 2914 0094 0833     		adds	r3, r3, #8
 2915 0096 174A     		ldr	r2, .L39
 2916 0098 D35C     		ldrb	r3, [r2, r3]	@ zero_extendqisi2
 2917 009a 0121     		movs	r1, #1
 2918 009c 1846     		mov	r0, r3
 2919 009e FFF7FEFF 		bl	OLED_WR_Byte
 421:Src/oled.c    ****     for(i=0;i<8;i++)
 2920              		.loc 1 421 0 discriminator 3
 2921 00a2 FB7B     		ldrb	r3, [r7, #15]	@ zero_extendqisi2
 2922 00a4 0133     		adds	r3, r3, #1
 2923 00a6 FB73     		strb	r3, [r7, #15]
 2924              	.L33:
 421:Src/oled.c    ****     for(i=0;i<8;i++)
 2925              		.loc 1 421 0 is_stmt 0 discriminator 1
 2926 00a8 FB7B     		ldrb	r3, [r7, #15]	@ zero_extendqisi2
 2927 00aa 072B     		cmp	r3, #7
 2928 00ac EED9     		bls	.L34
 423:Src/oled.c    ****   }
 424:Src/oled.c    ****   else {	
 425:Src/oled.c    ****     OLED_Set_Pos(x,y);
 426:Src/oled.c    ****     for(i=0;i<6;i++)
 427:Src/oled.c    ****       OLED_WR_Byte(F6x8[c][i],OLED_DATA);
 428:Src/oled.c    ****     
 429:Src/oled.c    ****   }
 430:Src/oled.c    **** 
 431:Src/oled.c    **** }
 2929              		.loc 1 431 0 is_stmt 1
 2930 00ae 1CE0     		b	.L38
 2931              	.L30:
 425:Src/oled.c    ****     for(i=0;i<6;i++)
 2932              		.loc 1 425 0
 2933 00b0 BA79     		ldrb	r2, [r7, #6]	@ zero_extendqisi2
 2934 00b2 FB79     		ldrb	r3, [r7, #7]	@ zero_extendqisi2
 2935 00b4 1146     		mov	r1, r2
 2936 00b6 1846     		mov	r0, r3
 2937 00b8 FFF7FEFF 		bl	OLED_Set_Pos
 426:Src/oled.c    ****       OLED_WR_Byte(F6x8[c][i],OLED_DATA);
 2938              		.loc 1 426 0
 2939 00bc 0023     		movs	r3, #0
 2940 00be FB73     		strb	r3, [r7, #15]
 2941 00c0 10E0     		b	.L36
 2942              	.L37:
 427:Src/oled.c    ****     
 2943              		.loc 1 427 0 discriminator 3
 2944 00c2 BA7B     		ldrb	r2, [r7, #14]	@ zero_extendqisi2
 2945 00c4 F97B     		ldrb	r1, [r7, #15]	@ zero_extendqisi2
ARM GAS  /tmp/ccqvBbOy.s 			page 60


 2946 00c6 0C48     		ldr	r0, .L39+4
 2947 00c8 1346     		mov	r3, r2
 2948 00ca 5B00     		lsls	r3, r3, #1
 2949 00cc 1344     		add	r3, r3, r2
 2950 00ce 5B00     		lsls	r3, r3, #1
 2951 00d0 0344     		add	r3, r3, r0
 2952 00d2 0B44     		add	r3, r3, r1
 2953 00d4 1B78     		ldrb	r3, [r3]	@ zero_extendqisi2
 2954 00d6 0121     		movs	r1, #1
 2955 00d8 1846     		mov	r0, r3
 2956 00da FFF7FEFF 		bl	OLED_WR_Byte
 426:Src/oled.c    ****       OLED_WR_Byte(F6x8[c][i],OLED_DATA);
 2957              		.loc 1 426 0 discriminator 3
 2958 00de FB7B     		ldrb	r3, [r7, #15]	@ zero_extendqisi2
 2959 00e0 0133     		adds	r3, r3, #1
 2960 00e2 FB73     		strb	r3, [r7, #15]
 2961              	.L36:
 426:Src/oled.c    ****       OLED_WR_Byte(F6x8[c][i],OLED_DATA);
 2962              		.loc 1 426 0 is_stmt 0 discriminator 1
 2963 00e4 FB7B     		ldrb	r3, [r7, #15]	@ zero_extendqisi2
 2964 00e6 052B     		cmp	r3, #5
 2965 00e8 EBD9     		bls	.L37
 2966              	.L38:
 2967              		.loc 1 431 0 is_stmt 1
 2968 00ea 00BF     		nop
 2969 00ec 1437     		adds	r7, r7, #20
 2970              	.LCFI54:
 2971              		.cfi_def_cfa_offset 12
 2972 00ee BD46     		mov	sp, r7
 2973              	.LCFI55:
 2974              		.cfi_def_cfa_register 13
 2975              		@ sp needed
 2976 00f0 90BD     		pop	{r4, r7, pc}
 2977              	.L40:
 2978 00f2 00BF     		.align	2
 2979              	.L39:
 2980 00f4 00000000 		.word	F8X16
 2981 00f8 00000000 		.word	F6x8
 2982              		.cfi_endproc
 2983              	.LFE78:
 2985              		.section	.text.OLED_ShowString,"ax",%progbits
 2986              		.align	1
 2987              		.global	OLED_ShowString
 2988              		.syntax unified
 2989              		.thumb
 2990              		.thumb_func
 2991              		.fpu softvfp
 2993              	OLED_ShowString:
 2994              	.LFB79:
 432:Src/oled.c    **** 
 433:Src/oled.c    ****  
 434:Src/oled.c    **** //
 435:Src/oled.c    **** void OLED_ShowString(unsigned char x,unsigned char y, char *chr,unsigned char Char_Size)
 436:Src/oled.c    **** {
 2995              		.loc 1 436 0
 2996              		.cfi_startproc
 2997              		@ args = 0, pretend = 0, frame = 16
ARM GAS  /tmp/ccqvBbOy.s 			page 61


 2998              		@ frame_needed = 1, uses_anonymous_args = 0
 2999 0000 80B5     		push	{r7, lr}
 3000              	.LCFI56:
 3001              		.cfi_def_cfa_offset 8
 3002              		.cfi_offset 7, -8
 3003              		.cfi_offset 14, -4
 3004 0002 84B0     		sub	sp, sp, #16
 3005              	.LCFI57:
 3006              		.cfi_def_cfa_offset 24
 3007 0004 00AF     		add	r7, sp, #0
 3008              	.LCFI58:
 3009              		.cfi_def_cfa_register 7
 3010 0006 3A60     		str	r2, [r7]
 3011 0008 1A46     		mov	r2, r3
 3012 000a 0346     		mov	r3, r0
 3013 000c FB71     		strb	r3, [r7, #7]
 3014 000e 0B46     		mov	r3, r1
 3015 0010 BB71     		strb	r3, [r7, #6]
 3016 0012 1346     		mov	r3, r2
 3017 0014 7B71     		strb	r3, [r7, #5]
 437:Src/oled.c    **** 
 438:Src/oled.c    ****   unsigned char j=0;
 3018              		.loc 1 438 0
 3019 0016 0023     		movs	r3, #0
 3020 0018 FB73     		strb	r3, [r7, #15]
 439:Src/oled.c    ****   while (chr[j]!='\0')
 3021              		.loc 1 439 0
 3022 001a 22E0     		b	.L42
 3023              	.L44:
 440:Src/oled.c    ****   {		
 441:Src/oled.c    ****     if(chr[j]!='\r'&&chr[j]!='\n')
 3024              		.loc 1 441 0
 3025 001c FB7B     		ldrb	r3, [r7, #15]	@ zero_extendqisi2
 3026 001e 3A68     		ldr	r2, [r7]
 3027 0020 1344     		add	r3, r3, r2
 3028 0022 1B78     		ldrb	r3, [r3]	@ zero_extendqisi2
 3029 0024 0D2B     		cmp	r3, #13
 3030 0026 19D0     		beq	.L43
 3031              		.loc 1 441 0 is_stmt 0 discriminator 1
 3032 0028 FB7B     		ldrb	r3, [r7, #15]	@ zero_extendqisi2
 3033 002a 3A68     		ldr	r2, [r7]
 3034 002c 1344     		add	r3, r3, r2
 3035 002e 1B78     		ldrb	r3, [r3]	@ zero_extendqisi2
 3036 0030 0A2B     		cmp	r3, #10
 3037 0032 13D0     		beq	.L43
 442:Src/oled.c    ****     {
 443:Src/oled.c    ****       OLED_ShowChar(x,y,chr[j],Char_Size);
 3038              		.loc 1 443 0 is_stmt 1
 3039 0034 FB7B     		ldrb	r3, [r7, #15]	@ zero_extendqisi2
 3040 0036 3A68     		ldr	r2, [r7]
 3041 0038 1344     		add	r3, r3, r2
 3042 003a 1A78     		ldrb	r2, [r3]	@ zero_extendqisi2
 3043 003c 7B79     		ldrb	r3, [r7, #5]	@ zero_extendqisi2
 3044 003e B979     		ldrb	r1, [r7, #6]	@ zero_extendqisi2
 3045 0040 F879     		ldrb	r0, [r7, #7]	@ zero_extendqisi2
 3046 0042 FFF7FEFF 		bl	OLED_ShowChar
 444:Src/oled.c    ****       x+=8;
ARM GAS  /tmp/ccqvBbOy.s 			page 62


 3047              		.loc 1 444 0
 3048 0046 FB79     		ldrb	r3, [r7, #7]
 3049 0048 0833     		adds	r3, r3, #8
 3050 004a FB71     		strb	r3, [r7, #7]
 445:Src/oled.c    ****       if(x>120)
 3051              		.loc 1 445 0
 3052 004c FB79     		ldrb	r3, [r7, #7]	@ zero_extendqisi2
 3053 004e 782B     		cmp	r3, #120
 3054 0050 04D9     		bls	.L43
 446:Src/oled.c    ****       {
 447:Src/oled.c    ****         x=0;y+=2;
 3055              		.loc 1 447 0
 3056 0052 0023     		movs	r3, #0
 3057 0054 FB71     		strb	r3, [r7, #7]
 3058 0056 BB79     		ldrb	r3, [r7, #6]
 3059 0058 0233     		adds	r3, r3, #2
 3060 005a BB71     		strb	r3, [r7, #6]
 3061              	.L43:
 448:Src/oled.c    ****       }
 449:Src/oled.c    ****     }
 450:Src/oled.c    ****     j++;
 3062              		.loc 1 450 0
 3063 005c FB7B     		ldrb	r3, [r7, #15]	@ zero_extendqisi2
 3064 005e 0133     		adds	r3, r3, #1
 3065 0060 FB73     		strb	r3, [r7, #15]
 3066              	.L42:
 439:Src/oled.c    ****   {		
 3067              		.loc 1 439 0
 3068 0062 FB7B     		ldrb	r3, [r7, #15]	@ zero_extendqisi2
 3069 0064 3A68     		ldr	r2, [r7]
 3070 0066 1344     		add	r3, r3, r2
 3071 0068 1B78     		ldrb	r3, [r3]	@ zero_extendqisi2
 3072 006a 002B     		cmp	r3, #0
 3073 006c D6D1     		bne	.L44
 451:Src/oled.c    ****   }
 452:Src/oled.c    **** 
 453:Src/oled.c    **** 
 454:Src/oled.c    **** }
 3074              		.loc 1 454 0
 3075 006e 00BF     		nop
 3076 0070 1037     		adds	r7, r7, #16
 3077              	.LCFI59:
 3078              		.cfi_def_cfa_offset 8
 3079 0072 BD46     		mov	sp, r7
 3080              	.LCFI60:
 3081              		.cfi_def_cfa_register 13
 3082              		@ sp needed
 3083 0074 80BD     		pop	{r7, pc}
 3084              		.cfi_endproc
 3085              	.LFE79:
 3087              		.section	.text.OLED_ShowCharNomAndRev,"ax",%progbits
 3088              		.align	1
 3089              		.global	OLED_ShowCharNomAndRev
 3090              		.syntax unified
 3091              		.thumb
 3092              		.thumb_func
 3093              		.fpu softvfp
ARM GAS  /tmp/ccqvBbOy.s 			page 63


 3095              	OLED_ShowCharNomAndRev:
 3096              	.LFB80:
 455:Src/oled.c    **** //8x16  16 
 456:Src/oled.c    **** void OLED_ShowCharNomAndRev(unsigned char x,unsigned char y,unsigned char chr,unsigned char rev)
 457:Src/oled.c    **** {     
 3097              		.loc 1 457 0
 3098              		.cfi_startproc
 3099              		@ args = 0, pretend = 0, frame = 16
 3100              		@ frame_needed = 1, uses_anonymous_args = 0
 3101 0000 90B5     		push	{r4, r7, lr}
 3102              	.LCFI61:
 3103              		.cfi_def_cfa_offset 12
 3104              		.cfi_offset 4, -12
 3105              		.cfi_offset 7, -8
 3106              		.cfi_offset 14, -4
 3107 0002 85B0     		sub	sp, sp, #20
 3108              	.LCFI62:
 3109              		.cfi_def_cfa_offset 32
 3110 0004 00AF     		add	r7, sp, #0
 3111              	.LCFI63:
 3112              		.cfi_def_cfa_register 7
 3113 0006 0446     		mov	r4, r0
 3114 0008 0846     		mov	r0, r1
 3115 000a 1146     		mov	r1, r2
 3116 000c 1A46     		mov	r2, r3
 3117 000e 2346     		mov	r3, r4
 3118 0010 FB71     		strb	r3, [r7, #7]
 3119 0012 0346     		mov	r3, r0
 3120 0014 BB71     		strb	r3, [r7, #6]
 3121 0016 0B46     		mov	r3, r1
 3122 0018 7B71     		strb	r3, [r7, #5]
 3123 001a 1346     		mov	r3, r2
 3124 001c 3B71     		strb	r3, [r7, #4]
 458:Src/oled.c    ****   
 459:Src/oled.c    **** 
 460:Src/oled.c    ****   unsigned char c=0,i=0;	
 3125              		.loc 1 460 0
 3126 001e 0023     		movs	r3, #0
 3127 0020 BB73     		strb	r3, [r7, #14]
 3128 0022 0023     		movs	r3, #0
 3129 0024 FB73     		strb	r3, [r7, #15]
 461:Src/oled.c    ****   c=chr-' ';//			
 3130              		.loc 1 461 0
 3131 0026 7B79     		ldrb	r3, [r7, #5]
 3132 0028 203B     		subs	r3, r3, #32
 3133 002a BB73     		strb	r3, [r7, #14]
 462:Src/oled.c    ****   if(x>128-1){x=0;y=y+2;}//128
 3134              		.loc 1 462 0
 3135 002c 97F90730 		ldrsb	r3, [r7, #7]
 3136 0030 002B     		cmp	r3, #0
 3137 0032 04DA     		bge	.L46
 3138              		.loc 1 462 0 is_stmt 0 discriminator 1
 3139 0034 0023     		movs	r3, #0
 3140 0036 FB71     		strb	r3, [r7, #7]
 3141 0038 BB79     		ldrb	r3, [r7, #6]
 3142 003a 0233     		adds	r3, r3, #2
 3143 003c BB71     		strb	r3, [r7, #6]
ARM GAS  /tmp/ccqvBbOy.s 			page 64


 3144              	.L46:
 463:Src/oled.c    ****   if(rev ==0)
 3145              		.loc 1 463 0 is_stmt 1
 3146 003e 3B79     		ldrb	r3, [r7, #4]	@ zero_extendqisi2
 3147 0040 002B     		cmp	r3, #0
 3148 0042 33D1     		bne	.L47
 464:Src/oled.c    ****   {
 465:Src/oled.c    ****     OLED_Set_Pos(x,y);	
 3149              		.loc 1 465 0
 3150 0044 BA79     		ldrb	r2, [r7, #6]	@ zero_extendqisi2
 3151 0046 FB79     		ldrb	r3, [r7, #7]	@ zero_extendqisi2
 3152 0048 1146     		mov	r1, r2
 3153 004a 1846     		mov	r0, r3
 3154 004c FFF7FEFF 		bl	OLED_Set_Pos
 466:Src/oled.c    ****     for(i=0;i<8;i++)
 3155              		.loc 1 466 0
 3156 0050 0023     		movs	r3, #0
 3157 0052 FB73     		strb	r3, [r7, #15]
 3158 0054 0BE0     		b	.L48
 3159              	.L49:
 467:Src/oled.c    ****       WriteDat(F8X16[c*16+i]);
 3160              		.loc 1 467 0 discriminator 3
 3161 0056 BB7B     		ldrb	r3, [r7, #14]	@ zero_extendqisi2
 3162 0058 1A01     		lsls	r2, r3, #4
 3163 005a FB7B     		ldrb	r3, [r7, #15]	@ zero_extendqisi2
 3164 005c 1344     		add	r3, r3, r2
 3165 005e 314A     		ldr	r2, .L58
 3166 0060 D35C     		ldrb	r3, [r2, r3]	@ zero_extendqisi2
 3167 0062 1846     		mov	r0, r3
 3168 0064 FFF7FEFF 		bl	WriteDat
 466:Src/oled.c    ****     for(i=0;i<8;i++)
 3169              		.loc 1 466 0 discriminator 3
 3170 0068 FB7B     		ldrb	r3, [r7, #15]	@ zero_extendqisi2
 3171 006a 0133     		adds	r3, r3, #1
 3172 006c FB73     		strb	r3, [r7, #15]
 3173              	.L48:
 466:Src/oled.c    ****     for(i=0;i<8;i++)
 3174              		.loc 1 466 0 is_stmt 0 discriminator 1
 3175 006e FB7B     		ldrb	r3, [r7, #15]	@ zero_extendqisi2
 3176 0070 072B     		cmp	r3, #7
 3177 0072 F0D9     		bls	.L49
 468:Src/oled.c    ****     OLED_Set_Pos(x,y+1);
 3178              		.loc 1 468 0 is_stmt 1
 3179 0074 BB79     		ldrb	r3, [r7, #6]
 3180 0076 0133     		adds	r3, r3, #1
 3181 0078 DAB2     		uxtb	r2, r3
 3182 007a FB79     		ldrb	r3, [r7, #7]	@ zero_extendqisi2
 3183 007c 1146     		mov	r1, r2
 3184 007e 1846     		mov	r0, r3
 3185 0080 FFF7FEFF 		bl	OLED_Set_Pos
 469:Src/oled.c    ****     for(i=0;i<8;i++)
 3186              		.loc 1 469 0
 3187 0084 0023     		movs	r3, #0
 3188 0086 FB73     		strb	r3, [r7, #15]
 3189 0088 0CE0     		b	.L50
 3190              	.L51:
 470:Src/oled.c    ****       WriteDat(F8X16[c*16+i+8]);
ARM GAS  /tmp/ccqvBbOy.s 			page 65


 3191              		.loc 1 470 0 discriminator 3
 3192 008a BB7B     		ldrb	r3, [r7, #14]	@ zero_extendqisi2
 3193 008c 1A01     		lsls	r2, r3, #4
 3194 008e FB7B     		ldrb	r3, [r7, #15]	@ zero_extendqisi2
 3195 0090 1344     		add	r3, r3, r2
 3196 0092 0833     		adds	r3, r3, #8
 3197 0094 234A     		ldr	r2, .L58
 3198 0096 D35C     		ldrb	r3, [r2, r3]	@ zero_extendqisi2
 3199 0098 1846     		mov	r0, r3
 3200 009a FFF7FEFF 		bl	WriteDat
 469:Src/oled.c    ****     for(i=0;i<8;i++)
 3201              		.loc 1 469 0 discriminator 3
 3202 009e FB7B     		ldrb	r3, [r7, #15]	@ zero_extendqisi2
 3203 00a0 0133     		adds	r3, r3, #1
 3204 00a2 FB73     		strb	r3, [r7, #15]
 3205              	.L50:
 469:Src/oled.c    ****     for(i=0;i<8;i++)
 3206              		.loc 1 469 0 is_stmt 0 discriminator 1
 3207 00a4 FB7B     		ldrb	r3, [r7, #15]	@ zero_extendqisi2
 3208 00a6 072B     		cmp	r3, #7
 3209 00a8 EFD9     		bls	.L51
 471:Src/oled.c    ****   }
 472:Src/oled.c    ****   else 
 473:Src/oled.c    ****   {	
 474:Src/oled.c    ****     OLED_Set_Pos(x,y);	
 475:Src/oled.c    ****     for(i=0;i<8;i++)
 476:Src/oled.c    ****       WriteDat(~F8X16[c*16+i]);
 477:Src/oled.c    ****     OLED_Set_Pos(x,y+1);
 478:Src/oled.c    ****     for(i=0;i<8;i++)
 479:Src/oled.c    ****       WriteDat(~F8X16[c*16+i+8]);
 480:Src/oled.c    ****   }
 481:Src/oled.c    ****   
 482:Src/oled.c    **** 
 483:Src/oled.c    **** }
 3210              		.loc 1 483 0 is_stmt 1
 3211 00aa 36E0     		b	.L57
 3212              	.L47:
 474:Src/oled.c    ****     for(i=0;i<8;i++)
 3213              		.loc 1 474 0
 3214 00ac BA79     		ldrb	r2, [r7, #6]	@ zero_extendqisi2
 3215 00ae FB79     		ldrb	r3, [r7, #7]	@ zero_extendqisi2
 3216 00b0 1146     		mov	r1, r2
 3217 00b2 1846     		mov	r0, r3
 3218 00b4 FFF7FEFF 		bl	OLED_Set_Pos
 475:Src/oled.c    ****       WriteDat(~F8X16[c*16+i]);
 3219              		.loc 1 475 0
 3220 00b8 0023     		movs	r3, #0
 3221 00ba FB73     		strb	r3, [r7, #15]
 3222 00bc 0DE0     		b	.L53
 3223              	.L54:
 476:Src/oled.c    ****     OLED_Set_Pos(x,y+1);
 3224              		.loc 1 476 0 discriminator 3
 3225 00be BB7B     		ldrb	r3, [r7, #14]	@ zero_extendqisi2
 3226 00c0 1A01     		lsls	r2, r3, #4
 3227 00c2 FB7B     		ldrb	r3, [r7, #15]	@ zero_extendqisi2
 3228 00c4 1344     		add	r3, r3, r2
 3229 00c6 174A     		ldr	r2, .L58
ARM GAS  /tmp/ccqvBbOy.s 			page 66


 3230 00c8 D35C     		ldrb	r3, [r2, r3]	@ zero_extendqisi2
 3231 00ca DB43     		mvns	r3, r3
 3232 00cc DBB2     		uxtb	r3, r3
 3233 00ce 1846     		mov	r0, r3
 3234 00d0 FFF7FEFF 		bl	WriteDat
 475:Src/oled.c    ****       WriteDat(~F8X16[c*16+i]);
 3235              		.loc 1 475 0 discriminator 3
 3236 00d4 FB7B     		ldrb	r3, [r7, #15]	@ zero_extendqisi2
 3237 00d6 0133     		adds	r3, r3, #1
 3238 00d8 FB73     		strb	r3, [r7, #15]
 3239              	.L53:
 475:Src/oled.c    ****       WriteDat(~F8X16[c*16+i]);
 3240              		.loc 1 475 0 is_stmt 0 discriminator 1
 3241 00da FB7B     		ldrb	r3, [r7, #15]	@ zero_extendqisi2
 3242 00dc 072B     		cmp	r3, #7
 3243 00de EED9     		bls	.L54
 477:Src/oled.c    ****     for(i=0;i<8;i++)
 3244              		.loc 1 477 0 is_stmt 1
 3245 00e0 BB79     		ldrb	r3, [r7, #6]
 3246 00e2 0133     		adds	r3, r3, #1
 3247 00e4 DAB2     		uxtb	r2, r3
 3248 00e6 FB79     		ldrb	r3, [r7, #7]	@ zero_extendqisi2
 3249 00e8 1146     		mov	r1, r2
 3250 00ea 1846     		mov	r0, r3
 3251 00ec FFF7FEFF 		bl	OLED_Set_Pos
 478:Src/oled.c    ****       WriteDat(~F8X16[c*16+i+8]);
 3252              		.loc 1 478 0
 3253 00f0 0023     		movs	r3, #0
 3254 00f2 FB73     		strb	r3, [r7, #15]
 3255 00f4 0EE0     		b	.L55
 3256              	.L56:
 479:Src/oled.c    ****   }
 3257              		.loc 1 479 0 discriminator 3
 3258 00f6 BB7B     		ldrb	r3, [r7, #14]	@ zero_extendqisi2
 3259 00f8 1A01     		lsls	r2, r3, #4
 3260 00fa FB7B     		ldrb	r3, [r7, #15]	@ zero_extendqisi2
 3261 00fc 1344     		add	r3, r3, r2
 3262 00fe 0833     		adds	r3, r3, #8
 3263 0100 084A     		ldr	r2, .L58
 3264 0102 D35C     		ldrb	r3, [r2, r3]	@ zero_extendqisi2
 3265 0104 DB43     		mvns	r3, r3
 3266 0106 DBB2     		uxtb	r3, r3
 3267 0108 1846     		mov	r0, r3
 3268 010a FFF7FEFF 		bl	WriteDat
 478:Src/oled.c    ****       WriteDat(~F8X16[c*16+i+8]);
 3269              		.loc 1 478 0 discriminator 3
 3270 010e FB7B     		ldrb	r3, [r7, #15]	@ zero_extendqisi2
 3271 0110 0133     		adds	r3, r3, #1
 3272 0112 FB73     		strb	r3, [r7, #15]
 3273              	.L55:
 478:Src/oled.c    ****       WriteDat(~F8X16[c*16+i+8]);
 3274              		.loc 1 478 0 is_stmt 0 discriminator 1
 3275 0114 FB7B     		ldrb	r3, [r7, #15]	@ zero_extendqisi2
 3276 0116 072B     		cmp	r3, #7
 3277 0118 EDD9     		bls	.L56
 3278              	.L57:
 3279              		.loc 1 483 0 is_stmt 1
ARM GAS  /tmp/ccqvBbOy.s 			page 67


 3280 011a 00BF     		nop
 3281 011c 1437     		adds	r7, r7, #20
 3282              	.LCFI64:
 3283              		.cfi_def_cfa_offset 12
 3284 011e BD46     		mov	sp, r7
 3285              	.LCFI65:
 3286              		.cfi_def_cfa_register 13
 3287              		@ sp needed
 3288 0120 90BD     		pop	{r4, r7, pc}
 3289              	.L59:
 3290 0122 00BF     		.align	2
 3291              	.L58:
 3292 0124 00000000 		.word	F8X16
 3293              		.cfi_endproc
 3294              	.LFE80:
 3296              		.global	Hzk
 3297              		.section	.rodata.Hzk,"a",%progbits
 3298              		.align	2
 3301              	Hzk:
 3302 0000 D5FD     		.ascii	"\325\375"
 3303 0002 00       		.byte	0
 3304 0003 02       		.byte	2
 3305 0004 02       		.byte	2
 3306 0005 C2       		.byte	-62
 3307 0006 02       		.byte	2
 3308 0007 02       		.byte	2
 3309 0008 02       		.byte	2
 3310 0009 FE       		.byte	-2
 3311 000a 82       		.byte	-126
 3312 000b 82       		.byte	-126
 3313 000c 82       		.byte	-126
 3314 000d C2       		.byte	-62
 3315 000e 83       		.byte	-125
 3316 000f 02       		.byte	2
 3317 0010 00       		.byte	0
 3318 0011 00       		.byte	0
 3319 0012 40       		.byte	64
 3320 0013 40       		.byte	64
 3321 0014 40       		.byte	64
 3322 0015 7F       		.byte	127
 3323 0016 40       		.byte	64
 3324 0017 40       		.byte	64
 3325 0018 40       		.byte	64
 3326 0019 7F       		.byte	127
 3327 001a 40       		.byte	64
 3328 001b 40       		.byte	64
 3329 001c 40       		.byte	64
 3330 001d 40       		.byte	64
 3331 001e 40       		.byte	64
 3332 001f 60       		.byte	96
 3333 0020 40       		.byte	64
 3334 0021 00       		.byte	0
 3335 0022 D4DA     		.ascii	"\324\332"
 3336 0024 08       		.byte	8
 3337 0025 08       		.byte	8
 3338 0026 08       		.byte	8
 3339 0027 08       		.byte	8
ARM GAS  /tmp/ccqvBbOy.s 			page 68


 3340 0028 C8       		.byte	-56
 3341 0029 38       		.byte	56
 3342 002a 0F       		.byte	15
 3343 002b 08       		.byte	8
 3344 002c 08       		.byte	8
 3345 002d E8       		.byte	-24
 3346 002e 08       		.byte	8
 3347 002f 88       		.byte	-120
 3348 0030 08       		.byte	8
 3349 0031 0C       		.byte	12
 3350 0032 08       		.byte	8
 3351 0033 00       		.byte	0
 3352 0034 08       		.byte	8
 3353 0035 04       		.byte	4
 3354 0036 02       		.byte	2
 3355 0037 FF       		.byte	-1
 3356 0038 00       		.byte	0
 3357 0039 40       		.byte	64
 3358 003a 41       		.byte	65
 3359 003b 41       		.byte	65
 3360 003c 41       		.byte	65
 3361 003d 7F       		.byte	127
 3362 003e 41       		.byte	65
 3363 003f 41       		.byte	65
 3364 0040 41       		.byte	65
 3365 0041 60       		.byte	96
 3366 0042 40       		.byte	64
 3367 0043 00       		.byte	0
 3368 0044 C1AC     		.ascii	"\301\254"
 3369 0046 40       		.byte	64
 3370 0047 42       		.byte	66
 3371 0048 CC       		.byte	-52
 3372 0049 00       		.byte	0
 3373 004a 04       		.byte	4
 3374 004b 44       		.byte	68
 3375 004c 64       		.byte	100
 3376 004d 5C       		.byte	92
 3377 004e 47       		.byte	71
 3378 004f F4       		.byte	-12
 3379 0050 44       		.byte	68
 3380 0051 64       		.byte	100
 3381 0052 46       		.byte	70
 3382 0053 04       		.byte	4
 3383 0054 00       		.byte	0
 3384 0055 00       		.byte	0
 3385 0056 40       		.byte	64
 3386 0057 20       		.byte	32
 3387 0058 1F       		.byte	31
 3388 0059 20       		.byte	32
 3389 005a 44       		.byte	68
 3390 005b 44       		.byte	68
 3391 005c 44       		.byte	68
 3392 005d 44       		.byte	68
 3393 005e 44       		.byte	68
 3394 005f 7F       		.byte	127
 3395 0060 44       		.byte	68
 3396 0061 44       		.byte	68
ARM GAS  /tmp/ccqvBbOy.s 			page 69


 3397 0062 46       		.byte	70
 3398 0063 64       		.byte	100
 3399 0064 20       		.byte	32
 3400 0065 00       		.byte	0
 3401 0066 BDD3     		.ascii	"\275\323"
 3402 0068 10       		.byte	16
 3403 0069 10       		.byte	16
 3404 006a 10       		.byte	16
 3405 006b FF       		.byte	-1
 3406 006c 90       		.byte	-112
 3407 006d 54       		.byte	84
 3408 006e 44       		.byte	68
 3409 006f 54       		.byte	84
 3410 0070 E5       		.byte	-27
 3411 0071 46       		.byte	70
 3412 0072 64       		.byte	100
 3413 0073 54       		.byte	84
 3414 0074 46       		.byte	70
 3415 0075 44       		.byte	68
 3416 0076 00       		.byte	0
 3417 0077 00       		.byte	0
 3418 0078 02       		.byte	2
 3419 0079 42       		.byte	66
 3420 007a 81       		.byte	-127
 3421 007b 7F       		.byte	127
 3422 007c 02       		.byte	2
 3423 007d 02       		.byte	2
 3424 007e 82       		.byte	-126
 3425 007f 8A       		.byte	-118
 3426 0080 57       		.byte	87
 3427 0081 22       		.byte	34
 3428 0082 32       		.byte	50
 3429 0083 4E       		.byte	78
 3430 0084 C2       		.byte	-62
 3431 0085 03       		.byte	3
 3432 0086 02       		.byte	2
 3433 0087 00       		.byte	0
 3434 0088 B3C9     		.ascii	"\263\311"
 3435 008a 00       		.byte	0
 3436 008b 00       		.byte	0
 3437 008c F8       		.byte	-8
 3438 008d 88       		.byte	-120
 3439 008e 88       		.byte	-120
 3440 008f 88       		.byte	-120
 3441 0090 88       		.byte	-120
 3442 0091 08       		.byte	8
 3443 0092 7F       		.byte	127
 3444 0093 88       		.byte	-120
 3445 0094 0A       		.byte	10
 3446 0095 0C       		.byte	12
 3447 0096 08       		.byte	8
 3448 0097 C8       		.byte	-56
 3449 0098 00       		.byte	0
 3450 0099 00       		.byte	0
 3451 009a 40       		.byte	64
 3452 009b 20       		.byte	32
 3453 009c 1F       		.byte	31
ARM GAS  /tmp/ccqvBbOy.s 			page 70


 3454 009d 00       		.byte	0
 3455 009e 08       		.byte	8
 3456 009f 10       		.byte	16
 3457 00a0 0F       		.byte	15
 3458 00a1 40       		.byte	64
 3459 00a2 20       		.byte	32
 3460 00a3 13       		.byte	19
 3461 00a4 1C       		.byte	28
 3462 00a5 24       		.byte	36
 3463 00a6 43       		.byte	67
 3464 00a7 80       		.byte	-128
 3465 00a8 F0       		.byte	-16
 3466 00a9 00       		.byte	0
 3467 00aa B9A6     		.ascii	"\271\246"
 3468 00ac 08       		.byte	8
 3469 00ad 08       		.byte	8
 3470 00ae 08       		.byte	8
 3471 00af F8       		.byte	-8
 3472 00b0 0C       		.byte	12
 3473 00b1 28       		.byte	40
 3474 00b2 20       		.byte	32
 3475 00b3 20       		.byte	32
 3476 00b4 FF       		.byte	-1
 3477 00b5 20       		.byte	32
 3478 00b6 20       		.byte	32
 3479 00b7 20       		.byte	32
 3480 00b8 20       		.byte	32
 3481 00b9 F0       		.byte	-16
 3482 00ba 20       		.byte	32
 3483 00bb 00       		.byte	0
 3484 00bc 08       		.byte	8
 3485 00bd 18       		.byte	24
 3486 00be 08       		.byte	8
 3487 00bf 0F       		.byte	15
 3488 00c0 84       		.byte	-124
 3489 00c1 44       		.byte	68
 3490 00c2 20       		.byte	32
 3491 00c3 1C       		.byte	28
 3492 00c4 03       		.byte	3
 3493 00c5 20       		.byte	32
 3494 00c6 40       		.byte	64
 3495 00c7 80       		.byte	-128
 3496 00c8 40       		.byte	64
 3497 00c9 3F       		.byte	63
 3498 00ca 00       		.byte	0
 3499 00cb 00       		.byte	0
 3500 00cc CAA7     		.ascii	"\312\247"
 3501 00ce 00       		.byte	0
 3502 00cf 40       		.byte	64
 3503 00d0 20       		.byte	32
 3504 00d1 1E       		.byte	30
 3505 00d2 10       		.byte	16
 3506 00d3 10       		.byte	16
 3507 00d4 10       		.byte	16
 3508 00d5 FF       		.byte	-1
 3509 00d6 10       		.byte	16
 3510 00d7 10       		.byte	16
ARM GAS  /tmp/ccqvBbOy.s 			page 71


 3511 00d8 10       		.byte	16
 3512 00d9 18       		.byte	24
 3513 00da 10       		.byte	16
 3514 00db 80       		.byte	-128
 3515 00dc 00       		.byte	0
 3516 00dd 00       		.byte	0
 3517 00de 01       		.byte	1
 3518 00df 81       		.byte	-127
 3519 00e0 81       		.byte	-127
 3520 00e1 41       		.byte	65
 3521 00e2 21       		.byte	33
 3522 00e3 11       		.byte	17
 3523 00e4 0D       		.byte	13
 3524 00e5 03       		.byte	3
 3525 00e6 0D       		.byte	13
 3526 00e7 11       		.byte	17
 3527 00e8 21       		.byte	33
 3528 00e9 21       		.byte	33
 3529 00ea 41       		.byte	65
 3530 00eb C1       		.byte	-63
 3531 00ec 41       		.byte	65
 3532 00ed 00       		.byte	0
 3533 00ee B0DC     		.ascii	"\260\334"
 3534 00f0 00       		.byte	0
 3535 00f1 FE       		.byte	-2
 3536 00f2 02       		.byte	2
 3537 00f3 FA       		.byte	-6
 3538 00f4 02       		.byte	2
 3539 00f5 FF       		.byte	-1
 3540 00f6 02       		.byte	2
 3541 00f7 20       		.byte	32
 3542 00f8 10       		.byte	16
 3543 00f9 CF       		.byte	-49
 3544 00fa 08       		.byte	8
 3545 00fb 08       		.byte	8
 3546 00fc F8       		.byte	-8
 3547 00fd 0C       		.byte	12
 3548 00fe 08       		.byte	8
 3549 00ff 00       		.byte	0
 3550 0100 80       		.byte	-128
 3551 0101 47       		.byte	71
 3552 0102 30       		.byte	48
 3553 0103 0F       		.byte	15
 3554 0104 10       		.byte	16
 3555 0105 67       		.byte	103
 3556 0106 80       		.byte	-128
 3557 0107 40       		.byte	64
 3558 0108 20       		.byte	32
 3559 0109 17       		.byte	23
 3560 010a 08       		.byte	8
 3561 010b 16       		.byte	22
 3562 010c 21       		.byte	33
 3563 010d 60       		.byte	96
 3564 010e 20       		.byte	32
 3565 010f 00       		.byte	0
 3566              		.section	.text.OLED_ShowCHinese,"ax",%progbits
 3567              		.align	1
ARM GAS  /tmp/ccqvBbOy.s 			page 72


 3568              		.global	OLED_ShowCHinese
 3569              		.syntax unified
 3570              		.thumb
 3571              		.thumb_func
 3572              		.fpu softvfp
 3574              	OLED_ShowCHinese:
 3575              	.LFB81:
 484:Src/oled.c    **** typedef struct gbx16         // 
 485:Src/oled.c    **** {
 486:Src/oled.c    **** 	char Index[2];
 487:Src/oled.c    **** 	char Msk[32];
 488:Src/oled.c    **** }GBX16;
 489:Src/oled.c    **** const GBX16 Hzk[]={
 490:Src/oled.c    **** 
 491:Src/oled.c    ****   //8
 492:Src/oled.c    **** "", 0x00,0x02,0x02,0xC2,0x02,0x02,0x02,0xFE,
 493:Src/oled.c    ****       0x82,0x82,0x82,0xC2,0x83,0x02,0x00,0x00,
 494:Src/oled.c    ****       0x40,0x40,0x40,0x7F,0x40,0x40,0x40,0x7F,
 495:Src/oled.c    ****       0x40,0x40,0x40,0x40,0x40,0x60,0x40,0x00,
 496:Src/oled.c    **** 
 497:Src/oled.c    **** "", 0x08,0x08,0x08,0x08,0xC8,0x38,0x0F,0x08,
 498:Src/oled.c    ****       0x08,0xE8,0x08,0x88,0x08,0x0C,0x08,0x00,
 499:Src/oled.c    ****       0x08,0x04,0x02,0xFF,0x00,0x40,0x41,0x41,
 500:Src/oled.c    ****       0x41,0x7F,0x41,0x41,0x41,0x60,0x40,0x00,
 501:Src/oled.c    **** 
 502:Src/oled.c    **** "", 0x40,0x42,0xCC,0x00,0x04,0x44,0x64,0x5C,
 503:Src/oled.c    ****       0x47,0xF4,0x44,0x64,0x46,0x04,0x00,0x00,
 504:Src/oled.c    ****       0x40,0x20,0x1F,0x20,0x44,0x44,0x44,0x44,
 505:Src/oled.c    ****       0x44,0x7F,0x44,0x44,0x46,0x64,0x20,0x00,
 506:Src/oled.c    **** 
 507:Src/oled.c    **** "", 0x10,0x10,0x10,0xFF,0x90,0x54,0x44,0x54,
 508:Src/oled.c    ****       0xE5,0x46,0x64,0x54,0x46,0x44,0x00,0x00,
 509:Src/oled.c    ****       0x02,0x42,0x81,0x7F,0x02,0x02,0x82,0x8A,
 510:Src/oled.c    ****       0x57,0x22,0x32,0x4E,0xC2,0x03,0x02,0x00,
 511:Src/oled.c    **** 
 512:Src/oled.c    **** "", 0x00,0x00,0xF8,0x88,0x88,0x88,0x88,0x08,
 513:Src/oled.c    ****       0x7F,0x88,0x0A,0x0C,0x08,0xC8,0x00,0x00,
 514:Src/oled.c    ****       0x40,0x20,0x1F,0x00,0x08,0x10,0x0F,0x40,
 515:Src/oled.c    ****       0x20,0x13,0x1C,0x24,0x43,0x80,0xF0,0x00,
 516:Src/oled.c    **** 
 517:Src/oled.c    **** "", 0x08,0x08,0x08,0xF8,0x0C,0x28,0x20,0x20,
 518:Src/oled.c    ****       0xFF,0x20,0x20,0x20,0x20,0xF0,0x20,0x00,
 519:Src/oled.c    ****       0x08,0x18,0x08,0x0F,0x84,0x44,0x20,0x1C,
 520:Src/oled.c    ****       0x03,0x20,0x40,0x80,0x40,0x3F,0x00,0x00,
 521:Src/oled.c    **** 
 522:Src/oled.c    **** "", 0x00,0x40,0x20,0x1E,0x10,0x10,0x10,0xFF,
 523:Src/oled.c    ****       0x10,0x10,0x10,0x18,0x10,0x80,0x00,0x00,
 524:Src/oled.c    ****       0x01,0x81,0x81,0x41,0x21,0x11,0x0D,0x03,
 525:Src/oled.c    ****       0x0D,0x11,0x21,0x21,0x41,0xC1,0x41,0x00,
 526:Src/oled.c    **** 
 527:Src/oled.c    **** "", 0x00,0xFE,0x02,0xFA,0x02,0xFF,0x02,0x20,
 528:Src/oled.c    ****       0x10,0xCF,0x08,0x08,0xF8,0x0C,0x08,0x00,
 529:Src/oled.c    ****       0x80,0x47,0x30,0x0F,0x10,0x67,0x80,0x40,
 530:Src/oled.c    ****       0x20,0x17,0x08,0x16,0x21,0x60,0x20,0x00
 531:Src/oled.c    **** };
 532:Src/oled.c    **** 
 533:Src/oled.c    **** 
ARM GAS  /tmp/ccqvBbOy.s 			page 73


 534:Src/oled.c    **** 
 535:Src/oled.c    **** 
 536:Src/oled.c    **** void OLED_ShowCHinese(unsigned char  x,unsigned char  y,unsigned char *chn,unsigned char revshow)
 537:Src/oled.c    **** {      			    
 3576              		.loc 1 537 0
 3577              		.cfi_startproc
 3578              		@ args = 0, pretend = 0, frame = 16
 3579              		@ frame_needed = 1, uses_anonymous_args = 0
 3580 0000 80B5     		push	{r7, lr}
 3581              	.LCFI66:
 3582              		.cfi_def_cfa_offset 8
 3583              		.cfi_offset 7, -8
 3584              		.cfi_offset 14, -4
 3585 0002 84B0     		sub	sp, sp, #16
 3586              	.LCFI67:
 3587              		.cfi_def_cfa_offset 24
 3588 0004 00AF     		add	r7, sp, #0
 3589              	.LCFI68:
 3590              		.cfi_def_cfa_register 7
 3591 0006 3A60     		str	r2, [r7]
 3592 0008 1A46     		mov	r2, r3
 3593 000a 0346     		mov	r3, r0
 3594 000c FB71     		strb	r3, [r7, #7]
 3595 000e 0B46     		mov	r3, r1
 3596 0010 BB71     		strb	r3, [r7, #6]
 3597 0012 1346     		mov	r3, r2
 3598 0014 7B71     		strb	r3, [r7, #5]
 538:Src/oled.c    ****   unsigned char t,adder=0;
 3599              		.loc 1 538 0
 3600 0016 0023     		movs	r3, #0
 3601 0018 BB73     		strb	r3, [r7, #14]
 539:Src/oled.c    ****   if(revshow==0)
 3602              		.loc 1 539 0
 3603 001a 7B79     		ldrb	r3, [r7, #5]	@ zero_extendqisi2
 3604 001c 002B     		cmp	r3, #0
 3605 001e 34D1     		bne	.L61
 540:Src/oled.c    ****   {
 541:Src/oled.c    ****     OLED_Set_Pos(x,y);	
 3606              		.loc 1 541 0
 3607 0020 BA79     		ldrb	r2, [r7, #6]	@ zero_extendqisi2
 3608 0022 FB79     		ldrb	r3, [r7, #7]	@ zero_extendqisi2
 3609 0024 1146     		mov	r1, r2
 3610 0026 1846     		mov	r0, r3
 3611 0028 FFF7FEFF 		bl	OLED_Set_Pos
 542:Src/oled.c    ****     for(t=0;t<16;t++)
 3612              		.loc 1 542 0
 3613 002c 0023     		movs	r3, #0
 3614 002e FB73     		strb	r3, [r7, #15]
 3615 0030 0CE0     		b	.L62
 3616              	.L63:
 543:Src/oled.c    ****     {
 544:Src/oled.c    ****       WriteDat(*chn++);
 3617              		.loc 1 544 0 discriminator 3
 3618 0032 3B68     		ldr	r3, [r7]
 3619 0034 5A1C     		adds	r2, r3, #1
 3620 0036 3A60     		str	r2, [r7]
 3621 0038 1B78     		ldrb	r3, [r3]	@ zero_extendqisi2
ARM GAS  /tmp/ccqvBbOy.s 			page 74


 3622 003a 1846     		mov	r0, r3
 3623 003c FFF7FEFF 		bl	WriteDat
 545:Src/oled.c    ****       adder+=1;
 3624              		.loc 1 545 0 discriminator 3
 3625 0040 BB7B     		ldrb	r3, [r7, #14]
 3626 0042 0133     		adds	r3, r3, #1
 3627 0044 BB73     		strb	r3, [r7, #14]
 542:Src/oled.c    ****     for(t=0;t<16;t++)
 3628              		.loc 1 542 0 discriminator 3
 3629 0046 FB7B     		ldrb	r3, [r7, #15]	@ zero_extendqisi2
 3630 0048 0133     		adds	r3, r3, #1
 3631 004a FB73     		strb	r3, [r7, #15]
 3632              	.L62:
 542:Src/oled.c    ****     for(t=0;t<16;t++)
 3633              		.loc 1 542 0 is_stmt 0 discriminator 1
 3634 004c FB7B     		ldrb	r3, [r7, #15]	@ zero_extendqisi2
 3635 004e 0F2B     		cmp	r3, #15
 3636 0050 EFD9     		bls	.L63
 546:Src/oled.c    ****       
 547:Src/oled.c    ****     }	
 548:Src/oled.c    ****     OLED_Set_Pos(x,y+1);	
 3637              		.loc 1 548 0 is_stmt 1
 3638 0052 BB79     		ldrb	r3, [r7, #6]
 3639 0054 0133     		adds	r3, r3, #1
 3640 0056 DAB2     		uxtb	r2, r3
 3641 0058 FB79     		ldrb	r3, [r7, #7]	@ zero_extendqisi2
 3642 005a 1146     		mov	r1, r2
 3643 005c 1846     		mov	r0, r3
 3644 005e FFF7FEFF 		bl	OLED_Set_Pos
 549:Src/oled.c    ****     for(t=0;t<16;t++)
 3645              		.loc 1 549 0
 3646 0062 0023     		movs	r3, #0
 3647 0064 FB73     		strb	r3, [r7, #15]
 3648 0066 0CE0     		b	.L64
 3649              	.L65:
 550:Src/oled.c    ****     {	
 551:Src/oled.c    ****       WriteDat(*chn++);
 3650              		.loc 1 551 0 discriminator 3
 3651 0068 3B68     		ldr	r3, [r7]
 3652 006a 5A1C     		adds	r2, r3, #1
 3653 006c 3A60     		str	r2, [r7]
 3654 006e 1B78     		ldrb	r3, [r3]	@ zero_extendqisi2
 3655 0070 1846     		mov	r0, r3
 3656 0072 FFF7FEFF 		bl	WriteDat
 552:Src/oled.c    ****       adder+=1;
 3657              		.loc 1 552 0 discriminator 3
 3658 0076 BB7B     		ldrb	r3, [r7, #14]
 3659 0078 0133     		adds	r3, r3, #1
 3660 007a BB73     		strb	r3, [r7, #14]
 549:Src/oled.c    ****     for(t=0;t<16;t++)
 3661              		.loc 1 549 0 discriminator 3
 3662 007c FB7B     		ldrb	r3, [r7, #15]	@ zero_extendqisi2
 3663 007e 0133     		adds	r3, r3, #1
 3664 0080 FB73     		strb	r3, [r7, #15]
 3665              	.L64:
 549:Src/oled.c    ****     for(t=0;t<16;t++)
 3666              		.loc 1 549 0 is_stmt 0 discriminator 1
ARM GAS  /tmp/ccqvBbOy.s 			page 75


 3667 0082 FB7B     		ldrb	r3, [r7, #15]	@ zero_extendqisi2
 3668 0084 0F2B     		cmp	r3, #15
 3669 0086 EFD9     		bls	.L65
 553:Src/oled.c    ****       
 554:Src/oled.c    ****     }
 555:Src/oled.c    ****   }else
 556:Src/oled.c    ****   {
 557:Src/oled.c    ****     OLED_Set_Pos(x,y);	
 558:Src/oled.c    ****     for(t=0;t<16;t++)
 559:Src/oled.c    ****     {
 560:Src/oled.c    ****       WriteDat(~(*chn++));
 561:Src/oled.c    ****       adder+=1;
 562:Src/oled.c    ****       
 563:Src/oled.c    ****     }	
 564:Src/oled.c    ****     OLED_Set_Pos(x,y+1);	
 565:Src/oled.c    ****     for(t=0;t<16;t++)
 566:Src/oled.c    ****     {	
 567:Src/oled.c    ****       WriteDat(~(*chn++));
 568:Src/oled.c    ****       adder+=1;
 569:Src/oled.c    ****       
 570:Src/oled.c    ****     }
 571:Src/oled.c    ****   }				
 572:Src/oled.c    **** }
 3670              		.loc 1 572 0 is_stmt 1
 3671 0088 37E0     		b	.L71
 3672              	.L61:
 557:Src/oled.c    ****     for(t=0;t<16;t++)
 3673              		.loc 1 557 0
 3674 008a BA79     		ldrb	r2, [r7, #6]	@ zero_extendqisi2
 3675 008c FB79     		ldrb	r3, [r7, #7]	@ zero_extendqisi2
 3676 008e 1146     		mov	r1, r2
 3677 0090 1846     		mov	r0, r3
 3678 0092 FFF7FEFF 		bl	OLED_Set_Pos
 558:Src/oled.c    ****     {
 3679              		.loc 1 558 0
 3680 0096 0023     		movs	r3, #0
 3681 0098 FB73     		strb	r3, [r7, #15]
 3682 009a 0EE0     		b	.L67
 3683              	.L68:
 560:Src/oled.c    ****       adder+=1;
 3684              		.loc 1 560 0 discriminator 3
 3685 009c 3B68     		ldr	r3, [r7]
 3686 009e 5A1C     		adds	r2, r3, #1
 3687 00a0 3A60     		str	r2, [r7]
 3688 00a2 1B78     		ldrb	r3, [r3]	@ zero_extendqisi2
 3689 00a4 DB43     		mvns	r3, r3
 3690 00a6 DBB2     		uxtb	r3, r3
 3691 00a8 1846     		mov	r0, r3
 3692 00aa FFF7FEFF 		bl	WriteDat
 561:Src/oled.c    ****       
 3693              		.loc 1 561 0 discriminator 3
 3694 00ae BB7B     		ldrb	r3, [r7, #14]
 3695 00b0 0133     		adds	r3, r3, #1
 3696 00b2 BB73     		strb	r3, [r7, #14]
 558:Src/oled.c    ****     {
 3697              		.loc 1 558 0 discriminator 3
 3698 00b4 FB7B     		ldrb	r3, [r7, #15]	@ zero_extendqisi2
ARM GAS  /tmp/ccqvBbOy.s 			page 76


 3699 00b6 0133     		adds	r3, r3, #1
 3700 00b8 FB73     		strb	r3, [r7, #15]
 3701              	.L67:
 558:Src/oled.c    ****     {
 3702              		.loc 1 558 0 is_stmt 0 discriminator 1
 3703 00ba FB7B     		ldrb	r3, [r7, #15]	@ zero_extendqisi2
 3704 00bc 0F2B     		cmp	r3, #15
 3705 00be EDD9     		bls	.L68
 564:Src/oled.c    ****     for(t=0;t<16;t++)
 3706              		.loc 1 564 0 is_stmt 1
 3707 00c0 BB79     		ldrb	r3, [r7, #6]
 3708 00c2 0133     		adds	r3, r3, #1
 3709 00c4 DAB2     		uxtb	r2, r3
 3710 00c6 FB79     		ldrb	r3, [r7, #7]	@ zero_extendqisi2
 3711 00c8 1146     		mov	r1, r2
 3712 00ca 1846     		mov	r0, r3
 3713 00cc FFF7FEFF 		bl	OLED_Set_Pos
 565:Src/oled.c    ****     {	
 3714              		.loc 1 565 0
 3715 00d0 0023     		movs	r3, #0
 3716 00d2 FB73     		strb	r3, [r7, #15]
 3717 00d4 0EE0     		b	.L69
 3718              	.L70:
 567:Src/oled.c    ****       adder+=1;
 3719              		.loc 1 567 0 discriminator 3
 3720 00d6 3B68     		ldr	r3, [r7]
 3721 00d8 5A1C     		adds	r2, r3, #1
 3722 00da 3A60     		str	r2, [r7]
 3723 00dc 1B78     		ldrb	r3, [r3]	@ zero_extendqisi2
 3724 00de DB43     		mvns	r3, r3
 3725 00e0 DBB2     		uxtb	r3, r3
 3726 00e2 1846     		mov	r0, r3
 3727 00e4 FFF7FEFF 		bl	WriteDat
 568:Src/oled.c    ****       
 3728              		.loc 1 568 0 discriminator 3
 3729 00e8 BB7B     		ldrb	r3, [r7, #14]
 3730 00ea 0133     		adds	r3, r3, #1
 3731 00ec BB73     		strb	r3, [r7, #14]
 565:Src/oled.c    ****     {	
 3732              		.loc 1 565 0 discriminator 3
 3733 00ee FB7B     		ldrb	r3, [r7, #15]	@ zero_extendqisi2
 3734 00f0 0133     		adds	r3, r3, #1
 3735 00f2 FB73     		strb	r3, [r7, #15]
 3736              	.L69:
 565:Src/oled.c    ****     {	
 3737              		.loc 1 565 0 is_stmt 0 discriminator 1
 3738 00f4 FB7B     		ldrb	r3, [r7, #15]	@ zero_extendqisi2
 3739 00f6 0F2B     		cmp	r3, #15
 3740 00f8 EDD9     		bls	.L70
 3741              	.L71:
 3742              		.loc 1 572 0 is_stmt 1
 3743 00fa 00BF     		nop
 3744 00fc 1037     		adds	r7, r7, #16
 3745              	.LCFI69:
 3746              		.cfi_def_cfa_offset 8
 3747 00fe BD46     		mov	sp, r7
 3748              	.LCFI70:
ARM GAS  /tmp/ccqvBbOy.s 			page 77


 3749              		.cfi_def_cfa_register 13
 3750              		@ sp needed
 3751 0100 80BD     		pop	{r7, pc}
 3752              		.cfi_endproc
 3753              	.LFE81:
 3755              		.section	.text.PrintHZ,"ax",%progbits
 3756              		.align	1
 3757              		.global	PrintHZ
 3758              		.syntax unified
 3759              		.thumb
 3760              		.thumb_func
 3761              		.fpu softvfp
 3763              	PrintHZ:
 3764              	.LFB82:
 573:Src/oled.c    **** int PrintHZ(unsigned short  ucY, unsigned short ucX, const unsigned char *ptr, unsigned short ucRev
 574:Src/oled.c    **** {
 3765              		.loc 1 574 0
 3766              		.cfi_startproc
 3767              		@ args = 8, pretend = 0, frame = 32
 3768              		@ frame_needed = 1, uses_anonymous_args = 0
 3769 0000 80B5     		push	{r7, lr}
 3770              	.LCFI71:
 3771              		.cfi_def_cfa_offset 8
 3772              		.cfi_offset 7, -8
 3773              		.cfi_offset 14, -4
 3774 0002 88B0     		sub	sp, sp, #32
 3775              	.LCFI72:
 3776              		.cfi_def_cfa_offset 40
 3777 0004 00AF     		add	r7, sp, #0
 3778              	.LCFI73:
 3779              		.cfi_def_cfa_register 7
 3780 0006 BA60     		str	r2, [r7, #8]
 3781 0008 1A46     		mov	r2, r3
 3782 000a 0346     		mov	r3, r0	@ movhi
 3783 000c FB81     		strh	r3, [r7, #14]	@ movhi
 3784 000e 0B46     		mov	r3, r1	@ movhi
 3785 0010 BB81     		strh	r3, [r7, #12]	@ movhi
 3786 0012 1346     		mov	r3, r2	@ movhi
 3787 0014 FB80     		strh	r3, [r7, #6]	@ movhi
 575:Src/oled.c    ****   unsigned short Len=0;
 3788              		.loc 1 575 0
 3789 0016 0023     		movs	r3, #0
 3790 0018 FB83     		strh	r3, [r7, #30]	@ movhi
 576:Src/oled.c    ****   unsigned short i=0;
 3791              		.loc 1 576 0
 3792 001a 0023     		movs	r3, #0
 3793 001c BB83     		strh	r3, [r7, #28]	@ movhi
 577:Src/oled.c    ****   unsigned short j=0;
 3794              		.loc 1 577 0
 3795 001e 0023     		movs	r3, #0
 3796 0020 7B83     		strh	r3, [r7, #26]	@ movhi
 578:Src/oled.c    ****   unsigned short k=sizeof(Hzk)/sizeof(Hzk[0]);
 3797              		.loc 1 578 0
 3798 0022 0823     		movs	r3, #8
 3799 0024 FB82     		strh	r3, [r7, #22]	@ movhi
 579:Src/oled.c    ****   unsigned char c1,c2;
 580:Src/oled.c    ****   unsigned char revyn;
ARM GAS  /tmp/ccqvBbOy.s 			page 78


 581:Src/oled.c    ****   unsigned char revynchar;
 582:Src/oled.c    ****   
 583:Src/oled.c    ****   while (ptr[Len]!=0) 
 3800              		.loc 1 583 0
 3801 0026 02E0     		b	.L73
 3802              	.L74:
 584:Src/oled.c    ****   {
 585:Src/oled.c    ****     Len++;
 3803              		.loc 1 585 0
 3804 0028 FB8B     		ldrh	r3, [r7, #30]
 3805 002a 0133     		adds	r3, r3, #1
 3806 002c FB83     		strh	r3, [r7, #30]	@ movhi
 3807              	.L73:
 583:Src/oled.c    ****   {
 3808              		.loc 1 583 0
 3809 002e FB8B     		ldrh	r3, [r7, #30]
 3810 0030 BA68     		ldr	r2, [r7, #8]
 3811 0032 1344     		add	r3, r3, r2
 3812 0034 1B78     		ldrb	r3, [r3]	@ zero_extendqisi2
 3813 0036 002B     		cmp	r3, #0
 3814 0038 F6D1     		bne	.L74
 586:Src/oled.c    ****   }	
 587:Src/oled.c    ****   while(i<Len)
 3815              		.loc 1 587 0
 3816 003a C6E0     		b	.L75
 3817              	.L91:
 588:Src/oled.c    ****   {
 589:Src/oled.c    ****     c1 = ptr[i];
 3818              		.loc 1 589 0
 3819 003c BB8B     		ldrh	r3, [r7, #28]
 3820 003e BA68     		ldr	r2, [r7, #8]
 3821 0040 1344     		add	r3, r3, r2
 3822 0042 1B78     		ldrb	r3, [r3]
 3823 0044 7B75     		strb	r3, [r7, #21]
 590:Src/oled.c    ****     c2 = ptr[i+1];
 3824              		.loc 1 590 0
 3825 0046 BB8B     		ldrh	r3, [r7, #28]
 3826 0048 0133     		adds	r3, r3, #1
 3827 004a BA68     		ldr	r2, [r7, #8]
 3828 004c 1344     		add	r3, r3, r2
 3829 004e 1B78     		ldrb	r3, [r3]
 3830 0050 3B75     		strb	r3, [r7, #20]
 591:Src/oled.c    ****     
 592:Src/oled.c    ****     
 593:Src/oled.c    ****     if(c1>128)
 3831              		.loc 1 593 0
 3832 0052 7B7D     		ldrb	r3, [r7, #21]	@ zero_extendqisi2
 3833 0054 802B     		cmp	r3, #128
 3834 0056 40F28880 		bls	.L76
 594:Src/oled.c    ****     {
 595:Src/oled.c    ****       for(j=0;j <k;j++)  	
 3835              		.loc 1 595 0
 3836 005a 0023     		movs	r3, #0
 3837 005c 7B83     		strh	r3, [r7, #26]	@ movhi
 3838 005e 19E0     		b	.L77
 3839              	.L80:
 596:Src/oled.c    ****       {
ARM GAS  /tmp/ccqvBbOy.s 			page 79


 597:Src/oled.c    **** 	if(c1 == Hzk[j].Index[0] && c2 == Hzk[j].Index[1])
 3840              		.loc 1 597 0
 3841 0060 7A8B     		ldrh	r2, [r7, #26]
 3842 0062 5F49     		ldr	r1, .L94
 3843 0064 1346     		mov	r3, r2
 3844 0066 1B01     		lsls	r3, r3, #4
 3845 0068 1344     		add	r3, r3, r2
 3846 006a 5B00     		lsls	r3, r3, #1
 3847 006c 0B44     		add	r3, r3, r1
 3848 006e 1B78     		ldrb	r3, [r3]	@ zero_extendqisi2
 3849 0070 7A7D     		ldrb	r2, [r7, #21]	@ zero_extendqisi2
 3850 0072 9A42     		cmp	r2, r3
 3851 0074 0BD1     		bne	.L78
 3852              		.loc 1 597 0 is_stmt 0 discriminator 1
 3853 0076 7A8B     		ldrh	r2, [r7, #26]
 3854 0078 5949     		ldr	r1, .L94
 3855 007a 1346     		mov	r3, r2
 3856 007c 1B01     		lsls	r3, r3, #4
 3857 007e 1344     		add	r3, r3, r2
 3858 0080 5B00     		lsls	r3, r3, #1
 3859 0082 0B44     		add	r3, r3, r1
 3860 0084 0133     		adds	r3, r3, #1
 3861 0086 1B78     		ldrb	r3, [r3]	@ zero_extendqisi2
 3862 0088 3A7D     		ldrb	r2, [r7, #20]	@ zero_extendqisi2
 3863 008a 9A42     		cmp	r2, r3
 3864 008c 07D0     		beq	.L93
 3865              	.L78:
 595:Src/oled.c    ****       {
 3866              		.loc 1 595 0 is_stmt 1 discriminator 2
 3867 008e 7B8B     		ldrh	r3, [r7, #26]
 3868 0090 0133     		adds	r3, r3, #1
 3869 0092 7B83     		strh	r3, [r7, #26]	@ movhi
 3870              	.L77:
 595:Src/oled.c    ****       {
 3871              		.loc 1 595 0 is_stmt 0 discriminator 1
 3872 0094 7A8B     		ldrh	r2, [r7, #26]
 3873 0096 FB8A     		ldrh	r3, [r7, #22]
 3874 0098 9A42     		cmp	r2, r3
 3875 009a E1D3     		bcc	.L80
 3876 009c 00E0     		b	.L79
 3877              	.L93:
 598:Src/oled.c    **** 	{
 599:Src/oled.c    ****           break;
 3878              		.loc 1 599 0 is_stmt 1
 3879 009e 00BF     		nop
 3880              	.L79:
 600:Src/oled.c    **** 	}
 601:Src/oled.c    ****       }
 602:Src/oled.c    ****       
 603:Src/oled.c    ****       if(ucDispMode==1&&(i+ucX)>=ucRevX&&(i+ucX)<ucRevX+2*ucRevLen)
 3881              		.loc 1 603 0
 3882 00a0 97F82830 		ldrb	r3, [r7, #40]	@ zero_extendqisi2
 3883 00a4 012B     		cmp	r3, #1
 3884 00a6 11D1     		bne	.L81
 3885              		.loc 1 603 0 is_stmt 0 discriminator 1
 3886 00a8 BA8B     		ldrh	r2, [r7, #28]
 3887 00aa BB89     		ldrh	r3, [r7, #12]
ARM GAS  /tmp/ccqvBbOy.s 			page 80


 3888 00ac 1A44     		add	r2, r2, r3
 3889 00ae FB88     		ldrh	r3, [r7, #6]
 3890 00b0 9A42     		cmp	r2, r3
 3891 00b2 0BDB     		blt	.L81
 3892              		.loc 1 603 0 discriminator 2
 3893 00b4 BA8B     		ldrh	r2, [r7, #28]
 3894 00b6 BB89     		ldrh	r3, [r7, #12]
 3895 00b8 1A44     		add	r2, r2, r3
 3896 00ba F988     		ldrh	r1, [r7, #6]
 3897 00bc BB8D     		ldrh	r3, [r7, #44]
 3898 00be 5B00     		lsls	r3, r3, #1
 3899 00c0 0B44     		add	r3, r3, r1
 3900 00c2 9A42     		cmp	r2, r3
 3901 00c4 02DA     		bge	.L81
 604:Src/oled.c    ****       {
 605:Src/oled.c    ****         revyn=1;
 3902              		.loc 1 605 0 is_stmt 1
 3903 00c6 0123     		movs	r3, #1
 3904 00c8 7B76     		strb	r3, [r7, #25]
 3905 00ca 01E0     		b	.L82
 3906              	.L81:
 606:Src/oled.c    ****       }else
 607:Src/oled.c    ****       {
 608:Src/oled.c    ****         revyn=0;
 3907              		.loc 1 608 0
 3908 00cc 0023     		movs	r3, #0
 3909 00ce 7B76     		strb	r3, [r7, #25]
 3910              	.L82:
 609:Src/oled.c    ****       }
 610:Src/oled.c    ****       
 611:Src/oled.c    ****       if(j==k&&c1!=Hzk[j].Index[0] || c2 != Hzk[j].Index[1])
 3911              		.loc 1 611 0
 3912 00d0 7A8B     		ldrh	r2, [r7, #26]
 3913 00d2 FB8A     		ldrh	r3, [r7, #22]
 3914 00d4 9A42     		cmp	r2, r3
 3915 00d6 0AD1     		bne	.L83
 3916              		.loc 1 611 0 is_stmt 0 discriminator 1
 3917 00d8 7A8B     		ldrh	r2, [r7, #26]
 3918 00da 4149     		ldr	r1, .L94
 3919 00dc 1346     		mov	r3, r2
 3920 00de 1B01     		lsls	r3, r3, #4
 3921 00e0 1344     		add	r3, r3, r2
 3922 00e2 5B00     		lsls	r3, r3, #1
 3923 00e4 0B44     		add	r3, r3, r1
 3924 00e6 1B78     		ldrb	r3, [r3]	@ zero_extendqisi2
 3925 00e8 7A7D     		ldrb	r2, [r7, #21]	@ zero_extendqisi2
 3926 00ea 9A42     		cmp	r2, r3
 3927 00ec 0BD1     		bne	.L84
 3928              	.L83:
 3929              		.loc 1 611 0 discriminator 3
 3930 00ee 7A8B     		ldrh	r2, [r7, #26]
 3931 00f0 3B49     		ldr	r1, .L94
 3932 00f2 1346     		mov	r3, r2
 3933 00f4 1B01     		lsls	r3, r3, #4
 3934 00f6 1344     		add	r3, r3, r2
 3935 00f8 5B00     		lsls	r3, r3, #1
 3936 00fa 0B44     		add	r3, r3, r1
ARM GAS  /tmp/ccqvBbOy.s 			page 81


 3937 00fc 0133     		adds	r3, r3, #1
 3938 00fe 1B78     		ldrb	r3, [r3]	@ zero_extendqisi2
 3939 0100 3A7D     		ldrb	r2, [r7, #20]	@ zero_extendqisi2
 3940 0102 9A42     		cmp	r2, r3
 3941 0104 13D0     		beq	.L85
 3942              	.L84:
 612:Src/oled.c    ****       {
 613:Src/oled.c    ****         
 614:Src/oled.c    ****         if((i+ucX)<32)
 3943              		.loc 1 614 0 is_stmt 1
 3944 0106 BA8B     		ldrh	r2, [r7, #28]
 3945 0108 BB89     		ldrh	r3, [r7, #12]
 3946 010a 1344     		add	r3, r3, r2
 3947 010c 1F2B     		cmp	r3, #31
 3948 010e 28DC     		bgt	.L87
 615:Src/oled.c    ****         {
 616:Src/oled.c    ****           OLED_ShowCHinese (i*8+8*ucX,2*ucY,(unsigned char *)&Hzk[0].Msk[0],revyn); //??2?
 3949              		.loc 1 616 0
 3950 0110 BA8B     		ldrh	r2, [r7, #28]
 3951 0112 BB89     		ldrh	r3, [r7, #12]
 3952 0114 1344     		add	r3, r3, r2
 3953 0116 DBB2     		uxtb	r3, r3
 3954 0118 DB00     		lsls	r3, r3, #3
 3955 011a D8B2     		uxtb	r0, r3
 3956 011c FB89     		ldrh	r3, [r7, #14]	@ movhi
 3957 011e DBB2     		uxtb	r3, r3
 3958 0120 5B00     		lsls	r3, r3, #1
 3959 0122 D9B2     		uxtb	r1, r3
 3960 0124 7B7E     		ldrb	r3, [r7, #25]	@ zero_extendqisi2
 3961 0126 2F4A     		ldr	r2, .L94+4
 3962 0128 FFF7FEFF 		bl	OLED_ShowCHinese
 614:Src/oled.c    ****         {
 3963              		.loc 1 614 0
 3964 012c 19E0     		b	.L87
 3965              	.L85:
 617:Src/oled.c    ****         }
 618:Src/oled.c    ****         
 619:Src/oled.c    ****       }else
 620:Src/oled.c    ****       {
 621:Src/oled.c    ****         
 622:Src/oled.c    ****         if((i+ucX)<32)
 3966              		.loc 1 622 0
 3967 012e BA8B     		ldrh	r2, [r7, #28]
 3968 0130 BB89     		ldrh	r3, [r7, #12]
 3969 0132 1344     		add	r3, r3, r2
 3970 0134 1F2B     		cmp	r3, #31
 3971 0136 14DC     		bgt	.L87
 623:Src/oled.c    ****         {
 624:Src/oled.c    ****           OLED_ShowCHinese (i*8+8*ucX,2*ucY,(unsigned char *)&Hzk[j].Msk[0],revyn);
 3972              		.loc 1 624 0
 3973 0138 BA8B     		ldrh	r2, [r7, #28]
 3974 013a BB89     		ldrh	r3, [r7, #12]
 3975 013c 1344     		add	r3, r3, r2
 3976 013e DBB2     		uxtb	r3, r3
 3977 0140 DB00     		lsls	r3, r3, #3
 3978 0142 D8B2     		uxtb	r0, r3
 3979 0144 FB89     		ldrh	r3, [r7, #14]	@ movhi
ARM GAS  /tmp/ccqvBbOy.s 			page 82


 3980 0146 DBB2     		uxtb	r3, r3
 3981 0148 5B00     		lsls	r3, r3, #1
 3982 014a D9B2     		uxtb	r1, r3
 3983 014c 7A8B     		ldrh	r2, [r7, #26]
 3984 014e 1346     		mov	r3, r2
 3985 0150 1B01     		lsls	r3, r3, #4
 3986 0152 1344     		add	r3, r3, r2
 3987 0154 5B00     		lsls	r3, r3, #1
 3988 0156 224A     		ldr	r2, .L94
 3989 0158 1344     		add	r3, r3, r2
 3990 015a 9A1C     		adds	r2, r3, #2
 3991 015c 7B7E     		ldrb	r3, [r7, #25]	@ zero_extendqisi2
 3992 015e FFF7FEFF 		bl	OLED_ShowCHinese
 3993              	.L87:
 625:Src/oled.c    ****         }
 626:Src/oled.c    ****         
 627:Src/oled.c    ****       }
 628:Src/oled.c    ****       
 629:Src/oled.c    ****       i++; 
 3994              		.loc 1 629 0
 3995 0162 BB8B     		ldrh	r3, [r7, #28]
 3996 0164 0133     		adds	r3, r3, #1
 3997 0166 BB83     		strh	r3, [r7, #28]	@ movhi
 3998 0168 2CE0     		b	.L88
 3999              	.L76:
 630:Src/oled.c    ****       
 631:Src/oled.c    ****     }else
 632:Src/oled.c    ****     {
 633:Src/oled.c    ****       if(ucDispMode==1&&(i+ucX)>=ucRevX&&(i+ucX)<ucRevX+ucRevLen)
 4000              		.loc 1 633 0
 4001 016a 97F82830 		ldrb	r3, [r7, #40]	@ zero_extendqisi2
 4002 016e 012B     		cmp	r3, #1
 4003 0170 10D1     		bne	.L89
 4004              		.loc 1 633 0 is_stmt 0 discriminator 1
 4005 0172 BA8B     		ldrh	r2, [r7, #28]
 4006 0174 BB89     		ldrh	r3, [r7, #12]
 4007 0176 1A44     		add	r2, r2, r3
 4008 0178 FB88     		ldrh	r3, [r7, #6]
 4009 017a 9A42     		cmp	r2, r3
 4010 017c 0ADB     		blt	.L89
 4011              		.loc 1 633 0 discriminator 2
 4012 017e BA8B     		ldrh	r2, [r7, #28]
 4013 0180 BB89     		ldrh	r3, [r7, #12]
 4014 0182 1A44     		add	r2, r2, r3
 4015 0184 F988     		ldrh	r1, [r7, #6]
 4016 0186 BB8D     		ldrh	r3, [r7, #44]
 4017 0188 0B44     		add	r3, r3, r1
 4018 018a 9A42     		cmp	r2, r3
 4019 018c 02DA     		bge	.L89
 634:Src/oled.c    ****       {
 635:Src/oled.c    ****         revynchar=1;
 4020              		.loc 1 635 0 is_stmt 1
 4021 018e 0123     		movs	r3, #1
 4022 0190 3B76     		strb	r3, [r7, #24]
 4023 0192 01E0     		b	.L90
 4024              	.L89:
 636:Src/oled.c    ****       }else
ARM GAS  /tmp/ccqvBbOy.s 			page 83


 637:Src/oled.c    ****       {
 638:Src/oled.c    ****         revynchar=0;
 4025              		.loc 1 638 0
 4026 0194 0023     		movs	r3, #0
 4027 0196 3B76     		strb	r3, [r7, #24]
 4028              	.L90:
 639:Src/oled.c    ****       }
 640:Src/oled.c    ****       
 641:Src/oled.c    ****       if((i+ucX)<32)
 4029              		.loc 1 641 0
 4030 0198 BA8B     		ldrh	r2, [r7, #28]
 4031 019a BB89     		ldrh	r3, [r7, #12]
 4032 019c 1344     		add	r3, r3, r2
 4033 019e 1F2B     		cmp	r3, #31
 4034 01a0 10DC     		bgt	.L88
 642:Src/oled.c    ****       {
 643:Src/oled.c    ****         OLED_ShowCharNomAndRev(i*8+8*ucX,2*ucY,ptr[i],revynchar);
 4035              		.loc 1 643 0
 4036 01a2 BA8B     		ldrh	r2, [r7, #28]
 4037 01a4 BB89     		ldrh	r3, [r7, #12]
 4038 01a6 1344     		add	r3, r3, r2
 4039 01a8 DBB2     		uxtb	r3, r3
 4040 01aa DB00     		lsls	r3, r3, #3
 4041 01ac D8B2     		uxtb	r0, r3
 4042 01ae FB89     		ldrh	r3, [r7, #14]	@ movhi
 4043 01b0 DBB2     		uxtb	r3, r3
 4044 01b2 5B00     		lsls	r3, r3, #1
 4045 01b4 D9B2     		uxtb	r1, r3
 4046 01b6 BB8B     		ldrh	r3, [r7, #28]
 4047 01b8 BA68     		ldr	r2, [r7, #8]
 4048 01ba 1344     		add	r3, r3, r2
 4049 01bc 1A78     		ldrb	r2, [r3]	@ zero_extendqisi2
 4050 01be 3B7E     		ldrb	r3, [r7, #24]	@ zero_extendqisi2
 4051 01c0 FFF7FEFF 		bl	OLED_ShowCharNomAndRev
 4052              	.L88:
 644:Src/oled.c    ****       }
 645:Src/oled.c    ****     }
 646:Src/oled.c    ****     
 647:Src/oled.c    ****     i++;//
 4053              		.loc 1 647 0
 4054 01c4 BB8B     		ldrh	r3, [r7, #28]
 4055 01c6 0133     		adds	r3, r3, #1
 4056 01c8 BB83     		strh	r3, [r7, #28]	@ movhi
 4057              	.L75:
 587:Src/oled.c    ****   {
 4058              		.loc 1 587 0
 4059 01ca BA8B     		ldrh	r2, [r7, #28]
 4060 01cc FB8B     		ldrh	r3, [r7, #30]
 4061 01ce 9A42     		cmp	r2, r3
 4062 01d0 FFF434AF 		bcc	.L91
 648:Src/oled.c    ****   }
 649:Src/oled.c    ****   return 1;
 4063              		.loc 1 649 0
 4064 01d4 0123     		movs	r3, #1
 650:Src/oled.c    **** }
 4065              		.loc 1 650 0
 4066 01d6 1846     		mov	r0, r3
ARM GAS  /tmp/ccqvBbOy.s 			page 84


 4067 01d8 2037     		adds	r7, r7, #32
 4068              	.LCFI74:
 4069              		.cfi_def_cfa_offset 8
 4070 01da BD46     		mov	sp, r7
 4071              	.LCFI75:
 4072              		.cfi_def_cfa_register 13
 4073              		@ sp needed
 4074 01dc 80BD     		pop	{r7, pc}
 4075              	.L95:
 4076 01de 00BF     		.align	2
 4077              	.L94:
 4078 01e0 00000000 		.word	Hzk
 4079 01e4 02000000 		.word	Hzk+2
 4080              		.cfi_endproc
 4081              	.LFE82:
 4083              		.text
 4084              	.Letext0:
 4085              		.file 2 "/usr/include/newlib/machine/_default_types.h"
 4086              		.file 3 "/usr/include/newlib/sys/_stdint.h"
 4087              		.file 4 "Drivers/CMSIS/Include/core_cm3.h"
 4088              		.file 5 "Drivers/CMSIS/Device/ST/STM32F1xx/Include/system_stm32f1xx.h"
 4089              		.file 6 "Drivers/CMSIS/Device/ST/STM32F1xx/Include/stm32f103xb.h"
 4090              		.file 7 "Drivers/STM32F1xx_HAL_Driver/Inc/stm32f1xx_hal_def.h"
 4091              		.file 8 "Drivers/STM32F1xx_HAL_Driver/Inc/stm32f1xx_hal_dma.h"
 4092              		.file 9 "Drivers/STM32F1xx_HAL_Driver/Inc/stm32f1xx_hal_i2c.h"
 4093              		.file 10 "Drivers/STM32F1xx_HAL_Driver/Inc/stm32f1xx_hal_uart.h"
 4094              		.file 11 "Drivers/STM32F1xx_HAL_Driver/Inc/stm32f1xx_hal.h"
 4095              		.file 12 "/usr/include/newlib/sys/lock.h"
 4096              		.file 13 "/usr/include/newlib/sys/_types.h"
 4097              		.file 14 "/usr/lib/gcc/arm-none-eabi/6.3.1/include/stddef.h"
 4098              		.file 15 "/usr/include/newlib/sys/reent.h"
 4099              		.file 16 "/usr/include/newlib/stdlib.h"
 4100              		.file 17 "Inc/oled.h"
 4101              		.file 18 "Inc/ec20.h"
ARM GAS  /tmp/ccqvBbOy.s 			page 85

