ARM GAS  C:\Users\57298\AppData\Local\Temp\ccUzYvQq.s 			page 1


   1              		.cpu cortex-m3
   2              		.arch armv7-m
   3              		.fpu softvfp
   4              		.eabi_attribute 20, 1
   5              		.eabi_attribute 21, 1
   6              		.eabi_attribute 23, 3
   7              		.eabi_attribute 24, 1
   8              		.eabi_attribute 25, 1
   9              		.eabi_attribute 26, 1
  10              		.eabi_attribute 30, 6
  11              		.eabi_attribute 34, 1
  12              		.eabi_attribute 18, 4
  13              		.file	"radarandec20.c"
  14              		.text
  15              	.Ltext0:
  16              		.cfi_sections	.debug_frame
  17              		.global	CpuID
  18              		.section	.bss.CpuID,"aw",%nobits
  19              		.align	2
  22              	CpuID:
  23 0000 00000000 		.space	12
  23      00000000 
  23      00000000 
  24              		.global	SendID
  25              		.section	.bss.SendID,"aw",%nobits
  26              		.align	2
  29              	SendID:
  30 0000 00000000 		.space	4
  31              		.global	GpsRecFlag
  32              		.section	.bss.GpsRecFlag,"aw",%nobits
  35              	GpsRecFlag:
  36 0000 00       		.space	1
  37              		.global	gspdata
  38              		.section	.bss.gspdata,"aw",%nobits
  39              		.align	2
  42              	gspdata:
  43 0000 00000000 		.space	498
  43      00000000 
  43      00000000 
  43      00000000 
  43      00000000 
  44              		.global	GSMinit
  45              		.section	.bss.GSMinit,"aw",%nobits
  46              		.align	2
  49              	GSMinit:
  50 0000 00000000 		.space	35
  50      00000000 
  50      00000000 
  50      00000000 
  50      00000000 
  51              		.global	CloudtriggerFlag
  52              		.section	.bss.CloudtriggerFlag,"aw",%nobits
  55              	CloudtriggerFlag:
  56 0000 00       		.space	1
  57              		.global	CloudtriggerTime
  58              		.section	.bss.CloudtriggerTime,"aw",%nobits
  59              		.align	2
ARM GAS  C:\Users\57298\AppData\Local\Temp\ccUzYvQq.s 			page 2


  62              	CloudtriggerTime:
  63 0000 00000000 		.space	4
  64              		.global	PollTimeCnt
  65              		.section	.bss.PollTimeCnt,"aw",%nobits
  66              		.align	1
  69              	PollTimeCnt:
  70 0000 0000     		.space	2
  71              		.global	RxBufferDMA
  72              		.section	.bss.RxBufferDMA,"aw",%nobits
  73              		.align	2
  76              	RxBufferDMA:
  77 0000 00000000 		.space	100
  77      00000000 
  77      00000000 
  77      00000000 
  77      00000000 
  78              		.global	DMARxLenU2
  79              		.section	.bss.DMARxLenU2,"aw",%nobits
  80              		.align	1
  83              	DMARxLenU2:
  84 0000 0000     		.space	2
  85              		.global	rsRxBuf
  86              		.section	.bss.rsRxBuf,"aw",%nobits
  87              		.align	2
  90              	rsRxBuf:
  91 0000 00000000 		.space	200
  91      00000000 
  91      00000000 
  91      00000000 
  91      00000000 
  92              		.global	rsRxIndexLen
  93              		.section	.bss.rsRxIndexLen,"aw",%nobits
  94              		.align	2
  97              	rsRxIndexLen:
  98 0000 00000000 		.space	4
  99              		.global	rsRxLen
 100              		.section	.bss.rsRxLen,"aw",%nobits
 101              		.align	2
 104              	rsRxLen:
 105 0000 00000000 		.space	4
 106              		.global	rsRxTime
 107              		.section	.bss.rsRxTime,"aw",%nobits
 108              		.align	2
 111              	rsRxTime:
 112 0000 00000000 		.space	4
 113              		.global	rsPackFlag
 114              		.section	.bss.rsPackFlag,"aw",%nobits
 117              	rsPackFlag:
 118 0000 00       		.space	1
 119              		.global	rsRecFlag
 120              		.section	.bss.rsRecFlag,"aw",%nobits
 123              	rsRecFlag:
 124 0000 00       		.space	1
 125              		.global	ProSta
 126              		.section	.bss.ProSta,"aw",%nobits
 129              	ProSta:
 130 0000 00       		.space	1
ARM GAS  C:\Users\57298\AppData\Local\Temp\ccUzYvQq.s 			page 3


 131              		.global	linkflagSta
 132              		.section	.bss.linkflagSta,"aw",%nobits
 135              	linkflagSta:
 136 0000 00       		.space	1
 137              		.global	CurStaSendCnt
 138              		.section	.bss.CurStaSendCnt,"aw",%nobits
 141              	CurStaSendCnt:
 142 0000 00       		.space	1
 143              		.global	SendCntRecClear
 144              		.section	.bss.SendCntRecClear,"aw",%nobits
 145              		.align	2
 148              	SendCntRecClear:
 149 0000 00000000 		.space	4
 150              		.global	SendGPSCnt
 151              		.section	.bss.SendGPSCnt,"aw",%nobits
 152              		.align	2
 155              	SendGPSCnt:
 156 0000 00000000 		.space	4
 157              		.global	GPSStatFlag
 158              		.section	.bss.GPSStatFlag,"aw",%nobits
 161              	GPSStatFlag:
 162 0000 00       		.space	1
 163              		.global	ec20send
 164              		.section	.bss.ec20send,"aw",%nobits
 165              		.align	2
 168              	ec20send:
 169 0000 00000000 		.space	70
 169      00000000 
 169      00000000 
 169      00000000 
 169      00000000 
 170              		.global	pec20
 171              		.section	.bss.pec20,"aw",%nobits
 172              		.align	2
 175              	pec20:
 176 0000 00000000 		.space	4
 177              		.global	ec20heart
 178              		.section	.bss.ec20heart,"aw",%nobits
 179              		.align	2
 182              	ec20heart:
 183 0000 00000000 		.space	8
 183      00000000 
 184              		.global	pech20
 185              		.section	.bss.pech20,"aw",%nobits
 186              		.align	2
 189              	pech20:
 190 0000 00000000 		.space	4
 191              		.global	u3rx
 192              		.section	.bss.u3rx,"aw",%nobits
 193              		.align	2
 196              	u3rx:
 197 0000 00000000 		.space	100
 197      00000000 
 197      00000000 
 197      00000000 
 197      00000000 
 198              		.global	RxLenU3
ARM GAS  C:\Users\57298\AppData\Local\Temp\ccUzYvQq.s 			page 4


 199              		.section	.bss.RxLenU3,"aw",%nobits
 200              		.align	1
 203              	RxLenU3:
 204 0000 0000     		.space	2
 205              		.global	last_Res_6
 206              		.section	.bss.last_Res_6,"aw",%nobits
 209              	last_Res_6:
 210 0000 00       		.space	1
 211              		.global	radar_ID
 212              		.section	.bss.radar_ID,"aw",%nobits
 215              	radar_ID:
 216 0000 00       		.space	1
 217              		.global	frame_num
 218              		.section	.bss.frame_num,"aw",%nobits
 221              	frame_num:
 222 0000 00       		.space	1
 223              		.global	warning_cfg
 224              		.section	.bss.warning_cfg,"aw",%nobits
 227              	warning_cfg:
 228 0000 00       		.space	1
 229              		.global	msint
 230              		.section	.bss.msint,"aw",%nobits
 231              		.align	2
 234              	msint:
 235 0000 00000000 		.space	4
 236              		.global	trigger_order
 237              		.section	.data.trigger_order,"aw"
 240              	trigger_order:
 241 0000 01       		.byte	1
 242              		.global	lifetime_count
 243              		.section	.bss.lifetime_count,"aw",%nobits
 244              		.align	2
 247              	lifetime_count:
 248 0000 00000000 		.space	4
 249              		.global	danger_keep
 250              		.section	.bss.danger_keep,"aw",%nobits
 253              	danger_keep:
 254 0000 00       		.space	1
 255              		.global	ready_2_warning
 256              		.section	.bss.ready_2_warning,"aw",%nobits
 259              	ready_2_warning:
 260 0000 00       		.space	1
 261              		.global	waringtimeflag
 262              		.section	.bss.waringtimeflag,"aw",%nobits
 265              	waringtimeflag:
 266 0000 00       		.space	1
 267              		.global	waringspeedflag
 268              		.section	.bss.waringspeedflag,"aw",%nobits
 271              	waringspeedflag:
 272 0000 00       		.space	1
 273              		.global	waringtime
 274              		.section	.bss.waringtime,"aw",%nobits
 275              		.align	2
 278              	waringtime:
 279 0000 00000000 		.space	4
 280              		.global	warning_ID
 281              		.section	.bss.warning_ID,"aw",%nobits
ARM GAS  C:\Users\57298\AppData\Local\Temp\ccUzYvQq.s 			page 5


 284              	warning_ID:
 285 0000 00       		.space	1
 286              		.global	ms10
 287              		.section	.bss.ms10,"aw",%nobits
 288              		.align	1
 291              	ms10:
 292 0000 0000     		.space	2
 293              		.global	warmSend
 294              		.section	.bss.warmSend,"aw",%nobits
 295              		.align	2
 298              	warmSend:
 299 0000 00000000 		.space	4
 300              		.global	sendbuf
 301              		.section	.bss.sendbuf,"aw",%nobits
 302              		.align	2
 305              	sendbuf:
 306 0000 00000000 		.space	255
 306      00000000 
 306      00000000 
 306      00000000 
 306      00000000 
 307              		.global	warmnobeep
 308              		.section	.bss.warmnobeep,"aw",%nobits
 311              	warmnobeep:
 312 0000 00       		.space	1
 313              		.global	linkflag
 314              		.section	.bss.linkflag,"aw",%nobits
 317              	linkflag:
 318 0000 00       		.space	1
 319              		.global	sendingflag
 320              		.section	.bss.sendingflag,"aw",%nobits
 323              	sendingflag:
 324 0000 00       		.space	1
 325              		.global	simCnt
 326              		.section	.bss.simCnt,"aw",%nobits
 327              		.align	2
 330              	simCnt:
 331 0000 00000000 		.space	4
 332              		.global	psend
 333              		.section	.bss.psend,"aw",%nobits
 334              		.align	2
 337              	psend:
 338 0000 00000000 		.space	4
 339              		.global	readsxtioflag
 340              		.section	.bss.readsxtioflag,"aw",%nobits
 343              	readsxtioflag:
 344 0000 00       		.space	1
 345              		.global	POLLTime
 346              		.section	.data.POLLTime,"aw"
 347              		.align	2
 350              	POLLTime:
 351 0000 20030000 		.word	800
 352              		.global	SendList
 353              		.section	.rodata
 354              		.align	2
 355              	.LC0:
 356 0000 41540D0A 		.ascii	"AT\015\012\000\000"
ARM GAS  C:\Users\57298\AppData\Local\Temp\ccUzYvQq.s 			page 6


 356      0000
 357 0006 0000     		.align	2
 358              	.LC1:
 359 0008 41544530 		.ascii	"ATE0\015\012\000\000"
 359      0D0A0000 
 360              		.align	2
 361              	.LC2:
 362 0010 41542B43 		.ascii	"AT+CPIN?\015\012\000\000"
 362      50494E3F 
 362      0D0A0000 
 363              		.align	2
 364              	.LC3:
 365 001c 41542B43 		.ascii	"AT+CSQ\015\012\000\000"
 365      53510D0A 
 365      0000
 366 0026 0000     		.align	2
 367              	.LC4:
 368 0028 41542B43 		.ascii	"AT+CREG?\015\012\000\000"
 368      5245473F 
 368      0D0A0000 
 369              		.align	2
 370              	.LC5:
 371 0034 41542B43 		.ascii	"AT+CGATT?\015\012\000\000"
 371      47415454 
 371      3F0D0A00 
 371      00
 372 0041 000000   		.align	2
 373              	.LC6:
 374 0044 41542B51 		.ascii	"AT+QIACT=1\015\012\000"
 374      49414354 
 374      3D310D0A 
 374      00
 375 0051 000000   		.align	2
 376              	.LC7:
 377 0054 41542B51 		.ascii	"AT+QIACT?\015\012\000\000"
 377      49414354 
 377      3F0D0A00 
 377      00
 378 0061 000000   		.align	2
 379              	.LC8:
 380 0064 41542B51 		.ascii	"AT+QIDEACT=1\015\012\000\000"
 380      49444541 
 380      43543D31 
 380      0D0A0000 
 381              		.align	2
 382              	.LC9:
 383 0074 41542B51 		.ascii	"AT+QICLOSE=0,2000\015\012\000\000"
 383      49434C4F 
 383      53453D30 
 383      2C323030 
 383      300D0A00 
 384 0089 000000   		.align	2
 385              	.LC10:
 386 008c 41542B51 		.ascii	"AT+QIOPEN=1,0,\"TCP\",\"139.198.162.94\",999\015\012"
 386      494F5045 
 386      4E3D312C 
 386      302C2254 
ARM GAS  C:\Users\57298\AppData\Local\Temp\ccUzYvQq.s 			page 7


 386      4350222C 
 387 00b6 0000     		.ascii	"\000\000"
 388              		.align	2
 389              	.LC11:
 390 00b8 41542B51 		.ascii	"AT+QISENDEX=0,\"313233343536373839\"\015\012\000\000"
 390      4953454E 
 390      4445583D 
 390      302C2233 
 390      31333233 
 391 00de 0000     		.align	2
 392              	.LC12:
 393 00e0 41542B51 		.ascii	"AT+QIRD=0,1500\015\012\000\000"
 393      4952443D 
 393      302C3135 
 393      30300D0A 
 393      0000
 394 00f2 0000     		.align	2
 395              	.LC13:
 396 00f4 41542B51 		.ascii	"AT+QGPSCFG=\"outport\",\"uartdebug\"\015\012\000\000"
 396      47505343 
 396      46473D22 
 396      6F757470 
 396      6F727422 
 397              		.align	2
 398              	.LC14:
 399 0118 41542B51 		.ascii	"AT+QGPS=1\015\012\000\000"
 399      4750533D 
 399      310D0A00 
 399      00
 400 0125 000000   		.align	2
 401              	.LC15:
 402 0128 41542B51 		.ascii	"AT+QGPSLOC=0\015\012\000\000"
 402      4750534C 
 402      4F433D30 
 402      0D0A0000 
 403              		.align	2
 404              	.LC16:
 405 0138 46322E32 		.ascii	"F2.2_2_20230923_113231_8d3feb0_45\015\012\000\000"
 405      5F325F32 
 405      30323330 
 405      3932335F 
 405      31313332 
 406              		.section	.data.SendList,"aw"
 407              		.align	2
 410              	SendList:
 411 0000 00000000 		.word	.LC0
 412 0004 08000000 		.word	.LC1
 413 0008 10000000 		.word	.LC2
 414 000c 1C000000 		.word	.LC3
 415 0010 28000000 		.word	.LC4
 416 0014 34000000 		.word	.LC5
 417 0018 44000000 		.word	.LC6
 418 001c 54000000 		.word	.LC7
 419 0020 64000000 		.word	.LC8
 420 0024 74000000 		.word	.LC9
 421 0028 8C000000 		.word	.LC10
 422 002c B8000000 		.word	.LC11
ARM GAS  C:\Users\57298\AppData\Local\Temp\ccUzYvQq.s 			page 8


 423 0030 E0000000 		.word	.LC12
 424 0034 F4000000 		.word	.LC13
 425 0038 18010000 		.word	.LC14
 426 003c 28010000 		.word	.LC15
 427 0040 38010000 		.word	.LC16
 428              		.global	RecExpected
 429              		.section	.rodata
 430 015d 000000   		.align	2
 431              	.LC17:
 432 0160 4F4B00   		.ascii	"OK\000"
 433 0163 00       		.align	2
 434              	.LC18:
 435 0164 52454144 		.ascii	"READY\000"
 435      5900
 436 016a 0000     		.align	2
 437              	.LC19:
 438 016c 43535100 		.ascii	"CSQ\000"
 439              		.align	2
 440              	.LC20:
 441 0170 302C3100 		.ascii	"0,1\000"
 442              		.align	2
 443              	.LC21:
 444 0174 3100     		.ascii	"1\000"
 445 0176 0000     		.align	2
 446              	.LC22:
 447 0178 4F00     		.ascii	"O\000"
 448 017a 0000     		.align	2
 449              	.LC23:
 450 017c 0D00     		.ascii	"\015\000"
 451 017e 0000     		.align	2
 452              	.LC24:
 453 0180 2B514952 		.ascii	"+QIRD\000"
 453      4400
 454 0186 0000     		.align	2
 455              	.LC25:
 456 0188 51475053 		.ascii	"QGPSLOC\000"
 456      4C4F4300 
 457              		.align	2
 458              	.LC26:
 459 0190 4552524F 		.ascii	"ERROR\000"
 459      5200
 460              		.section	.data.RecExpected,"aw"
 461              		.align	2
 464              	RecExpected:
 465 0000 60010000 		.word	.LC17
 466 0004 60010000 		.word	.LC17
 467 0008 64010000 		.word	.LC18
 468 000c 6C010000 		.word	.LC19
 469 0010 70010000 		.word	.LC20
 470 0014 74010000 		.word	.LC21
 471 0018 78010000 		.word	.LC22
 472 001c 60010000 		.word	.LC17
 473 0020 60010000 		.word	.LC17
 474 0024 7C010000 		.word	.LC23
 475 0028 7C010000 		.word	.LC23
 476 002c 60010000 		.word	.LC17
 477 0030 80010000 		.word	.LC24
ARM GAS  C:\Users\57298\AppData\Local\Temp\ccUzYvQq.s 			page 9


 478 0034 7C010000 		.word	.LC23
 479 0038 7C010000 		.word	.LC23
 480 003c 88010000 		.word	.LC25
 481 0040 90010000 		.word	.LC26
 482              		.section	.text.Clear_Buffer,"ax",%progbits
 483              		.align	1
 484              		.global	Clear_Buffer
 485              		.syntax unified
 486              		.thumb
 487              		.thumb_func
 489              	Clear_Buffer:
 490              	.LFB68:
 491              		.file 1 "Src/radarandec20.c"
   1:Src/radarandec20.c **** #include "ec20.h"
   2:Src/radarandec20.c **** #include "oled.h"
   3:Src/radarandec20.c **** #pragma pack(1)
   4:Src/radarandec20.c **** 
   5:Src/radarandec20.c **** unsigned int CpuID[3];
   6:Src/radarandec20.c **** unsigned int SendID;
   7:Src/radarandec20.c **** unsigned char GpsRecFlag = 0;
   8:Src/radarandec20.c **** GPS_DATA gspdata;
   9:Src/radarandec20.c **** GSM_init GSMinit;
  10:Src/radarandec20.c **** unsigned char CloudtriggerFlag = 0;
  11:Src/radarandec20.c **** unsigned int CloudtriggerTime = 0;
  12:Src/radarandec20.c **** // EC20
  13:Src/radarandec20.c **** unsigned short PollTimeCnt = 0;             // 在毫秒中断中加加
  14:Src/radarandec20.c **** unsigned char RxBufferDMA[DMARXBUFFERSIZE]; // DMA接收到的缓存
  15:Src/radarandec20.c **** unsigned short DMARxLenU2 = 0;              // DMA缓存接收长度
  16:Src/radarandec20.c **** unsigned char rsRxBuf[LASTSZIE];            // 最后的数据
  17:Src/radarandec20.c **** unsigned int rsRxIndexLen = 0;              // 这个长度会在DMA空闲中断中更新
  18:Src/radarandec20.c **** unsigned int rsRxLen = 0;                   // 最终长度
  19:Src/radarandec20.c **** unsigned int rsRxTime = 0;                  // 超时时间计数
  20:Src/radarandec20.c **** unsigned char rsPackFlag = 0;               // 正在接收的标记
  21:Src/radarandec20.c **** unsigned char rsRecFlag = 0;                // 接收标志
  22:Src/radarandec20.c **** unsigned char ProSta = 0;
  23:Src/radarandec20.c **** unsigned char linkflagSta = 0;
  24:Src/radarandec20.c **** unsigned char CurStaSendCnt = 0;
  25:Src/radarandec20.c **** unsigned int SendCntRecClear = 0;
  26:Src/radarandec20.c **** unsigned int SendGPSCnt = 0;
  27:Src/radarandec20.c **** unsigned char GPSStatFlag = 0;
  28:Src/radarandec20.c **** Ec20SendData ec20send, *pec20;
  29:Src/radarandec20.c **** Ec20HEART ec20heart, *pech20;
  30:Src/radarandec20.c **** // radar
  31:Src/radarandec20.c **** unsigned char u3rx[u3mx];
  32:Src/radarandec20.c **** unsigned short RxLenU3;
  33:Src/radarandec20.c **** 
  34:Src/radarandec20.c **** unsigned char last_Res_6 = 0;
  35:Src/radarandec20.c **** unsigned char radar_ID = 0;
  36:Src/radarandec20.c **** unsigned char frame_num = 0;
  37:Src/radarandec20.c **** unsigned char warning_cfg = 0;
  38:Src/radarandec20.c **** unsigned int msint = 0;
  39:Src/radarandec20.c **** char trigger_order = 0x01;
  40:Src/radarandec20.c **** unsigned char lifetime_count[4];
  41:Src/radarandec20.c **** unsigned char danger_keep = 0;
  42:Src/radarandec20.c **** unsigned char ready_2_warning = 0;
  43:Src/radarandec20.c **** unsigned char waringtimeflag = 0;
  44:Src/radarandec20.c **** unsigned char waringspeedflag = 0;
ARM GAS  C:\Users\57298\AppData\Local\Temp\ccUzYvQq.s 			page 10


  45:Src/radarandec20.c **** unsigned int waringtime = 0;
  46:Src/radarandec20.c **** unsigned char warning_ID = 0;
  47:Src/radarandec20.c **** unsigned short ms10 = 0;
  48:Src/radarandec20.c **** 
  49:Src/radarandec20.c **** unsigned char warmSend[4] = {0, 0, 0, 0};
  50:Src/radarandec20.c **** unsigned char sendbuf[255];
  51:Src/radarandec20.c **** unsigned char warmnobeep = 0;
  52:Src/radarandec20.c **** unsigned char linkflag = 0;
  53:Src/radarandec20.c **** unsigned char sendingflag = 0;
  54:Src/radarandec20.c **** unsigned int simCnt = 0;
  55:Src/radarandec20.c **** const unsigned char *psend;
  56:Src/radarandec20.c **** GPIO_PinState readsxtioflag = GPIO_PIN_RESET; // 摄像头触发状态
  57:Src/radarandec20.c **** unsigned int POLLTime = NORMARLTIME;
  58:Src/radarandec20.c **** 
  59:Src/radarandec20.c **** #define InitEC2Index 0         // 从头开始初始化
  60:Src/radarandec20.c **** #define InitTCPIndex 6         // 从连接TCP开始初始化
  61:Src/radarandec20.c **** #define ATCodeSnd 11           // 发送TCP内容的那条AT指令序号
  62:Src/radarandec20.c **** #define ATTcpReadIndex 12      // TCP读取的AT指令序号序号
  63:Src/radarandec20.c **** #define ATCodeLastNum 12       // 最后一条读取GPS数据的AT指令序号  15
  64:Src/radarandec20.c **** #define ATCodeNum 12           // 整个流程AT指令条数 16
  65:Src/radarandec20.c **** #define SendButNoRecCnt 50     // 发送但是EC20没有响应
  66:Src/radarandec20.c **** #define SendRecButNotExpCnt 10 // 发送EC20有响应但是接收到数据跟预期内容不符合
  67:Src/radarandec20.c **** #define SendRecButGpsNotExp 3  // gps数据不在预期范围的计数
  68:Src/radarandec20.c **** // 发送列表
  69:Src/radarandec20.c **** const unsigned char *SendList[] = {
  70:Src/radarandec20.c ****     "AT\r\n\0",                // 0
  71:Src/radarandec20.c ****     "ATE0\r\n\0",              // 1  回显关闭
  72:Src/radarandec20.c ****     "AT+CPIN?\r\n\0",          // 2 读卡测试
  73:Src/radarandec20.c ****     "AT+CSQ\r\n\0",            // 3 信号质量查询
  74:Src/radarandec20.c ****     "AT+CREG?\r\n\0",          // 4 网络注册查询
  75:Src/radarandec20.c ****     "AT+CGATT?\r\n\0",         // 5 附着网络查询
  76:Src/radarandec20.c ****     "AT+QIACT=1\r\n",          // 6 激活移动场景 激活 context profile
  77:Src/radarandec20.c ****     "AT+QIACT?\r\n\0",         // 7 IP地址查询   QIACT: 1,1,1,"10.23.163.28"  第一个1context号（1-1
  78:Src/radarandec20.c ****     "AT+QIDEACT=1\r\n\0",      // 8  Deactivate a PDP Context
  79:Src/radarandec20.c ****     "AT+QICLOSE=0,2000\r\n\0", // 9 关闭connect 0 不管怎样先关闭一下
  80:Src/radarandec20.c **** #if FacIP == 0
  81:Src/radarandec20.c ****     "AT+QIOPEN=1,0,\"TCP\",\"139.198.162.94\",999\r\n\0", // 10 连接context 1号   connect0号 TCP ip
  82:Src/radarandec20.c **** #else
  83:Src/radarandec20.c ****     "AT+QIOPEN=1,0,\"TCP\",\"47.103.104.119\",999\r\n\0", // 10 连接context 1号   connect0号 TCP ip
  84:Src/radarandec20.c **** #endif
  85:Src/radarandec20.c ****     "AT+QISENDEX=0,\"313233343536373839\"\r\n\0", // 11 发送数据
  86:Src/radarandec20.c ****     "AT+QIRD=0,1500\r\n\0",                       // 12  接收
  87:Src/radarandec20.c ****     "AT+QGPSCFG=\"outport\",\"uartdebug\"\r\n\0", // 13  设置gnss的端口----------------------------
  88:Src/radarandec20.c ****     "AT+QGPS=1\r\n\0",                            // 14开启GNNS功能   使用串口发送
  89:Src/radarandec20.c ****     "AT+QGPSLOC=0\r\n\0",                         // 15读取位置信息发送
  90:Src/radarandec20.c ****     "F2.2_2_" _BUILDCOMMITID "\r\n\0",            // 16
  91:Src/radarandec20.c **** 
  92:Src/radarandec20.c **** };
  93:Src/radarandec20.c **** 
  94:Src/radarandec20.c **** // 接收期待列表
  95:Src/radarandec20.c **** const unsigned char *RecExpected[] = {
  96:Src/radarandec20.c ****     "OK",      // 0     OK
  97:Src/radarandec20.c ****     "OK",      // 1     OK
  98:Src/radarandec20.c ****     "READY",   // 2     +CPIN: READY   如果两次ERROR
  99:Src/radarandec20.c ****     "CSQ",     // 3     +CSQ: 28,0
 100:Src/radarandec20.c ****     "0,1",     // 4     +CREG: 0,1   0,5   1,1  1,5 这些都可以
 101:Src/radarandec20.c ****     "1",       // 5     +CGATT: 1
ARM GAS  C:\Users\57298\AppData\Local\Temp\ccUzYvQq.s 			page 11


 102:Src/radarandec20.c ****     "O",       // 6     OK 或者 ERROR 重复激活为ERROR
 103:Src/radarandec20.c ****     "OK",      // 7     OK
 104:Src/radarandec20.c ****     "OK",      // 8     OK
 105:Src/radarandec20.c ****     "\r",      // 9     OK
 106:Src/radarandec20.c ****     "\r",      // 10
 107:Src/radarandec20.c ****     "OK",      // 11    发送
 108:Src/radarandec20.c ****     "+QIRD",   // 12    接收
 109:Src/radarandec20.c ****     "\r",      // 13
 110:Src/radarandec20.c ****     "\r",      // 14
 111:Src/radarandec20.c ****     "QGPSLOC", // 15
 112:Src/radarandec20.c ****     "ERROR"};
 113:Src/radarandec20.c **** 
 114:Src/radarandec20.c **** // 清除缓存
 115:Src/radarandec20.c **** void Clear_Buffer(void) // 清空缓存
 116:Src/radarandec20.c **** {
 492              		.loc 1 116 1
 493              		.cfi_startproc
 494              		@ args = 0, pretend = 0, frame = 8
 495              		@ frame_needed = 1, uses_anonymous_args = 0
 496              		@ link register save eliminated.
 497 0000 80B4     		push	{r7}
 498              	.LCFI0:
 499              		.cfi_def_cfa_offset 4
 500              		.cfi_offset 7, -4
 501 0002 83B0     		sub	sp, sp, #12
 502              	.LCFI1:
 503              		.cfi_def_cfa_offset 16
 504 0004 00AF     		add	r7, sp, #0
 505              	.LCFI2:
 506              		.cfi_def_cfa_register 7
 117:Src/radarandec20.c ****   int i;
 118:Src/radarandec20.c ****   for (i = 0; i < LASTSZIE; i++)
 507              		.loc 1 118 10
 508 0006 0023     		movs	r3, #0
 509 0008 7B60     		str	r3, [r7, #4]
 510              		.loc 1 118 3
 511 000a 07E0     		b	.L2
 512              	.L3:
 119:Src/radarandec20.c ****   {
 120:Src/radarandec20.c ****     rsRxBuf[i] = 0; // 缓存
 513              		.loc 1 120 16 discriminator 3
 514 000c 094A     		ldr	r2, .L4
 515 000e 7B68     		ldr	r3, [r7, #4]
 516 0010 1344     		add	r3, r3, r2
 517 0012 0022     		movs	r2, #0
 518 0014 1A70     		strb	r2, [r3]
 118:Src/radarandec20.c ****   {
 519              		.loc 1 118 30 discriminator 3
 520 0016 7B68     		ldr	r3, [r7, #4]
 521 0018 0133     		adds	r3, r3, #1
 522 001a 7B60     		str	r3, [r7, #4]
 523              	.L2:
 118:Src/radarandec20.c ****   {
 524              		.loc 1 118 3 discriminator 1
 525 001c 7B68     		ldr	r3, [r7, #4]
 526 001e C72B     		cmp	r3, #199
 527 0020 F4DD     		ble	.L3
ARM GAS  C:\Users\57298\AppData\Local\Temp\ccUzYvQq.s 			page 12


 121:Src/radarandec20.c ****   }
 122:Src/radarandec20.c ****   rsRxLen = 0;
 528              		.loc 1 122 11
 529 0022 054B     		ldr	r3, .L4+4
 530 0024 0022     		movs	r2, #0
 531 0026 1A60     		str	r2, [r3]
 123:Src/radarandec20.c **** }
 532              		.loc 1 123 1
 533 0028 00BF     		nop
 534 002a 0C37     		adds	r7, r7, #12
 535              	.LCFI3:
 536              		.cfi_def_cfa_offset 4
 537 002c BD46     		mov	sp, r7
 538              	.LCFI4:
 539              		.cfi_def_cfa_register 13
 540              		@ sp needed
 541 002e 80BC     		pop	{r7}
 542              	.LCFI5:
 543              		.cfi_restore 7
 544              		.cfi_def_cfa_offset 0
 545 0030 7047     		bx	lr
 546              	.L5:
 547 0032 00BF     		.align	2
 548              	.L4:
 549 0034 00000000 		.word	rsRxBuf
 550 0038 00000000 		.word	rsRxLen
 551              		.cfi_endproc
 552              	.LFE68:
 554              		.section	.text.ucharCmp,"ax",%progbits
 555              		.align	1
 556              		.global	ucharCmp
 557              		.syntax unified
 558              		.thumb
 559              		.thumb_func
 561              	ucharCmp:
 562              	.LFB69:
 124:Src/radarandec20.c **** // 全部相同返回1
 125:Src/radarandec20.c **** unsigned char ucharCmp(unsigned char *p1, unsigned char *p2, unsigned char len)
 126:Src/radarandec20.c **** {
 563              		.loc 1 126 1
 564              		.cfi_startproc
 565              		@ args = 0, pretend = 0, frame = 24
 566              		@ frame_needed = 1, uses_anonymous_args = 0
 567              		@ link register save eliminated.
 568 0000 80B4     		push	{r7}
 569              	.LCFI6:
 570              		.cfi_def_cfa_offset 4
 571              		.cfi_offset 7, -4
 572 0002 87B0     		sub	sp, sp, #28
 573              	.LCFI7:
 574              		.cfi_def_cfa_offset 32
 575 0004 00AF     		add	r7, sp, #0
 576              	.LCFI8:
 577              		.cfi_def_cfa_register 7
 578 0006 F860     		str	r0, [r7, #12]
 579 0008 B960     		str	r1, [r7, #8]
 580 000a 1346     		mov	r3, r2
ARM GAS  C:\Users\57298\AppData\Local\Temp\ccUzYvQq.s 			page 13


 581 000c FB71     		strb	r3, [r7, #7]
 127:Src/radarandec20.c ****   unsigned char i;
 128:Src/radarandec20.c ****   for (i = 0; i < len; i++)
 582              		.loc 1 128 10
 583 000e 0023     		movs	r3, #0
 584 0010 FB75     		strb	r3, [r7, #23]
 585              		.loc 1 128 3
 586 0012 0EE0     		b	.L7
 587              	.L10:
 129:Src/radarandec20.c ****   {
 130:Src/radarandec20.c ****     if ((*p1++) != (*p2++))
 588              		.loc 1 130 13
 589 0014 FB68     		ldr	r3, [r7, #12]
 590 0016 5A1C     		adds	r2, r3, #1
 591 0018 FA60     		str	r2, [r7, #12]
 592              		.loc 1 130 10
 593 001a 1A78     		ldrb	r2, [r3]	@ zero_extendqisi2
 594              		.loc 1 130 24
 595 001c BB68     		ldr	r3, [r7, #8]
 596 001e 591C     		adds	r1, r3, #1
 597 0020 B960     		str	r1, [r7, #8]
 598              		.loc 1 130 21
 599 0022 1B78     		ldrb	r3, [r3]	@ zero_extendqisi2
 600              		.loc 1 130 8
 601 0024 9A42     		cmp	r2, r3
 602 0026 01D0     		beq	.L8
 131:Src/radarandec20.c ****     {
 132:Src/radarandec20.c ****       return 0;
 603              		.loc 1 132 14
 604 0028 0023     		movs	r3, #0
 605 002a 07E0     		b	.L9
 606              	.L8:
 128:Src/radarandec20.c ****   {
 607              		.loc 1 128 25 discriminator 2
 608 002c FB7D     		ldrb	r3, [r7, #23]	@ zero_extendqisi2
 609 002e 0133     		adds	r3, r3, #1
 610 0030 FB75     		strb	r3, [r7, #23]
 611              	.L7:
 128:Src/radarandec20.c ****   {
 612              		.loc 1 128 3 discriminator 1
 613 0032 FA7D     		ldrb	r2, [r7, #23]	@ zero_extendqisi2
 614 0034 FB79     		ldrb	r3, [r7, #7]	@ zero_extendqisi2
 615 0036 9A42     		cmp	r2, r3
 616 0038 ECD3     		bcc	.L10
 133:Src/radarandec20.c ****     }
 134:Src/radarandec20.c ****   }
 135:Src/radarandec20.c ****   return 1; // 全部相等
 617              		.loc 1 135 10
 618 003a 0123     		movs	r3, #1
 619              	.L9:
 136:Src/radarandec20.c **** }
 620              		.loc 1 136 1
 621 003c 1846     		mov	r0, r3
 622 003e 1C37     		adds	r7, r7, #28
 623              	.LCFI9:
 624              		.cfi_def_cfa_offset 4
 625 0040 BD46     		mov	sp, r7
ARM GAS  C:\Users\57298\AppData\Local\Temp\ccUzYvQq.s 			page 14


 626              	.LCFI10:
 627              		.cfi_def_cfa_register 13
 628              		@ sp needed
 629 0042 80BC     		pop	{r7}
 630              	.LCFI11:
 631              		.cfi_restore 7
 632              		.cfi_def_cfa_offset 0
 633 0044 7047     		bx	lr
 634              		.cfi_endproc
 635              	.LFE69:
 637              		.section	.text.findStrCmp,"ax",%progbits
 638              		.align	1
 639              		.global	findStrCmp
 640              		.syntax unified
 641              		.thumb
 642              		.thumb_func
 644              	findStrCmp:
 645              	.LFB70:
 137:Src/radarandec20.c **** 
 138:Src/radarandec20.c **** // 这部分完全包含在整个中就返回1 不然返回零
 139:Src/radarandec20.c **** unsigned char findStrCmp(unsigned char *allPstr, unsigned char alllen, unsigned char *partPstr, uns
 140:Src/radarandec20.c **** {
 646              		.loc 1 140 1
 647              		.cfi_startproc
 648              		@ args = 0, pretend = 0, frame = 24
 649              		@ frame_needed = 1, uses_anonymous_args = 0
 650 0000 80B5     		push	{r7, lr}
 651              	.LCFI12:
 652              		.cfi_def_cfa_offset 8
 653              		.cfi_offset 7, -8
 654              		.cfi_offset 14, -4
 655 0002 86B0     		sub	sp, sp, #24
 656              	.LCFI13:
 657              		.cfi_def_cfa_offset 32
 658 0004 00AF     		add	r7, sp, #0
 659              	.LCFI14:
 660              		.cfi_def_cfa_register 7
 661 0006 F860     		str	r0, [r7, #12]
 662 0008 7A60     		str	r2, [r7, #4]
 663 000a 1A46     		mov	r2, r3
 664 000c 0B46     		mov	r3, r1
 665 000e FB72     		strb	r3, [r7, #11]
 666 0010 1346     		mov	r3, r2
 667 0012 BB72     		strb	r3, [r7, #10]
 141:Src/radarandec20.c ****   unsigned char i = 0;
 668              		.loc 1 141 17
 669 0014 0023     		movs	r3, #0
 670 0016 FB75     		strb	r3, [r7, #23]
 142:Src/radarandec20.c ****   for (i = 0; i < alllen - partlen + 1; i++)
 671              		.loc 1 142 10
 672 0018 0023     		movs	r3, #0
 673 001a FB75     		strb	r3, [r7, #23]
 674              		.loc 1 142 3
 675 001c 0FE0     		b	.L12
 676              	.L15:
 143:Src/radarandec20.c ****   {
 144:Src/radarandec20.c ****     if (ucharCmp(allPstr + i, partPstr, partlen) == 1)
ARM GAS  C:\Users\57298\AppData\Local\Temp\ccUzYvQq.s 			page 15


 677              		.loc 1 144 9
 678 001e FB7D     		ldrb	r3, [r7, #23]	@ zero_extendqisi2
 679 0020 FA68     		ldr	r2, [r7, #12]
 680 0022 1344     		add	r3, r3, r2
 681 0024 BA7A     		ldrb	r2, [r7, #10]	@ zero_extendqisi2
 682 0026 7968     		ldr	r1, [r7, #4]
 683 0028 1846     		mov	r0, r3
 684 002a FFF7FEFF 		bl	ucharCmp
 685 002e 0346     		mov	r3, r0
 686              		.loc 1 144 8
 687 0030 012B     		cmp	r3, #1
 688 0032 01D1     		bne	.L13
 145:Src/radarandec20.c ****     {
 146:Src/radarandec20.c ****       return 1; // 找到完全相同
 689              		.loc 1 146 14
 690 0034 0123     		movs	r3, #1
 691 0036 09E0     		b	.L14
 692              	.L13:
 142:Src/radarandec20.c ****   {
 693              		.loc 1 142 42 discriminator 2
 694 0038 FB7D     		ldrb	r3, [r7, #23]	@ zero_extendqisi2
 695 003a 0133     		adds	r3, r3, #1
 696 003c FB75     		strb	r3, [r7, #23]
 697              	.L12:
 142:Src/radarandec20.c ****   {
 698              		.loc 1 142 26 discriminator 1
 699 003e FA7A     		ldrb	r2, [r7, #11]	@ zero_extendqisi2
 700 0040 BB7A     		ldrb	r3, [r7, #10]	@ zero_extendqisi2
 701 0042 D21A     		subs	r2, r2, r3
 142:Src/radarandec20.c ****   {
 702              		.loc 1 142 17 discriminator 1
 703 0044 FB7D     		ldrb	r3, [r7, #23]	@ zero_extendqisi2
 142:Src/radarandec20.c ****   {
 704              		.loc 1 142 3 discriminator 1
 705 0046 9A42     		cmp	r2, r3
 706 0048 E9DA     		bge	.L15
 147:Src/radarandec20.c ****     }
 148:Src/radarandec20.c ****   }
 149:Src/radarandec20.c ****   return 0;
 707              		.loc 1 149 10
 708 004a 0023     		movs	r3, #0
 709              	.L14:
 150:Src/radarandec20.c **** }
 710              		.loc 1 150 1
 711 004c 1846     		mov	r0, r3
 712 004e 1837     		adds	r7, r7, #24
 713              	.LCFI15:
 714              		.cfi_def_cfa_offset 8
 715 0050 BD46     		mov	sp, r7
 716              	.LCFI16:
 717              		.cfi_def_cfa_register 13
 718              		@ sp needed
 719 0052 80BD     		pop	{r7, pc}
 720              		.cfi_endproc
 721              	.LFE70:
 723              		.section	.text.HexStrConvert,"ax",%progbits
 724              		.align	1
ARM GAS  C:\Users\57298\AppData\Local\Temp\ccUzYvQq.s 			page 16


 725              		.global	HexStrConvert
 726              		.syntax unified
 727              		.thumb
 728              		.thumb_func
 730              	HexStrConvert:
 731              	.LFB71:
 151:Src/radarandec20.c **** 
 152:Src/radarandec20.c **** // AT发送TCP数据时候需要编码一下
 153:Src/radarandec20.c **** void HexStrConvert(unsigned char *Inp, unsigned char len, unsigned char *Outp)
 154:Src/radarandec20.c **** {
 732              		.loc 1 154 1
 733              		.cfi_startproc
 734              		@ args = 0, pretend = 0, frame = 24
 735              		@ frame_needed = 1, uses_anonymous_args = 0
 736              		@ link register save eliminated.
 737 0000 80B4     		push	{r7}
 738              	.LCFI17:
 739              		.cfi_def_cfa_offset 4
 740              		.cfi_offset 7, -4
 741 0002 87B0     		sub	sp, sp, #28
 742              	.LCFI18:
 743              		.cfi_def_cfa_offset 32
 744 0004 00AF     		add	r7, sp, #0
 745              	.LCFI19:
 746              		.cfi_def_cfa_register 7
 747 0006 F860     		str	r0, [r7, #12]
 748 0008 0B46     		mov	r3, r1
 749 000a 7A60     		str	r2, [r7, #4]
 750 000c FB72     		strb	r3, [r7, #11]
 155:Src/radarandec20.c ****   unsigned char hexH = 0;
 751              		.loc 1 155 17
 752 000e 0023     		movs	r3, #0
 753 0010 FB75     		strb	r3, [r7, #23]
 156:Src/radarandec20.c ****   unsigned char hexL = 0;
 754              		.loc 1 156 17
 755 0012 0023     		movs	r3, #0
 756 0014 BB75     		strb	r3, [r7, #22]
 157:Src/radarandec20.c ****   unsigned char i = 0;
 757              		.loc 1 157 17
 758 0016 0023     		movs	r3, #0
 759 0018 7B75     		strb	r3, [r7, #21]
 158:Src/radarandec20.c **** 
 159:Src/radarandec20.c ****   for (i = 0; i < len; i++)
 760              		.loc 1 159 10
 761 001a 0023     		movs	r3, #0
 762 001c 7B75     		strb	r3, [r7, #21]
 763              		.loc 1 159 3
 764 001e 2CE0     		b	.L17
 765              	.L22:
 160:Src/radarandec20.c ****   {
 161:Src/radarandec20.c ****     hexH = (*Inp) / 16;
 766              		.loc 1 161 13
 767 0020 FB68     		ldr	r3, [r7, #12]
 768 0022 1B78     		ldrb	r3, [r3]	@ zero_extendqisi2
 769              		.loc 1 161 10
 770 0024 1B09     		lsrs	r3, r3, #4
 771 0026 FB75     		strb	r3, [r7, #23]
ARM GAS  C:\Users\57298\AppData\Local\Temp\ccUzYvQq.s 			page 17


 162:Src/radarandec20.c ****     hexL = (*Inp) % 16;
 772              		.loc 1 162 13
 773 0028 FB68     		ldr	r3, [r7, #12]
 774 002a 1B78     		ldrb	r3, [r3]	@ zero_extendqisi2
 775              		.loc 1 162 10
 776 002c 03F00F03 		and	r3, r3, #15
 777 0030 BB75     		strb	r3, [r7, #22]
 163:Src/radarandec20.c ****     Inp++;
 778              		.loc 1 163 8
 779 0032 FB68     		ldr	r3, [r7, #12]
 780 0034 0133     		adds	r3, r3, #1
 781 0036 FB60     		str	r3, [r7, #12]
 164:Src/radarandec20.c ****     if (hexH >= 10)
 782              		.loc 1 164 8
 783 0038 FB7D     		ldrb	r3, [r7, #23]	@ zero_extendqisi2
 784 003a 092B     		cmp	r3, #9
 785 003c 03D9     		bls	.L18
 165:Src/radarandec20.c ****       hexH = hexH - 10 + 'A';
 786              		.loc 1 165 12
 787 003e FB7D     		ldrb	r3, [r7, #23]
 788 0040 3733     		adds	r3, r3, #55
 789 0042 FB75     		strb	r3, [r7, #23]
 790 0044 02E0     		b	.L19
 791              	.L18:
 166:Src/radarandec20.c ****     else
 167:Src/radarandec20.c ****       hexH = hexH + '0';
 792              		.loc 1 167 12
 793 0046 FB7D     		ldrb	r3, [r7, #23]
 794 0048 3033     		adds	r3, r3, #48
 795 004a FB75     		strb	r3, [r7, #23]
 796              	.L19:
 168:Src/radarandec20.c ****     if (hexL >= 10)
 797              		.loc 1 168 8
 798 004c BB7D     		ldrb	r3, [r7, #22]	@ zero_extendqisi2
 799 004e 092B     		cmp	r3, #9
 800 0050 03D9     		bls	.L20
 169:Src/radarandec20.c ****       hexL = hexL - 10 + 'A';
 801              		.loc 1 169 12
 802 0052 BB7D     		ldrb	r3, [r7, #22]
 803 0054 3733     		adds	r3, r3, #55
 804 0056 BB75     		strb	r3, [r7, #22]
 805 0058 02E0     		b	.L21
 806              	.L20:
 170:Src/radarandec20.c ****     else
 171:Src/radarandec20.c ****       hexL = hexL + '0';
 807              		.loc 1 171 12
 808 005a BB7D     		ldrb	r3, [r7, #22]
 809 005c 3033     		adds	r3, r3, #48
 810 005e BB75     		strb	r3, [r7, #22]
 811              	.L21:
 172:Src/radarandec20.c ****     *Outp++ = hexH;
 812              		.loc 1 172 10 discriminator 2
 813 0060 7B68     		ldr	r3, [r7, #4]
 814 0062 5A1C     		adds	r2, r3, #1
 815 0064 7A60     		str	r2, [r7, #4]
 816              		.loc 1 172 13 discriminator 2
 817 0066 FA7D     		ldrb	r2, [r7, #23]
ARM GAS  C:\Users\57298\AppData\Local\Temp\ccUzYvQq.s 			page 18


 818 0068 1A70     		strb	r2, [r3]
 173:Src/radarandec20.c ****     *Outp++ = hexL;
 819              		.loc 1 173 10 discriminator 2
 820 006a 7B68     		ldr	r3, [r7, #4]
 821 006c 5A1C     		adds	r2, r3, #1
 822 006e 7A60     		str	r2, [r7, #4]
 823              		.loc 1 173 13 discriminator 2
 824 0070 BA7D     		ldrb	r2, [r7, #22]
 825 0072 1A70     		strb	r2, [r3]
 159:Src/radarandec20.c ****   {
 826              		.loc 1 159 25 discriminator 2
 827 0074 7B7D     		ldrb	r3, [r7, #21]	@ zero_extendqisi2
 828 0076 0133     		adds	r3, r3, #1
 829 0078 7B75     		strb	r3, [r7, #21]
 830              	.L17:
 159:Src/radarandec20.c ****   {
 831              		.loc 1 159 3 discriminator 1
 832 007a 7A7D     		ldrb	r2, [r7, #21]	@ zero_extendqisi2
 833 007c FB7A     		ldrb	r3, [r7, #11]	@ zero_extendqisi2
 834 007e 9A42     		cmp	r2, r3
 835 0080 CED3     		bcc	.L22
 174:Src/radarandec20.c ****   }
 175:Src/radarandec20.c **** }
 836              		.loc 1 175 1
 837 0082 00BF     		nop
 838 0084 00BF     		nop
 839 0086 1C37     		adds	r7, r7, #28
 840              	.LCFI20:
 841              		.cfi_def_cfa_offset 4
 842 0088 BD46     		mov	sp, r7
 843              	.LCFI21:
 844              		.cfi_def_cfa_register 13
 845              		@ sp needed
 846 008a 80BC     		pop	{r7}
 847              	.LCFI22:
 848              		.cfi_restore 7
 849              		.cfi_def_cfa_offset 0
 850 008c 7047     		bx	lr
 851              		.cfi_endproc
 852              	.LFE71:
 854              		.section	.text.delay_ms,"ax",%progbits
 855              		.align	1
 856              		.global	delay_ms
 857              		.syntax unified
 858              		.thumb
 859              		.thumb_func
 861              	delay_ms:
 862              	.LFB72:
 176:Src/radarandec20.c **** // 延时 这个函数需要把编译优化改成NONE才行
 177:Src/radarandec20.c **** void delay_ms(unsigned int n)
 178:Src/radarandec20.c **** {
 863              		.loc 1 178 1
 864              		.cfi_startproc
 865              		@ args = 0, pretend = 0, frame = 8
 866              		@ frame_needed = 1, uses_anonymous_args = 0
 867              		@ link register save eliminated.
 868 0000 80B4     		push	{r7}
ARM GAS  C:\Users\57298\AppData\Local\Temp\ccUzYvQq.s 			page 19


 869              	.LCFI23:
 870              		.cfi_def_cfa_offset 4
 871              		.cfi_offset 7, -4
 872 0002 83B0     		sub	sp, sp, #12
 873              	.LCFI24:
 874              		.cfi_def_cfa_offset 16
 875 0004 00AF     		add	r7, sp, #0
 876              	.LCFI25:
 877              		.cfi_def_cfa_register 7
 878 0006 7860     		str	r0, [r7, #4]
 179:Src/radarandec20.c ****   msint = 0;
 879              		.loc 1 179 9
 880 0008 074B     		ldr	r3, .L25
 881 000a 0022     		movs	r2, #0
 882 000c 1A60     		str	r2, [r3]
 180:Src/radarandec20.c ****   while (n > msint)
 883              		.loc 1 180 9
 884 000e 00BF     		nop
 885              	.L24:
 886              		.loc 1 180 12 discriminator 1
 887 0010 054B     		ldr	r3, .L25
 888 0012 1B68     		ldr	r3, [r3]
 889              		.loc 1 180 9 discriminator 1
 890 0014 7A68     		ldr	r2, [r7, #4]
 891 0016 9A42     		cmp	r2, r3
 892 0018 FAD8     		bhi	.L24
 181:Src/radarandec20.c ****     ;
 182:Src/radarandec20.c **** }
 893              		.loc 1 182 1
 894 001a 00BF     		nop
 895 001c 00BF     		nop
 896 001e 0C37     		adds	r7, r7, #12
 897              	.LCFI26:
 898              		.cfi_def_cfa_offset 4
 899 0020 BD46     		mov	sp, r7
 900              	.LCFI27:
 901              		.cfi_def_cfa_register 13
 902              		@ sp needed
 903 0022 80BC     		pop	{r7}
 904              	.LCFI28:
 905              		.cfi_restore 7
 906              		.cfi_def_cfa_offset 0
 907 0024 7047     		bx	lr
 908              	.L26:
 909 0026 00BF     		.align	2
 910              	.L25:
 911 0028 00000000 		.word	msint
 912              		.cfi_endproc
 913              	.LFE72:
 915              		.section	.text.ec20power,"ax",%progbits
 916              		.align	1
 917              		.global	ec20power
 918              		.syntax unified
 919              		.thumb
 920              		.thumb_func
 922              	ec20power:
 923              	.LFB73:
ARM GAS  C:\Users\57298\AppData\Local\Temp\ccUzYvQq.s 			page 20


 183:Src/radarandec20.c **** 
 184:Src/radarandec20.c **** // 开关EC20的电源连着三极管控制开关电源
 185:Src/radarandec20.c **** void ec20power(unsigned char onoffflag)
 186:Src/radarandec20.c **** {
 924              		.loc 1 186 1
 925              		.cfi_startproc
 926              		@ args = 0, pretend = 0, frame = 8
 927              		@ frame_needed = 1, uses_anonymous_args = 0
 928 0000 80B5     		push	{r7, lr}
 929              	.LCFI29:
 930              		.cfi_def_cfa_offset 8
 931              		.cfi_offset 7, -8
 932              		.cfi_offset 14, -4
 933 0002 82B0     		sub	sp, sp, #8
 934              	.LCFI30:
 935              		.cfi_def_cfa_offset 16
 936 0004 00AF     		add	r7, sp, #0
 937              	.LCFI31:
 938              		.cfi_def_cfa_register 7
 939 0006 0346     		mov	r3, r0
 940 0008 FB71     		strb	r3, [r7, #7]
 187:Src/radarandec20.c ****   rstHig;
 941              		.loc 1 187 3
 942 000a 0122     		movs	r2, #1
 943 000c 0221     		movs	r1, #2
 944 000e 1448     		ldr	r0, .L31
 945 0010 FFF7FEFF 		bl	HAL_GPIO_WritePin
 188:Src/radarandec20.c ****   powerHig;
 946              		.loc 1 188 3
 947 0014 0122     		movs	r2, #1
 948 0016 0221     		movs	r1, #2
 949 0018 1248     		ldr	r0, .L31+4
 950 001a FFF7FEFF 		bl	HAL_GPIO_WritePin
 189:Src/radarandec20.c **** 
 190:Src/radarandec20.c ****   if (onoffflag) // 开
 951              		.loc 1 190 6
 952 001e FB79     		ldrb	r3, [r7, #7]	@ zero_extendqisi2
 953 0020 002B     		cmp	r3, #0
 954 0022 0ED0     		beq	.L28
 191:Src/radarandec20.c ****   {
 192:Src/radarandec20.c ****     powerLow;
 955              		.loc 1 192 5
 956 0024 0022     		movs	r2, #0
 957 0026 0221     		movs	r1, #2
 958 0028 0E48     		ldr	r0, .L31+4
 959 002a FFF7FEFF 		bl	HAL_GPIO_WritePin
 193:Src/radarandec20.c ****     delay_oledms(500);
 960              		.loc 1 193 5
 961 002e 4FF4FA70 		mov	r0, #500
 962 0032 FFF7FEFF 		bl	delay_oledms
 194:Src/radarandec20.c ****     rstLow;
 963              		.loc 1 194 5
 964 0036 0022     		movs	r2, #0
 965 0038 0221     		movs	r1, #2
 966 003a 0948     		ldr	r0, .L31
 967 003c FFF7FEFF 		bl	HAL_GPIO_WritePin
 195:Src/radarandec20.c ****   }
ARM GAS  C:\Users\57298\AppData\Local\Temp\ccUzYvQq.s 			page 21


 196:Src/radarandec20.c ****   else
 197:Src/radarandec20.c ****   {
 198:Src/radarandec20.c ****     rstHig;
 199:Src/radarandec20.c ****     powerHig;
 200:Src/radarandec20.c ****   }
 201:Src/radarandec20.c **** }
 968              		.loc 1 201 1
 969 0040 09E0     		b	.L30
 970              	.L28:
 198:Src/radarandec20.c ****     powerHig;
 971              		.loc 1 198 5
 972 0042 0122     		movs	r2, #1
 973 0044 0221     		movs	r1, #2
 974 0046 0648     		ldr	r0, .L31
 975 0048 FFF7FEFF 		bl	HAL_GPIO_WritePin
 199:Src/radarandec20.c ****   }
 976              		.loc 1 199 5
 977 004c 0122     		movs	r2, #1
 978 004e 0221     		movs	r1, #2
 979 0050 0448     		ldr	r0, .L31+4
 980 0052 FFF7FEFF 		bl	HAL_GPIO_WritePin
 981              	.L30:
 982              		.loc 1 201 1
 983 0056 00BF     		nop
 984 0058 0837     		adds	r7, r7, #8
 985              	.LCFI32:
 986              		.cfi_def_cfa_offset 8
 987 005a BD46     		mov	sp, r7
 988              	.LCFI33:
 989              		.cfi_def_cfa_register 13
 990              		@ sp needed
 991 005c 80BD     		pop	{r7, pc}
 992              	.L32:
 993 005e 00BF     		.align	2
 994              	.L31:
 995 0060 000C0140 		.word	1073810432
 996 0064 00100140 		.word	1073811456
 997              		.cfi_endproc
 998              	.LFE73:
 1000              		.global	txb
 1001              		.section	.bss.txb,"aw",%nobits
 1002              		.align	2
 1005              	txb:
 1006 0000 00000000 		.space	20
 1006      00000000 
 1006      00000000 
 1006      00000000 
 1006      00000000 
 1007              		.section	.rodata
 1008 0196 0000     		.align	2
 1009              	.LC27:
 1010 0198 69643A25 		.ascii	"id:%x\015\012\000\000"
 1010      780D0A00 
 1010      00
 1011              		.section	.text.GetIDCode,"ax",%progbits
 1012              		.align	1
 1013              		.global	GetIDCode
ARM GAS  C:\Users\57298\AppData\Local\Temp\ccUzYvQq.s 			page 22


 1014              		.syntax unified
 1015              		.thumb
 1016              		.thumb_func
 1018              	GetIDCode:
 1019              	.LFB74:
 202:Src/radarandec20.c **** char txb[20];
 203:Src/radarandec20.c **** 
 204:Src/radarandec20.c **** // 获取唯一ID
 205:Src/radarandec20.c **** unsigned int GetIDCode(void)
 206:Src/radarandec20.c **** {
 1020              		.loc 1 206 1
 1021              		.cfi_startproc
 1022              		@ args = 0, pretend = 0, frame = 0
 1023              		@ frame_needed = 1, uses_anonymous_args = 0
 1024 0000 80B5     		push	{r7, lr}
 1025              	.LCFI34:
 1026              		.cfi_def_cfa_offset 8
 1027              		.cfi_offset 7, -8
 1028              		.cfi_offset 14, -4
 1029 0002 00AF     		add	r7, sp, #0
 1030              	.LCFI35:
 1031              		.cfi_def_cfa_register 7
 207:Src/radarandec20.c ****   // 获取CPU唯一ID
 208:Src/radarandec20.c **** #if 0 // stm32f407
 209:Src/radarandec20.c ****   CpuID[0]=*(unsigned int *)(0x1fff7a10);
 210:Src/radarandec20.c ****   CpuID[1]=*(unsigned int *)(0x1fff7a14);
 211:Src/radarandec20.c ****   CpuID[2]=*(unsigned int *)(0x1fff7a18);
 212:Src/radarandec20.c **** #endif
 213:Src/radarandec20.c **** #if 1 // stm32f103
 214:Src/radarandec20.c ****   CpuID[0] = *(unsigned int *)(0x1FFFF7E8);
 1032              		.loc 1 214 14
 1033 0004 154B     		ldr	r3, .L35
 1034 0006 1B68     		ldr	r3, [r3]
 1035              		.loc 1 214 12
 1036 0008 154A     		ldr	r2, .L35+4
 1037 000a 1360     		str	r3, [r2]
 215:Src/radarandec20.c ****   CpuID[1] = *(unsigned int *)(0x1FFFF7EC);
 1038              		.loc 1 215 14
 1039 000c 154B     		ldr	r3, .L35+8
 1040 000e 1B68     		ldr	r3, [r3]
 1041              		.loc 1 215 12
 1042 0010 134A     		ldr	r2, .L35+4
 1043 0012 5360     		str	r3, [r2, #4]
 216:Src/radarandec20.c ****   CpuID[2] = *(unsigned int *)(0x1FFFF7F0);
 1044              		.loc 1 216 14
 1045 0014 144B     		ldr	r3, .L35+12
 1046 0016 1B68     		ldr	r3, [r3]
 1047              		.loc 1 216 12
 1048 0018 114A     		ldr	r2, .L35+4
 1049 001a 9360     		str	r3, [r2, #8]
 217:Src/radarandec20.c **** #endif
 218:Src/radarandec20.c ****   SendID = (CpuID[0] >> 1) + (CpuID[1] >> 2) + (CpuID[2] >> 3);
 1050              		.loc 1 218 18
 1051 001c 104B     		ldr	r3, .L35+4
 1052 001e 1B68     		ldr	r3, [r3]
 1053              		.loc 1 218 22
 1054 0020 5A08     		lsrs	r2, r3, #1
ARM GAS  C:\Users\57298\AppData\Local\Temp\ccUzYvQq.s 			page 23


 1055              		.loc 1 218 36
 1056 0022 0F4B     		ldr	r3, .L35+4
 1057 0024 5B68     		ldr	r3, [r3, #4]
 1058              		.loc 1 218 40
 1059 0026 9B08     		lsrs	r3, r3, #2
 1060              		.loc 1 218 28
 1061 0028 1A44     		add	r2, r2, r3
 1062              		.loc 1 218 54
 1063 002a 0D4B     		ldr	r3, .L35+4
 1064 002c 9B68     		ldr	r3, [r3, #8]
 1065              		.loc 1 218 58
 1066 002e DB08     		lsrs	r3, r3, #3
 1067              		.loc 1 218 46
 1068 0030 1344     		add	r3, r3, r2
 1069              		.loc 1 218 10
 1070 0032 0E4A     		ldr	r2, .L35+16
 1071 0034 1360     		str	r3, [r2]
 219:Src/radarandec20.c ****   //  SendID=0x15A0;
 220:Src/radarandec20.c ****   SendID = 0x15B1;
 1072              		.loc 1 220 10
 1073 0036 0D4B     		ldr	r3, .L35+16
 1074 0038 41F2B152 		movw	r2, #5553
 1075 003c 1A60     		str	r2, [r3]
 221:Src/radarandec20.c ****   // SendID=0x15B2;
 222:Src/radarandec20.c ****   //  SendID=0x15C0;
 223:Src/radarandec20.c ****   //  SendID=0x15D1;
 224:Src/radarandec20.c ****   //  SendID=0x15D2;
 225:Src/radarandec20.c ****   sprintf(txb, "id:%x\r\n\0", SendID);
 1076              		.loc 1 225 3
 1077 003e 0B4B     		ldr	r3, .L35+16
 1078 0040 1B68     		ldr	r3, [r3]
 1079 0042 1A46     		mov	r2, r3
 1080 0044 0A49     		ldr	r1, .L35+20
 1081 0046 0B48     		ldr	r0, .L35+24
 1082 0048 FFF7FEFF 		bl	sprintf
 226:Src/radarandec20.c ****   SendTxDebug((unsigned char *)txb);
 1083              		.loc 1 226 3
 1084 004c 0948     		ldr	r0, .L35+24
 1085 004e FFF7FEFF 		bl	SendTxDebug
 227:Src/radarandec20.c **** 
 228:Src/radarandec20.c ****   return SendID;
 1086              		.loc 1 228 10
 1087 0052 064B     		ldr	r3, .L35+16
 1088 0054 1B68     		ldr	r3, [r3]
 229:Src/radarandec20.c **** }
 1089              		.loc 1 229 1
 1090 0056 1846     		mov	r0, r3
 1091 0058 80BD     		pop	{r7, pc}
 1092              	.L36:
 1093 005a 00BF     		.align	2
 1094              	.L35:
 1095 005c E8F7FF1F 		.word	536868840
 1096 0060 00000000 		.word	CpuID
 1097 0064 ECF7FF1F 		.word	536868844
 1098 0068 F0F7FF1F 		.word	536868848
 1099 006c 00000000 		.word	SendID
 1100 0070 98010000 		.word	.LC27
ARM GAS  C:\Users\57298\AppData\Local\Temp\ccUzYvQq.s 			page 24


 1101 0074 00000000 		.word	txb
 1102              		.cfi_endproc
 1103              	.LFE74:
 1105              		.section	.rodata
 1106 01a1 000000   		.align	2
 1107              	.LC28:
 1108 01a4 30303030 		.ascii	"000000.000\000"
 1108      30302E30 
 1108      303000
 1109 01af 00       		.align	2
 1110              	.LC29:
 1111 01b0 30303030 		.ascii	"0000.0000N\000"
 1111      2E303030 
 1111      304E00
 1112 01bb 00       		.align	2
 1113              	.LC30:
 1114 01bc 30303030 		.ascii	"00000.0000E\000"
 1114      302E3030 
 1114      30304500 
 1115              		.align	2
 1116              	.LC31:
 1117 01c8 32353137 		.ascii	"2517.2831N\000"
 1117      2E323833 
 1117      314E00
 1118 01d3 00       		.align	2
 1119              	.LC32:
 1120 01d4 3131372E 		.ascii	"117.242314E\000"
 1120      32343233 
 1120      31344500 
 1121              		.align	2
 1122              	.LC33:
 1123 01e0 41542B51 		.ascii	"AT+QISENDEX=0,\"\000\000"
 1123      4953454E 
 1123      4445583D 
 1123      302C2200 
 1123      00
 1124 01f1 000000   		.align	2
 1125              	.LC34:
 1126 01f4 220D0A00 		.ascii	"\"\015\012\000\000"
 1126      00
 1127              		.section	.text.DataSendPre,"ax",%progbits
 1128              		.align	1
 1129              		.global	DataSendPre
 1130              		.syntax unified
 1131              		.thumb
 1132              		.thumb_func
 1134              	DataSendPre:
 1135              	.LFB75:
 230:Src/radarandec20.c **** void DataSendPre(void)
 231:Src/radarandec20.c **** {
 1136              		.loc 1 231 1
 1137              		.cfi_startproc
 1138              		@ args = 0, pretend = 0, frame = 8
 1139              		@ frame_needed = 1, uses_anonymous_args = 0
 1140 0000 80B5     		push	{r7, lr}
 1141              	.LCFI36:
 1142              		.cfi_def_cfa_offset 8
ARM GAS  C:\Users\57298\AppData\Local\Temp\ccUzYvQq.s 			page 25


 1143              		.cfi_offset 7, -8
 1144              		.cfi_offset 14, -4
 1145 0002 82B0     		sub	sp, sp, #8
 1146              	.LCFI37:
 1147              		.cfi_def_cfa_offset 16
 1148 0004 00AF     		add	r7, sp, #0
 1149              	.LCFI38:
 1150              		.cfi_def_cfa_register 7
 232:Src/radarandec20.c **** 
 233:Src/radarandec20.c ****   unsigned short i = 0;
 1151              		.loc 1 233 18
 1152 0006 0023     		movs	r3, #0
 1153 0008 BB80     		strh	r3, [r7, #4]	@ movhi
 234:Src/radarandec20.c ****   unsigned char cnt = 0;
 1154              		.loc 1 234 17
 1155 000a 0023     		movs	r3, #0
 1156 000c FB71     		strb	r3, [r7, #7]
 235:Src/radarandec20.c ****   static unsigned int indx = 0;
 236:Src/radarandec20.c ****   if (waringtime > 0)
 1157              		.loc 1 236 18
 1158 000e 794B     		ldr	r3, .L47
 1159 0010 1B68     		ldr	r3, [r3]
 1160              		.loc 1 236 6
 1161 0012 002B     		cmp	r3, #0
 1162 0014 00F0BC80 		beq	.L38
 237:Src/radarandec20.c ****   {
 238:Src/radarandec20.c ****     pec20 = &ec20send;
 1163              		.loc 1 238 11
 1164 0018 774B     		ldr	r3, .L47+4
 1165 001a 784A     		ldr	r2, .L47+8
 1166 001c 1A60     		str	r2, [r3]
 239:Src/radarandec20.c ****     ec20send.Len = sizeof(Ec20SendData);
 1167              		.loc 1 239 18
 1168 001e 774B     		ldr	r3, .L47+8
 1169 0020 4622     		movs	r2, #70
 1170 0022 1A60     		str	r2, [r3]
 240:Src/radarandec20.c ****     ec20send.ID = GetIDCode();
 1171              		.loc 1 240 19
 1172 0024 FFF7FEFF 		bl	GetIDCode
 1173 0028 0346     		mov	r3, r0
 1174              		.loc 1 240 17
 1175 002a 744A     		ldr	r2, .L47+8
 1176 002c 5360     		str	r3, [r2, #4]
 241:Src/radarandec20.c ****     ec20send.Send_Index = indx++;
 1177              		.loc 1 241 31
 1178 002e 744B     		ldr	r3, .L47+12
 1179 0030 1B68     		ldr	r3, [r3]
 1180 0032 5A1C     		adds	r2, r3, #1
 1181 0034 7249     		ldr	r1, .L47+12
 1182 0036 0A60     		str	r2, [r1]
 1183              		.loc 1 241 25
 1184 0038 704A     		ldr	r2, .L47+8
 1185 003a 9360     		str	r3, [r2, #8]
 242:Src/radarandec20.c ****     ec20send.Radar1_Cnt = lifetime_count[0];
 1186              		.loc 1 242 41
 1187 003c 714B     		ldr	r3, .L47+16
 1188 003e 1B78     		ldrb	r3, [r3]	@ zero_extendqisi2
ARM GAS  C:\Users\57298\AppData\Local\Temp\ccUzYvQq.s 			page 26


 1189 0040 1A46     		mov	r2, r3
 1190              		.loc 1 242 25
 1191 0042 6E4B     		ldr	r3, .L47+8
 1192 0044 DA60     		str	r2, [r3, #12]
 243:Src/radarandec20.c ****     ec20send.Radar2_Cnt = lifetime_count[1];
 1193              		.loc 1 243 41
 1194 0046 6F4B     		ldr	r3, .L47+16
 1195 0048 5B78     		ldrb	r3, [r3, #1]	@ zero_extendqisi2
 1196 004a 1A46     		mov	r2, r3
 1197              		.loc 1 243 25
 1198 004c 6B4B     		ldr	r3, .L47+8
 1199 004e 1A61     		str	r2, [r3, #16]
 244:Src/radarandec20.c ****     ec20send.Radar3_Cnt = lifetime_count[2];
 1200              		.loc 1 244 41
 1201 0050 6C4B     		ldr	r3, .L47+16
 1202 0052 9B78     		ldrb	r3, [r3, #2]	@ zero_extendqisi2
 1203 0054 1A46     		mov	r2, r3
 1204              		.loc 1 244 25
 1205 0056 694B     		ldr	r3, .L47+8
 1206 0058 5A61     		str	r2, [r3, #20]
 245:Src/radarandec20.c ****     ec20send.Radar4_Cnt = lifetime_count[3];
 1207              		.loc 1 245 41
 1208 005a 6A4B     		ldr	r3, .L47+16
 1209 005c DB78     		ldrb	r3, [r3, #3]	@ zero_extendqisi2
 1210 005e 1A46     		mov	r2, r3
 1211              		.loc 1 245 25
 1212 0060 664B     		ldr	r3, .L47+8
 1213 0062 9A61     		str	r2, [r3, #24]
 246:Src/radarandec20.c ****     ec20send.Radar1_Warm = warmSend[0]; // 报警
 1214              		.loc 1 246 36
 1215 0064 684B     		ldr	r3, .L47+20
 1216 0066 1A78     		ldrb	r2, [r3]	@ zero_extendqisi2
 1217              		.loc 1 246 26
 1218 0068 644B     		ldr	r3, .L47+8
 1219 006a 1A77     		strb	r2, [r3, #28]
 247:Src/radarandec20.c ****     ec20send.Radar2_Warm = warmSend[1];
 1220              		.loc 1 247 36
 1221 006c 664B     		ldr	r3, .L47+20
 1222 006e 5A78     		ldrb	r2, [r3, #1]	@ zero_extendqisi2
 1223              		.loc 1 247 26
 1224 0070 624B     		ldr	r3, .L47+8
 1225 0072 5A77     		strb	r2, [r3, #29]
 248:Src/radarandec20.c ****     ec20send.Radar3_Warm = warmSend[2];
 1226              		.loc 1 248 36
 1227 0074 644B     		ldr	r3, .L47+20
 1228 0076 9A78     		ldrb	r2, [r3, #2]	@ zero_extendqisi2
 1229              		.loc 1 248 26
 1230 0078 604B     		ldr	r3, .L47+8
 1231 007a 9A77     		strb	r2, [r3, #30]
 249:Src/radarandec20.c ****     ec20send.Radar4_Warm = warmSend[3];
 1232              		.loc 1 249 36
 1233 007c 624B     		ldr	r3, .L47+20
 1234 007e DA78     		ldrb	r2, [r3, #3]	@ zero_extendqisi2
 1235              		.loc 1 249 26
 1236 0080 5E4B     		ldr	r3, .L47+8
 1237 0082 DA77     		strb	r2, [r3, #31]
 250:Src/radarandec20.c ****     if (ec20send.Radar1_Warm == 1)
ARM GAS  C:\Users\57298\AppData\Local\Temp\ccUzYvQq.s 			page 27


 1238              		.loc 1 250 17
 1239 0084 5D4B     		ldr	r3, .L47+8
 1240 0086 1B7F     		ldrb	r3, [r3, #28]	@ zero_extendqisi2
 1241              		.loc 1 250 8
 1242 0088 012B     		cmp	r3, #1
 1243 008a 02D1     		bne	.L39
 251:Src/radarandec20.c ****       cnt++;
 1244              		.loc 1 251 10
 1245 008c FB79     		ldrb	r3, [r7, #7]	@ zero_extendqisi2
 1246 008e 0133     		adds	r3, r3, #1
 1247 0090 FB71     		strb	r3, [r7, #7]
 1248              	.L39:
 252:Src/radarandec20.c ****     if (ec20send.Radar2_Warm == 1)
 1249              		.loc 1 252 17
 1250 0092 5A4B     		ldr	r3, .L47+8
 1251 0094 5B7F     		ldrb	r3, [r3, #29]	@ zero_extendqisi2
 1252              		.loc 1 252 8
 1253 0096 012B     		cmp	r3, #1
 1254 0098 02D1     		bne	.L40
 253:Src/radarandec20.c ****       cnt++;
 1255              		.loc 1 253 10
 1256 009a FB79     		ldrb	r3, [r7, #7]	@ zero_extendqisi2
 1257 009c 0133     		adds	r3, r3, #1
 1258 009e FB71     		strb	r3, [r7, #7]
 1259              	.L40:
 254:Src/radarandec20.c ****     if (ec20send.Radar3_Warm == 1)
 1260              		.loc 1 254 17
 1261 00a0 564B     		ldr	r3, .L47+8
 1262 00a2 9B7F     		ldrb	r3, [r3, #30]	@ zero_extendqisi2
 1263              		.loc 1 254 8
 1264 00a4 012B     		cmp	r3, #1
 1265 00a6 02D1     		bne	.L41
 255:Src/radarandec20.c ****       cnt++;
 1266              		.loc 1 255 10
 1267 00a8 FB79     		ldrb	r3, [r7, #7]	@ zero_extendqisi2
 1268 00aa 0133     		adds	r3, r3, #1
 1269 00ac FB71     		strb	r3, [r7, #7]
 1270              	.L41:
 256:Src/radarandec20.c ****     if (ec20send.Radar4_Warm == 1)
 1271              		.loc 1 256 17
 1272 00ae 534B     		ldr	r3, .L47+8
 1273 00b0 DB7F     		ldrb	r3, [r3, #31]	@ zero_extendqisi2
 1274              		.loc 1 256 8
 1275 00b2 012B     		cmp	r3, #1
 1276 00b4 02D1     		bne	.L42
 257:Src/radarandec20.c ****       cnt++;
 1277              		.loc 1 257 10
 1278 00b6 FB79     		ldrb	r3, [r7, #7]	@ zero_extendqisi2
 1279 00b8 0133     		adds	r3, r3, #1
 1280 00ba FB71     		strb	r3, [r7, #7]
 1281              	.L42:
 258:Src/radarandec20.c ****     ec20send.Alarm_Cnt = cnt;
 1282              		.loc 1 258 24
 1283 00bc 4F4A     		ldr	r2, .L47+8
 1284 00be FB79     		ldrb	r3, [r7, #7]
 1285 00c0 82F82030 		strb	r3, [r2, #32]
 259:Src/radarandec20.c ****     ec20send.Alarm_Enable = warmnobeep;
ARM GAS  C:\Users\57298\AppData\Local\Temp\ccUzYvQq.s 			page 28


 1286              		.loc 1 259 27
 1287 00c4 514B     		ldr	r3, .L47+24
 1288 00c6 1A78     		ldrb	r2, [r3]	@ zero_extendqisi2
 1289 00c8 4C4B     		ldr	r3, .L47+8
 1290 00ca 83F82120 		strb	r2, [r3, #33]
 260:Src/radarandec20.c ****     ec20send.GPS_State = GPSStatFlag;
 1291              		.loc 1 260 24
 1292 00ce 504B     		ldr	r3, .L47+28
 1293 00d0 1A78     		ldrb	r2, [r3]	@ zero_extendqisi2
 1294 00d2 4A4B     		ldr	r3, .L47+8
 1295 00d4 83F82220 		strb	r2, [r3, #34]
 261:Src/radarandec20.c ****     if (GpsRecFlag == 0) // 未曾接受到gps数据
 1296              		.loc 1 261 20
 1297 00d8 4E4B     		ldr	r3, .L47+32
 1298 00da 1B78     		ldrb	r3, [r3]	@ zero_extendqisi2
 1299              		.loc 1 261 8
 1300 00dc 002B     		cmp	r3, #0
 1301 00de 18D1     		bne	.L43
 262:Src/radarandec20.c ****     {
 263:Src/radarandec20.c ****       memcpy((char *)&(pec20->Time[0]), "000000.000", 10);
 1302              		.loc 1 263 29
 1303 00e0 454B     		ldr	r3, .L47+4
 1304 00e2 1B68     		ldr	r3, [r3]
 1305              		.loc 1 263 22
 1306 00e4 2333     		adds	r3, r3, #35
 1307              		.loc 1 263 7
 1308 00e6 0A22     		movs	r2, #10
 1309 00e8 4B49     		ldr	r1, .L47+36
 1310 00ea 1846     		mov	r0, r3
 1311 00ec FFF7FEFF 		bl	memcpy
 264:Src/radarandec20.c ****       memcpy((char *)&(pec20->Latitude[0]), "0000.0000N", 10);
 1312              		.loc 1 264 29
 1313 00f0 414B     		ldr	r3, .L47+4
 1314 00f2 1B68     		ldr	r3, [r3]
 1315              		.loc 1 264 22
 1316 00f4 2D33     		adds	r3, r3, #45
 1317              		.loc 1 264 7
 1318 00f6 0A22     		movs	r2, #10
 1319 00f8 4849     		ldr	r1, .L47+40
 1320 00fa 1846     		mov	r0, r3
 1321 00fc FFF7FEFF 		bl	memcpy
 265:Src/radarandec20.c ****       memcpy((char *)&(pec20->longitude[0]), "00000.0000E", 11);
 1322              		.loc 1 265 29
 1323 0100 3D4B     		ldr	r3, .L47+4
 1324 0102 1B68     		ldr	r3, [r3]
 1325              		.loc 1 265 22
 1326 0104 3733     		adds	r3, r3, #55
 1327              		.loc 1 265 7
 1328 0106 0B22     		movs	r2, #11
 1329 0108 4549     		ldr	r1, .L47+44
 1330 010a 1846     		mov	r0, r3
 1331 010c FFF7FEFF 		bl	memcpy
 1332 0110 02E0     		b	.L44
 1333              	.L43:
 266:Src/radarandec20.c ****     }
 267:Src/radarandec20.c ****     else
 268:Src/radarandec20.c ****     {
ARM GAS  C:\Users\57298\AppData\Local\Temp\ccUzYvQq.s 			page 29


 269:Src/radarandec20.c ****       GpsRecFlag = 0;
 1334              		.loc 1 269 18
 1335 0112 404B     		ldr	r3, .L47+32
 1336 0114 0022     		movs	r2, #0
 1337 0116 1A70     		strb	r2, [r3]
 1338              	.L44:
 270:Src/radarandec20.c ****     }
 271:Src/radarandec20.c ****     sprintf((char *)&(pec20->Latitude[0]), "2517.2831N");
 1339              		.loc 1 271 28
 1340 0118 374B     		ldr	r3, .L47+4
 1341 011a 1B68     		ldr	r3, [r3]
 1342              		.loc 1 271 21
 1343 011c 2D33     		adds	r3, r3, #45
 1344              		.loc 1 271 5
 1345 011e 4149     		ldr	r1, .L47+48
 1346 0120 1846     		mov	r0, r3
 1347 0122 FFF7FEFF 		bl	sprintf
 272:Src/radarandec20.c ****     sprintf((char *)&(pec20->longitude[0]), "117.242314E");
 1348              		.loc 1 272 28
 1349 0126 344B     		ldr	r3, .L47+4
 1350 0128 1B68     		ldr	r3, [r3]
 1351              		.loc 1 272 21
 1352 012a 3733     		adds	r3, r3, #55
 1353              		.loc 1 272 5
 1354 012c 3E49     		ldr	r1, .L47+52
 1355 012e 1846     		mov	r0, r3
 1356 0130 FFF7FEFF 		bl	sprintf
 273:Src/radarandec20.c ****     ec20send.End = 0xffff0000;
 1357              		.loc 1 273 18
 1358 0134 314B     		ldr	r3, .L47+8
 1359 0136 0022     		movs	r2, #0
 1360 0138 A3F84220 		strh	r2, [r3, #66]	@ movhi
 1361 013c 4FF0FF32 		mov	r2, #-1
 1362 0140 A3F84420 		strh	r2, [r3, #68]	@ movhi
 274:Src/radarandec20.c ****     i = 0;
 1363              		.loc 1 274 7
 1364 0144 0023     		movs	r3, #0
 1365 0146 BB80     		strh	r3, [r7, #4]	@ movhi
 275:Src/radarandec20.c ****     sprintf((char *)&sendbuf[i], "AT+QISENDEX=0,\"\0"); // AT+QISENDEX=0,"
 1366              		.loc 1 275 29
 1367 0148 BB88     		ldrh	r3, [r7, #4]
 1368              		.loc 1 275 21
 1369 014a 384A     		ldr	r2, .L47+56
 1370 014c 1344     		add	r3, r3, r2
 1371              		.loc 1 275 5
 1372 014e 3849     		ldr	r1, .L47+60
 1373 0150 1846     		mov	r0, r3
 1374 0152 FFF7FEFF 		bl	sprintf
 276:Src/radarandec20.c ****     i = i + strlen("AT+QISENDEX=0,\"\0");
 1375              		.loc 1 276 7
 1376 0156 BB88     		ldrh	r3, [r7, #4]	@ movhi
 1377 0158 0F33     		adds	r3, r3, #15
 1378 015a BB80     		strh	r3, [r7, #4]	@ movhi
 277:Src/radarandec20.c ****     HexStrConvert((unsigned char *)&ec20send, sizeof(Ec20SendData), &sendbuf[i]);
 1379              		.loc 1 277 77
 1380 015c BB88     		ldrh	r3, [r7, #4]
 1381              		.loc 1 277 5
ARM GAS  C:\Users\57298\AppData\Local\Temp\ccUzYvQq.s 			page 30


 1382 015e 334A     		ldr	r2, .L47+56
 1383 0160 1344     		add	r3, r3, r2
 1384 0162 1A46     		mov	r2, r3
 1385 0164 4621     		movs	r1, #70
 1386 0166 2548     		ldr	r0, .L47+8
 1387 0168 FFF7FEFF 		bl	HexStrConvert
 278:Src/radarandec20.c ****     i = i + sizeof(Ec20SendData) * 2;
 1388              		.loc 1 278 7
 1389 016c BB88     		ldrh	r3, [r7, #4]	@ movhi
 1390 016e 8C33     		adds	r3, r3, #140
 1391 0170 BB80     		strh	r3, [r7, #4]	@ movhi
 279:Src/radarandec20.c ****     sprintf((char *)&sendbuf[i], "\"\r\n\0");                                // 3字节
 1392              		.loc 1 279 29
 1393 0172 BB88     		ldrh	r3, [r7, #4]
 1394              		.loc 1 279 21
 1395 0174 2D4A     		ldr	r2, .L47+56
 1396 0176 1344     		add	r3, r3, r2
 1397              		.loc 1 279 5
 1398 0178 2E49     		ldr	r1, .L47+64
 1399 017a 1846     		mov	r0, r3
 1400 017c FFF7FEFF 		bl	sprintf
 280:Src/radarandec20.c ****     HAL_UART_Transmit(&huart2, sendbuf, 2 * sizeof(Ec20SendData) + 18, 800); // 69*2+18=156一共发送
 1401              		.loc 1 280 5
 1402 0180 4FF44873 		mov	r3, #800
 1403 0184 9E22     		movs	r2, #158
 1404 0186 2949     		ldr	r1, .L47+56
 1405 0188 2B48     		ldr	r0, .L47+68
 1406 018a FFF7FEFF 		bl	HAL_UART_Transmit
 281:Src/radarandec20.c ****   }
 282:Src/radarandec20.c ****   else
 283:Src/radarandec20.c ****   {
 284:Src/radarandec20.c ****     ec20heart.Len = sizeof(Ec20HEART);
 285:Src/radarandec20.c ****     ec20heart.ID = GetIDCode();
 286:Src/radarandec20.c ****     i = 0;
 287:Src/radarandec20.c ****     sprintf((char *)&sendbuf[i], "AT+QISENDEX=0,\"\0"); // AT+QISENDEX=0,"
 288:Src/radarandec20.c ****     i = i + strlen("AT+QISENDEX=0,\"\0");
 289:Src/radarandec20.c ****     HexStrConvert((unsigned char *)&ec20heart, sizeof(Ec20HEART), &sendbuf[i]);
 290:Src/radarandec20.c ****     i = i + sizeof(Ec20HEART) * 2;
 291:Src/radarandec20.c ****     sprintf((char *)&sendbuf[i], "\"\r\n\0");                             // 3字节
 292:Src/radarandec20.c ****     HAL_UART_Transmit(&huart2, sendbuf, 2 * sizeof(Ec20HEART) + 18, 800); // 69*2+18=156一共发送156
 293:Src/radarandec20.c ****   }
 294:Src/radarandec20.c **** }
 1407              		.loc 1 294 1
 1408 018e 2CE0     		b	.L46
 1409              	.L38:
 284:Src/radarandec20.c ****     ec20heart.ID = GetIDCode();
 1410              		.loc 1 284 19
 1411 0190 2A4B     		ldr	r3, .L47+72
 1412 0192 0822     		movs	r2, #8
 1413 0194 1A60     		str	r2, [r3]
 285:Src/radarandec20.c ****     i = 0;
 1414              		.loc 1 285 20
 1415 0196 FFF7FEFF 		bl	GetIDCode
 1416 019a 0346     		mov	r3, r0
 285:Src/radarandec20.c ****     i = 0;
 1417              		.loc 1 285 18
 1418 019c 274A     		ldr	r2, .L47+72
ARM GAS  C:\Users\57298\AppData\Local\Temp\ccUzYvQq.s 			page 31


 1419 019e 5360     		str	r3, [r2, #4]
 286:Src/radarandec20.c ****     sprintf((char *)&sendbuf[i], "AT+QISENDEX=0,\"\0"); // AT+QISENDEX=0,"
 1420              		.loc 1 286 7
 1421 01a0 0023     		movs	r3, #0
 1422 01a2 BB80     		strh	r3, [r7, #4]	@ movhi
 287:Src/radarandec20.c ****     i = i + strlen("AT+QISENDEX=0,\"\0");
 1423              		.loc 1 287 29
 1424 01a4 BB88     		ldrh	r3, [r7, #4]
 287:Src/radarandec20.c ****     i = i + strlen("AT+QISENDEX=0,\"\0");
 1425              		.loc 1 287 21
 1426 01a6 214A     		ldr	r2, .L47+56
 1427 01a8 1344     		add	r3, r3, r2
 287:Src/radarandec20.c ****     i = i + strlen("AT+QISENDEX=0,\"\0");
 1428              		.loc 1 287 5
 1429 01aa 2149     		ldr	r1, .L47+60
 1430 01ac 1846     		mov	r0, r3
 1431 01ae FFF7FEFF 		bl	sprintf
 288:Src/radarandec20.c ****     HexStrConvert((unsigned char *)&ec20heart, sizeof(Ec20HEART), &sendbuf[i]);
 1432              		.loc 1 288 7
 1433 01b2 BB88     		ldrh	r3, [r7, #4]	@ movhi
 1434 01b4 0F33     		adds	r3, r3, #15
 1435 01b6 BB80     		strh	r3, [r7, #4]	@ movhi
 289:Src/radarandec20.c ****     i = i + sizeof(Ec20HEART) * 2;
 1436              		.loc 1 289 75
 1437 01b8 BB88     		ldrh	r3, [r7, #4]
 289:Src/radarandec20.c ****     i = i + sizeof(Ec20HEART) * 2;
 1438              		.loc 1 289 5
 1439 01ba 1C4A     		ldr	r2, .L47+56
 1440 01bc 1344     		add	r3, r3, r2
 1441 01be 1A46     		mov	r2, r3
 1442 01c0 0821     		movs	r1, #8
 1443 01c2 1E48     		ldr	r0, .L47+72
 1444 01c4 FFF7FEFF 		bl	HexStrConvert
 290:Src/radarandec20.c ****     sprintf((char *)&sendbuf[i], "\"\r\n\0");                             // 3字节
 1445              		.loc 1 290 7
 1446 01c8 BB88     		ldrh	r3, [r7, #4]	@ movhi
 1447 01ca 1033     		adds	r3, r3, #16
 1448 01cc BB80     		strh	r3, [r7, #4]	@ movhi
 291:Src/radarandec20.c ****     HAL_UART_Transmit(&huart2, sendbuf, 2 * sizeof(Ec20HEART) + 18, 800); // 69*2+18=156一共发送156
 1449              		.loc 1 291 29
 1450 01ce BB88     		ldrh	r3, [r7, #4]
 291:Src/radarandec20.c ****     HAL_UART_Transmit(&huart2, sendbuf, 2 * sizeof(Ec20HEART) + 18, 800); // 69*2+18=156一共发送156
 1451              		.loc 1 291 21
 1452 01d0 164A     		ldr	r2, .L47+56
 1453 01d2 1344     		add	r3, r3, r2
 291:Src/radarandec20.c ****     HAL_UART_Transmit(&huart2, sendbuf, 2 * sizeof(Ec20HEART) + 18, 800); // 69*2+18=156一共发送156
 1454              		.loc 1 291 5
 1455 01d4 1749     		ldr	r1, .L47+64
 1456 01d6 1846     		mov	r0, r3
 1457 01d8 FFF7FEFF 		bl	sprintf
 292:Src/radarandec20.c ****   }
 1458              		.loc 1 292 5
 1459 01dc 4FF44873 		mov	r3, #800
 1460 01e0 2222     		movs	r2, #34
 1461 01e2 1249     		ldr	r1, .L47+56
 1462 01e4 1448     		ldr	r0, .L47+68
 1463 01e6 FFF7FEFF 		bl	HAL_UART_Transmit
ARM GAS  C:\Users\57298\AppData\Local\Temp\ccUzYvQq.s 			page 32


 1464              	.L46:
 1465              		.loc 1 294 1
 1466 01ea 00BF     		nop
 1467 01ec 0837     		adds	r7, r7, #8
 1468              	.LCFI39:
 1469              		.cfi_def_cfa_offset 8
 1470 01ee BD46     		mov	sp, r7
 1471              	.LCFI40:
 1472              		.cfi_def_cfa_register 13
 1473              		@ sp needed
 1474 01f0 80BD     		pop	{r7, pc}
 1475              	.L48:
 1476 01f2 00BF     		.align	2
 1477              	.L47:
 1478 01f4 00000000 		.word	waringtime
 1479 01f8 00000000 		.word	pec20
 1480 01fc 00000000 		.word	ec20send
 1481 0200 00000000 		.word	indx.1
 1482 0204 00000000 		.word	lifetime_count
 1483 0208 00000000 		.word	warmSend
 1484 020c 00000000 		.word	warmnobeep
 1485 0210 00000000 		.word	GPSStatFlag
 1486 0214 00000000 		.word	GpsRecFlag
 1487 0218 A4010000 		.word	.LC28
 1488 021c B0010000 		.word	.LC29
 1489 0220 BC010000 		.word	.LC30
 1490 0224 C8010000 		.word	.LC31
 1491 0228 D4010000 		.word	.LC32
 1492 022c 00000000 		.word	sendbuf
 1493 0230 E0010000 		.word	.LC33
 1494 0234 F4010000 		.word	.LC34
 1495 0238 00000000 		.word	huart2
 1496 023c 00000000 		.word	ec20heart
 1497              		.cfi_endproc
 1498              	.LFE75:
 1500              		.global	sendedflag
 1501              		.section	.bss.sendedflag,"aw",%nobits
 1504              	sendedflag:
 1505 0000 00       		.space	1
 1506              		.global	warmonceflag
 1507              		.section	.bss.warmonceflag,"aw",%nobits
 1510              	warmonceflag:
 1511 0000 00       		.space	1
 1512              		.section	.rodata
 1513 01f9 000000   		.align	2
 1514              	.LC35:
 1515 01fc 45433230 		.ascii	"EC20\267\307\324\244\306\332\264\355\316\363\000\000"
 1515      B7C7D4A4 
 1515      C6DAB4ED 
 1515      CEF30000 
 1516              		.align	2
 1517              	.LC36:
 1518 020c 25303264 		.ascii	"%02d\000\000"
 1518      0000
 1519 0212 0000     		.align	2
 1520              	.LC37:
 1521 0214 D5FDD4DA 		.ascii	"\325\375\324\332\301\254\275\323\000\000"
ARM GAS  C:\Users\57298\AppData\Local\Temp\ccUzYvQq.s 			page 33


 1521      C1ACBDD3 
 1521      0000
 1522 021e 0000     		.align	2
 1523              	.LC38:
 1524 0220 B5E7BBB0 		.ascii	"\265\347\273\260\277\250\323\320\316\312\314\342\000"
 1524      BFA8D3D0 
 1524      CECACCE2 
 1524      00
 1525 022d 00       		.ascii	"\000"
 1526 022e 0000     		.align	2
 1527              	.LC39:
 1528 0230 C1ACBDD3 		.ascii	"\301\254\275\323\263\311\271\246\000\000"
 1528      B3C9B9A6 
 1528      0000
 1529 023a 0000     		.align	2
 1530              	.LC40:
 1531 023c 312C3100 		.ascii	"1,1\000"
 1532              		.align	2
 1533              	.LC41:
 1534 0240 312C3500 		.ascii	"1,5\000"
 1535              		.align	2
 1536              	.LC42:
 1537 0244 302C3500 		.ascii	"0,5\000"
 1538              		.align	2
 1539              	.LC43:
 1540 0248 72656376 		.ascii	"recv\000"
 1540      00
 1541 024d 000000   		.align	2
 1542              	.LC44:
 1543 0250 2C3000   		.ascii	",0\000"
 1544 0253 00       		.align	2
 1545              	.LC45:
 1546 0254 414C4152 		.ascii	"ALARM\000"
 1546      4D00
 1547 025a 0000     		.align	2
 1548              	.LC46:
 1549 025c 4E4F4E45 		.ascii	"NONEA\000"
 1549      4100
 1550              		.section	.text.ec20ProcessFun,"ax",%progbits
 1551              		.align	1
 1552              		.global	ec20ProcessFun
 1553              		.syntax unified
 1554              		.thumb
 1555              		.thumb_func
 1557              	ec20ProcessFun:
 1558              	.LFB76:
 295:Src/radarandec20.c **** unsigned char sendedflag = 0;
 296:Src/radarandec20.c **** unsigned char warmonceflag = 0;
 297:Src/radarandec20.c **** // 发送进程sendingflag=0;//发送好了
 298:Src/radarandec20.c **** // radar
 299:Src/radarandec20.c **** void ec20ProcessFun(void)
 300:Src/radarandec20.c **** {
 1559              		.loc 1 300 1
 1560              		.cfi_startproc
 1561              		@ args = 0, pretend = 0, frame = 8
 1562              		@ frame_needed = 1, uses_anonymous_args = 0
 1563 0000 80B5     		push	{r7, lr}
ARM GAS  C:\Users\57298\AppData\Local\Temp\ccUzYvQq.s 			page 34


 1564              	.LCFI41:
 1565              		.cfi_def_cfa_offset 8
 1566              		.cfi_offset 7, -8
 1567              		.cfi_offset 14, -4
 1568 0002 82B0     		sub	sp, sp, #8
 1569              	.LCFI42:
 1570              		.cfi_def_cfa_offset 16
 1571 0004 00AF     		add	r7, sp, #0
 1572              	.LCFI43:
 1573              		.cfi_def_cfa_register 7
 301:Src/radarandec20.c **** 
 302:Src/radarandec20.c ****   char numstr[3];
 303:Src/radarandec20.c ****   unsigned short i = 0;
 1574              		.loc 1 303 18
 1575 0006 0023     		movs	r3, #0
 1576 0008 FB80     		strh	r3, [r7, #6]	@ movhi
 304:Src/radarandec20.c ****   // 接收
 305:Src/radarandec20.c ****   if (rsPackFlag == 1 && rsRxTime > 50) // 断包 防止有些上位机软件发送数据不连续
 1577              		.loc 1 305 18
 1578 000a 794B     		ldr	r3, .L94
 1579 000c 1B78     		ldrb	r3, [r3]	@ zero_extendqisi2
 1580              		.loc 1 305 6
 1581 000e 012B     		cmp	r3, #1
 1582 0010 1DD1     		bne	.L50
 1583              		.loc 1 305 35 discriminator 1
 1584 0012 784B     		ldr	r3, .L94+4
 1585 0014 1B68     		ldr	r3, [r3]
 1586              		.loc 1 305 23 discriminator 1
 1587 0016 322B     		cmp	r3, #50
 1588 0018 19D9     		bls	.L50
 306:Src/radarandec20.c ****   {
 307:Src/radarandec20.c ****     rsPackFlag = 0;
 1589              		.loc 1 307 16
 1590 001a 754B     		ldr	r3, .L94
 1591 001c 0022     		movs	r2, #0
 1592 001e 1A70     		strb	r2, [r3]
 308:Src/radarandec20.c ****     rsRxTime = 0;
 1593              		.loc 1 308 14
 1594 0020 744B     		ldr	r3, .L94+4
 1595 0022 0022     		movs	r2, #0
 1596 0024 1A60     		str	r2, [r3]
 309:Src/radarandec20.c ****     rsRxLen = rsRxIndexLen;
 1597              		.loc 1 309 13
 1598 0026 744B     		ldr	r3, .L94+8
 1599 0028 1B68     		ldr	r3, [r3]
 1600 002a 744A     		ldr	r2, .L94+12
 1601 002c 1360     		str	r3, [r2]
 310:Src/radarandec20.c ****     rsRxBuf[rsRxLen] = 0; // 为了打印时候保险起见手动在末尾追加一个零
 1602              		.loc 1 310 12
 1603 002e 734B     		ldr	r3, .L94+12
 1604 0030 1B68     		ldr	r3, [r3]
 1605              		.loc 1 310 22
 1606 0032 734A     		ldr	r2, .L94+16
 1607 0034 0021     		movs	r1, #0
 1608 0036 D154     		strb	r1, [r2, r3]
 311:Src/radarandec20.c ****     rsRxIndexLen = 0;
 1609              		.loc 1 311 18
ARM GAS  C:\Users\57298\AppData\Local\Temp\ccUzYvQq.s 			page 35


 1610 0038 6F4B     		ldr	r3, .L94+8
 1611 003a 0022     		movs	r2, #0
 1612 003c 1A60     		str	r2, [r3]
 312:Src/radarandec20.c ****     rsRecFlag = 1;
 1613              		.loc 1 312 15
 1614 003e 714B     		ldr	r3, .L94+20
 1615 0040 0122     		movs	r2, #1
 1616 0042 1A70     		strb	r2, [r3]
 313:Src/radarandec20.c **** 
 314:Src/radarandec20.c ****     // COM_Get_Callback(GSMinit.status,rsRxBuf,rsRxLen);//状态、接收数据、接收数据的长度
 315:Src/radarandec20.c ****     HAL_UART_Receive_DMA(&huart2, RxBufferDMA, DMARXBUFFERSIZE); // 再次开启DMA接收
 1617              		.loc 1 315 5
 1618 0044 6422     		movs	r2, #100
 1619 0046 7049     		ldr	r1, .L94+24
 1620 0048 7048     		ldr	r0, .L94+28
 1621 004a FFF7FEFF 		bl	HAL_UART_Receive_DMA
 1622              	.L50:
 316:Src/radarandec20.c ****   }
 317:Src/radarandec20.c **** 
 318:Src/radarandec20.c ****   if (ProSta < InitTCPIndex)
 1623              		.loc 1 318 14
 1624 004e 704B     		ldr	r3, .L94+32
 1625 0050 1B78     		ldrb	r3, [r3]	@ zero_extendqisi2
 1626              		.loc 1 318 6
 1627 0052 052B     		cmp	r3, #5
 1628 0054 04D8     		bhi	.L51
 319:Src/radarandec20.c ****   {
 320:Src/radarandec20.c ****     POLLTime = ALARMTIME; // 未连接TCP前可以以报警速度进行
 1629              		.loc 1 320 14
 1630 0056 6F4B     		ldr	r3, .L94+36
 1631 0058 4FF44872 		mov	r2, #800
 1632 005c 1A60     		str	r2, [r3]
 1633 005e 19E0     		b	.L52
 1634              	.L51:
 321:Src/radarandec20.c ****   }
 322:Src/radarandec20.c ****   else
 323:Src/radarandec20.c ****   {
 324:Src/radarandec20.c **** 
 325:Src/radarandec20.c ****     if (warmonceflag == 0) // 从未报警
 1635              		.loc 1 325 22
 1636 0060 6D4B     		ldr	r3, .L94+40
 1637 0062 1B78     		ldrb	r3, [r3]	@ zero_extendqisi2
 1638              		.loc 1 325 8
 1639 0064 002B     		cmp	r3, #0
 1640 0066 03D1     		bne	.L53
 326:Src/radarandec20.c ****     {
 327:Src/radarandec20.c ****       POLLTime = NORMARLTIME;
 1641              		.loc 1 327 16
 1642 0068 6A4B     		ldr	r3, .L94+36
 1643 006a 4FF44872 		mov	r2, #800
 1644 006e 1A60     		str	r2, [r3]
 1645              	.L53:
 328:Src/radarandec20.c ****     }
 329:Src/radarandec20.c ****     if (waringspeedflag == 1 && sendedflag == 1) // 有过报警 且已经发送恢复慢速
 1646              		.loc 1 329 25
 1647 0070 6A4B     		ldr	r3, .L94+44
 1648 0072 1B78     		ldrb	r3, [r3]	@ zero_extendqisi2
ARM GAS  C:\Users\57298\AppData\Local\Temp\ccUzYvQq.s 			page 36


 1649              		.loc 1 329 8
 1650 0074 012B     		cmp	r3, #1
 1651 0076 0DD1     		bne	.L52
 1652              		.loc 1 329 44 discriminator 1
 1653 0078 694B     		ldr	r3, .L94+48
 1654 007a 1B78     		ldrb	r3, [r3]	@ zero_extendqisi2
 1655              		.loc 1 329 30 discriminator 1
 1656 007c 012B     		cmp	r3, #1
 1657 007e 09D1     		bne	.L52
 330:Src/radarandec20.c ****     {
 331:Src/radarandec20.c ****       sendedflag = 0;
 1658              		.loc 1 331 18
 1659 0080 674B     		ldr	r3, .L94+48
 1660 0082 0022     		movs	r2, #0
 1661 0084 1A70     		strb	r2, [r3]
 332:Src/radarandec20.c ****       waringspeedflag = 0;
 1662              		.loc 1 332 23
 1663 0086 654B     		ldr	r3, .L94+44
 1664 0088 0022     		movs	r2, #0
 1665 008a 1A70     		strb	r2, [r3]
 333:Src/radarandec20.c ****       POLLTime = NORMARLTIME;
 1666              		.loc 1 333 16
 1667 008c 614B     		ldr	r3, .L94+36
 1668 008e 4FF44872 		mov	r2, #800
 1669 0092 1A60     		str	r2, [r3]
 1670              	.L52:
 334:Src/radarandec20.c ****     }
 335:Src/radarandec20.c ****   }
 336:Src/radarandec20.c ****   if (PollTimeCnt > POLLTime) // 0.5秒执行一次
 1671              		.loc 1 336 19
 1672 0094 634B     		ldr	r3, .L94+52
 1673 0096 1B88     		ldrh	r3, [r3]
 1674 0098 1A46     		mov	r2, r3
 1675 009a 5E4B     		ldr	r3, .L94+36
 1676 009c 1B68     		ldr	r3, [r3]
 1677              		.loc 1 336 6
 1678 009e 9A42     		cmp	r2, r3
 1679 00a0 40F21282 		bls	.L92
 337:Src/radarandec20.c ****   {
 338:Src/radarandec20.c ****     PollTimeCnt = 0;
 1680              		.loc 1 338 17
 1681 00a4 5F4B     		ldr	r3, .L94+52
 1682 00a6 0022     		movs	r2, #0
 1683 00a8 1A80     		strh	r2, [r3]	@ movhi
 339:Src/radarandec20.c ****     // 应答计数  识别断线
 340:Src/radarandec20.c ****     if (SendCntRecClear > SendButNoRecCnt) // 发送计数  收到任何东西都清除
 1684              		.loc 1 340 25
 1685 00aa 5F4B     		ldr	r3, .L94+56
 1686 00ac 1B68     		ldr	r3, [r3]
 1687              		.loc 1 340 8
 1688 00ae 322B     		cmp	r3, #50
 1689 00b0 17D9     		bls	.L55
 341:Src/radarandec20.c ****     {
 342:Src/radarandec20.c ****       ProSta = InitEC2Index;
 1690              		.loc 1 342 14
 1691 00b2 574B     		ldr	r3, .L94+32
 1692 00b4 0022     		movs	r2, #0
ARM GAS  C:\Users\57298\AppData\Local\Temp\ccUzYvQq.s 			page 37


 1693 00b6 1A70     		strb	r2, [r3]
 343:Src/radarandec20.c ****       SendCntRecClear = 0;
 1694              		.loc 1 343 23
 1695 00b8 5B4B     		ldr	r3, .L94+56
 1696 00ba 0022     		movs	r2, #0
 1697 00bc 1A60     		str	r2, [r3]
 344:Src/radarandec20.c ****       GPSStatFlag = 0;
 1698              		.loc 1 344 19
 1699 00be 5B4B     		ldr	r3, .L94+60
 1700 00c0 0022     		movs	r2, #0
 1701 00c2 1A70     		strb	r2, [r3]
 345:Src/radarandec20.c ****       SendGPSCnt = 0;
 1702              		.loc 1 345 18
 1703 00c4 5A4B     		ldr	r3, .L94+64
 1704 00c6 0022     		movs	r2, #0
 1705 00c8 1A60     		str	r2, [r3]
 346:Src/radarandec20.c ****       CurStaSendCnt = 0;
 1706              		.loc 1 346 21
 1707 00ca 5A4B     		ldr	r3, .L94+68
 1708 00cc 0022     		movs	r2, #0
 1709 00ce 1A70     		strb	r2, [r3]
 347:Src/radarandec20.c ****       ec20power(1); // 复位一下
 1710              		.loc 1 347 7
 1711 00d0 0120     		movs	r0, #1
 1712 00d2 FFF7FEFF 		bl	ec20power
 348:Src/radarandec20.c ****       linkflag = 0;
 1713              		.loc 1 348 16
 1714 00d6 584B     		ldr	r3, .L94+72
 1715 00d8 0022     		movs	r2, #0
 1716 00da 1A70     		strb	r2, [r3]
 349:Src/radarandec20.c **** #if DEBUGMODE == 0
 350:Src/radarandec20.c ****       OLED_ShowString(0, 0, "                  ", 16);
 351:Src/radarandec20.c ****       PrintHZ(0, 0, "RST ERROR             ", 0, 1, 0);
 352:Src/radarandec20.c **** #else
 353:Src/radarandec20.c ****       SendTxDebug((unsigned char *)"EC20非预期错误\0");
 1717              		.loc 1 353 7
 1718 00dc 5748     		ldr	r0, .L94+76
 1719 00de FFF7FEFF 		bl	SendTxDebug
 1720              	.L55:
 354:Src/radarandec20.c **** #endif
 355:Src/radarandec20.c ****     }
 356:Src/radarandec20.c ****     // 发送 有接收 但非预期的计数 识别断线
 357:Src/radarandec20.c ****     if (CurStaSendCnt > SendRecButNotExpCnt && ProSta != ATCodeLastNum)
 1721              		.loc 1 357 23
 1722 00e2 544B     		ldr	r3, .L94+68
 1723 00e4 1B78     		ldrb	r3, [r3]	@ zero_extendqisi2
 1724              		.loc 1 357 8
 1725 00e6 0A2B     		cmp	r3, #10
 1726 00e8 12D9     		bls	.L56
 1727              		.loc 1 357 55 discriminator 1
 1728 00ea 494B     		ldr	r3, .L94+32
 1729 00ec 1B78     		ldrb	r3, [r3]	@ zero_extendqisi2
 1730              		.loc 1 357 45 discriminator 1
 1731 00ee 0C2B     		cmp	r3, #12
 1732 00f0 0ED0     		beq	.L56
 358:Src/radarandec20.c ****     {
 359:Src/radarandec20.c ****       ProSta = InitEC2Index;
ARM GAS  C:\Users\57298\AppData\Local\Temp\ccUzYvQq.s 			page 38


 1733              		.loc 1 359 14
 1734 00f2 474B     		ldr	r3, .L94+32
 1735 00f4 0022     		movs	r2, #0
 1736 00f6 1A70     		strb	r2, [r3]
 360:Src/radarandec20.c ****       CurStaSendCnt = 0;
 1737              		.loc 1 360 21
 1738 00f8 4E4B     		ldr	r3, .L94+68
 1739 00fa 0022     		movs	r2, #0
 1740 00fc 1A70     		strb	r2, [r3]
 361:Src/radarandec20.c ****       SendCntRecClear = 0;
 1741              		.loc 1 361 23
 1742 00fe 4A4B     		ldr	r3, .L94+56
 1743 0100 0022     		movs	r2, #0
 1744 0102 1A60     		str	r2, [r3]
 362:Src/radarandec20.c ****       linkflag = 0;
 1745              		.loc 1 362 16
 1746 0104 4C4B     		ldr	r3, .L94+72
 1747 0106 0022     		movs	r2, #0
 1748 0108 1A70     		strb	r2, [r3]
 363:Src/radarandec20.c **** #if DEBUGMODE == 0
 364:Src/radarandec20.c ****       OLED_ShowString(0, 0, "                  ", 16);
 365:Src/radarandec20.c ****       PrintHZ(0, 0, "EXP ERROR             ", 0, 1, 0);
 366:Src/radarandec20.c **** #else
 367:Src/radarandec20.c ****       SendTxDebug((unsigned char *)"EC20非预期错误\0");
 1749              		.loc 1 367 7
 1750 010a 4C48     		ldr	r0, .L94+76
 1751 010c FFF7FEFF 		bl	SendTxDebug
 1752              	.L56:
 368:Src/radarandec20.c **** #endif
 369:Src/radarandec20.c ****     }
 370:Src/radarandec20.c **** 
 371:Src/radarandec20.c ****     // 最后一条发送 有接收 但非预期的计数据
 372:Src/radarandec20.c ****     if (SendGPSCnt > SendRecButGpsNotExp && ProSta == ATCodeLastNum)
 1753              		.loc 1 372 20
 1754 0110 474B     		ldr	r3, .L94+64
 1755 0112 1B68     		ldr	r3, [r3]
 1756              		.loc 1 372 8
 1757 0114 032B     		cmp	r3, #3
 1758 0116 0FD9     		bls	.L57
 1759              		.loc 1 372 52 discriminator 1
 1760 0118 3D4B     		ldr	r3, .L94+32
 1761 011a 1B78     		ldrb	r3, [r3]	@ zero_extendqisi2
 1762              		.loc 1 372 42 discriminator 1
 1763 011c 0C2B     		cmp	r3, #12
 1764 011e 0BD1     		bne	.L57
 373:Src/radarandec20.c ****     {
 374:Src/radarandec20.c ****       ProSta = InitTCPIndex; // 重新开始
 1765              		.loc 1 374 14
 1766 0120 3B4B     		ldr	r3, .L94+32
 1767 0122 0622     		movs	r2, #6
 1768 0124 1A70     		strb	r2, [r3]
 375:Src/radarandec20.c ****       CurStaSendCnt = 0;
 1769              		.loc 1 375 21
 1770 0126 434B     		ldr	r3, .L94+68
 1771 0128 0022     		movs	r2, #0
 1772 012a 1A70     		strb	r2, [r3]
 376:Src/radarandec20.c ****       SendGPSCnt = 0;
ARM GAS  C:\Users\57298\AppData\Local\Temp\ccUzYvQq.s 			page 39


 1773              		.loc 1 376 18
 1774 012c 404B     		ldr	r3, .L94+64
 1775 012e 0022     		movs	r2, #0
 1776 0130 1A60     		str	r2, [r3]
 377:Src/radarandec20.c ****       GPSStatFlag = 0; // GPS未正常工作
 1777              		.loc 1 377 19
 1778 0132 3E4B     		ldr	r3, .L94+60
 1779 0134 0022     		movs	r2, #0
 1780 0136 1A70     		strb	r2, [r3]
 1781              	.L57:
 378:Src/radarandec20.c ****     }
 379:Src/radarandec20.c **** 
 380:Src/radarandec20.c ****     if (ProSta <= ATCodeNum)
 1782              		.loc 1 380 16
 1783 0138 354B     		ldr	r3, .L94+32
 1784 013a 1B78     		ldrb	r3, [r3]	@ zero_extendqisi2
 1785              		.loc 1 380 8
 1786 013c 0C2B     		cmp	r3, #12
 1787 013e 00F2B581 		bhi	.L58
 381:Src/radarandec20.c ****     {
 382:Src/radarandec20.c ****       if (rsRecFlag == 0) // 发送
 1788              		.loc 1 382 21
 1789 0142 304B     		ldr	r3, .L94+20
 1790 0144 1B78     		ldrb	r3, [r3]	@ zero_extendqisi2
 1791              		.loc 1 382 10
 1792 0146 002B     		cmp	r3, #0
 1793 0148 40F08480 		bne	.L59
 383:Src/radarandec20.c ****       {
 384:Src/radarandec20.c **** 
 385:Src/radarandec20.c ****         if (ProSta == ATCodeSnd) // 发送的那条信息
 1794              		.loc 1 385 20
 1795 014c 304B     		ldr	r3, .L94+32
 1796 014e 1B78     		ldrb	r3, [r3]	@ zero_extendqisi2
 1797              		.loc 1 385 12
 1798 0150 0B2B     		cmp	r3, #11
 1799 0152 02D1     		bne	.L60
 386:Src/radarandec20.c ****         {
 387:Src/radarandec20.c **** 
 388:Src/radarandec20.c ****           DataSendPre();
 1800              		.loc 1 388 11
 1801 0154 FFF7FEFF 		bl	DataSendPre
 1802 0158 10E0     		b	.L61
 1803              	.L60:
 389:Src/radarandec20.c ****         }
 390:Src/radarandec20.c ****         else
 391:Src/radarandec20.c ****         {
 392:Src/radarandec20.c ****           SendTxBuf((unsigned char *)SendList[ProSta]);
 1804              		.loc 1 392 11
 1805 015a 2D4B     		ldr	r3, .L94+32
 1806 015c 1B78     		ldrb	r3, [r3]	@ zero_extendqisi2
 1807 015e 1A46     		mov	r2, r3
 1808              		.loc 1 392 46
 1809 0160 374B     		ldr	r3, .L94+80
 1810 0162 53F82230 		ldr	r3, [r3, r2, lsl #2]
 1811              		.loc 1 392 11
 1812 0166 1846     		mov	r0, r3
 1813 0168 FFF7FEFF 		bl	SendTxBuf
ARM GAS  C:\Users\57298\AppData\Local\Temp\ccUzYvQq.s 			page 40


 393:Src/radarandec20.c ****           psend = SendList[ProSta];
 1814              		.loc 1 393 27
 1815 016c 284B     		ldr	r3, .L94+32
 1816 016e 1B78     		ldrb	r3, [r3]	@ zero_extendqisi2
 1817 0170 1A46     		mov	r2, r3
 1818 0172 334B     		ldr	r3, .L94+80
 1819 0174 53F82230 		ldr	r3, [r3, r2, lsl #2]
 1820              		.loc 1 393 17
 1821 0178 324A     		ldr	r2, .L94+84
 1822 017a 1360     		str	r3, [r2]
 1823              	.L61:
 394:Src/radarandec20.c ****         }
 395:Src/radarandec20.c **** 
 396:Src/radarandec20.c ****         if (ProSta == ATCodeLastNum)
 1824              		.loc 1 396 20
 1825 017c 244B     		ldr	r3, .L94+32
 1826 017e 1B78     		ldrb	r3, [r3]	@ zero_extendqisi2
 1827              		.loc 1 396 12
 1828 0180 0C2B     		cmp	r3, #12
 1829 0182 04D1     		bne	.L62
 397:Src/radarandec20.c ****         {
 398:Src/radarandec20.c ****           SendGPSCnt++; // 读取GPS计数
 1830              		.loc 1 398 21
 1831 0184 2A4B     		ldr	r3, .L94+64
 1832 0186 1B68     		ldr	r3, [r3]
 1833 0188 0133     		adds	r3, r3, #1
 1834 018a 294A     		ldr	r2, .L94+64
 1835 018c 1360     		str	r3, [r2]
 1836              	.L62:
 399:Src/radarandec20.c ****         }
 400:Src/radarandec20.c ****         SendCntRecClear++;
 1837              		.loc 1 400 24
 1838 018e 264B     		ldr	r3, .L94+56
 1839 0190 1B68     		ldr	r3, [r3]
 1840 0192 0133     		adds	r3, r3, #1
 1841 0194 244A     		ldr	r2, .L94+56
 1842 0196 1360     		str	r3, [r2]
 401:Src/radarandec20.c ****         sprintf((char *)numstr, "%02d\0", ProSta);
 1843              		.loc 1 401 9
 1844 0198 1D4B     		ldr	r3, .L94+32
 1845 019a 1B78     		ldrb	r3, [r3]	@ zero_extendqisi2
 1846 019c 1A46     		mov	r2, r3
 1847 019e 3B46     		mov	r3, r7
 1848 01a0 2949     		ldr	r1, .L94+88
 1849 01a2 1846     		mov	r0, r3
 1850 01a4 FFF7FEFF 		bl	sprintf
 402:Src/radarandec20.c **** #if DEBUGMODE == 0
 403:Src/radarandec20.c ****         OLED_ShowString(0, 0, (char *)numstr, 2);
 404:Src/radarandec20.c **** 
 405:Src/radarandec20.c **** #else
 406:Src/radarandec20.c ****         SendTxDebug((unsigned char *)numstr);
 1851              		.loc 1 406 9
 1852 01a8 3B46     		mov	r3, r7
 1853 01aa 1846     		mov	r0, r3
 1854 01ac FFF7FEFF 		bl	SendTxDebug
 407:Src/radarandec20.c ****         if (ProSta == ATCodeSnd) // 发送的那条信息
 1855              		.loc 1 407 20
ARM GAS  C:\Users\57298\AppData\Local\Temp\ccUzYvQq.s 			page 41


 1856 01b0 174B     		ldr	r3, .L94+32
 1857 01b2 1B78     		ldrb	r3, [r3]	@ zero_extendqisi2
 1858              		.loc 1 407 12
 1859 01b4 0B2B     		cmp	r3, #11
 1860 01b6 03D1     		bne	.L63
 408:Src/radarandec20.c ****         {
 409:Src/radarandec20.c ****           SendTxDebug(sendbuf);
 1861              		.loc 1 409 11
 1862 01b8 2448     		ldr	r0, .L94+92
 1863 01ba FFF7FEFF 		bl	SendTxDebug
 1864 01be 08E0     		b	.L64
 1865              	.L63:
 410:Src/radarandec20.c ****         }
 411:Src/radarandec20.c ****         else
 412:Src/radarandec20.c ****         {
 413:Src/radarandec20.c ****           SendTxDebug((unsigned char *)SendList[ProSta]);
 1866              		.loc 1 413 11
 1867 01c0 134B     		ldr	r3, .L94+32
 1868 01c2 1B78     		ldrb	r3, [r3]	@ zero_extendqisi2
 1869 01c4 1A46     		mov	r2, r3
 1870              		.loc 1 413 48
 1871 01c6 1E4B     		ldr	r3, .L94+80
 1872 01c8 53F82230 		ldr	r3, [r3, r2, lsl #2]
 1873              		.loc 1 413 11
 1874 01cc 1846     		mov	r0, r3
 1875 01ce FFF7FEFF 		bl	SendTxDebug
 1876              	.L64:
 414:Src/radarandec20.c ****         }
 415:Src/radarandec20.c **** 
 416:Src/radarandec20.c **** #endif
 417:Src/radarandec20.c **** 
 418:Src/radarandec20.c ****         if (ProSta == 6)
 1877              		.loc 1 418 20
 1878 01d2 0F4B     		ldr	r3, .L94+32
 1879 01d4 1B78     		ldrb	r3, [r3]	@ zero_extendqisi2
 1880              		.loc 1 418 12
 1881 01d6 062B     		cmp	r3, #6
 1882 01d8 02D1     		bne	.L65
 419:Src/radarandec20.c ****         {
 420:Src/radarandec20.c **** #if DEBUGMODE == 0
 421:Src/radarandec20.c ****           OLED_ShowString(0, 0, "                  ", 16);
 422:Src/radarandec20.c ****           PrintHZ(0, 0, "正在连接               ", 0, 1, 0);
 423:Src/radarandec20.c **** #else
 424:Src/radarandec20.c ****           SendTxDebug((unsigned char *)"正在连接\0");
 1883              		.loc 1 424 11
 1884 01da 1D48     		ldr	r0, .L94+96
 1885 01dc FFF7FEFF 		bl	SendTxDebug
 1886              	.L65:
 425:Src/radarandec20.c **** #endif
 426:Src/radarandec20.c ****         }
 427:Src/radarandec20.c **** 
 428:Src/radarandec20.c ****         // togLEDstatus;
 429:Src/radarandec20.c ****         CurStaSendCnt++; // 收到预期会清零
 1887              		.loc 1 429 22
 1888 01e0 144B     		ldr	r3, .L94+68
 1889 01e2 1B78     		ldrb	r3, [r3]	@ zero_extendqisi2
 1890 01e4 0133     		adds	r3, r3, #1
ARM GAS  C:\Users\57298\AppData\Local\Temp\ccUzYvQq.s 			page 42


 1891 01e6 DAB2     		uxtb	r2, r3
 1892 01e8 124B     		ldr	r3, .L94+68
 1893 01ea 1A70     		strb	r2, [r3]
 430:Src/radarandec20.c ****       }
 431:Src/radarandec20.c ****       else // 接收内容的识别处理
 432:Src/radarandec20.c ****       {
 433:Src/radarandec20.c ****         rsRecFlag = 0;
 434:Src/radarandec20.c ****         SendCntRecClear = 0;
 435:Src/radarandec20.c ****         sprintf((char *)numstr, "%02d\0", ProSta);
 436:Src/radarandec20.c **** #if DEBUGMODE == 0
 437:Src/radarandec20.c ****         OLED_ShowString(0, 0, "                   \0", 8);
 438:Src/radarandec20.c ****         OLED_ShowString(0, 2, "                   \0", 8);
 439:Src/radarandec20.c ****         OLED_ShowString(0, 0, (char *)numstr, 2);
 440:Src/radarandec20.c ****         OLED_ShowString(24, 0, (char *)rsRxBuf, 8);
 441:Src/radarandec20.c **** #else
 442:Src/radarandec20.c ****         SendTxDebug((unsigned char *)numstr);
 443:Src/radarandec20.c ****         SendTxDebug((unsigned char *)rsRxBuf);
 444:Src/radarandec20.c **** #endif
 445:Src/radarandec20.c **** 
 446:Src/radarandec20.c ****         if (ProSta == 2 && strstr((const char *)rsRxBuf, (const char *)RecExpected[16]) != NULL)
 447:Src/radarandec20.c ****         {
 448:Src/radarandec20.c **** #if DEBUGMODE == 0
 449:Src/radarandec20.c ****           OLED_ShowString(0, 0, "                  ", 16);
 450:Src/radarandec20.c ****           PrintHZ(0, 0, "SIM ERROR             ", 0, 1, 0);
 451:Src/radarandec20.c **** #else
 452:Src/radarandec20.c ****           SendTxDebug((unsigned char *)"电话卡有问题\0");
 453:Src/radarandec20.c **** #endif
 454:Src/radarandec20.c ****           linkflag = 0;
 455:Src/radarandec20.c ****         }
 456:Src/radarandec20.c **** 
 457:Src/radarandec20.c ****         if (ProSta == 12) // TCP数据返回
 458:Src/radarandec20.c ****         {
 459:Src/radarandec20.c ****           linkflag = 1;
 460:Src/radarandec20.c ****           if (waringtimeflag)
 461:Src/radarandec20.c ****           {
 462:Src/radarandec20.c ****             sendedflag = 1; // 报警已发送
 463:Src/radarandec20.c ****           }
 464:Src/radarandec20.c **** #if DEBUGMODE == 0
 465:Src/radarandec20.c ****           OLED_ShowString(0, 0, "                  ", 16);
 466:Src/radarandec20.c ****           PrintHZ(0, 0, "连接成功              ", 0, 1, 0);
 467:Src/radarandec20.c **** #else
 468:Src/radarandec20.c ****           SendTxDebug((unsigned char *)"连接成功\0");
 469:Src/radarandec20.c **** #endif
 470:Src/radarandec20.c ****         }
 471:Src/radarandec20.c **** 
 472:Src/radarandec20.c ****         if (strstr((const char *)rsRxBuf, (const char *)RecExpected[ProSta]) != NULL ||
 473:Src/radarandec20.c ****             (ProSta == 2 && strstr((const char *)rsRxBuf, (const char *)"1,1") != NULL) ||
 474:Src/radarandec20.c ****             (ProSta == 2 && strstr((const char *)rsRxBuf, (const char *)"1,5") != NULL) ||
 475:Src/radarandec20.c ****             (ProSta == 2 && strstr((const char *)rsRxBuf, (const char *)"0,5") != NULL) ||
 476:Src/radarandec20.c ****             (ProSta == 11 && strstr((const char *)rsRxBuf, (const char *)"recv") != NULL) ||
 477:Src/radarandec20.c ****             (ProSta == 11 && strstr((const char *)rsRxBuf, (const char *)",0") != NULL)) // 符合预
 478:Src/radarandec20.c ****         {
 479:Src/radarandec20.c **** 
 480:Src/radarandec20.c ****           if (ProSta == ATTcpReadIndex) // 读取到了TCP返回值
 481:Src/radarandec20.c ****           {
 482:Src/radarandec20.c **** 
 483:Src/radarandec20.c ****             if (findStrCmp((unsigned char *)&rsRxBuf[20], 20, (unsigned char *)"ALARM", 5) != 0)
ARM GAS  C:\Users\57298\AppData\Local\Temp\ccUzYvQq.s 			page 43


 484:Src/radarandec20.c ****             {
 485:Src/radarandec20.c ****               WarmHig;
 486:Src/radarandec20.c ****               CloudtriggerFlag = 1;
 487:Src/radarandec20.c ****             }
 488:Src/radarandec20.c ****             if (findStrCmp((unsigned char *)&rsRxBuf[20], 20, (unsigned char *)"NONEA", 5) != 0)
 489:Src/radarandec20.c ****             {
 490:Src/radarandec20.c ****               WarmLow;
 491:Src/radarandec20.c ****             }
 492:Src/radarandec20.c ****             for (i = 0; i < rsRxLen; i++)
 493:Src/radarandec20.c ****             {
 494:Src/radarandec20.c ****               if (rsRxBuf[i] < '9' && rsRxBuf[i] > '0') // 查第一个数字
 495:Src/radarandec20.c ****               {
 496:Src/radarandec20.c ****                 break;
 497:Src/radarandec20.c ****               }
 498:Src/radarandec20.c ****             }
 499:Src/radarandec20.c ****             if (rsRxLen >= 19)
 500:Src/radarandec20.c ****             {
 501:Src/radarandec20.c **** 
 502:Src/radarandec20.c ****               if (rsRxBuf[i + 9] == 1)
 503:Src/radarandec20.c ****               {
 504:Src/radarandec20.c ****                 warmSend[0] = 0;
 505:Src/radarandec20.c ****                 warmSend[1] = 0;
 506:Src/radarandec20.c ****                 warmSend[2] = 0;
 507:Src/radarandec20.c ****                 warmSend[3] = 0;
 508:Src/radarandec20.c ****               }
 509:Src/radarandec20.c ****               if (rsRxBuf[i + 10] == 0)
 510:Src/radarandec20.c ****                 warmnobeep = 0;
 511:Src/radarandec20.c ****               if (rsRxBuf[i + 10] == 1)
 512:Src/radarandec20.c ****                 warmnobeep = 1;
 513:Src/radarandec20.c ****               if (rsRxBuf[i + 11] == 1)
 514:Src/radarandec20.c ****                 lifetime_count[0] = 0;
 515:Src/radarandec20.c ****               if (rsRxBuf[i + 12] == 1)
 516:Src/radarandec20.c ****                 lifetime_count[1] = 0;
 517:Src/radarandec20.c ****               if (rsRxBuf[i + 13] == 1)
 518:Src/radarandec20.c ****                 lifetime_count[2] = 0;
 519:Src/radarandec20.c ****               if (rsRxBuf[i + 14] == 1)
 520:Src/radarandec20.c ****                 lifetime_count[3] = 0;
 521:Src/radarandec20.c ****             }
 522:Src/radarandec20.c ****           }
 523:Src/radarandec20.c **** #if 0
 524:Src/radarandec20.c ****           if(ProSta==ATCodeLastNum)//gps的读取  并且 QGPSLOC读取正确
 525:Src/radarandec20.c ****           {
 526:Src/radarandec20.c ****             SendGPSCnt=0;//收到gps预期清零
 527:Src/radarandec20.c ****             GPSStatFlag=1;//gps运行状态正常
 528:Src/radarandec20.c ****             pec20=&ec20send;
 529:Src/radarandec20.c ****             for(i=0;i<rsRxLen;i++)
 530:Src/radarandec20.c ****             {
 531:Src/radarandec20.c ****               if(rsRxBuf[i]<'9'&&rsRxBuf[i]>'0')//查第一个数字
 532:Src/radarandec20.c ****               {
 533:Src/radarandec20.c ****                 break;
 534:Src/radarandec20.c ****               }
 535:Src/radarandec20.c ****             }
 536:Src/radarandec20.c ****             memcpy((char *)&(pec20->Time[0]),&rsRxBuf[i],10);
 537:Src/radarandec20.c ****             for(;i<rsRxLen;i++)
 538:Src/radarandec20.c ****             {
 539:Src/radarandec20.c ****               if(rsRxBuf[i]==',')//查第一个数字
 540:Src/radarandec20.c ****               {
ARM GAS  C:\Users\57298\AppData\Local\Temp\ccUzYvQq.s 			page 44


 541:Src/radarandec20.c ****                 break;
 542:Src/radarandec20.c ****               }
 543:Src/radarandec20.c ****             }
 544:Src/radarandec20.c ****             memcpy((char *)&(pec20->Latitude[0]),&rsRxBuf[i+1],10);
 545:Src/radarandec20.c ****             i++;//跳过上一个逗号
 546:Src/radarandec20.c ****             for(;i<rsRxLen;i++)
 547:Src/radarandec20.c ****             {
 548:Src/radarandec20.c ****               if(rsRxBuf[i]==',')//查第一个数字
 549:Src/radarandec20.c ****               {
 550:Src/radarandec20.c ****                 break;
 551:Src/radarandec20.c ****               }
 552:Src/radarandec20.c ****             }
 553:Src/radarandec20.c ****             memcpy((char *)&(pec20->longitude[0]),&rsRxBuf[i+1],11);
 554:Src/radarandec20.c ****             GpsRecFlag=1;
 555:Src/radarandec20.c ****           }
 556:Src/radarandec20.c **** #endif
 557:Src/radarandec20.c ****           GpsRecFlag = 1;   // 放弃经纬度的识别
 558:Src/radarandec20.c ****           if (ProSta == 11) // 发送成功则
 559:Src/radarandec20.c ****           {
 560:Src/radarandec20.c ****             linkflagSta = 1;
 561:Src/radarandec20.c ****             SendGPSCnt = 0;
 562:Src/radarandec20.c ****           }
 563:Src/radarandec20.c **** 
 564:Src/radarandec20.c ****           ProSta++;          // 符合预期往下走
 565:Src/radarandec20.c ****           CurStaSendCnt = 0; // 收到预期清零
 566:Src/radarandec20.c ****         }
 567:Src/radarandec20.c ****         else
 568:Src/radarandec20.c ****         {
 569:Src/radarandec20.c ****           if (ProSta == 11) // 发送不成功
 570:Src/radarandec20.c ****           {
 571:Src/radarandec20.c ****             linkflagSta = 0;
 572:Src/radarandec20.c ****             ProSta = 6; // 发都没发成功就别接收了 直接重新开始
 573:Src/radarandec20.c ****           }
 574:Src/radarandec20.c ****         }
 575:Src/radarandec20.c ****         Clear_Buffer();
 576:Src/radarandec20.c ****       }
 577:Src/radarandec20.c ****     }
 578:Src/radarandec20.c ****     else // 正常走完整个流程 从第九步[关闭TCP连接这步重新执行]开始
 579:Src/radarandec20.c ****     {
 580:Src/radarandec20.c **** 
 581:Src/radarandec20.c ****       if (linkflagSta)
 582:Src/radarandec20.c ****       {
 583:Src/radarandec20.c ****         ProSta = 11; // 重新发送
 584:Src/radarandec20.c ****       }
 585:Src/radarandec20.c ****       else
 586:Src/radarandec20.c ****       {
 587:Src/radarandec20.c ****         ProSta = 6;
 588:Src/radarandec20.c ****       }
 589:Src/radarandec20.c ****       sendingflag = 0; // 未发送
 590:Src/radarandec20.c ****     }
 591:Src/radarandec20.c ****   }
 592:Src/radarandec20.c **** }
 1894              		.loc 1 592 1
 1895 01ec 6CE1     		b	.L92
 1896              	.L95:
 1897 01ee 00BF     		.align	2
 1898              	.L94:
ARM GAS  C:\Users\57298\AppData\Local\Temp\ccUzYvQq.s 			page 45


 1899 01f0 00000000 		.word	rsPackFlag
 1900 01f4 00000000 		.word	rsRxTime
 1901 01f8 00000000 		.word	rsRxIndexLen
 1902 01fc 00000000 		.word	rsRxLen
 1903 0200 00000000 		.word	rsRxBuf
 1904 0204 00000000 		.word	rsRecFlag
 1905 0208 00000000 		.word	RxBufferDMA
 1906 020c 00000000 		.word	huart2
 1907 0210 00000000 		.word	ProSta
 1908 0214 00000000 		.word	POLLTime
 1909 0218 00000000 		.word	warmonceflag
 1910 021c 00000000 		.word	waringspeedflag
 1911 0220 00000000 		.word	sendedflag
 1912 0224 00000000 		.word	PollTimeCnt
 1913 0228 00000000 		.word	SendCntRecClear
 1914 022c 00000000 		.word	GPSStatFlag
 1915 0230 00000000 		.word	SendGPSCnt
 1916 0234 00000000 		.word	CurStaSendCnt
 1917 0238 00000000 		.word	linkflag
 1918 023c FC010000 		.word	.LC35
 1919 0240 00000000 		.word	SendList
 1920 0244 00000000 		.word	psend
 1921 0248 0C020000 		.word	.LC36
 1922 024c 00000000 		.word	sendbuf
 1923 0250 14020000 		.word	.LC37
 1924              	.L59:
 433:Src/radarandec20.c ****         SendCntRecClear = 0;
 1925              		.loc 1 433 19
 1926 0254 9E4B     		ldr	r3, .L96
 1927 0256 0022     		movs	r2, #0
 1928 0258 1A70     		strb	r2, [r3]
 434:Src/radarandec20.c ****         sprintf((char *)numstr, "%02d\0", ProSta);
 1929              		.loc 1 434 25
 1930 025a 9E4B     		ldr	r3, .L96+4
 1931 025c 0022     		movs	r2, #0
 1932 025e 1A60     		str	r2, [r3]
 435:Src/radarandec20.c **** #if DEBUGMODE == 0
 1933              		.loc 1 435 9
 1934 0260 9D4B     		ldr	r3, .L96+8
 1935 0262 1B78     		ldrb	r3, [r3]	@ zero_extendqisi2
 1936 0264 1A46     		mov	r2, r3
 1937 0266 3B46     		mov	r3, r7
 1938 0268 9C49     		ldr	r1, .L96+12
 1939 026a 1846     		mov	r0, r3
 1940 026c FFF7FEFF 		bl	sprintf
 442:Src/radarandec20.c ****         SendTxDebug((unsigned char *)rsRxBuf);
 1941              		.loc 1 442 9
 1942 0270 3B46     		mov	r3, r7
 1943 0272 1846     		mov	r0, r3
 1944 0274 FFF7FEFF 		bl	SendTxDebug
 443:Src/radarandec20.c **** #endif
 1945              		.loc 1 443 9
 1946 0278 9948     		ldr	r0, .L96+16
 1947 027a FFF7FEFF 		bl	SendTxDebug
 446:Src/radarandec20.c ****         {
 1948              		.loc 1 446 20
 1949 027e 964B     		ldr	r3, .L96+8
ARM GAS  C:\Users\57298\AppData\Local\Temp\ccUzYvQq.s 			page 46


 1950 0280 1B78     		ldrb	r3, [r3]	@ zero_extendqisi2
 446:Src/radarandec20.c ****         {
 1951              		.loc 1 446 12
 1952 0282 022B     		cmp	r3, #2
 1953 0284 0ED1     		bne	.L66
 446:Src/radarandec20.c ****         {
 1954              		.loc 1 446 83 discriminator 1
 1955 0286 974B     		ldr	r3, .L96+20
 1956 0288 1B6C     		ldr	r3, [r3, #64]
 446:Src/radarandec20.c ****         {
 1957              		.loc 1 446 28 discriminator 1
 1958 028a 1946     		mov	r1, r3
 1959 028c 9448     		ldr	r0, .L96+16
 1960 028e FFF7FEFF 		bl	strstr
 1961 0292 0346     		mov	r3, r0
 446:Src/radarandec20.c ****         {
 1962              		.loc 1 446 25 discriminator 1
 1963 0294 002B     		cmp	r3, #0
 1964 0296 05D0     		beq	.L66
 452:Src/radarandec20.c **** #endif
 1965              		.loc 1 452 11
 1966 0298 9348     		ldr	r0, .L96+24
 1967 029a FFF7FEFF 		bl	SendTxDebug
 454:Src/radarandec20.c ****         }
 1968              		.loc 1 454 20
 1969 029e 934B     		ldr	r3, .L96+28
 1970 02a0 0022     		movs	r2, #0
 1971 02a2 1A70     		strb	r2, [r3]
 1972              	.L66:
 457:Src/radarandec20.c ****         {
 1973              		.loc 1 457 20
 1974 02a4 8C4B     		ldr	r3, .L96+8
 1975 02a6 1B78     		ldrb	r3, [r3]	@ zero_extendqisi2
 457:Src/radarandec20.c ****         {
 1976              		.loc 1 457 12
 1977 02a8 0C2B     		cmp	r3, #12
 1978 02aa 0CD1     		bne	.L67
 459:Src/radarandec20.c ****           if (waringtimeflag)
 1979              		.loc 1 459 20
 1980 02ac 8F4B     		ldr	r3, .L96+28
 1981 02ae 0122     		movs	r2, #1
 1982 02b0 1A70     		strb	r2, [r3]
 460:Src/radarandec20.c ****           {
 1983              		.loc 1 460 15
 1984 02b2 8F4B     		ldr	r3, .L96+32
 1985 02b4 1B78     		ldrb	r3, [r3]	@ zero_extendqisi2
 460:Src/radarandec20.c ****           {
 1986              		.loc 1 460 14
 1987 02b6 002B     		cmp	r3, #0
 1988 02b8 02D0     		beq	.L68
 462:Src/radarandec20.c ****           }
 1989              		.loc 1 462 24
 1990 02ba 8E4B     		ldr	r3, .L96+36
 1991 02bc 0122     		movs	r2, #1
 1992 02be 1A70     		strb	r2, [r3]
 1993              	.L68:
 468:Src/radarandec20.c **** #endif
ARM GAS  C:\Users\57298\AppData\Local\Temp\ccUzYvQq.s 			page 47


 1994              		.loc 1 468 11
 1995 02c0 8D48     		ldr	r0, .L96+40
 1996 02c2 FFF7FEFF 		bl	SendTxDebug
 1997              	.L67:
 472:Src/radarandec20.c ****             (ProSta == 2 && strstr((const char *)rsRxBuf, (const char *)"1,1") != NULL) ||
 1998              		.loc 1 472 13
 1999 02c6 844B     		ldr	r3, .L96+8
 2000 02c8 1B78     		ldrb	r3, [r3]	@ zero_extendqisi2
 2001 02ca 1A46     		mov	r2, r3
 472:Src/radarandec20.c ****             (ProSta == 2 && strstr((const char *)rsRxBuf, (const char *)"1,1") != NULL) ||
 2002              		.loc 1 472 68
 2003 02cc 854B     		ldr	r3, .L96+20
 2004 02ce 53F82230 		ldr	r3, [r3, r2, lsl #2]
 472:Src/radarandec20.c ****             (ProSta == 2 && strstr((const char *)rsRxBuf, (const char *)"1,1") != NULL) ||
 2005              		.loc 1 472 13
 2006 02d2 1946     		mov	r1, r3
 2007 02d4 8248     		ldr	r0, .L96+16
 2008 02d6 FFF7FEFF 		bl	strstr
 2009 02da 0346     		mov	r3, r0
 472:Src/radarandec20.c ****             (ProSta == 2 && strstr((const char *)rsRxBuf, (const char *)"1,1") != NULL) ||
 2010              		.loc 1 472 12
 2011 02dc 002B     		cmp	r3, #0
 2012 02de 38D1     		bne	.L69
 473:Src/radarandec20.c ****             (ProSta == 2 && strstr((const char *)rsRxBuf, (const char *)"1,5") != NULL) ||
 2013              		.loc 1 473 21 discriminator 1
 2014 02e0 7D4B     		ldr	r3, .L96+8
 2015 02e2 1B78     		ldrb	r3, [r3]	@ zero_extendqisi2
 472:Src/radarandec20.c ****             (ProSta == 2 && strstr((const char *)rsRxBuf, (const char *)"1,1") != NULL) ||
 2016              		.loc 1 472 86 discriminator 1
 2017 02e4 022B     		cmp	r3, #2
 2018 02e6 06D1     		bne	.L70
 473:Src/radarandec20.c ****             (ProSta == 2 && strstr((const char *)rsRxBuf, (const char *)"1,5") != NULL) ||
 2019              		.loc 1 473 29
 2020 02e8 8449     		ldr	r1, .L96+44
 2021 02ea 7D48     		ldr	r0, .L96+16
 2022 02ec FFF7FEFF 		bl	strstr
 2023 02f0 0346     		mov	r3, r0
 473:Src/radarandec20.c ****             (ProSta == 2 && strstr((const char *)rsRxBuf, (const char *)"1,5") != NULL) ||
 2024              		.loc 1 473 26
 2025 02f2 002B     		cmp	r3, #0
 2026 02f4 2DD1     		bne	.L69
 2027              	.L70:
 474:Src/radarandec20.c ****             (ProSta == 2 && strstr((const char *)rsRxBuf, (const char *)"0,5") != NULL) ||
 2028              		.loc 1 474 21 discriminator 1
 2029 02f6 784B     		ldr	r3, .L96+8
 2030 02f8 1B78     		ldrb	r3, [r3]	@ zero_extendqisi2
 473:Src/radarandec20.c ****             (ProSta == 2 && strstr((const char *)rsRxBuf, (const char *)"1,5") != NULL) ||
 2031              		.loc 1 473 89 discriminator 1
 2032 02fa 022B     		cmp	r3, #2
 2033 02fc 06D1     		bne	.L71
 474:Src/radarandec20.c ****             (ProSta == 2 && strstr((const char *)rsRxBuf, (const char *)"0,5") != NULL) ||
 2034              		.loc 1 474 29
 2035 02fe 8049     		ldr	r1, .L96+48
 2036 0300 7748     		ldr	r0, .L96+16
 2037 0302 FFF7FEFF 		bl	strstr
 2038 0306 0346     		mov	r3, r0
 474:Src/radarandec20.c ****             (ProSta == 2 && strstr((const char *)rsRxBuf, (const char *)"0,5") != NULL) ||
ARM GAS  C:\Users\57298\AppData\Local\Temp\ccUzYvQq.s 			page 48


 2039              		.loc 1 474 26
 2040 0308 002B     		cmp	r3, #0
 2041 030a 22D1     		bne	.L69
 2042              	.L71:
 475:Src/radarandec20.c ****             (ProSta == 11 && strstr((const char *)rsRxBuf, (const char *)"recv") != NULL) ||
 2043              		.loc 1 475 21 discriminator 1
 2044 030c 724B     		ldr	r3, .L96+8
 2045 030e 1B78     		ldrb	r3, [r3]	@ zero_extendqisi2
 474:Src/radarandec20.c ****             (ProSta == 2 && strstr((const char *)rsRxBuf, (const char *)"0,5") != NULL) ||
 2046              		.loc 1 474 89 discriminator 1
 2047 0310 022B     		cmp	r3, #2
 2048 0312 06D1     		bne	.L72
 475:Src/radarandec20.c ****             (ProSta == 11 && strstr((const char *)rsRxBuf, (const char *)"recv") != NULL) ||
 2049              		.loc 1 475 29
 2050 0314 7B49     		ldr	r1, .L96+52
 2051 0316 7248     		ldr	r0, .L96+16
 2052 0318 FFF7FEFF 		bl	strstr
 2053 031c 0346     		mov	r3, r0
 475:Src/radarandec20.c ****             (ProSta == 11 && strstr((const char *)rsRxBuf, (const char *)"recv") != NULL) ||
 2054              		.loc 1 475 26
 2055 031e 002B     		cmp	r3, #0
 2056 0320 17D1     		bne	.L69
 2057              	.L72:
 476:Src/radarandec20.c ****             (ProSta == 11 && strstr((const char *)rsRxBuf, (const char *)",0") != NULL)) // 符合预
 2058              		.loc 1 476 21 discriminator 1
 2059 0322 6D4B     		ldr	r3, .L96+8
 2060 0324 1B78     		ldrb	r3, [r3]	@ zero_extendqisi2
 475:Src/radarandec20.c ****             (ProSta == 11 && strstr((const char *)rsRxBuf, (const char *)"recv") != NULL) ||
 2061              		.loc 1 475 89 discriminator 1
 2062 0326 0B2B     		cmp	r3, #11
 2063 0328 06D1     		bne	.L73
 476:Src/radarandec20.c ****             (ProSta == 11 && strstr((const char *)rsRxBuf, (const char *)",0") != NULL)) // 符合预
 2064              		.loc 1 476 30
 2065 032a 7749     		ldr	r1, .L96+56
 2066 032c 6C48     		ldr	r0, .L96+16
 2067 032e FFF7FEFF 		bl	strstr
 2068 0332 0346     		mov	r3, r0
 476:Src/radarandec20.c ****             (ProSta == 11 && strstr((const char *)rsRxBuf, (const char *)",0") != NULL)) // 符合预
 2069              		.loc 1 476 27
 2070 0334 002B     		cmp	r3, #0
 2071 0336 0CD1     		bne	.L69
 2072              	.L73:
 477:Src/radarandec20.c ****         {
 2073              		.loc 1 477 21 discriminator 1
 2074 0338 674B     		ldr	r3, .L96+8
 2075 033a 1B78     		ldrb	r3, [r3]	@ zero_extendqisi2
 476:Src/radarandec20.c ****             (ProSta == 11 && strstr((const char *)rsRxBuf, (const char *)",0") != NULL)) // 符合预
 2076              		.loc 1 476 91 discriminator 1
 2077 033c 0B2B     		cmp	r3, #11
 2078 033e 40F0A880 		bne	.L74
 477:Src/radarandec20.c ****         {
 2079              		.loc 1 477 30
 2080 0342 7249     		ldr	r1, .L96+60
 2081 0344 6648     		ldr	r0, .L96+16
 2082 0346 FFF7FEFF 		bl	strstr
 2083 034a 0346     		mov	r3, r0
 477:Src/radarandec20.c ****         {
ARM GAS  C:\Users\57298\AppData\Local\Temp\ccUzYvQq.s 			page 49


 2084              		.loc 1 477 27
 2085 034c 002B     		cmp	r3, #0
 2086 034e 00F0A080 		beq	.L74
 2087              	.L69:
 480:Src/radarandec20.c ****           {
 2088              		.loc 1 480 22
 2089 0352 614B     		ldr	r3, .L96+8
 2090 0354 1B78     		ldrb	r3, [r3]	@ zero_extendqisi2
 480:Src/radarandec20.c ****           {
 2091              		.loc 1 480 14
 2092 0356 0C2B     		cmp	r3, #12
 2093 0358 40F08480 		bne	.L75
 483:Src/radarandec20.c ****             {
 2094              		.loc 1 483 17
 2095 035c 0523     		movs	r3, #5
 2096 035e 6C4A     		ldr	r2, .L96+64
 2097 0360 1421     		movs	r1, #20
 2098 0362 6C48     		ldr	r0, .L96+68
 2099 0364 FFF7FEFF 		bl	findStrCmp
 2100 0368 0346     		mov	r3, r0
 483:Src/radarandec20.c ****             {
 2101              		.loc 1 483 16
 2102 036a 002B     		cmp	r3, #0
 2103 036c 08D0     		beq	.L76
 485:Src/radarandec20.c ****               CloudtriggerFlag = 1;
 2104              		.loc 1 485 15
 2105 036e 0022     		movs	r2, #0
 2106 0370 4FF48051 		mov	r1, #4096
 2107 0374 6848     		ldr	r0, .L96+72
 2108 0376 FFF7FEFF 		bl	HAL_GPIO_WritePin
 486:Src/radarandec20.c ****             }
 2109              		.loc 1 486 32
 2110 037a 684B     		ldr	r3, .L96+76
 2111 037c 0122     		movs	r2, #1
 2112 037e 1A70     		strb	r2, [r3]
 2113              	.L76:
 488:Src/radarandec20.c ****             {
 2114              		.loc 1 488 17
 2115 0380 0523     		movs	r3, #5
 2116 0382 674A     		ldr	r2, .L96+80
 2117 0384 1421     		movs	r1, #20
 2118 0386 6348     		ldr	r0, .L96+68
 2119 0388 FFF7FEFF 		bl	findStrCmp
 2120 038c 0346     		mov	r3, r0
 488:Src/radarandec20.c ****             {
 2121              		.loc 1 488 16
 2122 038e 002B     		cmp	r3, #0
 2123 0390 05D0     		beq	.L77
 490:Src/radarandec20.c ****             }
 2124              		.loc 1 490 15
 2125 0392 0122     		movs	r2, #1
 2126 0394 4FF48051 		mov	r1, #4096
 2127 0398 5F48     		ldr	r0, .L96+72
 2128 039a FFF7FEFF 		bl	HAL_GPIO_WritePin
 2129              	.L77:
 492:Src/radarandec20.c ****             {
 2130              		.loc 1 492 20
ARM GAS  C:\Users\57298\AppData\Local\Temp\ccUzYvQq.s 			page 50


 2131 039e 0023     		movs	r3, #0
 2132 03a0 FB80     		strh	r3, [r7, #6]	@ movhi
 492:Src/radarandec20.c ****             {
 2133              		.loc 1 492 13
 2134 03a2 0CE0     		b	.L78
 2135              	.L81:
 494:Src/radarandec20.c ****               {
 2136              		.loc 1 494 26
 2137 03a4 FB88     		ldrh	r3, [r7, #6]
 2138 03a6 4E4A     		ldr	r2, .L96+16
 2139 03a8 D35C     		ldrb	r3, [r2, r3]	@ zero_extendqisi2
 494:Src/radarandec20.c ****               {
 2140              		.loc 1 494 18
 2141 03aa 382B     		cmp	r3, #56
 2142 03ac 04D8     		bhi	.L79
 494:Src/radarandec20.c ****               {
 2143              		.loc 1 494 46 discriminator 1
 2144 03ae FB88     		ldrh	r3, [r7, #6]
 2145 03b0 4B4A     		ldr	r2, .L96+16
 2146 03b2 D35C     		ldrb	r3, [r2, r3]	@ zero_extendqisi2
 494:Src/radarandec20.c ****               {
 2147              		.loc 1 494 36 discriminator 1
 2148 03b4 302B     		cmp	r3, #48
 2149 03b6 08D8     		bhi	.L93
 2150              	.L79:
 492:Src/radarandec20.c ****             {
 2151              		.loc 1 492 39 discriminator 2
 2152 03b8 FB88     		ldrh	r3, [r7, #6]
 2153 03ba 0133     		adds	r3, r3, #1
 2154 03bc FB80     		strh	r3, [r7, #6]	@ movhi
 2155              	.L78:
 492:Src/radarandec20.c ****             {
 2156              		.loc 1 492 27 discriminator 1
 2157 03be FA88     		ldrh	r2, [r7, #6]
 2158 03c0 584B     		ldr	r3, .L96+84
 2159 03c2 1B68     		ldr	r3, [r3]
 492:Src/radarandec20.c ****             {
 2160              		.loc 1 492 13 discriminator 1
 2161 03c4 9A42     		cmp	r2, r3
 2162 03c6 EDD3     		bcc	.L81
 2163 03c8 00E0     		b	.L80
 2164              	.L93:
 496:Src/radarandec20.c ****               }
 2165              		.loc 1 496 17
 2166 03ca 00BF     		nop
 2167              	.L80:
 499:Src/radarandec20.c ****             {
 2168              		.loc 1 499 25
 2169 03cc 554B     		ldr	r3, .L96+84
 2170 03ce 1B68     		ldr	r3, [r3]
 499:Src/radarandec20.c ****             {
 2171              		.loc 1 499 16
 2172 03d0 122B     		cmp	r3, #18
 2173 03d2 47D9     		bls	.L75
 502:Src/radarandec20.c ****               {
 2174              		.loc 1 502 29
 2175 03d4 FB88     		ldrh	r3, [r7, #6]
ARM GAS  C:\Users\57298\AppData\Local\Temp\ccUzYvQq.s 			page 51


 2176 03d6 0933     		adds	r3, r3, #9
 502:Src/radarandec20.c ****               {
 2177              		.loc 1 502 26
 2178 03d8 414A     		ldr	r2, .L96+16
 2179 03da D35C     		ldrb	r3, [r2, r3]	@ zero_extendqisi2
 502:Src/radarandec20.c ****               {
 2180              		.loc 1 502 18
 2181 03dc 012B     		cmp	r3, #1
 2182 03de 0BD1     		bne	.L82
 504:Src/radarandec20.c ****                 warmSend[1] = 0;
 2183              		.loc 1 504 29
 2184 03e0 514B     		ldr	r3, .L96+88
 2185 03e2 0022     		movs	r2, #0
 2186 03e4 1A70     		strb	r2, [r3]
 505:Src/radarandec20.c ****                 warmSend[2] = 0;
 2187              		.loc 1 505 29
 2188 03e6 504B     		ldr	r3, .L96+88
 2189 03e8 0022     		movs	r2, #0
 2190 03ea 5A70     		strb	r2, [r3, #1]
 506:Src/radarandec20.c ****                 warmSend[3] = 0;
 2191              		.loc 1 506 29
 2192 03ec 4E4B     		ldr	r3, .L96+88
 2193 03ee 0022     		movs	r2, #0
 2194 03f0 9A70     		strb	r2, [r3, #2]
 507:Src/radarandec20.c ****               }
 2195              		.loc 1 507 29
 2196 03f2 4D4B     		ldr	r3, .L96+88
 2197 03f4 0022     		movs	r2, #0
 2198 03f6 DA70     		strb	r2, [r3, #3]
 2199              	.L82:
 509:Src/radarandec20.c ****                 warmnobeep = 0;
 2200              		.loc 1 509 29
 2201 03f8 FB88     		ldrh	r3, [r7, #6]
 2202 03fa 0A33     		adds	r3, r3, #10
 509:Src/radarandec20.c ****                 warmnobeep = 0;
 2203              		.loc 1 509 26
 2204 03fc 384A     		ldr	r2, .L96+16
 2205 03fe D35C     		ldrb	r3, [r2, r3]	@ zero_extendqisi2
 509:Src/radarandec20.c ****                 warmnobeep = 0;
 2206              		.loc 1 509 18
 2207 0400 002B     		cmp	r3, #0
 2208 0402 02D1     		bne	.L83
 510:Src/radarandec20.c ****               if (rsRxBuf[i + 10] == 1)
 2209              		.loc 1 510 28
 2210 0404 494B     		ldr	r3, .L96+92
 2211 0406 0022     		movs	r2, #0
 2212 0408 1A70     		strb	r2, [r3]
 2213              	.L83:
 511:Src/radarandec20.c ****                 warmnobeep = 1;
 2214              		.loc 1 511 29
 2215 040a FB88     		ldrh	r3, [r7, #6]
 2216 040c 0A33     		adds	r3, r3, #10
 511:Src/radarandec20.c ****                 warmnobeep = 1;
 2217              		.loc 1 511 26
 2218 040e 344A     		ldr	r2, .L96+16
 2219 0410 D35C     		ldrb	r3, [r2, r3]	@ zero_extendqisi2
 511:Src/radarandec20.c ****                 warmnobeep = 1;
ARM GAS  C:\Users\57298\AppData\Local\Temp\ccUzYvQq.s 			page 52


 2220              		.loc 1 511 18
 2221 0412 012B     		cmp	r3, #1
 2222 0414 02D1     		bne	.L84
 512:Src/radarandec20.c ****               if (rsRxBuf[i + 11] == 1)
 2223              		.loc 1 512 28
 2224 0416 454B     		ldr	r3, .L96+92
 2225 0418 0122     		movs	r2, #1
 2226 041a 1A70     		strb	r2, [r3]
 2227              	.L84:
 513:Src/radarandec20.c ****                 lifetime_count[0] = 0;
 2228              		.loc 1 513 29
 2229 041c FB88     		ldrh	r3, [r7, #6]
 2230 041e 0B33     		adds	r3, r3, #11
 513:Src/radarandec20.c ****                 lifetime_count[0] = 0;
 2231              		.loc 1 513 26
 2232 0420 2F4A     		ldr	r2, .L96+16
 2233 0422 D35C     		ldrb	r3, [r2, r3]	@ zero_extendqisi2
 513:Src/radarandec20.c ****                 lifetime_count[0] = 0;
 2234              		.loc 1 513 18
 2235 0424 012B     		cmp	r3, #1
 2236 0426 02D1     		bne	.L85
 514:Src/radarandec20.c ****               if (rsRxBuf[i + 12] == 1)
 2237              		.loc 1 514 35
 2238 0428 414B     		ldr	r3, .L96+96
 2239 042a 0022     		movs	r2, #0
 2240 042c 1A70     		strb	r2, [r3]
 2241              	.L85:
 515:Src/radarandec20.c ****                 lifetime_count[1] = 0;
 2242              		.loc 1 515 29
 2243 042e FB88     		ldrh	r3, [r7, #6]
 2244 0430 0C33     		adds	r3, r3, #12
 515:Src/radarandec20.c ****                 lifetime_count[1] = 0;
 2245              		.loc 1 515 26
 2246 0432 2B4A     		ldr	r2, .L96+16
 2247 0434 D35C     		ldrb	r3, [r2, r3]	@ zero_extendqisi2
 515:Src/radarandec20.c ****                 lifetime_count[1] = 0;
 2248              		.loc 1 515 18
 2249 0436 012B     		cmp	r3, #1
 2250 0438 02D1     		bne	.L86
 516:Src/radarandec20.c ****               if (rsRxBuf[i + 13] == 1)
 2251              		.loc 1 516 35
 2252 043a 3D4B     		ldr	r3, .L96+96
 2253 043c 0022     		movs	r2, #0
 2254 043e 5A70     		strb	r2, [r3, #1]
 2255              	.L86:
 517:Src/radarandec20.c ****                 lifetime_count[2] = 0;
 2256              		.loc 1 517 29
 2257 0440 FB88     		ldrh	r3, [r7, #6]
 2258 0442 0D33     		adds	r3, r3, #13
 517:Src/radarandec20.c ****                 lifetime_count[2] = 0;
 2259              		.loc 1 517 26
 2260 0444 264A     		ldr	r2, .L96+16
 2261 0446 D35C     		ldrb	r3, [r2, r3]	@ zero_extendqisi2
 517:Src/radarandec20.c ****                 lifetime_count[2] = 0;
 2262              		.loc 1 517 18
 2263 0448 012B     		cmp	r3, #1
 2264 044a 02D1     		bne	.L87
ARM GAS  C:\Users\57298\AppData\Local\Temp\ccUzYvQq.s 			page 53


 518:Src/radarandec20.c ****               if (rsRxBuf[i + 14] == 1)
 2265              		.loc 1 518 35
 2266 044c 384B     		ldr	r3, .L96+96
 2267 044e 0022     		movs	r2, #0
 2268 0450 9A70     		strb	r2, [r3, #2]
 2269              	.L87:
 519:Src/radarandec20.c ****                 lifetime_count[3] = 0;
 2270              		.loc 1 519 29
 2271 0452 FB88     		ldrh	r3, [r7, #6]
 2272 0454 0E33     		adds	r3, r3, #14
 519:Src/radarandec20.c ****                 lifetime_count[3] = 0;
 2273              		.loc 1 519 26
 2274 0456 224A     		ldr	r2, .L96+16
 2275 0458 D35C     		ldrb	r3, [r2, r3]	@ zero_extendqisi2
 519:Src/radarandec20.c ****                 lifetime_count[3] = 0;
 2276              		.loc 1 519 18
 2277 045a 012B     		cmp	r3, #1
 2278 045c 02D1     		bne	.L75
 520:Src/radarandec20.c ****             }
 2279              		.loc 1 520 35
 2280 045e 344B     		ldr	r3, .L96+96
 2281 0460 0022     		movs	r2, #0
 2282 0462 DA70     		strb	r2, [r3, #3]
 2283              	.L75:
 557:Src/radarandec20.c ****           if (ProSta == 11) // 发送成功则
 2284              		.loc 1 557 22
 2285 0464 334B     		ldr	r3, .L96+100
 2286 0466 0122     		movs	r2, #1
 2287 0468 1A70     		strb	r2, [r3]
 558:Src/radarandec20.c ****           {
 2288              		.loc 1 558 22
 2289 046a 1B4B     		ldr	r3, .L96+8
 2290 046c 1B78     		ldrb	r3, [r3]	@ zero_extendqisi2
 558:Src/radarandec20.c ****           {
 2291              		.loc 1 558 14
 2292 046e 0B2B     		cmp	r3, #11
 2293 0470 05D1     		bne	.L88
 560:Src/radarandec20.c ****             SendGPSCnt = 0;
 2294              		.loc 1 560 25
 2295 0472 314B     		ldr	r3, .L96+104
 2296 0474 0122     		movs	r2, #1
 2297 0476 1A70     		strb	r2, [r3]
 561:Src/radarandec20.c ****           }
 2298              		.loc 1 561 24
 2299 0478 304B     		ldr	r3, .L96+108
 2300 047a 0022     		movs	r2, #0
 2301 047c 1A60     		str	r2, [r3]
 2302              	.L88:
 564:Src/radarandec20.c ****           CurStaSendCnt = 0; // 收到预期清零
 2303              		.loc 1 564 17
 2304 047e 164B     		ldr	r3, .L96+8
 2305 0480 1B78     		ldrb	r3, [r3]	@ zero_extendqisi2
 2306 0482 0133     		adds	r3, r3, #1
 2307 0484 DAB2     		uxtb	r2, r3
 2308 0486 144B     		ldr	r3, .L96+8
 2309 0488 1A70     		strb	r2, [r3]
 565:Src/radarandec20.c ****         }
ARM GAS  C:\Users\57298\AppData\Local\Temp\ccUzYvQq.s 			page 54


 2310              		.loc 1 565 25
 2311 048a 2D4B     		ldr	r3, .L96+112
 2312 048c 0022     		movs	r2, #0
 2313 048e 1A70     		strb	r2, [r3]
 2314 0490 09E0     		b	.L89
 2315              	.L74:
 569:Src/radarandec20.c ****           {
 2316              		.loc 1 569 22
 2317 0492 114B     		ldr	r3, .L96+8
 2318 0494 1B78     		ldrb	r3, [r3]	@ zero_extendqisi2
 569:Src/radarandec20.c ****           {
 2319              		.loc 1 569 14
 2320 0496 0B2B     		cmp	r3, #11
 2321 0498 05D1     		bne	.L89
 571:Src/radarandec20.c ****             ProSta = 6; // 发都没发成功就别接收了 直接重新开始
 2322              		.loc 1 571 25
 2323 049a 274B     		ldr	r3, .L96+104
 2324 049c 0022     		movs	r2, #0
 2325 049e 1A70     		strb	r2, [r3]
 572:Src/radarandec20.c ****           }
 2326              		.loc 1 572 20
 2327 04a0 0D4B     		ldr	r3, .L96+8
 2328 04a2 0622     		movs	r2, #6
 2329 04a4 1A70     		strb	r2, [r3]
 2330              	.L89:
 575:Src/radarandec20.c ****       }
 2331              		.loc 1 575 9
 2332 04a6 FFF7FEFF 		bl	Clear_Buffer
 2333              		.loc 1 592 1
 2334 04aa 0DE0     		b	.L92
 2335              	.L58:
 581:Src/radarandec20.c ****       {
 2336              		.loc 1 581 11
 2337 04ac 224B     		ldr	r3, .L96+104
 2338 04ae 1B78     		ldrb	r3, [r3]	@ zero_extendqisi2
 581:Src/radarandec20.c ****       {
 2339              		.loc 1 581 10
 2340 04b0 002B     		cmp	r3, #0
 2341 04b2 03D0     		beq	.L90
 583:Src/radarandec20.c ****       }
 2342              		.loc 1 583 16
 2343 04b4 084B     		ldr	r3, .L96+8
 2344 04b6 0B22     		movs	r2, #11
 2345 04b8 1A70     		strb	r2, [r3]
 2346 04ba 02E0     		b	.L91
 2347              	.L90:
 587:Src/radarandec20.c ****       }
 2348              		.loc 1 587 16
 2349 04bc 064B     		ldr	r3, .L96+8
 2350 04be 0622     		movs	r2, #6
 2351 04c0 1A70     		strb	r2, [r3]
 2352              	.L91:
 589:Src/radarandec20.c ****     }
 2353              		.loc 1 589 19
 2354 04c2 204B     		ldr	r3, .L96+116
 2355 04c4 0022     		movs	r2, #0
 2356 04c6 1A70     		strb	r2, [r3]
ARM GAS  C:\Users\57298\AppData\Local\Temp\ccUzYvQq.s 			page 55


 2357              	.L92:
 2358              		.loc 1 592 1
 2359 04c8 00BF     		nop
 2360 04ca 0837     		adds	r7, r7, #8
 2361              	.LCFI44:
 2362              		.cfi_def_cfa_offset 8
 2363 04cc BD46     		mov	sp, r7
 2364              	.LCFI45:
 2365              		.cfi_def_cfa_register 13
 2366              		@ sp needed
 2367 04ce 80BD     		pop	{r7, pc}
 2368              	.L97:
 2369              		.align	2
 2370              	.L96:
 2371 04d0 00000000 		.word	rsRecFlag
 2372 04d4 00000000 		.word	SendCntRecClear
 2373 04d8 00000000 		.word	ProSta
 2374 04dc 0C020000 		.word	.LC36
 2375 04e0 00000000 		.word	rsRxBuf
 2376 04e4 00000000 		.word	RecExpected
 2377 04e8 20020000 		.word	.LC38
 2378 04ec 00000000 		.word	linkflag
 2379 04f0 00000000 		.word	waringtimeflag
 2380 04f4 00000000 		.word	sendedflag
 2381 04f8 30020000 		.word	.LC39
 2382 04fc 3C020000 		.word	.LC40
 2383 0500 40020000 		.word	.LC41
 2384 0504 44020000 		.word	.LC42
 2385 0508 48020000 		.word	.LC43
 2386 050c 50020000 		.word	.LC44
 2387 0510 54020000 		.word	.LC45
 2388 0514 14000000 		.word	rsRxBuf+20
 2389 0518 000C0140 		.word	1073810432
 2390 051c 00000000 		.word	CloudtriggerFlag
 2391 0520 5C020000 		.word	.LC46
 2392 0524 00000000 		.word	rsRxLen
 2393 0528 00000000 		.word	warmSend
 2394 052c 00000000 		.word	warmnobeep
 2395 0530 00000000 		.word	lifetime_count
 2396 0534 00000000 		.word	GpsRecFlag
 2397 0538 00000000 		.word	linkflagSta
 2398 053c 00000000 		.word	SendGPSCnt
 2399 0540 00000000 		.word	CurStaSendCnt
 2400 0544 00000000 		.word	sendingflag
 2401              		.cfi_endproc
 2402              	.LFE76:
 2404              		.section	.rodata
 2405 0262 0000     		.align	2
 2406              	.LC47:
 2407 0264 B3F5CABC 		.ascii	"\263\365\312\274\273\257\315\352\263\311\000\000"
 2407      BBAFCDEA 
 2407      B3C90000 
 2408              		.align	2
 2409              	.LC48:
 2410 0270 C0D7B4EF 		.ascii	"\300\327\264\3571\261\250\276\257\000\000"
 2410      31B1A8BE 
 2410      AF0000
ARM GAS  C:\Users\57298\AppData\Local\Temp\ccUzYvQq.s 			page 56


 2411 027b 00       		.align	2
 2412              	.LC49:
 2413 027c C0D7B4EF 		.ascii	"\300\327\264\3572\261\250\276\257\000\000"
 2413      32B1A8BE 
 2413      AF0000
 2414 0287 00       		.align	2
 2415              	.LC50:
 2416 0288 C0D7B4EF 		.ascii	"\300\327\264\3573\261\250\276\257\000\000"
 2416      33B1A8BE 
 2416      AF0000
 2417 0293 00       		.align	2
 2418              	.LC51:
 2419 0294 C0D7B4EF 		.ascii	"\300\327\264\3574\261\250\276\257\000\000"
 2419      34B1A8BE 
 2419      AF0000
 2420 029f 00       		.align	2
 2421              	.LC52:
 2422 02a0 D2D1B1A8 		.ascii	"\322\321\261\250\276\257\000\000"
 2422      BEAF0000 
 2423              		.align	2
 2424              	.LC53:
 2425 02a8 C7E5B3FD 		.ascii	"\307\345\263\375\306\301\304\273\000\000"
 2425      C6C1C4BB 
 2425      0000
 2426              		.section	.text.PollFun,"ax",%progbits
 2427              		.align	1
 2428              		.global	PollFun
 2429              		.syntax unified
 2430              		.thumb
 2431              		.thumb_func
 2433              	PollFun:
 2434              	.LFB77:
 593:Src/radarandec20.c **** 
 594:Src/radarandec20.c **** // 放在while(1)总的函数=EC20+RADAR
 595:Src/radarandec20.c **** void PollFun(void)
 596:Src/radarandec20.c **** {
 2435              		.loc 1 596 1
 2436              		.cfi_startproc
 2437              		@ args = 0, pretend = 0, frame = 8
 2438              		@ frame_needed = 1, uses_anonymous_args = 0
 2439 0000 80B5     		push	{r7, lr}
 2440              	.LCFI46:
 2441              		.cfi_def_cfa_offset 8
 2442              		.cfi_offset 7, -8
 2443              		.cfi_offset 14, -4
 2444 0002 82B0     		sub	sp, sp, #8
 2445              	.LCFI47:
 2446              		.cfi_def_cfa_offset 16
 2447 0004 00AF     		add	r7, sp, #0
 2448              	.LCFI48:
 2449              		.cfi_def_cfa_register 7
 597:Src/radarandec20.c **** 
 598:Src/radarandec20.c ****   static unsigned char initflag = 0;
 599:Src/radarandec20.c **** 
 600:Src/radarandec20.c ****   if (initflag == 0)
 2450              		.loc 1 600 16
 2451 0006 7C4B     		ldr	r3, .L112
ARM GAS  C:\Users\57298\AppData\Local\Temp\ccUzYvQq.s 			page 57


 2452 0008 1B78     		ldrb	r3, [r3]	@ zero_extendqisi2
 2453              		.loc 1 600 6
 2454 000a 002B     		cmp	r3, #0
 2455 000c 26D1     		bne	.L99
 601:Src/radarandec20.c ****   {
 602:Src/radarandec20.c ****     initflag = 1; // 这里放一些初始化函数
 2456              		.loc 1 602 14
 2457 000e 7A4B     		ldr	r3, .L112
 2458 0010 0122     		movs	r2, #1
 2459 0012 1A70     		strb	r2, [r3]
 603:Src/radarandec20.c ****     ec20power(1);
 2460              		.loc 1 603 5
 2461 0014 0120     		movs	r0, #1
 2462 0016 FFF7FEFF 		bl	ec20power
 604:Src/radarandec20.c ****     u1Conf(); // RS232
 2463              		.loc 1 604 5
 2464 001a FFF7FEFF 		bl	u1Conf
 605:Src/radarandec20.c ****     u2Conf(); // EC20  AT指令
 2465              		.loc 1 605 5
 2466 001e FFF7FEFF 		bl	u2Conf
 606:Src/radarandec20.c ****     u3Conf(); // Radar
 2467              		.loc 1 606 5
 2468 0022 FFF7FEFF 		bl	u3Conf
 607:Src/radarandec20.c **** #if DEBUGMODE == 0
 608:Src/radarandec20.c ****     OLED_Init();
 609:Src/radarandec20.c ****     OLED_CLS();
 610:Src/radarandec20.c ****     OLED_ShowString(0, 1, "Setup Complete", 16);
 611:Src/radarandec20.c ****     delay_ms(1000);
 612:Src/radarandec20.c ****     OLED_CLS();
 613:Src/radarandec20.c **** #else
 614:Src/radarandec20.c ****     SendTxDebug((unsigned char *)"初始化完成\0");
 2469              		.loc 1 614 5
 2470 0026 7548     		ldr	r0, .L112+4
 2471 0028 FFF7FEFF 		bl	SendTxDebug
 615:Src/radarandec20.c **** #endif
 616:Src/radarandec20.c ****     lifetime_count[0] = 0;
 2472              		.loc 1 616 23
 2473 002c 744B     		ldr	r3, .L112+8
 2474 002e 0022     		movs	r2, #0
 2475 0030 1A70     		strb	r2, [r3]
 617:Src/radarandec20.c ****     lifetime_count[1] = 0;
 2476              		.loc 1 617 23
 2477 0032 734B     		ldr	r3, .L112+8
 2478 0034 0022     		movs	r2, #0
 2479 0036 5A70     		strb	r2, [r3, #1]
 618:Src/radarandec20.c ****     lifetime_count[2] = 0;
 2480              		.loc 1 618 23
 2481 0038 714B     		ldr	r3, .L112+8
 2482 003a 0022     		movs	r2, #0
 2483 003c 9A70     		strb	r2, [r3, #2]
 619:Src/radarandec20.c ****     lifetime_count[3] = 0;
 2484              		.loc 1 619 23
 2485 003e 704B     		ldr	r3, .L112+8
 2486 0040 0022     		movs	r2, #0
 2487 0042 DA70     		strb	r2, [r3, #3]
 620:Src/radarandec20.c ****     warmSend[0] = 0;
 2488              		.loc 1 620 17
ARM GAS  C:\Users\57298\AppData\Local\Temp\ccUzYvQq.s 			page 58


 2489 0044 6F4B     		ldr	r3, .L112+12
 2490 0046 0022     		movs	r2, #0
 2491 0048 1A70     		strb	r2, [r3]
 621:Src/radarandec20.c ****     warmSend[1] = 0;
 2492              		.loc 1 621 17
 2493 004a 6E4B     		ldr	r3, .L112+12
 2494 004c 0022     		movs	r2, #0
 2495 004e 5A70     		strb	r2, [r3, #1]
 622:Src/radarandec20.c ****     warmSend[2] = 0;
 2496              		.loc 1 622 17
 2497 0050 6C4B     		ldr	r3, .L112+12
 2498 0052 0022     		movs	r2, #0
 2499 0054 9A70     		strb	r2, [r3, #2]
 623:Src/radarandec20.c ****     warmSend[3] = 0;
 2500              		.loc 1 623 17
 2501 0056 6B4B     		ldr	r3, .L112+12
 2502 0058 0022     		movs	r2, #0
 2503 005a DA70     		strb	r2, [r3, #3]
 2504              	.L99:
 624:Src/radarandec20.c ****   }
 625:Src/radarandec20.c **** 
 626:Src/radarandec20.c ****   ec20ProcessFun();
 2505              		.loc 1 626 3
 2506 005c FFF7FEFF 		bl	ec20ProcessFun
 627:Src/radarandec20.c **** 
 628:Src/radarandec20.c **** #if FacSend == 1 // 这里测试
 629:Src/radarandec20.c ****   if (simCnt > 10000)
 630:Src/radarandec20.c ****   {
 631:Src/radarandec20.c ****     ready_2_warning = 1;
 632:Src/radarandec20.c ****     warning_ID = 1;
 633:Src/radarandec20.c ****     warmSend[0] = 1;
 634:Src/radarandec20.c ****     warmSend[1] = 1;
 635:Src/radarandec20.c ****     warmSend[2] = 1;
 636:Src/radarandec20.c ****     warmSend[3] = 1;
 637:Src/radarandec20.c ****     if (linkflag == 1 && sendingflag == 0)
 638:Src/radarandec20.c ****     {
 639:Src/radarandec20.c ****       sendingflag = 1;
 640:Src/radarandec20.c ****       ProSta = 11; // 立马准备发送
 641:Src/radarandec20.c ****     }
 642:Src/radarandec20.c ****   }
 643:Src/radarandec20.c **** 
 644:Src/radarandec20.c ****   if (simCnt > 20000)
 645:Src/radarandec20.c ****   {
 646:Src/radarandec20.c ****     simCnt = 0;
 647:Src/radarandec20.c ****     sendingflag = 0;
 648:Src/radarandec20.c ****     ready_2_warning = 0;
 649:Src/radarandec20.c ****     warning_ID = 0;
 650:Src/radarandec20.c ****     warmSend[0] = 0;
 651:Src/radarandec20.c ****     warmSend[1] = 0;
 652:Src/radarandec20.c ****     warmSend[2] = 0;
 653:Src/radarandec20.c ****     warmSend[3] = 0;
 654:Src/radarandec20.c ****   }
 655:Src/radarandec20.c **** 
 656:Src/radarandec20.c **** #endif
 657:Src/radarandec20.c **** 
 658:Src/radarandec20.c ****   // 上次1这次0
 659:Src/radarandec20.c ****   if (readsxtioflag == GPIO_PIN_SET && readSXTwarm == GPIO_PIN_RESET)
ARM GAS  C:\Users\57298\AppData\Local\Temp\ccUzYvQq.s 			page 59


 2507              		.loc 1 659 21
 2508 0060 694B     		ldr	r3, .L112+16
 2509 0062 1B78     		ldrb	r3, [r3]	@ zero_extendqisi2
 2510              		.loc 1 659 6
 2511 0064 012B     		cmp	r3, #1
 2512 0066 10D1     		bne	.L100
 2513              		.loc 1 659 40 discriminator 1
 2514 0068 4FF40051 		mov	r1, #8192
 2515 006c 6748     		ldr	r0, .L112+20
 2516 006e FFF7FEFF 		bl	HAL_GPIO_ReadPin
 2517 0072 0346     		mov	r3, r0
 2518              		.loc 1 659 37 discriminator 1
 2519 0074 002B     		cmp	r3, #0
 2520 0076 08D1     		bne	.L100
 660:Src/radarandec20.c ****   {
 661:Src/radarandec20.c ****     ready_2_warning = 1;
 2521              		.loc 1 661 21
 2522 0078 654B     		ldr	r3, .L112+24
 2523 007a 0122     		movs	r2, #1
 2524 007c 1A70     		strb	r2, [r3]
 662:Src/radarandec20.c ****     warning_ID = 0;
 2525              		.loc 1 662 16
 2526 007e 654B     		ldr	r3, .L112+28
 2527 0080 0022     		movs	r2, #0
 2528 0082 1A70     		strb	r2, [r3]
 663:Src/radarandec20.c ****     warmSend[0] = 1;
 2529              		.loc 1 663 17
 2530 0084 5F4B     		ldr	r3, .L112+12
 2531 0086 0122     		movs	r2, #1
 2532 0088 1A70     		strb	r2, [r3]
 2533              	.L100:
 664:Src/radarandec20.c ****   }
 665:Src/radarandec20.c **** 
 666:Src/radarandec20.c ****   readsxtioflag = readSXTwarm;
 2534              		.loc 1 666 19
 2535 008a 4FF40051 		mov	r1, #8192
 2536 008e 5F48     		ldr	r0, .L112+20
 2537 0090 FFF7FEFF 		bl	HAL_GPIO_ReadPin
 2538 0094 0346     		mov	r3, r0
 2539 0096 1A46     		mov	r2, r3
 2540              		.loc 1 666 17
 2541 0098 5B4B     		ldr	r3, .L112+16
 2542 009a 1A70     		strb	r2, [r3]
 667:Src/radarandec20.c **** 
 668:Src/radarandec20.c ****   if (ready_2_warning == 1)
 2543              		.loc 1 668 23
 2544 009c 5C4B     		ldr	r3, .L112+24
 2545 009e 1B78     		ldrb	r3, [r3]	@ zero_extendqisi2
 2546              		.loc 1 668 6
 2547 00a0 012B     		cmp	r3, #1
 2548 00a2 50D1     		bne	.L101
 669:Src/radarandec20.c ****   {
 670:Src/radarandec20.c ****     danger_keep = 10;
 2549              		.loc 1 670 17
 2550 00a4 5C4B     		ldr	r3, .L112+32
 2551 00a6 0A22     		movs	r2, #10
 2552 00a8 1A70     		strb	r2, [r3]
ARM GAS  C:\Users\57298\AppData\Local\Temp\ccUzYvQq.s 			page 60


 671:Src/radarandec20.c ****     ready_2_warning = 0;
 2553              		.loc 1 671 21
 2554 00aa 594B     		ldr	r3, .L112+24
 2555 00ac 0022     		movs	r2, #0
 2556 00ae 1A70     		strb	r2, [r3]
 672:Src/radarandec20.c **** 
 673:Src/radarandec20.c ****     if (linkflag == 1 && sendingflag == 0) // 已连接 未发送
 2557              		.loc 1 673 18
 2558 00b0 5A4B     		ldr	r3, .L112+36
 2559 00b2 1B78     		ldrb	r3, [r3]	@ zero_extendqisi2
 2560              		.loc 1 673 8
 2561 00b4 012B     		cmp	r3, #1
 2562 00b6 10D1     		bne	.L102
 2563              		.loc 1 673 38 discriminator 1
 2564 00b8 594B     		ldr	r3, .L112+40
 2565 00ba 1B78     		ldrb	r3, [r3]	@ zero_extendqisi2
 2566              		.loc 1 673 23 discriminator 1
 2567 00bc 002B     		cmp	r3, #0
 2568 00be 0CD1     		bne	.L102
 674:Src/radarandec20.c ****     {
 675:Src/radarandec20.c ****       sendingflag = 1;
 2569              		.loc 1 675 19
 2570 00c0 574B     		ldr	r3, .L112+40
 2571 00c2 0122     		movs	r2, #1
 2572 00c4 1A70     		strb	r2, [r3]
 676:Src/radarandec20.c ****       ProSta = 11; // 立马准备发送
 2573              		.loc 1 676 14
 2574 00c6 574B     		ldr	r3, .L112+44
 2575 00c8 0B22     		movs	r2, #11
 2576 00ca 1A70     		strb	r2, [r3]
 677:Src/radarandec20.c **** 
 678:Src/radarandec20.c ****       PollTimeCnt = POLLTime + 1;
 2577              		.loc 1 678 30
 2578 00cc 564B     		ldr	r3, .L112+48
 2579 00ce 1B68     		ldr	r3, [r3]
 2580 00d0 9BB2     		uxth	r3, r3
 2581 00d2 0133     		adds	r3, r3, #1
 2582 00d4 9AB2     		uxth	r2, r3
 2583              		.loc 1 678 19
 2584 00d6 554B     		ldr	r3, .L112+52
 2585 00d8 1A80     		strh	r2, [r3]	@ movhi
 2586              	.L102:
 679:Src/radarandec20.c ****     }
 680:Src/radarandec20.c ****     if (warning_ID == 1)
 2587              		.loc 1 680 20
 2588 00da 4E4B     		ldr	r3, .L112+28
 2589 00dc 1B78     		ldrb	r3, [r3]	@ zero_extendqisi2
 2590              		.loc 1 680 8
 2591 00de 012B     		cmp	r3, #1
 2592 00e0 03D1     		bne	.L103
 681:Src/radarandec20.c ****     {
 682:Src/radarandec20.c **** #if DEBUGMODE == 0
 683:Src/radarandec20.c ****       OLED_ShowString(0, 0, "RADAR[1]DANGER!!", 16);
 684:Src/radarandec20.c **** #else
 685:Src/radarandec20.c ****       SendTxDebug((unsigned char *)"雷达1报警\0");
 2593              		.loc 1 685 7
 2594 00e2 5348     		ldr	r0, .L112+56
ARM GAS  C:\Users\57298\AppData\Local\Temp\ccUzYvQq.s 			page 61


 2595 00e4 FFF7FEFF 		bl	SendTxDebug
 2596 00e8 16E0     		b	.L104
 2597              	.L103:
 686:Src/radarandec20.c **** #endif
 687:Src/radarandec20.c ****     }
 688:Src/radarandec20.c ****     else if (warning_ID == 2)
 2598              		.loc 1 688 25
 2599 00ea 4A4B     		ldr	r3, .L112+28
 2600 00ec 1B78     		ldrb	r3, [r3]	@ zero_extendqisi2
 2601              		.loc 1 688 13
 2602 00ee 022B     		cmp	r3, #2
 2603 00f0 03D1     		bne	.L105
 689:Src/radarandec20.c ****     {
 690:Src/radarandec20.c **** #if DEBUGMODE == 0
 691:Src/radarandec20.c ****       OLED_ShowString(0, 0, "RADAR[2]DANGER!!", 16);
 692:Src/radarandec20.c **** #else
 693:Src/radarandec20.c ****       SendTxDebug((unsigned char *)"雷达2报警\0");
 2604              		.loc 1 693 7
 2605 00f2 5048     		ldr	r0, .L112+60
 2606 00f4 FFF7FEFF 		bl	SendTxDebug
 2607 00f8 0EE0     		b	.L104
 2608              	.L105:
 694:Src/radarandec20.c **** #endif
 695:Src/radarandec20.c ****     }
 696:Src/radarandec20.c ****     else if (warning_ID == 3)
 2609              		.loc 1 696 25
 2610 00fa 464B     		ldr	r3, .L112+28
 2611 00fc 1B78     		ldrb	r3, [r3]	@ zero_extendqisi2
 2612              		.loc 1 696 13
 2613 00fe 032B     		cmp	r3, #3
 2614 0100 03D1     		bne	.L106
 697:Src/radarandec20.c ****     {
 698:Src/radarandec20.c **** #if DEBUGMODE == 0
 699:Src/radarandec20.c ****       OLED_ShowString(0, 0, "RADAR[3]DANGER!!", 16);
 700:Src/radarandec20.c **** #else
 701:Src/radarandec20.c ****       SendTxDebug((unsigned char *)"雷达3报警\0");
 2615              		.loc 1 701 7
 2616 0102 4D48     		ldr	r0, .L112+64
 2617 0104 FFF7FEFF 		bl	SendTxDebug
 2618 0108 06E0     		b	.L104
 2619              	.L106:
 702:Src/radarandec20.c **** #endif
 703:Src/radarandec20.c ****     }
 704:Src/radarandec20.c ****     else if (warning_ID == 4)
 2620              		.loc 1 704 25
 2621 010a 424B     		ldr	r3, .L112+28
 2622 010c 1B78     		ldrb	r3, [r3]	@ zero_extendqisi2
 2623              		.loc 1 704 13
 2624 010e 042B     		cmp	r3, #4
 2625 0110 02D1     		bne	.L104
 705:Src/radarandec20.c ****     {
 706:Src/radarandec20.c ****       ;
 707:Src/radarandec20.c **** #if DEBUGMODE == 0
 708:Src/radarandec20.c ****       OLED_ShowString(0, 0, "RADAR[4]DANGER!!", 16);
 709:Src/radarandec20.c **** #else
 710:Src/radarandec20.c ****       SendTxDebug((unsigned char *)"雷达4报警\0");
 2626              		.loc 1 710 7
ARM GAS  C:\Users\57298\AppData\Local\Temp\ccUzYvQq.s 			page 62


 2627 0112 4A48     		ldr	r0, .L112+68
 2628 0114 FFF7FEFF 		bl	SendTxDebug
 2629              	.L104:
 711:Src/radarandec20.c **** #endif
 712:Src/radarandec20.c ****     }
 713:Src/radarandec20.c **** 
 714:Src/radarandec20.c ****     // if(warmnobeep==0)//
 715:Src/radarandec20.c ****     {
 716:Src/radarandec20.c ****       if (waringtimeflag == 0)
 2630              		.loc 1 716 26
 2631 0118 494B     		ldr	r3, .L112+72
 2632 011a 1B78     		ldrb	r3, [r3]	@ zero_extendqisi2
 2633              		.loc 1 716 10
 2634 011c 002B     		cmp	r3, #0
 2635 011e 12D1     		bne	.L101
 717:Src/radarandec20.c ****       {
 718:Src/radarandec20.c ****         waringtimeflag = 1;
 2636              		.loc 1 718 24
 2637 0120 474B     		ldr	r3, .L112+72
 2638 0122 0122     		movs	r2, #1
 2639 0124 1A70     		strb	r2, [r3]
 719:Src/radarandec20.c ****         waringspeedflag = 1;
 2640              		.loc 1 719 25
 2641 0126 474B     		ldr	r3, .L112+76
 2642 0128 0122     		movs	r2, #1
 2643 012a 1A70     		strb	r2, [r3]
 720:Src/radarandec20.c ****         warmonceflag = 1;
 2644              		.loc 1 720 22
 2645 012c 464B     		ldr	r3, .L112+80
 2646 012e 0122     		movs	r2, #1
 2647 0130 1A70     		strb	r2, [r3]
 721:Src/radarandec20.c ****         POLLTime = ALARMTIME;
 2648              		.loc 1 721 18
 2649 0132 3D4B     		ldr	r3, .L112+48
 2650 0134 4FF44872 		mov	r2, #800
 2651 0138 1A60     		str	r2, [r3]
 722:Src/radarandec20.c ****         WarmHig; // 报警  报警没有被禁用
 2652              		.loc 1 722 9
 2653 013a 0022     		movs	r2, #0
 2654 013c 4FF48051 		mov	r1, #4096
 2655 0140 4248     		ldr	r0, .L112+84
 2656 0142 FFF7FEFF 		bl	HAL_GPIO_WritePin
 2657              	.L101:
 723:Src/radarandec20.c ****       }
 724:Src/radarandec20.c ****     }
 725:Src/radarandec20.c ****   }
 726:Src/radarandec20.c ****   if (waringtime > 10000)
 2658              		.loc 1 726 18
 2659 0146 424B     		ldr	r3, .L112+88
 2660 0148 1B68     		ldr	r3, [r3]
 2661              		.loc 1 726 6
 2662 014a 42F21072 		movw	r2, #10000
 2663 014e 9342     		cmp	r3, r2
 2664 0150 1DD9     		bls	.L107
 727:Src/radarandec20.c ****   {
 728:Src/radarandec20.c ****     WarmLow;
 2665              		.loc 1 728 5
ARM GAS  C:\Users\57298\AppData\Local\Temp\ccUzYvQq.s 			page 63


 2666 0152 0122     		movs	r2, #1
 2667 0154 4FF48051 		mov	r1, #4096
 2668 0158 3C48     		ldr	r0, .L112+84
 2669 015a FFF7FEFF 		bl	HAL_GPIO_WritePin
 729:Src/radarandec20.c **** #if DEBUGMODE == 0
 730:Src/radarandec20.c ****     SendTxDebug((unsigned char *)"已报警\0");
 731:Src/radarandec20.c **** #else
 732:Src/radarandec20.c ****     SendTxDebug((unsigned char *)"已报警\0");
 2670              		.loc 1 732 5
 2671 015e 3D48     		ldr	r0, .L112+92
 2672 0160 FFF7FEFF 		bl	SendTxDebug
 733:Src/radarandec20.c **** #endif
 734:Src/radarandec20.c ****     waringtimeflag = 0;
 2673              		.loc 1 734 20
 2674 0164 364B     		ldr	r3, .L112+72
 2675 0166 0022     		movs	r2, #0
 2676 0168 1A70     		strb	r2, [r3]
 735:Src/radarandec20.c ****     sendingflag = 0; // 未发送 20220527
 2677              		.loc 1 735 17
 2678 016a 2D4B     		ldr	r3, .L112+40
 2679 016c 0022     		movs	r2, #0
 2680 016e 1A70     		strb	r2, [r3]
 736:Src/radarandec20.c ****     waringtime = 0;
 2681              		.loc 1 736 16
 2682 0170 374B     		ldr	r3, .L112+88
 2683 0172 0022     		movs	r2, #0
 2684 0174 1A60     		str	r2, [r3]
 737:Src/radarandec20.c ****     warmSend[0] = 0;
 2685              		.loc 1 737 17
 2686 0176 234B     		ldr	r3, .L112+12
 2687 0178 0022     		movs	r2, #0
 2688 017a 1A70     		strb	r2, [r3]
 738:Src/radarandec20.c ****     warmSend[1] = 0;
 2689              		.loc 1 738 17
 2690 017c 214B     		ldr	r3, .L112+12
 2691 017e 0022     		movs	r2, #0
 2692 0180 5A70     		strb	r2, [r3, #1]
 739:Src/radarandec20.c ****     warmSend[2] = 0;
 2693              		.loc 1 739 17
 2694 0182 204B     		ldr	r3, .L112+12
 2695 0184 0022     		movs	r2, #0
 2696 0186 9A70     		strb	r2, [r3, #2]
 740:Src/radarandec20.c ****     warmSend[3] = 0;
 2697              		.loc 1 740 17
 2698 0188 1E4B     		ldr	r3, .L112+12
 2699 018a 0022     		movs	r2, #0
 2700 018c DA70     		strb	r2, [r3, #3]
 2701              	.L107:
 741:Src/radarandec20.c ****   }
 742:Src/radarandec20.c **** 
 743:Src/radarandec20.c ****   if (ms10 >= 6000) // 6秒
 2702              		.loc 1 743 12
 2703 018e 324B     		ldr	r3, .L112+96
 2704 0190 1B88     		ldrh	r3, [r3]
 2705              		.loc 1 743 6
 2706 0192 41F26F72 		movw	r2, #5999
 2707 0196 9342     		cmp	r3, r2
ARM GAS  C:\Users\57298\AppData\Local\Temp\ccUzYvQq.s 			page 64


 2708 0198 29D9     		bls	.L111
 744:Src/radarandec20.c ****   {
 745:Src/radarandec20.c ****     ms10 = 0;
 2709              		.loc 1 745 10
 2710 019a 2F4B     		ldr	r3, .L112+96
 2711 019c 0022     		movs	r2, #0
 2712 019e 1A80     		strh	r2, [r3]	@ movhi
 2713              	.LBB2:
 746:Src/radarandec20.c ****     for (int i = 0; i < 4; i++)
 2714              		.loc 1 746 14
 2715 01a0 0023     		movs	r3, #0
 2716 01a2 7B60     		str	r3, [r7, #4]
 2717              		.loc 1 746 5
 2718 01a4 0DE0     		b	.L109
 2719              	.L110:
 747:Src/radarandec20.c ****     {
 748:Src/radarandec20.c ****       lifetime_count[i]++;
 2720              		.loc 1 748 21
 2721 01a6 164A     		ldr	r2, .L112+8
 2722 01a8 7B68     		ldr	r3, [r7, #4]
 2723 01aa 1344     		add	r3, r3, r2
 2724 01ac 1B78     		ldrb	r3, [r3]	@ zero_extendqisi2
 2725              		.loc 1 748 24
 2726 01ae 0133     		adds	r3, r3, #1
 2727 01b0 D9B2     		uxtb	r1, r3
 2728 01b2 134A     		ldr	r2, .L112+8
 2729 01b4 7B68     		ldr	r3, [r7, #4]
 2730 01b6 1344     		add	r3, r3, r2
 2731 01b8 0A46     		mov	r2, r1
 2732 01ba 1A70     		strb	r2, [r3]
 746:Src/radarandec20.c ****     for (int i = 0; i < 4; i++)
 2733              		.loc 1 746 29
 2734 01bc 7B68     		ldr	r3, [r7, #4]
 2735 01be 0133     		adds	r3, r3, #1
 2736 01c0 7B60     		str	r3, [r7, #4]
 2737              	.L109:
 746:Src/radarandec20.c ****     for (int i = 0; i < 4; i++)
 2738              		.loc 1 746 5 discriminator 1
 2739 01c2 7B68     		ldr	r3, [r7, #4]
 2740 01c4 032B     		cmp	r3, #3
 2741 01c6 EEDD     		ble	.L110
 2742              	.LBE2:
 749:Src/radarandec20.c ****       if (lifetime_count[i] > 10) // 1分钟
 750:Src/radarandec20.c ****       {
 751:Src/radarandec20.c ****         // warmSend[i]=0;
 752:Src/radarandec20.c ****         // printf("radar[%d] offline",i+1);
 753:Src/radarandec20.c ****       }
 754:Src/radarandec20.c ****     }
 755:Src/radarandec20.c **** 
 756:Src/radarandec20.c ****     danger_keep--;
 2743              		.loc 1 756 16
 2744 01c8 134B     		ldr	r3, .L112+32
 2745 01ca 1B78     		ldrb	r3, [r3]	@ zero_extendqisi2
 2746 01cc 013B     		subs	r3, r3, #1
 2747 01ce DAB2     		uxtb	r2, r3
 2748 01d0 114B     		ldr	r3, .L112+32
 2749 01d2 1A70     		strb	r2, [r3]
ARM GAS  C:\Users\57298\AppData\Local\Temp\ccUzYvQq.s 			page 65


 757:Src/radarandec20.c ****     if (danger_keep == 0)
 2750              		.loc 1 757 21
 2751 01d4 104B     		ldr	r3, .L112+32
 2752 01d6 1B78     		ldrb	r3, [r3]	@ zero_extendqisi2
 2753              		.loc 1 757 8
 2754 01d8 002B     		cmp	r3, #0
 2755 01da 08D1     		bne	.L111
 758:Src/radarandec20.c ****     {
 759:Src/radarandec20.c **** #if DEBUGMODE == 0
 760:Src/radarandec20.c ****       OLED_Clear();
 761:Src/radarandec20.c **** #else
 762:Src/radarandec20.c ****       SendTxDebug((unsigned char *)"清除屏幕\0");
 2756              		.loc 1 762 7
 2757 01dc 1F48     		ldr	r0, .L112+100
 2758 01de FFF7FEFF 		bl	SendTxDebug
 763:Src/radarandec20.c **** #endif
 764:Src/radarandec20.c ****       WarmLow;
 2759              		.loc 1 764 7
 2760 01e2 0122     		movs	r2, #1
 2761 01e4 4FF48051 		mov	r1, #4096
 2762 01e8 1848     		ldr	r0, .L112+84
 2763 01ea FFF7FEFF 		bl	HAL_GPIO_WritePin
 2764              	.L111:
 765:Src/radarandec20.c ****     }
 766:Src/radarandec20.c ****   }
 767:Src/radarandec20.c **** }
 2765              		.loc 1 767 1
 2766 01ee 00BF     		nop
 2767 01f0 0837     		adds	r7, r7, #8
 2768              	.LCFI49:
 2769              		.cfi_def_cfa_offset 8
 2770 01f2 BD46     		mov	sp, r7
 2771              	.LCFI50:
 2772              		.cfi_def_cfa_register 13
 2773              		@ sp needed
 2774 01f4 80BD     		pop	{r7, pc}
 2775              	.L113:
 2776 01f6 00BF     		.align	2
 2777              	.L112:
 2778 01f8 00000000 		.word	initflag.0
 2779 01fc 64020000 		.word	.LC47
 2780 0200 00000000 		.word	lifetime_count
 2781 0204 00000000 		.word	warmSend
 2782 0208 00000000 		.word	readsxtioflag
 2783 020c 00100140 		.word	1073811456
 2784 0210 00000000 		.word	ready_2_warning
 2785 0214 00000000 		.word	warning_ID
 2786 0218 00000000 		.word	danger_keep
 2787 021c 00000000 		.word	linkflag
 2788 0220 00000000 		.word	sendingflag
 2789 0224 00000000 		.word	ProSta
 2790 0228 00000000 		.word	POLLTime
 2791 022c 00000000 		.word	PollTimeCnt
 2792 0230 70020000 		.word	.LC48
 2793 0234 7C020000 		.word	.LC49
 2794 0238 88020000 		.word	.LC50
 2795 023c 94020000 		.word	.LC51
ARM GAS  C:\Users\57298\AppData\Local\Temp\ccUzYvQq.s 			page 66


 2796 0240 00000000 		.word	waringtimeflag
 2797 0244 00000000 		.word	waringspeedflag
 2798 0248 00000000 		.word	warmonceflag
 2799 024c 000C0140 		.word	1073810432
 2800 0250 00000000 		.word	waringtime
 2801 0254 A0020000 		.word	.LC52
 2802 0258 00000000 		.word	ms10
 2803 025c A8020000 		.word	.LC53
 2804              		.cfi_endproc
 2805              	.LFE77:
 2807              		.section	.bss.indx.1,"aw",%nobits
 2808              		.align	2
 2811              	indx.1:
 2812 0000 00000000 		.space	4
 2813              		.section	.bss.initflag.0,"aw",%nobits
 2816              	initflag.0:
 2817 0000 00       		.space	1
 2818              		.text
 2819              	.Letext0:
 2820              		.file 2 "c:\\program files\\gcc-arm-none-eabi-10.3-2021.10\\arm-none-eabi\\include\\machine\\_defa
 2821              		.file 3 "c:\\program files\\gcc-arm-none-eabi-10.3-2021.10\\arm-none-eabi\\include\\sys\\_stdint.h
 2822              		.file 4 "Drivers/CMSIS/Device/ST/STM32F1xx/Include/stm32f103xb.h"
 2823              		.file 5 "Drivers/STM32F1xx_HAL_Driver/Inc/stm32f1xx_hal_def.h"
 2824              		.file 6 "Drivers/STM32F1xx_HAL_Driver/Inc/stm32f1xx_hal_gpio.h"
 2825              		.file 7 "Drivers/STM32F1xx_HAL_Driver/Inc/stm32f1xx_hal_dma.h"
 2826              		.file 8 "Drivers/STM32F1xx_HAL_Driver/Inc/stm32f1xx_hal_uart.h"
 2827              		.file 9 "Inc/ec20.h"
ARM GAS  C:\Users\57298\AppData\Local\Temp\ccUzYvQq.s 			page 67


DEFINED SYMBOLS
                            *ABS*:00000000 radarandec20.c
C:\Users\57298\AppData\Local\Temp\ccUzYvQq.s:22     .bss.CpuID:00000000 CpuID
C:\Users\57298\AppData\Local\Temp\ccUzYvQq.s:19     .bss.CpuID:00000000 $d
C:\Users\57298\AppData\Local\Temp\ccUzYvQq.s:29     .bss.SendID:00000000 SendID
C:\Users\57298\AppData\Local\Temp\ccUzYvQq.s:26     .bss.SendID:00000000 $d
C:\Users\57298\AppData\Local\Temp\ccUzYvQq.s:35     .bss.GpsRecFlag:00000000 GpsRecFlag
C:\Users\57298\AppData\Local\Temp\ccUzYvQq.s:36     .bss.GpsRecFlag:00000000 $d
C:\Users\57298\AppData\Local\Temp\ccUzYvQq.s:42     .bss.gspdata:00000000 gspdata
C:\Users\57298\AppData\Local\Temp\ccUzYvQq.s:39     .bss.gspdata:00000000 $d
C:\Users\57298\AppData\Local\Temp\ccUzYvQq.s:49     .bss.GSMinit:00000000 GSMinit
C:\Users\57298\AppData\Local\Temp\ccUzYvQq.s:46     .bss.GSMinit:00000000 $d
C:\Users\57298\AppData\Local\Temp\ccUzYvQq.s:55     .bss.CloudtriggerFlag:00000000 CloudtriggerFlag
C:\Users\57298\AppData\Local\Temp\ccUzYvQq.s:56     .bss.CloudtriggerFlag:00000000 $d
C:\Users\57298\AppData\Local\Temp\ccUzYvQq.s:62     .bss.CloudtriggerTime:00000000 CloudtriggerTime
C:\Users\57298\AppData\Local\Temp\ccUzYvQq.s:59     .bss.CloudtriggerTime:00000000 $d
C:\Users\57298\AppData\Local\Temp\ccUzYvQq.s:69     .bss.PollTimeCnt:00000000 PollTimeCnt
C:\Users\57298\AppData\Local\Temp\ccUzYvQq.s:66     .bss.PollTimeCnt:00000000 $d
C:\Users\57298\AppData\Local\Temp\ccUzYvQq.s:76     .bss.RxBufferDMA:00000000 RxBufferDMA
C:\Users\57298\AppData\Local\Temp\ccUzYvQq.s:73     .bss.RxBufferDMA:00000000 $d
C:\Users\57298\AppData\Local\Temp\ccUzYvQq.s:83     .bss.DMARxLenU2:00000000 DMARxLenU2
C:\Users\57298\AppData\Local\Temp\ccUzYvQq.s:80     .bss.DMARxLenU2:00000000 $d
C:\Users\57298\AppData\Local\Temp\ccUzYvQq.s:90     .bss.rsRxBuf:00000000 rsRxBuf
C:\Users\57298\AppData\Local\Temp\ccUzYvQq.s:87     .bss.rsRxBuf:00000000 $d
C:\Users\57298\AppData\Local\Temp\ccUzYvQq.s:97     .bss.rsRxIndexLen:00000000 rsRxIndexLen
C:\Users\57298\AppData\Local\Temp\ccUzYvQq.s:94     .bss.rsRxIndexLen:00000000 $d
C:\Users\57298\AppData\Local\Temp\ccUzYvQq.s:104    .bss.rsRxLen:00000000 rsRxLen
C:\Users\57298\AppData\Local\Temp\ccUzYvQq.s:101    .bss.rsRxLen:00000000 $d
C:\Users\57298\AppData\Local\Temp\ccUzYvQq.s:111    .bss.rsRxTime:00000000 rsRxTime
C:\Users\57298\AppData\Local\Temp\ccUzYvQq.s:108    .bss.rsRxTime:00000000 $d
C:\Users\57298\AppData\Local\Temp\ccUzYvQq.s:117    .bss.rsPackFlag:00000000 rsPackFlag
C:\Users\57298\AppData\Local\Temp\ccUzYvQq.s:118    .bss.rsPackFlag:00000000 $d
C:\Users\57298\AppData\Local\Temp\ccUzYvQq.s:123    .bss.rsRecFlag:00000000 rsRecFlag
C:\Users\57298\AppData\Local\Temp\ccUzYvQq.s:124    .bss.rsRecFlag:00000000 $d
C:\Users\57298\AppData\Local\Temp\ccUzYvQq.s:129    .bss.ProSta:00000000 ProSta
C:\Users\57298\AppData\Local\Temp\ccUzYvQq.s:130    .bss.ProSta:00000000 $d
C:\Users\57298\AppData\Local\Temp\ccUzYvQq.s:135    .bss.linkflagSta:00000000 linkflagSta
C:\Users\57298\AppData\Local\Temp\ccUzYvQq.s:136    .bss.linkflagSta:00000000 $d
C:\Users\57298\AppData\Local\Temp\ccUzYvQq.s:141    .bss.CurStaSendCnt:00000000 CurStaSendCnt
C:\Users\57298\AppData\Local\Temp\ccUzYvQq.s:142    .bss.CurStaSendCnt:00000000 $d
C:\Users\57298\AppData\Local\Temp\ccUzYvQq.s:148    .bss.SendCntRecClear:00000000 SendCntRecClear
C:\Users\57298\AppData\Local\Temp\ccUzYvQq.s:145    .bss.SendCntRecClear:00000000 $d
C:\Users\57298\AppData\Local\Temp\ccUzYvQq.s:155    .bss.SendGPSCnt:00000000 SendGPSCnt
C:\Users\57298\AppData\Local\Temp\ccUzYvQq.s:152    .bss.SendGPSCnt:00000000 $d
C:\Users\57298\AppData\Local\Temp\ccUzYvQq.s:161    .bss.GPSStatFlag:00000000 GPSStatFlag
C:\Users\57298\AppData\Local\Temp\ccUzYvQq.s:162    .bss.GPSStatFlag:00000000 $d
C:\Users\57298\AppData\Local\Temp\ccUzYvQq.s:168    .bss.ec20send:00000000 ec20send
C:\Users\57298\AppData\Local\Temp\ccUzYvQq.s:165    .bss.ec20send:00000000 $d
C:\Users\57298\AppData\Local\Temp\ccUzYvQq.s:175    .bss.pec20:00000000 pec20
C:\Users\57298\AppData\Local\Temp\ccUzYvQq.s:172    .bss.pec20:00000000 $d
C:\Users\57298\AppData\Local\Temp\ccUzYvQq.s:182    .bss.ec20heart:00000000 ec20heart
C:\Users\57298\AppData\Local\Temp\ccUzYvQq.s:179    .bss.ec20heart:00000000 $d
C:\Users\57298\AppData\Local\Temp\ccUzYvQq.s:189    .bss.pech20:00000000 pech20
C:\Users\57298\AppData\Local\Temp\ccUzYvQq.s:186    .bss.pech20:00000000 $d
C:\Users\57298\AppData\Local\Temp\ccUzYvQq.s:196    .bss.u3rx:00000000 u3rx
C:\Users\57298\AppData\Local\Temp\ccUzYvQq.s:193    .bss.u3rx:00000000 $d
C:\Users\57298\AppData\Local\Temp\ccUzYvQq.s:203    .bss.RxLenU3:00000000 RxLenU3
ARM GAS  C:\Users\57298\AppData\Local\Temp\ccUzYvQq.s 			page 68


C:\Users\57298\AppData\Local\Temp\ccUzYvQq.s:200    .bss.RxLenU3:00000000 $d
C:\Users\57298\AppData\Local\Temp\ccUzYvQq.s:209    .bss.last_Res_6:00000000 last_Res_6
C:\Users\57298\AppData\Local\Temp\ccUzYvQq.s:210    .bss.last_Res_6:00000000 $d
C:\Users\57298\AppData\Local\Temp\ccUzYvQq.s:215    .bss.radar_ID:00000000 radar_ID
C:\Users\57298\AppData\Local\Temp\ccUzYvQq.s:216    .bss.radar_ID:00000000 $d
C:\Users\57298\AppData\Local\Temp\ccUzYvQq.s:221    .bss.frame_num:00000000 frame_num
C:\Users\57298\AppData\Local\Temp\ccUzYvQq.s:222    .bss.frame_num:00000000 $d
C:\Users\57298\AppData\Local\Temp\ccUzYvQq.s:227    .bss.warning_cfg:00000000 warning_cfg
C:\Users\57298\AppData\Local\Temp\ccUzYvQq.s:228    .bss.warning_cfg:00000000 $d
C:\Users\57298\AppData\Local\Temp\ccUzYvQq.s:234    .bss.msint:00000000 msint
C:\Users\57298\AppData\Local\Temp\ccUzYvQq.s:231    .bss.msint:00000000 $d
C:\Users\57298\AppData\Local\Temp\ccUzYvQq.s:240    .data.trigger_order:00000000 trigger_order
C:\Users\57298\AppData\Local\Temp\ccUzYvQq.s:247    .bss.lifetime_count:00000000 lifetime_count
C:\Users\57298\AppData\Local\Temp\ccUzYvQq.s:244    .bss.lifetime_count:00000000 $d
C:\Users\57298\AppData\Local\Temp\ccUzYvQq.s:253    .bss.danger_keep:00000000 danger_keep
C:\Users\57298\AppData\Local\Temp\ccUzYvQq.s:254    .bss.danger_keep:00000000 $d
C:\Users\57298\AppData\Local\Temp\ccUzYvQq.s:259    .bss.ready_2_warning:00000000 ready_2_warning
C:\Users\57298\AppData\Local\Temp\ccUzYvQq.s:260    .bss.ready_2_warning:00000000 $d
C:\Users\57298\AppData\Local\Temp\ccUzYvQq.s:265    .bss.waringtimeflag:00000000 waringtimeflag
C:\Users\57298\AppData\Local\Temp\ccUzYvQq.s:266    .bss.waringtimeflag:00000000 $d
C:\Users\57298\AppData\Local\Temp\ccUzYvQq.s:271    .bss.waringspeedflag:00000000 waringspeedflag
C:\Users\57298\AppData\Local\Temp\ccUzYvQq.s:272    .bss.waringspeedflag:00000000 $d
C:\Users\57298\AppData\Local\Temp\ccUzYvQq.s:278    .bss.waringtime:00000000 waringtime
C:\Users\57298\AppData\Local\Temp\ccUzYvQq.s:275    .bss.waringtime:00000000 $d
C:\Users\57298\AppData\Local\Temp\ccUzYvQq.s:284    .bss.warning_ID:00000000 warning_ID
C:\Users\57298\AppData\Local\Temp\ccUzYvQq.s:285    .bss.warning_ID:00000000 $d
C:\Users\57298\AppData\Local\Temp\ccUzYvQq.s:291    .bss.ms10:00000000 ms10
C:\Users\57298\AppData\Local\Temp\ccUzYvQq.s:288    .bss.ms10:00000000 $d
C:\Users\57298\AppData\Local\Temp\ccUzYvQq.s:298    .bss.warmSend:00000000 warmSend
C:\Users\57298\AppData\Local\Temp\ccUzYvQq.s:295    .bss.warmSend:00000000 $d
C:\Users\57298\AppData\Local\Temp\ccUzYvQq.s:305    .bss.sendbuf:00000000 sendbuf
C:\Users\57298\AppData\Local\Temp\ccUzYvQq.s:302    .bss.sendbuf:00000000 $d
C:\Users\57298\AppData\Local\Temp\ccUzYvQq.s:311    .bss.warmnobeep:00000000 warmnobeep
C:\Users\57298\AppData\Local\Temp\ccUzYvQq.s:312    .bss.warmnobeep:00000000 $d
C:\Users\57298\AppData\Local\Temp\ccUzYvQq.s:317    .bss.linkflag:00000000 linkflag
C:\Users\57298\AppData\Local\Temp\ccUzYvQq.s:318    .bss.linkflag:00000000 $d
C:\Users\57298\AppData\Local\Temp\ccUzYvQq.s:323    .bss.sendingflag:00000000 sendingflag
C:\Users\57298\AppData\Local\Temp\ccUzYvQq.s:324    .bss.sendingflag:00000000 $d
C:\Users\57298\AppData\Local\Temp\ccUzYvQq.s:330    .bss.simCnt:00000000 simCnt
C:\Users\57298\AppData\Local\Temp\ccUzYvQq.s:327    .bss.simCnt:00000000 $d
C:\Users\57298\AppData\Local\Temp\ccUzYvQq.s:337    .bss.psend:00000000 psend
C:\Users\57298\AppData\Local\Temp\ccUzYvQq.s:334    .bss.psend:00000000 $d
C:\Users\57298\AppData\Local\Temp\ccUzYvQq.s:343    .bss.readsxtioflag:00000000 readsxtioflag
C:\Users\57298\AppData\Local\Temp\ccUzYvQq.s:344    .bss.readsxtioflag:00000000 $d
C:\Users\57298\AppData\Local\Temp\ccUzYvQq.s:350    .data.POLLTime:00000000 POLLTime
C:\Users\57298\AppData\Local\Temp\ccUzYvQq.s:347    .data.POLLTime:00000000 $d
C:\Users\57298\AppData\Local\Temp\ccUzYvQq.s:410    .data.SendList:00000000 SendList
C:\Users\57298\AppData\Local\Temp\ccUzYvQq.s:354    .rodata:00000000 $d
C:\Users\57298\AppData\Local\Temp\ccUzYvQq.s:407    .data.SendList:00000000 $d
C:\Users\57298\AppData\Local\Temp\ccUzYvQq.s:464    .data.RecExpected:00000000 RecExpected
C:\Users\57298\AppData\Local\Temp\ccUzYvQq.s:461    .data.RecExpected:00000000 $d
C:\Users\57298\AppData\Local\Temp\ccUzYvQq.s:483    .text.Clear_Buffer:00000000 $t
C:\Users\57298\AppData\Local\Temp\ccUzYvQq.s:489    .text.Clear_Buffer:00000000 Clear_Buffer
C:\Users\57298\AppData\Local\Temp\ccUzYvQq.s:549    .text.Clear_Buffer:00000034 $d
C:\Users\57298\AppData\Local\Temp\ccUzYvQq.s:555    .text.ucharCmp:00000000 $t
C:\Users\57298\AppData\Local\Temp\ccUzYvQq.s:561    .text.ucharCmp:00000000 ucharCmp
C:\Users\57298\AppData\Local\Temp\ccUzYvQq.s:638    .text.findStrCmp:00000000 $t
ARM GAS  C:\Users\57298\AppData\Local\Temp\ccUzYvQq.s 			page 69


C:\Users\57298\AppData\Local\Temp\ccUzYvQq.s:644    .text.findStrCmp:00000000 findStrCmp
C:\Users\57298\AppData\Local\Temp\ccUzYvQq.s:724    .text.HexStrConvert:00000000 $t
C:\Users\57298\AppData\Local\Temp\ccUzYvQq.s:730    .text.HexStrConvert:00000000 HexStrConvert
C:\Users\57298\AppData\Local\Temp\ccUzYvQq.s:855    .text.delay_ms:00000000 $t
C:\Users\57298\AppData\Local\Temp\ccUzYvQq.s:861    .text.delay_ms:00000000 delay_ms
C:\Users\57298\AppData\Local\Temp\ccUzYvQq.s:911    .text.delay_ms:00000028 $d
C:\Users\57298\AppData\Local\Temp\ccUzYvQq.s:916    .text.ec20power:00000000 $t
C:\Users\57298\AppData\Local\Temp\ccUzYvQq.s:922    .text.ec20power:00000000 ec20power
C:\Users\57298\AppData\Local\Temp\ccUzYvQq.s:995    .text.ec20power:00000060 $d
C:\Users\57298\AppData\Local\Temp\ccUzYvQq.s:1005   .bss.txb:00000000 txb
C:\Users\57298\AppData\Local\Temp\ccUzYvQq.s:1002   .bss.txb:00000000 $d
C:\Users\57298\AppData\Local\Temp\ccUzYvQq.s:1012   .text.GetIDCode:00000000 $t
C:\Users\57298\AppData\Local\Temp\ccUzYvQq.s:1018   .text.GetIDCode:00000000 GetIDCode
C:\Users\57298\AppData\Local\Temp\ccUzYvQq.s:1095   .text.GetIDCode:0000005c $d
C:\Users\57298\AppData\Local\Temp\ccUzYvQq.s:1128   .text.DataSendPre:00000000 $t
C:\Users\57298\AppData\Local\Temp\ccUzYvQq.s:1134   .text.DataSendPre:00000000 DataSendPre
C:\Users\57298\AppData\Local\Temp\ccUzYvQq.s:1478   .text.DataSendPre:000001f4 $d
C:\Users\57298\AppData\Local\Temp\ccUzYvQq.s:2811   .bss.indx.1:00000000 indx.1
C:\Users\57298\AppData\Local\Temp\ccUzYvQq.s:1504   .bss.sendedflag:00000000 sendedflag
C:\Users\57298\AppData\Local\Temp\ccUzYvQq.s:1505   .bss.sendedflag:00000000 $d
C:\Users\57298\AppData\Local\Temp\ccUzYvQq.s:1510   .bss.warmonceflag:00000000 warmonceflag
C:\Users\57298\AppData\Local\Temp\ccUzYvQq.s:1511   .bss.warmonceflag:00000000 $d
C:\Users\57298\AppData\Local\Temp\ccUzYvQq.s:1551   .text.ec20ProcessFun:00000000 $t
C:\Users\57298\AppData\Local\Temp\ccUzYvQq.s:1557   .text.ec20ProcessFun:00000000 ec20ProcessFun
C:\Users\57298\AppData\Local\Temp\ccUzYvQq.s:1899   .text.ec20ProcessFun:000001f0 $d
C:\Users\57298\AppData\Local\Temp\ccUzYvQq.s:1926   .text.ec20ProcessFun:00000254 $t
C:\Users\57298\AppData\Local\Temp\ccUzYvQq.s:2371   .text.ec20ProcessFun:000004d0 $d
C:\Users\57298\AppData\Local\Temp\ccUzYvQq.s:2427   .text.PollFun:00000000 $t
C:\Users\57298\AppData\Local\Temp\ccUzYvQq.s:2433   .text.PollFun:00000000 PollFun
C:\Users\57298\AppData\Local\Temp\ccUzYvQq.s:2778   .text.PollFun:000001f8 $d
C:\Users\57298\AppData\Local\Temp\ccUzYvQq.s:2816   .bss.initflag.0:00000000 initflag.0
C:\Users\57298\AppData\Local\Temp\ccUzYvQq.s:2808   .bss.indx.1:00000000 $d
C:\Users\57298\AppData\Local\Temp\ccUzYvQq.s:2817   .bss.initflag.0:00000000 $d

UNDEFINED SYMBOLS
HAL_GPIO_WritePin
delay_oledms
sprintf
SendTxDebug
memcpy
HAL_UART_Transmit
huart2
HAL_UART_Receive_DMA
SendTxBuf
strstr
u1Conf
u2Conf
u3Conf
HAL_GPIO_ReadPin
