ARM GAS  /tmp/ccRUQzex.s 			page 1


   1              		.cpu cortex-m3
   2              		.eabi_attribute 20, 1
   3              		.eabi_attribute 21, 1
   4              		.eabi_attribute 23, 3
   5              		.eabi_attribute 24, 1
   6              		.eabi_attribute 25, 1
   7              		.eabi_attribute 26, 1
   8              		.eabi_attribute 30, 6
   9              		.eabi_attribute 34, 1
  10              		.eabi_attribute 18, 4
  11              		.file	"stm32f1xx_hal_uart.c"
  12              		.text
  13              	.Ltext0:
  14              		.cfi_sections	.debug_frame
  15              		.section	.text.HAL_UART_Init,"ax",%progbits
  16              		.align	1
  17              		.global	HAL_UART_Init
  18              		.syntax unified
  19              		.thumb
  20              		.thumb_func
  21              		.fpu softvfp
  23              	HAL_UART_Init:
  24              	.LFB65:
  25              		.file 1 "Drivers/STM32F1xx_HAL_Driver/Src/stm32f1xx_hal_uart.c"
   1:Drivers/STM32F1xx_HAL_Driver/Src/stm32f1xx_hal_uart.c **** /**
   2:Drivers/STM32F1xx_HAL_Driver/Src/stm32f1xx_hal_uart.c ****   ******************************************************************************
   3:Drivers/STM32F1xx_HAL_Driver/Src/stm32f1xx_hal_uart.c ****   * @file    stm32f1xx_hal_uart.c
   4:Drivers/STM32F1xx_HAL_Driver/Src/stm32f1xx_hal_uart.c ****   * @author  MCD Application Team
   5:Drivers/STM32F1xx_HAL_Driver/Src/stm32f1xx_hal_uart.c ****   * @brief   UART HAL module driver.
   6:Drivers/STM32F1xx_HAL_Driver/Src/stm32f1xx_hal_uart.c ****   *          This file provides firmware functions to manage the following
   7:Drivers/STM32F1xx_HAL_Driver/Src/stm32f1xx_hal_uart.c ****   *          functionalities of the Universal Asynchronous Receiver Transmitter Peripheral (UART).
   8:Drivers/STM32F1xx_HAL_Driver/Src/stm32f1xx_hal_uart.c ****   *           + Initialization and de-initialization functions
   9:Drivers/STM32F1xx_HAL_Driver/Src/stm32f1xx_hal_uart.c ****   *           + IO operation functions
  10:Drivers/STM32F1xx_HAL_Driver/Src/stm32f1xx_hal_uart.c ****   *           + Peripheral Control functions
  11:Drivers/STM32F1xx_HAL_Driver/Src/stm32f1xx_hal_uart.c ****   *           + Peripheral State and Errors functions
  12:Drivers/STM32F1xx_HAL_Driver/Src/stm32f1xx_hal_uart.c ****   @verbatim
  13:Drivers/STM32F1xx_HAL_Driver/Src/stm32f1xx_hal_uart.c ****   ==============================================================================
  14:Drivers/STM32F1xx_HAL_Driver/Src/stm32f1xx_hal_uart.c ****                         ##### How to use this driver #####
  15:Drivers/STM32F1xx_HAL_Driver/Src/stm32f1xx_hal_uart.c ****   ==============================================================================
  16:Drivers/STM32F1xx_HAL_Driver/Src/stm32f1xx_hal_uart.c ****   [..]
  17:Drivers/STM32F1xx_HAL_Driver/Src/stm32f1xx_hal_uart.c ****     The UART HAL driver can be used as follows:
  18:Drivers/STM32F1xx_HAL_Driver/Src/stm32f1xx_hal_uart.c **** 
  19:Drivers/STM32F1xx_HAL_Driver/Src/stm32f1xx_hal_uart.c ****     (#) Declare a UART_HandleTypeDef handle structure (eg. UART_HandleTypeDef huart).
  20:Drivers/STM32F1xx_HAL_Driver/Src/stm32f1xx_hal_uart.c ****     (#) Initialize the UART low level resources by implementing the HAL_UART_MspInit() API:
  21:Drivers/STM32F1xx_HAL_Driver/Src/stm32f1xx_hal_uart.c ****         (##) Enable the USARTx interface clock.
  22:Drivers/STM32F1xx_HAL_Driver/Src/stm32f1xx_hal_uart.c ****         (##) UART pins configuration:
  23:Drivers/STM32F1xx_HAL_Driver/Src/stm32f1xx_hal_uart.c ****             (+++) Enable the clock for the UART GPIOs.
  24:Drivers/STM32F1xx_HAL_Driver/Src/stm32f1xx_hal_uart.c ****             (+++) Configure the UART TX/RX pins as alternate function pull-up.
  25:Drivers/STM32F1xx_HAL_Driver/Src/stm32f1xx_hal_uart.c ****         (##) NVIC configuration if you need to use interrupt process (HAL_UART_Transmit_IT()
  26:Drivers/STM32F1xx_HAL_Driver/Src/stm32f1xx_hal_uart.c ****              and HAL_UART_Receive_IT() APIs):
  27:Drivers/STM32F1xx_HAL_Driver/Src/stm32f1xx_hal_uart.c ****             (+++) Configure the USARTx interrupt priority.
  28:Drivers/STM32F1xx_HAL_Driver/Src/stm32f1xx_hal_uart.c ****             (+++) Enable the NVIC USART IRQ handle.
  29:Drivers/STM32F1xx_HAL_Driver/Src/stm32f1xx_hal_uart.c ****         (##) DMA Configuration if you need to use DMA process (HAL_UART_Transmit_DMA()
  30:Drivers/STM32F1xx_HAL_Driver/Src/stm32f1xx_hal_uart.c ****              and HAL_UART_Receive_DMA() APIs):
  31:Drivers/STM32F1xx_HAL_Driver/Src/stm32f1xx_hal_uart.c ****             (+++) Declare a DMA handle structure for the Tx/Rx channel.
  32:Drivers/STM32F1xx_HAL_Driver/Src/stm32f1xx_hal_uart.c ****             (+++) Enable the DMAx interface clock.
  33:Drivers/STM32F1xx_HAL_Driver/Src/stm32f1xx_hal_uart.c ****             (+++) Configure the declared DMA handle structure with the required
ARM GAS  /tmp/ccRUQzex.s 			page 2


  34:Drivers/STM32F1xx_HAL_Driver/Src/stm32f1xx_hal_uart.c ****                   Tx/Rx parameters.
  35:Drivers/STM32F1xx_HAL_Driver/Src/stm32f1xx_hal_uart.c ****             (+++) Configure the DMA Tx/Rx channel.
  36:Drivers/STM32F1xx_HAL_Driver/Src/stm32f1xx_hal_uart.c ****             (+++) Associate the initialized DMA handle to the UART DMA Tx/Rx handle.
  37:Drivers/STM32F1xx_HAL_Driver/Src/stm32f1xx_hal_uart.c ****             (+++) Configure the priority and enable the NVIC for the transfer complete
  38:Drivers/STM32F1xx_HAL_Driver/Src/stm32f1xx_hal_uart.c ****                   interrupt on the DMA Tx/Rx channel.
  39:Drivers/STM32F1xx_HAL_Driver/Src/stm32f1xx_hal_uart.c ****             (+++) Configure the USARTx interrupt priority and enable the NVIC USART IRQ handle
  40:Drivers/STM32F1xx_HAL_Driver/Src/stm32f1xx_hal_uart.c ****                   (used for last byte sending completion detection in DMA non circular mode)
  41:Drivers/STM32F1xx_HAL_Driver/Src/stm32f1xx_hal_uart.c **** 
  42:Drivers/STM32F1xx_HAL_Driver/Src/stm32f1xx_hal_uart.c ****     (#) Program the Baud Rate, Word Length, Stop Bit, Parity, Hardware
  43:Drivers/STM32F1xx_HAL_Driver/Src/stm32f1xx_hal_uart.c ****         flow control and Mode(Receiver/Transmitter) in the huart Init structure.
  44:Drivers/STM32F1xx_HAL_Driver/Src/stm32f1xx_hal_uart.c **** 
  45:Drivers/STM32F1xx_HAL_Driver/Src/stm32f1xx_hal_uart.c ****     (#) For the UART asynchronous mode, initialize the UART registers by calling
  46:Drivers/STM32F1xx_HAL_Driver/Src/stm32f1xx_hal_uart.c ****         the HAL_UART_Init() API.
  47:Drivers/STM32F1xx_HAL_Driver/Src/stm32f1xx_hal_uart.c **** 
  48:Drivers/STM32F1xx_HAL_Driver/Src/stm32f1xx_hal_uart.c ****     (#) For the UART Half duplex mode, initialize the UART registers by calling
  49:Drivers/STM32F1xx_HAL_Driver/Src/stm32f1xx_hal_uart.c ****         the HAL_HalfDuplex_Init() API.
  50:Drivers/STM32F1xx_HAL_Driver/Src/stm32f1xx_hal_uart.c **** 
  51:Drivers/STM32F1xx_HAL_Driver/Src/stm32f1xx_hal_uart.c ****     (#) For the LIN mode, initialize the UART registers by calling the HAL_LIN_Init() API.
  52:Drivers/STM32F1xx_HAL_Driver/Src/stm32f1xx_hal_uart.c **** 
  53:Drivers/STM32F1xx_HAL_Driver/Src/stm32f1xx_hal_uart.c ****     (#) For the Multi-Processor mode, initialize the UART registers by calling
  54:Drivers/STM32F1xx_HAL_Driver/Src/stm32f1xx_hal_uart.c ****         the HAL_MultiProcessor_Init() API.
  55:Drivers/STM32F1xx_HAL_Driver/Src/stm32f1xx_hal_uart.c **** 
  56:Drivers/STM32F1xx_HAL_Driver/Src/stm32f1xx_hal_uart.c ****      [..]
  57:Drivers/STM32F1xx_HAL_Driver/Src/stm32f1xx_hal_uart.c ****        (@) The specific UART interrupts (Transmission complete interrupt,
  58:Drivers/STM32F1xx_HAL_Driver/Src/stm32f1xx_hal_uart.c ****             RXNE interrupt and Error Interrupts) will be managed using the macros
  59:Drivers/STM32F1xx_HAL_Driver/Src/stm32f1xx_hal_uart.c ****             __HAL_UART_ENABLE_IT() and __HAL_UART_DISABLE_IT() inside the transmit
  60:Drivers/STM32F1xx_HAL_Driver/Src/stm32f1xx_hal_uart.c ****             and receive process.
  61:Drivers/STM32F1xx_HAL_Driver/Src/stm32f1xx_hal_uart.c **** 
  62:Drivers/STM32F1xx_HAL_Driver/Src/stm32f1xx_hal_uart.c ****      [..]
  63:Drivers/STM32F1xx_HAL_Driver/Src/stm32f1xx_hal_uart.c ****        (@) These APIs (HAL_UART_Init() and HAL_HalfDuplex_Init()) configure also the
  64:Drivers/STM32F1xx_HAL_Driver/Src/stm32f1xx_hal_uart.c ****             low level Hardware GPIO, CLOCK, CORTEX...etc) by calling the customized
  65:Drivers/STM32F1xx_HAL_Driver/Src/stm32f1xx_hal_uart.c ****             HAL_UART_MspInit() API.
  66:Drivers/STM32F1xx_HAL_Driver/Src/stm32f1xx_hal_uart.c **** 
  67:Drivers/STM32F1xx_HAL_Driver/Src/stm32f1xx_hal_uart.c ****     ##### Callback registration #####
  68:Drivers/STM32F1xx_HAL_Driver/Src/stm32f1xx_hal_uart.c ****     ==================================
  69:Drivers/STM32F1xx_HAL_Driver/Src/stm32f1xx_hal_uart.c **** 
  70:Drivers/STM32F1xx_HAL_Driver/Src/stm32f1xx_hal_uart.c ****     [..]
  71:Drivers/STM32F1xx_HAL_Driver/Src/stm32f1xx_hal_uart.c ****     The compilation define USE_HAL_UART_REGISTER_CALLBACKS when set to 1
  72:Drivers/STM32F1xx_HAL_Driver/Src/stm32f1xx_hal_uart.c ****     allows the user to configure dynamically the driver callbacks.
  73:Drivers/STM32F1xx_HAL_Driver/Src/stm32f1xx_hal_uart.c **** 
  74:Drivers/STM32F1xx_HAL_Driver/Src/stm32f1xx_hal_uart.c ****     [..]
  75:Drivers/STM32F1xx_HAL_Driver/Src/stm32f1xx_hal_uart.c ****     Use Function @ref HAL_UART_RegisterCallback() to register a user callback.
  76:Drivers/STM32F1xx_HAL_Driver/Src/stm32f1xx_hal_uart.c ****     Function @ref HAL_UART_RegisterCallback() allows to register following callbacks:
  77:Drivers/STM32F1xx_HAL_Driver/Src/stm32f1xx_hal_uart.c ****     (+) TxHalfCpltCallback        : Tx Half Complete Callback.
  78:Drivers/STM32F1xx_HAL_Driver/Src/stm32f1xx_hal_uart.c ****     (+) TxCpltCallback            : Tx Complete Callback.
  79:Drivers/STM32F1xx_HAL_Driver/Src/stm32f1xx_hal_uart.c ****     (+) RxHalfCpltCallback        : Rx Half Complete Callback.
  80:Drivers/STM32F1xx_HAL_Driver/Src/stm32f1xx_hal_uart.c ****     (+) RxCpltCallback            : Rx Complete Callback.
  81:Drivers/STM32F1xx_HAL_Driver/Src/stm32f1xx_hal_uart.c ****     (+) ErrorCallback             : Error Callback.
  82:Drivers/STM32F1xx_HAL_Driver/Src/stm32f1xx_hal_uart.c ****     (+) AbortCpltCallback         : Abort Complete Callback.
  83:Drivers/STM32F1xx_HAL_Driver/Src/stm32f1xx_hal_uart.c ****     (+) AbortTransmitCpltCallback : Abort Transmit Complete Callback.
  84:Drivers/STM32F1xx_HAL_Driver/Src/stm32f1xx_hal_uart.c ****     (+) AbortReceiveCpltCallback  : Abort Receive Complete Callback.
  85:Drivers/STM32F1xx_HAL_Driver/Src/stm32f1xx_hal_uart.c ****     (+) MspInitCallback           : UART MspInit.
  86:Drivers/STM32F1xx_HAL_Driver/Src/stm32f1xx_hal_uart.c ****     (+) MspDeInitCallback         : UART MspDeInit.
  87:Drivers/STM32F1xx_HAL_Driver/Src/stm32f1xx_hal_uart.c ****     This function takes as parameters the HAL peripheral handle, the Callback ID
  88:Drivers/STM32F1xx_HAL_Driver/Src/stm32f1xx_hal_uart.c ****     and a pointer to the user callback function.
  89:Drivers/STM32F1xx_HAL_Driver/Src/stm32f1xx_hal_uart.c **** 
  90:Drivers/STM32F1xx_HAL_Driver/Src/stm32f1xx_hal_uart.c ****     [..]
ARM GAS  /tmp/ccRUQzex.s 			page 3


  91:Drivers/STM32F1xx_HAL_Driver/Src/stm32f1xx_hal_uart.c ****     Use function @ref HAL_UART_UnRegisterCallback() to reset a callback to the default
  92:Drivers/STM32F1xx_HAL_Driver/Src/stm32f1xx_hal_uart.c ****     weak (surcharged) function.
  93:Drivers/STM32F1xx_HAL_Driver/Src/stm32f1xx_hal_uart.c ****     @ref HAL_UART_UnRegisterCallback() takes as parameters the HAL peripheral handle,
  94:Drivers/STM32F1xx_HAL_Driver/Src/stm32f1xx_hal_uart.c ****     and the Callback ID.
  95:Drivers/STM32F1xx_HAL_Driver/Src/stm32f1xx_hal_uart.c ****     This function allows to reset following callbacks:
  96:Drivers/STM32F1xx_HAL_Driver/Src/stm32f1xx_hal_uart.c ****     (+) TxHalfCpltCallback        : Tx Half Complete Callback.
  97:Drivers/STM32F1xx_HAL_Driver/Src/stm32f1xx_hal_uart.c ****     (+) TxCpltCallback            : Tx Complete Callback.
  98:Drivers/STM32F1xx_HAL_Driver/Src/stm32f1xx_hal_uart.c ****     (+) RxHalfCpltCallback        : Rx Half Complete Callback.
  99:Drivers/STM32F1xx_HAL_Driver/Src/stm32f1xx_hal_uart.c ****     (+) RxCpltCallback            : Rx Complete Callback.
 100:Drivers/STM32F1xx_HAL_Driver/Src/stm32f1xx_hal_uart.c ****     (+) ErrorCallback             : Error Callback.
 101:Drivers/STM32F1xx_HAL_Driver/Src/stm32f1xx_hal_uart.c ****     (+) AbortCpltCallback         : Abort Complete Callback.
 102:Drivers/STM32F1xx_HAL_Driver/Src/stm32f1xx_hal_uart.c ****     (+) AbortTransmitCpltCallback : Abort Transmit Complete Callback.
 103:Drivers/STM32F1xx_HAL_Driver/Src/stm32f1xx_hal_uart.c ****     (+) AbortReceiveCpltCallback  : Abort Receive Complete Callback.
 104:Drivers/STM32F1xx_HAL_Driver/Src/stm32f1xx_hal_uart.c ****     (+) MspInitCallback           : UART MspInit.
 105:Drivers/STM32F1xx_HAL_Driver/Src/stm32f1xx_hal_uart.c ****     (+) MspDeInitCallback         : UART MspDeInit.
 106:Drivers/STM32F1xx_HAL_Driver/Src/stm32f1xx_hal_uart.c **** 
 107:Drivers/STM32F1xx_HAL_Driver/Src/stm32f1xx_hal_uart.c ****     [..]
 108:Drivers/STM32F1xx_HAL_Driver/Src/stm32f1xx_hal_uart.c ****     For specific callback RxEventCallback, use dedicated registration/reset functions:
 109:Drivers/STM32F1xx_HAL_Driver/Src/stm32f1xx_hal_uart.c ****     respectively @ref HAL_UART_RegisterRxEventCallback() , @ref HAL_UART_UnRegisterRxEventCallback(
 110:Drivers/STM32F1xx_HAL_Driver/Src/stm32f1xx_hal_uart.c **** 
 111:Drivers/STM32F1xx_HAL_Driver/Src/stm32f1xx_hal_uart.c ****     [..]
 112:Drivers/STM32F1xx_HAL_Driver/Src/stm32f1xx_hal_uart.c ****     By default, after the @ref HAL_UART_Init() and when the state is HAL_UART_STATE_RESET
 113:Drivers/STM32F1xx_HAL_Driver/Src/stm32f1xx_hal_uart.c ****     all callbacks are set to the corresponding weak (surcharged) functions:
 114:Drivers/STM32F1xx_HAL_Driver/Src/stm32f1xx_hal_uart.c ****     examples @ref HAL_UART_TxCpltCallback(), @ref HAL_UART_RxHalfCpltCallback().
 115:Drivers/STM32F1xx_HAL_Driver/Src/stm32f1xx_hal_uart.c ****     Exception done for MspInit and MspDeInit functions that are respectively
 116:Drivers/STM32F1xx_HAL_Driver/Src/stm32f1xx_hal_uart.c ****     reset to the legacy weak (surcharged) functions in the @ref HAL_UART_Init()
 117:Drivers/STM32F1xx_HAL_Driver/Src/stm32f1xx_hal_uart.c ****     and @ref HAL_UART_DeInit() only when these callbacks are null (not registered beforehand).
 118:Drivers/STM32F1xx_HAL_Driver/Src/stm32f1xx_hal_uart.c ****     If not, MspInit or MspDeInit are not null, the @ref HAL_UART_Init() and @ref HAL_UART_DeInit()
 119:Drivers/STM32F1xx_HAL_Driver/Src/stm32f1xx_hal_uart.c ****     keep and use the user MspInit/MspDeInit callbacks (registered beforehand).
 120:Drivers/STM32F1xx_HAL_Driver/Src/stm32f1xx_hal_uart.c **** 
 121:Drivers/STM32F1xx_HAL_Driver/Src/stm32f1xx_hal_uart.c ****     [..]
 122:Drivers/STM32F1xx_HAL_Driver/Src/stm32f1xx_hal_uart.c ****     Callbacks can be registered/unregistered in HAL_UART_STATE_READY state only.
 123:Drivers/STM32F1xx_HAL_Driver/Src/stm32f1xx_hal_uart.c ****     Exception done MspInit/MspDeInit that can be registered/unregistered
 124:Drivers/STM32F1xx_HAL_Driver/Src/stm32f1xx_hal_uart.c ****     in HAL_UART_STATE_READY or HAL_UART_STATE_RESET state, thus registered (user)
 125:Drivers/STM32F1xx_HAL_Driver/Src/stm32f1xx_hal_uart.c ****     MspInit/DeInit callbacks can be used during the Init/DeInit.
 126:Drivers/STM32F1xx_HAL_Driver/Src/stm32f1xx_hal_uart.c ****     In that case first register the MspInit/MspDeInit user callbacks
 127:Drivers/STM32F1xx_HAL_Driver/Src/stm32f1xx_hal_uart.c ****     using @ref HAL_UART_RegisterCallback() before calling @ref HAL_UART_DeInit()
 128:Drivers/STM32F1xx_HAL_Driver/Src/stm32f1xx_hal_uart.c ****     or @ref HAL_UART_Init() function.
 129:Drivers/STM32F1xx_HAL_Driver/Src/stm32f1xx_hal_uart.c **** 
 130:Drivers/STM32F1xx_HAL_Driver/Src/stm32f1xx_hal_uart.c ****     [..]
 131:Drivers/STM32F1xx_HAL_Driver/Src/stm32f1xx_hal_uart.c ****     When The compilation define USE_HAL_UART_REGISTER_CALLBACKS is set to 0 or
 132:Drivers/STM32F1xx_HAL_Driver/Src/stm32f1xx_hal_uart.c ****     not defined, the callback registration feature is not available
 133:Drivers/STM32F1xx_HAL_Driver/Src/stm32f1xx_hal_uart.c ****     and weak (surcharged) callbacks are used.
 134:Drivers/STM32F1xx_HAL_Driver/Src/stm32f1xx_hal_uart.c **** 
 135:Drivers/STM32F1xx_HAL_Driver/Src/stm32f1xx_hal_uart.c ****      [..]
 136:Drivers/STM32F1xx_HAL_Driver/Src/stm32f1xx_hal_uart.c ****         Three operation modes are available within this driver :
 137:Drivers/STM32F1xx_HAL_Driver/Src/stm32f1xx_hal_uart.c **** 
 138:Drivers/STM32F1xx_HAL_Driver/Src/stm32f1xx_hal_uart.c ****      *** Polling mode IO operation ***
 139:Drivers/STM32F1xx_HAL_Driver/Src/stm32f1xx_hal_uart.c ****      =================================
 140:Drivers/STM32F1xx_HAL_Driver/Src/stm32f1xx_hal_uart.c ****      [..]
 141:Drivers/STM32F1xx_HAL_Driver/Src/stm32f1xx_hal_uart.c ****        (+) Send an amount of data in blocking mode using HAL_UART_Transmit()
 142:Drivers/STM32F1xx_HAL_Driver/Src/stm32f1xx_hal_uart.c ****        (+) Receive an amount of data in blocking mode using HAL_UART_Receive()
 143:Drivers/STM32F1xx_HAL_Driver/Src/stm32f1xx_hal_uart.c **** 
 144:Drivers/STM32F1xx_HAL_Driver/Src/stm32f1xx_hal_uart.c ****      *** Interrupt mode IO operation ***
 145:Drivers/STM32F1xx_HAL_Driver/Src/stm32f1xx_hal_uart.c ****      ===================================
 146:Drivers/STM32F1xx_HAL_Driver/Src/stm32f1xx_hal_uart.c ****      [..]
 147:Drivers/STM32F1xx_HAL_Driver/Src/stm32f1xx_hal_uart.c ****        (+) Send an amount of data in non blocking mode using HAL_UART_Transmit_IT()
ARM GAS  /tmp/ccRUQzex.s 			page 4


 148:Drivers/STM32F1xx_HAL_Driver/Src/stm32f1xx_hal_uart.c ****        (+) At transmission end of transfer HAL_UART_TxCpltCallback is executed and user can
 149:Drivers/STM32F1xx_HAL_Driver/Src/stm32f1xx_hal_uart.c ****             add his own code by customization of function pointer HAL_UART_TxCpltCallback
 150:Drivers/STM32F1xx_HAL_Driver/Src/stm32f1xx_hal_uart.c ****        (+) Receive an amount of data in non blocking mode using HAL_UART_Receive_IT()
 151:Drivers/STM32F1xx_HAL_Driver/Src/stm32f1xx_hal_uart.c ****        (+) At reception end of transfer HAL_UART_RxCpltCallback is executed and user can
 152:Drivers/STM32F1xx_HAL_Driver/Src/stm32f1xx_hal_uart.c ****             add his own code by customization of function pointer HAL_UART_RxCpltCallback
 153:Drivers/STM32F1xx_HAL_Driver/Src/stm32f1xx_hal_uart.c ****        (+) In case of transfer Error, HAL_UART_ErrorCallback() function is executed and user can
 154:Drivers/STM32F1xx_HAL_Driver/Src/stm32f1xx_hal_uart.c ****             add his own code by customization of function pointer HAL_UART_ErrorCallback
 155:Drivers/STM32F1xx_HAL_Driver/Src/stm32f1xx_hal_uart.c **** 
 156:Drivers/STM32F1xx_HAL_Driver/Src/stm32f1xx_hal_uart.c ****      *** DMA mode IO operation ***
 157:Drivers/STM32F1xx_HAL_Driver/Src/stm32f1xx_hal_uart.c ****      ==============================
 158:Drivers/STM32F1xx_HAL_Driver/Src/stm32f1xx_hal_uart.c ****      [..]
 159:Drivers/STM32F1xx_HAL_Driver/Src/stm32f1xx_hal_uart.c ****        (+) Send an amount of data in non blocking mode (DMA) using HAL_UART_Transmit_DMA()
 160:Drivers/STM32F1xx_HAL_Driver/Src/stm32f1xx_hal_uart.c ****        (+) At transmission end of half transfer HAL_UART_TxHalfCpltCallback is executed and user ca
 161:Drivers/STM32F1xx_HAL_Driver/Src/stm32f1xx_hal_uart.c ****             add his own code by customization of function pointer HAL_UART_TxHalfCpltCallback
 162:Drivers/STM32F1xx_HAL_Driver/Src/stm32f1xx_hal_uart.c ****        (+) At transmission end of transfer HAL_UART_TxCpltCallback is executed and user can
 163:Drivers/STM32F1xx_HAL_Driver/Src/stm32f1xx_hal_uart.c ****             add his own code by customization of function pointer HAL_UART_TxCpltCallback
 164:Drivers/STM32F1xx_HAL_Driver/Src/stm32f1xx_hal_uart.c ****        (+) Receive an amount of data in non blocking mode (DMA) using HAL_UART_Receive_DMA()
 165:Drivers/STM32F1xx_HAL_Driver/Src/stm32f1xx_hal_uart.c ****        (+) At reception end of half transfer HAL_UART_RxHalfCpltCallback is executed and user can
 166:Drivers/STM32F1xx_HAL_Driver/Src/stm32f1xx_hal_uart.c ****             add his own code by customization of function pointer HAL_UART_RxHalfCpltCallback
 167:Drivers/STM32F1xx_HAL_Driver/Src/stm32f1xx_hal_uart.c ****        (+) At reception end of transfer HAL_UART_RxCpltCallback is executed and user can
 168:Drivers/STM32F1xx_HAL_Driver/Src/stm32f1xx_hal_uart.c ****             add his own code by customization of function pointer HAL_UART_RxCpltCallback
 169:Drivers/STM32F1xx_HAL_Driver/Src/stm32f1xx_hal_uart.c ****        (+) In case of transfer Error, HAL_UART_ErrorCallback() function is executed and user can
 170:Drivers/STM32F1xx_HAL_Driver/Src/stm32f1xx_hal_uart.c ****             add his own code by customization of function pointer HAL_UART_ErrorCallback
 171:Drivers/STM32F1xx_HAL_Driver/Src/stm32f1xx_hal_uart.c ****        (+) Pause the DMA Transfer using HAL_UART_DMAPause()
 172:Drivers/STM32F1xx_HAL_Driver/Src/stm32f1xx_hal_uart.c ****        (+) Resume the DMA Transfer using HAL_UART_DMAResume()
 173:Drivers/STM32F1xx_HAL_Driver/Src/stm32f1xx_hal_uart.c ****        (+) Stop the DMA Transfer using HAL_UART_DMAStop()
 174:Drivers/STM32F1xx_HAL_Driver/Src/stm32f1xx_hal_uart.c **** 
 175:Drivers/STM32F1xx_HAL_Driver/Src/stm32f1xx_hal_uart.c **** 
 176:Drivers/STM32F1xx_HAL_Driver/Src/stm32f1xx_hal_uart.c ****     [..] This subsection also provides a set of additional functions providing enhanced reception
 177:Drivers/STM32F1xx_HAL_Driver/Src/stm32f1xx_hal_uart.c ****     services to user. (For example, these functions allow application to handle use cases
 178:Drivers/STM32F1xx_HAL_Driver/Src/stm32f1xx_hal_uart.c ****     where number of data to be received is unknown).
 179:Drivers/STM32F1xx_HAL_Driver/Src/stm32f1xx_hal_uart.c **** 
 180:Drivers/STM32F1xx_HAL_Driver/Src/stm32f1xx_hal_uart.c ****     (#) Compared to standard reception services which only consider number of received
 181:Drivers/STM32F1xx_HAL_Driver/Src/stm32f1xx_hal_uart.c ****         data elements as reception completion criteria, these functions also consider additional ev
 182:Drivers/STM32F1xx_HAL_Driver/Src/stm32f1xx_hal_uart.c ****         as triggers for updating reception status to caller :
 183:Drivers/STM32F1xx_HAL_Driver/Src/stm32f1xx_hal_uart.c ****        (+) Detection of inactivity period (RX line has not been active for a given period).
 184:Drivers/STM32F1xx_HAL_Driver/Src/stm32f1xx_hal_uart.c ****           (++) RX inactivity detected by IDLE event, i.e. RX line has been in idle state (normally 
 185:Drivers/STM32F1xx_HAL_Driver/Src/stm32f1xx_hal_uart.c ****                for 1 frame time, after last received byte.
 186:Drivers/STM32F1xx_HAL_Driver/Src/stm32f1xx_hal_uart.c **** 
 187:Drivers/STM32F1xx_HAL_Driver/Src/stm32f1xx_hal_uart.c ****     (#) There are two mode of transfer:
 188:Drivers/STM32F1xx_HAL_Driver/Src/stm32f1xx_hal_uart.c ****        (+) Blocking mode: The reception is performed in polling mode, until either expected number 
 189:Drivers/STM32F1xx_HAL_Driver/Src/stm32f1xx_hal_uart.c ****            or till IDLE event occurs. Reception is handled only during function execution.
 190:Drivers/STM32F1xx_HAL_Driver/Src/stm32f1xx_hal_uart.c ****            When function exits, no data reception could occur. HAL status and number of actually re
 191:Drivers/STM32F1xx_HAL_Driver/Src/stm32f1xx_hal_uart.c ****            are returned by function after finishing transfer.
 192:Drivers/STM32F1xx_HAL_Driver/Src/stm32f1xx_hal_uart.c ****        (+) Non-Blocking mode: The reception is performed using Interrupts or DMA.
 193:Drivers/STM32F1xx_HAL_Driver/Src/stm32f1xx_hal_uart.c ****            These API's return the HAL status.
 194:Drivers/STM32F1xx_HAL_Driver/Src/stm32f1xx_hal_uart.c ****            The end of the data processing will be indicated through the
 195:Drivers/STM32F1xx_HAL_Driver/Src/stm32f1xx_hal_uart.c ****            dedicated UART IRQ when using Interrupt mode or the DMA IRQ when using DMA mode.
 196:Drivers/STM32F1xx_HAL_Driver/Src/stm32f1xx_hal_uart.c ****            The HAL_UARTEx_RxEventCallback() user callback will be executed during Receive process
 197:Drivers/STM32F1xx_HAL_Driver/Src/stm32f1xx_hal_uart.c ****            The HAL_UART_ErrorCallback()user callback will be executed when a reception error is det
 198:Drivers/STM32F1xx_HAL_Driver/Src/stm32f1xx_hal_uart.c **** 
 199:Drivers/STM32F1xx_HAL_Driver/Src/stm32f1xx_hal_uart.c ****     (#) Blocking mode API:
 200:Drivers/STM32F1xx_HAL_Driver/Src/stm32f1xx_hal_uart.c ****         (+) HAL_UARTEx_ReceiveToIdle()
 201:Drivers/STM32F1xx_HAL_Driver/Src/stm32f1xx_hal_uart.c **** 
 202:Drivers/STM32F1xx_HAL_Driver/Src/stm32f1xx_hal_uart.c ****     (#) Non-Blocking mode API with Interrupt:
 203:Drivers/STM32F1xx_HAL_Driver/Src/stm32f1xx_hal_uart.c ****         (+) HAL_UARTEx_ReceiveToIdle_IT()
 204:Drivers/STM32F1xx_HAL_Driver/Src/stm32f1xx_hal_uart.c **** 
ARM GAS  /tmp/ccRUQzex.s 			page 5


 205:Drivers/STM32F1xx_HAL_Driver/Src/stm32f1xx_hal_uart.c ****     (#) Non-Blocking mode API with DMA:
 206:Drivers/STM32F1xx_HAL_Driver/Src/stm32f1xx_hal_uart.c ****         (+) HAL_UARTEx_ReceiveToIdle_DMA()
 207:Drivers/STM32F1xx_HAL_Driver/Src/stm32f1xx_hal_uart.c **** 
 208:Drivers/STM32F1xx_HAL_Driver/Src/stm32f1xx_hal_uart.c **** 
 209:Drivers/STM32F1xx_HAL_Driver/Src/stm32f1xx_hal_uart.c ****      *** UART HAL driver macros list ***
 210:Drivers/STM32F1xx_HAL_Driver/Src/stm32f1xx_hal_uart.c ****      =============================================
 211:Drivers/STM32F1xx_HAL_Driver/Src/stm32f1xx_hal_uart.c ****      [..]
 212:Drivers/STM32F1xx_HAL_Driver/Src/stm32f1xx_hal_uart.c ****        Below the list of most used macros in UART HAL driver.
 213:Drivers/STM32F1xx_HAL_Driver/Src/stm32f1xx_hal_uart.c **** 
 214:Drivers/STM32F1xx_HAL_Driver/Src/stm32f1xx_hal_uart.c ****       (+) __HAL_UART_ENABLE: Enable the UART peripheral
 215:Drivers/STM32F1xx_HAL_Driver/Src/stm32f1xx_hal_uart.c ****       (+) __HAL_UART_DISABLE: Disable the UART peripheral
 216:Drivers/STM32F1xx_HAL_Driver/Src/stm32f1xx_hal_uart.c ****       (+) __HAL_UART_GET_FLAG : Check whether the specified UART flag is set or not
 217:Drivers/STM32F1xx_HAL_Driver/Src/stm32f1xx_hal_uart.c ****       (+) __HAL_UART_CLEAR_FLAG : Clear the specified UART pending flag
 218:Drivers/STM32F1xx_HAL_Driver/Src/stm32f1xx_hal_uart.c ****       (+) __HAL_UART_ENABLE_IT: Enable the specified UART interrupt
 219:Drivers/STM32F1xx_HAL_Driver/Src/stm32f1xx_hal_uart.c ****       (+) __HAL_UART_DISABLE_IT: Disable the specified UART interrupt
 220:Drivers/STM32F1xx_HAL_Driver/Src/stm32f1xx_hal_uart.c ****       (+) __HAL_UART_GET_IT_SOURCE: Check whether the specified UART interrupt has occurred or not
 221:Drivers/STM32F1xx_HAL_Driver/Src/stm32f1xx_hal_uart.c **** 
 222:Drivers/STM32F1xx_HAL_Driver/Src/stm32f1xx_hal_uart.c ****      [..]
 223:Drivers/STM32F1xx_HAL_Driver/Src/stm32f1xx_hal_uart.c ****        (@) You can refer to the UART HAL driver header file for more useful macros
 224:Drivers/STM32F1xx_HAL_Driver/Src/stm32f1xx_hal_uart.c **** 
 225:Drivers/STM32F1xx_HAL_Driver/Src/stm32f1xx_hal_uart.c ****   @endverbatim
 226:Drivers/STM32F1xx_HAL_Driver/Src/stm32f1xx_hal_uart.c ****      [..]
 227:Drivers/STM32F1xx_HAL_Driver/Src/stm32f1xx_hal_uart.c ****        (@) Additional remark: If the parity is enabled, then the MSB bit of the data written
 228:Drivers/STM32F1xx_HAL_Driver/Src/stm32f1xx_hal_uart.c ****            in the data register is transmitted but is changed by the parity bit.
 229:Drivers/STM32F1xx_HAL_Driver/Src/stm32f1xx_hal_uart.c ****            Depending on the frame length defined by the M bit (8-bits or 9-bits),
 230:Drivers/STM32F1xx_HAL_Driver/Src/stm32f1xx_hal_uart.c ****            the possible UART frame formats are as listed in the following table:
 231:Drivers/STM32F1xx_HAL_Driver/Src/stm32f1xx_hal_uart.c ****     +-------------------------------------------------------------+
 232:Drivers/STM32F1xx_HAL_Driver/Src/stm32f1xx_hal_uart.c ****     |   M bit |  PCE bit  |            UART frame                 |
 233:Drivers/STM32F1xx_HAL_Driver/Src/stm32f1xx_hal_uart.c ****     |---------------------|---------------------------------------|
 234:Drivers/STM32F1xx_HAL_Driver/Src/stm32f1xx_hal_uart.c ****     |    0    |    0      |    | SB | 8 bit data | STB |          |
 235:Drivers/STM32F1xx_HAL_Driver/Src/stm32f1xx_hal_uart.c ****     |---------|-----------|---------------------------------------|
 236:Drivers/STM32F1xx_HAL_Driver/Src/stm32f1xx_hal_uart.c ****     |    0    |    1      |    | SB | 7 bit data | PB | STB |     |
 237:Drivers/STM32F1xx_HAL_Driver/Src/stm32f1xx_hal_uart.c ****     |---------|-----------|---------------------------------------|
 238:Drivers/STM32F1xx_HAL_Driver/Src/stm32f1xx_hal_uart.c ****     |    1    |    0      |    | SB | 9 bit data | STB |          |
 239:Drivers/STM32F1xx_HAL_Driver/Src/stm32f1xx_hal_uart.c ****     |---------|-----------|---------------------------------------|
 240:Drivers/STM32F1xx_HAL_Driver/Src/stm32f1xx_hal_uart.c ****     |    1    |    1      |    | SB | 8 bit data | PB | STB |     |
 241:Drivers/STM32F1xx_HAL_Driver/Src/stm32f1xx_hal_uart.c ****     +-------------------------------------------------------------+
 242:Drivers/STM32F1xx_HAL_Driver/Src/stm32f1xx_hal_uart.c ****   ******************************************************************************
 243:Drivers/STM32F1xx_HAL_Driver/Src/stm32f1xx_hal_uart.c ****   * @attention
 244:Drivers/STM32F1xx_HAL_Driver/Src/stm32f1xx_hal_uart.c ****   *
 245:Drivers/STM32F1xx_HAL_Driver/Src/stm32f1xx_hal_uart.c ****   * <h2><center>&copy; Copyright (c) 2016 STMicroelectronics.
 246:Drivers/STM32F1xx_HAL_Driver/Src/stm32f1xx_hal_uart.c ****   * All rights reserved.</center></h2>
 247:Drivers/STM32F1xx_HAL_Driver/Src/stm32f1xx_hal_uart.c ****   *
 248:Drivers/STM32F1xx_HAL_Driver/Src/stm32f1xx_hal_uart.c ****   * This software component is licensed by ST under BSD 3-Clause license,
 249:Drivers/STM32F1xx_HAL_Driver/Src/stm32f1xx_hal_uart.c ****   * the "License"; You may not use this file except in compliance with the
 250:Drivers/STM32F1xx_HAL_Driver/Src/stm32f1xx_hal_uart.c ****   * License. You may obtain a copy of the License at:
 251:Drivers/STM32F1xx_HAL_Driver/Src/stm32f1xx_hal_uart.c ****   *                        opensource.org/licenses/BSD-3-Clause
 252:Drivers/STM32F1xx_HAL_Driver/Src/stm32f1xx_hal_uart.c ****   *
 253:Drivers/STM32F1xx_HAL_Driver/Src/stm32f1xx_hal_uart.c ****   ******************************************************************************
 254:Drivers/STM32F1xx_HAL_Driver/Src/stm32f1xx_hal_uart.c ****   */
 255:Drivers/STM32F1xx_HAL_Driver/Src/stm32f1xx_hal_uart.c **** 
 256:Drivers/STM32F1xx_HAL_Driver/Src/stm32f1xx_hal_uart.c **** /* Includes ------------------------------------------------------------------*/
 257:Drivers/STM32F1xx_HAL_Driver/Src/stm32f1xx_hal_uart.c **** #include "stm32f1xx_hal.h"
 258:Drivers/STM32F1xx_HAL_Driver/Src/stm32f1xx_hal_uart.c **** 
 259:Drivers/STM32F1xx_HAL_Driver/Src/stm32f1xx_hal_uart.c **** /** @addtogroup STM32F1xx_HAL_Driver
 260:Drivers/STM32F1xx_HAL_Driver/Src/stm32f1xx_hal_uart.c ****   * @{
 261:Drivers/STM32F1xx_HAL_Driver/Src/stm32f1xx_hal_uart.c ****   */
ARM GAS  /tmp/ccRUQzex.s 			page 6


 262:Drivers/STM32F1xx_HAL_Driver/Src/stm32f1xx_hal_uart.c **** 
 263:Drivers/STM32F1xx_HAL_Driver/Src/stm32f1xx_hal_uart.c **** /** @defgroup UART UART
 264:Drivers/STM32F1xx_HAL_Driver/Src/stm32f1xx_hal_uart.c ****   * @brief HAL UART module driver
 265:Drivers/STM32F1xx_HAL_Driver/Src/stm32f1xx_hal_uart.c ****   * @{
 266:Drivers/STM32F1xx_HAL_Driver/Src/stm32f1xx_hal_uart.c ****   */
 267:Drivers/STM32F1xx_HAL_Driver/Src/stm32f1xx_hal_uart.c **** #ifdef HAL_UART_MODULE_ENABLED
 268:Drivers/STM32F1xx_HAL_Driver/Src/stm32f1xx_hal_uart.c **** 
 269:Drivers/STM32F1xx_HAL_Driver/Src/stm32f1xx_hal_uart.c **** /* Private typedef -----------------------------------------------------------*/
 270:Drivers/STM32F1xx_HAL_Driver/Src/stm32f1xx_hal_uart.c **** /* Private define ------------------------------------------------------------*/
 271:Drivers/STM32F1xx_HAL_Driver/Src/stm32f1xx_hal_uart.c **** /** @addtogroup UART_Private_Constants
 272:Drivers/STM32F1xx_HAL_Driver/Src/stm32f1xx_hal_uart.c ****   * @{
 273:Drivers/STM32F1xx_HAL_Driver/Src/stm32f1xx_hal_uart.c ****   */
 274:Drivers/STM32F1xx_HAL_Driver/Src/stm32f1xx_hal_uart.c **** /**
 275:Drivers/STM32F1xx_HAL_Driver/Src/stm32f1xx_hal_uart.c ****   * @}
 276:Drivers/STM32F1xx_HAL_Driver/Src/stm32f1xx_hal_uart.c ****   */
 277:Drivers/STM32F1xx_HAL_Driver/Src/stm32f1xx_hal_uart.c **** /* Private macro -------------------------------------------------------------*/
 278:Drivers/STM32F1xx_HAL_Driver/Src/stm32f1xx_hal_uart.c **** /* Private variables ---------------------------------------------------------*/
 279:Drivers/STM32F1xx_HAL_Driver/Src/stm32f1xx_hal_uart.c **** /* Private function prototypes -----------------------------------------------*/
 280:Drivers/STM32F1xx_HAL_Driver/Src/stm32f1xx_hal_uart.c **** /** @addtogroup UART_Private_Functions  UART Private Functions
 281:Drivers/STM32F1xx_HAL_Driver/Src/stm32f1xx_hal_uart.c ****   * @{
 282:Drivers/STM32F1xx_HAL_Driver/Src/stm32f1xx_hal_uart.c ****   */
 283:Drivers/STM32F1xx_HAL_Driver/Src/stm32f1xx_hal_uart.c **** 
 284:Drivers/STM32F1xx_HAL_Driver/Src/stm32f1xx_hal_uart.c **** #if (USE_HAL_UART_REGISTER_CALLBACKS == 1)
 285:Drivers/STM32F1xx_HAL_Driver/Src/stm32f1xx_hal_uart.c **** void UART_InitCallbacksToDefault(UART_HandleTypeDef *huart);
 286:Drivers/STM32F1xx_HAL_Driver/Src/stm32f1xx_hal_uart.c **** #endif /* USE_HAL_UART_REGISTER_CALLBACKS */
 287:Drivers/STM32F1xx_HAL_Driver/Src/stm32f1xx_hal_uart.c **** static void UART_EndTxTransfer(UART_HandleTypeDef *huart);
 288:Drivers/STM32F1xx_HAL_Driver/Src/stm32f1xx_hal_uart.c **** static void UART_EndRxTransfer(UART_HandleTypeDef *huart);
 289:Drivers/STM32F1xx_HAL_Driver/Src/stm32f1xx_hal_uart.c **** static void UART_DMATransmitCplt(DMA_HandleTypeDef *hdma);
 290:Drivers/STM32F1xx_HAL_Driver/Src/stm32f1xx_hal_uart.c **** static void UART_DMAReceiveCplt(DMA_HandleTypeDef *hdma);
 291:Drivers/STM32F1xx_HAL_Driver/Src/stm32f1xx_hal_uart.c **** static void UART_DMATxHalfCplt(DMA_HandleTypeDef *hdma);
 292:Drivers/STM32F1xx_HAL_Driver/Src/stm32f1xx_hal_uart.c **** static void UART_DMARxHalfCplt(DMA_HandleTypeDef *hdma);
 293:Drivers/STM32F1xx_HAL_Driver/Src/stm32f1xx_hal_uart.c **** static void UART_DMAError(DMA_HandleTypeDef *hdma);
 294:Drivers/STM32F1xx_HAL_Driver/Src/stm32f1xx_hal_uart.c **** static void UART_DMAAbortOnError(DMA_HandleTypeDef *hdma);
 295:Drivers/STM32F1xx_HAL_Driver/Src/stm32f1xx_hal_uart.c **** static void UART_DMATxAbortCallback(DMA_HandleTypeDef *hdma);
 296:Drivers/STM32F1xx_HAL_Driver/Src/stm32f1xx_hal_uart.c **** static void UART_DMARxAbortCallback(DMA_HandleTypeDef *hdma);
 297:Drivers/STM32F1xx_HAL_Driver/Src/stm32f1xx_hal_uart.c **** static void UART_DMATxOnlyAbortCallback(DMA_HandleTypeDef *hdma);
 298:Drivers/STM32F1xx_HAL_Driver/Src/stm32f1xx_hal_uart.c **** static void UART_DMARxOnlyAbortCallback(DMA_HandleTypeDef *hdma);
 299:Drivers/STM32F1xx_HAL_Driver/Src/stm32f1xx_hal_uart.c **** static HAL_StatusTypeDef UART_Transmit_IT(UART_HandleTypeDef *huart);
 300:Drivers/STM32F1xx_HAL_Driver/Src/stm32f1xx_hal_uart.c **** static HAL_StatusTypeDef UART_EndTransmit_IT(UART_HandleTypeDef *huart);
 301:Drivers/STM32F1xx_HAL_Driver/Src/stm32f1xx_hal_uart.c **** static HAL_StatusTypeDef UART_Receive_IT(UART_HandleTypeDef *huart);
 302:Drivers/STM32F1xx_HAL_Driver/Src/stm32f1xx_hal_uart.c **** static HAL_StatusTypeDef UART_WaitOnFlagUntilTimeout(UART_HandleTypeDef *huart, uint32_t Flag, Flag
 303:Drivers/STM32F1xx_HAL_Driver/Src/stm32f1xx_hal_uart.c **** static void UART_SetConfig(UART_HandleTypeDef *huart);
 304:Drivers/STM32F1xx_HAL_Driver/Src/stm32f1xx_hal_uart.c **** 
 305:Drivers/STM32F1xx_HAL_Driver/Src/stm32f1xx_hal_uart.c **** /**
 306:Drivers/STM32F1xx_HAL_Driver/Src/stm32f1xx_hal_uart.c ****   * @}
 307:Drivers/STM32F1xx_HAL_Driver/Src/stm32f1xx_hal_uart.c ****   */
 308:Drivers/STM32F1xx_HAL_Driver/Src/stm32f1xx_hal_uart.c **** 
 309:Drivers/STM32F1xx_HAL_Driver/Src/stm32f1xx_hal_uart.c **** /* Exported functions ---------------------------------------------------------*/
 310:Drivers/STM32F1xx_HAL_Driver/Src/stm32f1xx_hal_uart.c **** /** @defgroup UART_Exported_Functions UART Exported Functions
 311:Drivers/STM32F1xx_HAL_Driver/Src/stm32f1xx_hal_uart.c ****   * @{
 312:Drivers/STM32F1xx_HAL_Driver/Src/stm32f1xx_hal_uart.c ****   */
 313:Drivers/STM32F1xx_HAL_Driver/Src/stm32f1xx_hal_uart.c **** 
 314:Drivers/STM32F1xx_HAL_Driver/Src/stm32f1xx_hal_uart.c **** /** @defgroup UART_Exported_Functions_Group1 Initialization and de-initialization functions
 315:Drivers/STM32F1xx_HAL_Driver/Src/stm32f1xx_hal_uart.c ****   *  @brief    Initialization and Configuration functions
 316:Drivers/STM32F1xx_HAL_Driver/Src/stm32f1xx_hal_uart.c ****   *
 317:Drivers/STM32F1xx_HAL_Driver/Src/stm32f1xx_hal_uart.c **** @verbatim
 318:Drivers/STM32F1xx_HAL_Driver/Src/stm32f1xx_hal_uart.c ****  ===============================================================================
ARM GAS  /tmp/ccRUQzex.s 			page 7


 319:Drivers/STM32F1xx_HAL_Driver/Src/stm32f1xx_hal_uart.c ****             ##### Initialization and Configuration functions #####
 320:Drivers/STM32F1xx_HAL_Driver/Src/stm32f1xx_hal_uart.c ****  ===============================================================================
 321:Drivers/STM32F1xx_HAL_Driver/Src/stm32f1xx_hal_uart.c ****     [..]
 322:Drivers/STM32F1xx_HAL_Driver/Src/stm32f1xx_hal_uart.c ****     This subsection provides a set of functions allowing to initialize the USARTx or the UARTy
 323:Drivers/STM32F1xx_HAL_Driver/Src/stm32f1xx_hal_uart.c ****     in asynchronous mode.
 324:Drivers/STM32F1xx_HAL_Driver/Src/stm32f1xx_hal_uart.c ****       (+) For the asynchronous mode only these parameters can be configured:
 325:Drivers/STM32F1xx_HAL_Driver/Src/stm32f1xx_hal_uart.c ****         (++) Baud Rate
 326:Drivers/STM32F1xx_HAL_Driver/Src/stm32f1xx_hal_uart.c ****         (++) Word Length
 327:Drivers/STM32F1xx_HAL_Driver/Src/stm32f1xx_hal_uart.c ****         (++) Stop Bit
 328:Drivers/STM32F1xx_HAL_Driver/Src/stm32f1xx_hal_uart.c ****         (++) Parity: If the parity is enabled, then the MSB bit of the data written
 329:Drivers/STM32F1xx_HAL_Driver/Src/stm32f1xx_hal_uart.c ****              in the data register is transmitted but is changed by the parity bit.
 330:Drivers/STM32F1xx_HAL_Driver/Src/stm32f1xx_hal_uart.c ****              Depending on the frame length defined by the M bit (8-bits or 9-bits),
 331:Drivers/STM32F1xx_HAL_Driver/Src/stm32f1xx_hal_uart.c ****              please refer to Reference manual for possible UART frame formats.
 332:Drivers/STM32F1xx_HAL_Driver/Src/stm32f1xx_hal_uart.c ****         (++) Hardware flow control
 333:Drivers/STM32F1xx_HAL_Driver/Src/stm32f1xx_hal_uart.c ****         (++) Receiver/transmitter modes
 334:Drivers/STM32F1xx_HAL_Driver/Src/stm32f1xx_hal_uart.c ****         (++) Over Sampling Method
 335:Drivers/STM32F1xx_HAL_Driver/Src/stm32f1xx_hal_uart.c ****     [..]
 336:Drivers/STM32F1xx_HAL_Driver/Src/stm32f1xx_hal_uart.c ****     The HAL_UART_Init(), HAL_HalfDuplex_Init(), HAL_LIN_Init() and HAL_MultiProcessor_Init() APIs
 337:Drivers/STM32F1xx_HAL_Driver/Src/stm32f1xx_hal_uart.c ****     follow respectively the UART asynchronous, UART Half duplex, LIN and Multi-Processor configurat
 338:Drivers/STM32F1xx_HAL_Driver/Src/stm32f1xx_hal_uart.c ****     procedures (details for the procedures are available in reference manuals
 339:Drivers/STM32F1xx_HAL_Driver/Src/stm32f1xx_hal_uart.c ****     (RM0008 for STM32F10Xxx MCUs and RM0041 for STM32F100xx MCUs)).
 340:Drivers/STM32F1xx_HAL_Driver/Src/stm32f1xx_hal_uart.c **** 
 341:Drivers/STM32F1xx_HAL_Driver/Src/stm32f1xx_hal_uart.c **** @endverbatim
 342:Drivers/STM32F1xx_HAL_Driver/Src/stm32f1xx_hal_uart.c ****   * @{
 343:Drivers/STM32F1xx_HAL_Driver/Src/stm32f1xx_hal_uart.c ****   */
 344:Drivers/STM32F1xx_HAL_Driver/Src/stm32f1xx_hal_uart.c **** 
 345:Drivers/STM32F1xx_HAL_Driver/Src/stm32f1xx_hal_uart.c **** /**
 346:Drivers/STM32F1xx_HAL_Driver/Src/stm32f1xx_hal_uart.c ****   * @brief  Initializes the UART mode according to the specified parameters in
 347:Drivers/STM32F1xx_HAL_Driver/Src/stm32f1xx_hal_uart.c ****   *         the UART_InitTypeDef and create the associated handle.
 348:Drivers/STM32F1xx_HAL_Driver/Src/stm32f1xx_hal_uart.c ****   * @param  huart  Pointer to a UART_HandleTypeDef structure that contains
 349:Drivers/STM32F1xx_HAL_Driver/Src/stm32f1xx_hal_uart.c ****   *                the configuration information for the specified UART module.
 350:Drivers/STM32F1xx_HAL_Driver/Src/stm32f1xx_hal_uart.c ****   * @retval HAL status
 351:Drivers/STM32F1xx_HAL_Driver/Src/stm32f1xx_hal_uart.c ****   */
 352:Drivers/STM32F1xx_HAL_Driver/Src/stm32f1xx_hal_uart.c **** HAL_StatusTypeDef HAL_UART_Init(UART_HandleTypeDef *huart)
 353:Drivers/STM32F1xx_HAL_Driver/Src/stm32f1xx_hal_uart.c **** {
  26              		.loc 1 353 0
  27              		.cfi_startproc
  28              		@ args = 0, pretend = 0, frame = 8
  29              		@ frame_needed = 1, uses_anonymous_args = 0
  30 0000 80B5     		push	{r7, lr}
  31              	.LCFI0:
  32              		.cfi_def_cfa_offset 8
  33              		.cfi_offset 7, -8
  34              		.cfi_offset 14, -4
  35 0002 82B0     		sub	sp, sp, #8
  36              	.LCFI1:
  37              		.cfi_def_cfa_offset 16
  38 0004 00AF     		add	r7, sp, #0
  39              	.LCFI2:
  40              		.cfi_def_cfa_register 7
  41 0006 7860     		str	r0, [r7, #4]
 354:Drivers/STM32F1xx_HAL_Driver/Src/stm32f1xx_hal_uart.c ****   /* Check the UART handle allocation */
 355:Drivers/STM32F1xx_HAL_Driver/Src/stm32f1xx_hal_uart.c ****   if (huart == NULL)
  42              		.loc 1 355 0
  43 0008 7B68     		ldr	r3, [r7, #4]
  44 000a 002B     		cmp	r3, #0
  45 000c 01D1     		bne	.L2
ARM GAS  /tmp/ccRUQzex.s 			page 8


 356:Drivers/STM32F1xx_HAL_Driver/Src/stm32f1xx_hal_uart.c ****   {
 357:Drivers/STM32F1xx_HAL_Driver/Src/stm32f1xx_hal_uart.c ****     return HAL_ERROR;
  46              		.loc 1 357 0
  47 000e 0123     		movs	r3, #1
  48 0010 3FE0     		b	.L3
  49              	.L2:
 358:Drivers/STM32F1xx_HAL_Driver/Src/stm32f1xx_hal_uart.c ****   }
 359:Drivers/STM32F1xx_HAL_Driver/Src/stm32f1xx_hal_uart.c **** 
 360:Drivers/STM32F1xx_HAL_Driver/Src/stm32f1xx_hal_uart.c ****   /* Check the parameters */
 361:Drivers/STM32F1xx_HAL_Driver/Src/stm32f1xx_hal_uart.c ****   if (huart->Init.HwFlowCtl != UART_HWCONTROL_NONE)
 362:Drivers/STM32F1xx_HAL_Driver/Src/stm32f1xx_hal_uart.c ****   {
 363:Drivers/STM32F1xx_HAL_Driver/Src/stm32f1xx_hal_uart.c ****     /* The hardware flow control is available only for USART1, USART2 and USART3 */
 364:Drivers/STM32F1xx_HAL_Driver/Src/stm32f1xx_hal_uart.c ****     assert_param(IS_UART_HWFLOW_INSTANCE(huart->Instance));
 365:Drivers/STM32F1xx_HAL_Driver/Src/stm32f1xx_hal_uart.c ****     assert_param(IS_UART_HARDWARE_FLOW_CONTROL(huart->Init.HwFlowCtl));
 366:Drivers/STM32F1xx_HAL_Driver/Src/stm32f1xx_hal_uart.c ****   }
 367:Drivers/STM32F1xx_HAL_Driver/Src/stm32f1xx_hal_uart.c ****   else
 368:Drivers/STM32F1xx_HAL_Driver/Src/stm32f1xx_hal_uart.c ****   {
 369:Drivers/STM32F1xx_HAL_Driver/Src/stm32f1xx_hal_uart.c ****     assert_param(IS_UART_INSTANCE(huart->Instance));
 370:Drivers/STM32F1xx_HAL_Driver/Src/stm32f1xx_hal_uart.c ****   }
 371:Drivers/STM32F1xx_HAL_Driver/Src/stm32f1xx_hal_uart.c ****   assert_param(IS_UART_WORD_LENGTH(huart->Init.WordLength));
 372:Drivers/STM32F1xx_HAL_Driver/Src/stm32f1xx_hal_uart.c **** #if defined(USART_CR1_OVER8)
 373:Drivers/STM32F1xx_HAL_Driver/Src/stm32f1xx_hal_uart.c ****   assert_param(IS_UART_OVERSAMPLING(huart->Init.OverSampling));
 374:Drivers/STM32F1xx_HAL_Driver/Src/stm32f1xx_hal_uart.c **** #endif /* USART_CR1_OVER8 */
 375:Drivers/STM32F1xx_HAL_Driver/Src/stm32f1xx_hal_uart.c **** 
 376:Drivers/STM32F1xx_HAL_Driver/Src/stm32f1xx_hal_uart.c ****   if (huart->gState == HAL_UART_STATE_RESET)
  50              		.loc 1 376 0
  51 0012 7B68     		ldr	r3, [r7, #4]
  52 0014 93F83D30 		ldrb	r3, [r3, #61]
  53 0018 DBB2     		uxtb	r3, r3
  54 001a 002B     		cmp	r3, #0
  55 001c 06D1     		bne	.L4
 377:Drivers/STM32F1xx_HAL_Driver/Src/stm32f1xx_hal_uart.c ****   {
 378:Drivers/STM32F1xx_HAL_Driver/Src/stm32f1xx_hal_uart.c ****     /* Allocate lock resource and initialize it */
 379:Drivers/STM32F1xx_HAL_Driver/Src/stm32f1xx_hal_uart.c ****     huart->Lock = HAL_UNLOCKED;
  56              		.loc 1 379 0
  57 001e 7B68     		ldr	r3, [r7, #4]
  58 0020 0022     		movs	r2, #0
  59 0022 83F83C20 		strb	r2, [r3, #60]
 380:Drivers/STM32F1xx_HAL_Driver/Src/stm32f1xx_hal_uart.c **** 
 381:Drivers/STM32F1xx_HAL_Driver/Src/stm32f1xx_hal_uart.c **** #if (USE_HAL_UART_REGISTER_CALLBACKS == 1)
 382:Drivers/STM32F1xx_HAL_Driver/Src/stm32f1xx_hal_uart.c ****     UART_InitCallbacksToDefault(huart);
 383:Drivers/STM32F1xx_HAL_Driver/Src/stm32f1xx_hal_uart.c **** 
 384:Drivers/STM32F1xx_HAL_Driver/Src/stm32f1xx_hal_uart.c ****     if (huart->MspInitCallback == NULL)
 385:Drivers/STM32F1xx_HAL_Driver/Src/stm32f1xx_hal_uart.c ****     {
 386:Drivers/STM32F1xx_HAL_Driver/Src/stm32f1xx_hal_uart.c ****       huart->MspInitCallback = HAL_UART_MspInit;
 387:Drivers/STM32F1xx_HAL_Driver/Src/stm32f1xx_hal_uart.c ****     }
 388:Drivers/STM32F1xx_HAL_Driver/Src/stm32f1xx_hal_uart.c **** 
 389:Drivers/STM32F1xx_HAL_Driver/Src/stm32f1xx_hal_uart.c ****     /* Init the low level hardware */
 390:Drivers/STM32F1xx_HAL_Driver/Src/stm32f1xx_hal_uart.c ****     huart->MspInitCallback(huart);
 391:Drivers/STM32F1xx_HAL_Driver/Src/stm32f1xx_hal_uart.c **** #else
 392:Drivers/STM32F1xx_HAL_Driver/Src/stm32f1xx_hal_uart.c ****     /* Init the low level hardware : GPIO, CLOCK */
 393:Drivers/STM32F1xx_HAL_Driver/Src/stm32f1xx_hal_uart.c ****     HAL_UART_MspInit(huart);
  60              		.loc 1 393 0
  61 0026 7868     		ldr	r0, [r7, #4]
  62 0028 FFF7FEFF 		bl	HAL_UART_MspInit
  63              	.L4:
 394:Drivers/STM32F1xx_HAL_Driver/Src/stm32f1xx_hal_uart.c **** #endif /* (USE_HAL_UART_REGISTER_CALLBACKS) */
ARM GAS  /tmp/ccRUQzex.s 			page 9


 395:Drivers/STM32F1xx_HAL_Driver/Src/stm32f1xx_hal_uart.c ****   }
 396:Drivers/STM32F1xx_HAL_Driver/Src/stm32f1xx_hal_uart.c **** 
 397:Drivers/STM32F1xx_HAL_Driver/Src/stm32f1xx_hal_uart.c ****   huart->gState = HAL_UART_STATE_BUSY;
  64              		.loc 1 397 0
  65 002c 7B68     		ldr	r3, [r7, #4]
  66 002e 2422     		movs	r2, #36
  67 0030 83F83D20 		strb	r2, [r3, #61]
 398:Drivers/STM32F1xx_HAL_Driver/Src/stm32f1xx_hal_uart.c **** 
 399:Drivers/STM32F1xx_HAL_Driver/Src/stm32f1xx_hal_uart.c ****   /* Disable the peripheral */
 400:Drivers/STM32F1xx_HAL_Driver/Src/stm32f1xx_hal_uart.c ****   __HAL_UART_DISABLE(huart);
  68              		.loc 1 400 0
  69 0034 7B68     		ldr	r3, [r7, #4]
  70 0036 1B68     		ldr	r3, [r3]
  71 0038 7A68     		ldr	r2, [r7, #4]
  72 003a 1268     		ldr	r2, [r2]
  73 003c D268     		ldr	r2, [r2, #12]
  74 003e 22F40052 		bic	r2, r2, #8192
  75 0042 DA60     		str	r2, [r3, #12]
 401:Drivers/STM32F1xx_HAL_Driver/Src/stm32f1xx_hal_uart.c **** 
 402:Drivers/STM32F1xx_HAL_Driver/Src/stm32f1xx_hal_uart.c ****   /* Set the UART Communication parameters */
 403:Drivers/STM32F1xx_HAL_Driver/Src/stm32f1xx_hal_uart.c ****   UART_SetConfig(huart);
  76              		.loc 1 403 0
  77 0044 7868     		ldr	r0, [r7, #4]
  78 0046 FFF7FEFF 		bl	UART_SetConfig
 404:Drivers/STM32F1xx_HAL_Driver/Src/stm32f1xx_hal_uart.c **** 
 405:Drivers/STM32F1xx_HAL_Driver/Src/stm32f1xx_hal_uart.c ****   /* In asynchronous mode, the following bits must be kept cleared:
 406:Drivers/STM32F1xx_HAL_Driver/Src/stm32f1xx_hal_uart.c ****      - LINEN and CLKEN bits in the USART_CR2 register,
 407:Drivers/STM32F1xx_HAL_Driver/Src/stm32f1xx_hal_uart.c ****      - SCEN, HDSEL and IREN  bits in the USART_CR3 register.*/
 408:Drivers/STM32F1xx_HAL_Driver/Src/stm32f1xx_hal_uart.c ****   CLEAR_BIT(huart->Instance->CR2, (USART_CR2_LINEN | USART_CR2_CLKEN));
  79              		.loc 1 408 0
  80 004a 7B68     		ldr	r3, [r7, #4]
  81 004c 1B68     		ldr	r3, [r3]
  82 004e 7A68     		ldr	r2, [r7, #4]
  83 0050 1268     		ldr	r2, [r2]
  84 0052 1269     		ldr	r2, [r2, #16]
  85 0054 22F49042 		bic	r2, r2, #18432
  86 0058 1A61     		str	r2, [r3, #16]
 409:Drivers/STM32F1xx_HAL_Driver/Src/stm32f1xx_hal_uart.c ****   CLEAR_BIT(huart->Instance->CR3, (USART_CR3_SCEN | USART_CR3_HDSEL | USART_CR3_IREN));
  87              		.loc 1 409 0
  88 005a 7B68     		ldr	r3, [r7, #4]
  89 005c 1B68     		ldr	r3, [r3]
  90 005e 7A68     		ldr	r2, [r7, #4]
  91 0060 1268     		ldr	r2, [r2]
  92 0062 5269     		ldr	r2, [r2, #20]
  93 0064 22F02A02 		bic	r2, r2, #42
  94 0068 5A61     		str	r2, [r3, #20]
 410:Drivers/STM32F1xx_HAL_Driver/Src/stm32f1xx_hal_uart.c **** 
 411:Drivers/STM32F1xx_HAL_Driver/Src/stm32f1xx_hal_uart.c ****   /* Enable the peripheral */
 412:Drivers/STM32F1xx_HAL_Driver/Src/stm32f1xx_hal_uart.c ****   __HAL_UART_ENABLE(huart);
  95              		.loc 1 412 0
  96 006a 7B68     		ldr	r3, [r7, #4]
  97 006c 1B68     		ldr	r3, [r3]
  98 006e 7A68     		ldr	r2, [r7, #4]
  99 0070 1268     		ldr	r2, [r2]
 100 0072 D268     		ldr	r2, [r2, #12]
 101 0074 42F40052 		orr	r2, r2, #8192
 102 0078 DA60     		str	r2, [r3, #12]
ARM GAS  /tmp/ccRUQzex.s 			page 10


 413:Drivers/STM32F1xx_HAL_Driver/Src/stm32f1xx_hal_uart.c **** 
 414:Drivers/STM32F1xx_HAL_Driver/Src/stm32f1xx_hal_uart.c ****   /* Initialize the UART state */
 415:Drivers/STM32F1xx_HAL_Driver/Src/stm32f1xx_hal_uart.c ****   huart->ErrorCode = HAL_UART_ERROR_NONE;
 103              		.loc 1 415 0
 104 007a 7B68     		ldr	r3, [r7, #4]
 105 007c 0022     		movs	r2, #0
 106 007e 1A64     		str	r2, [r3, #64]
 416:Drivers/STM32F1xx_HAL_Driver/Src/stm32f1xx_hal_uart.c ****   huart->gState = HAL_UART_STATE_READY;
 107              		.loc 1 416 0
 108 0080 7B68     		ldr	r3, [r7, #4]
 109 0082 2022     		movs	r2, #32
 110 0084 83F83D20 		strb	r2, [r3, #61]
 417:Drivers/STM32F1xx_HAL_Driver/Src/stm32f1xx_hal_uart.c ****   huart->RxState = HAL_UART_STATE_READY;
 111              		.loc 1 417 0
 112 0088 7B68     		ldr	r3, [r7, #4]
 113 008a 2022     		movs	r2, #32
 114 008c 83F83E20 		strb	r2, [r3, #62]
 418:Drivers/STM32F1xx_HAL_Driver/Src/stm32f1xx_hal_uart.c **** 
 419:Drivers/STM32F1xx_HAL_Driver/Src/stm32f1xx_hal_uart.c ****   return HAL_OK;
 115              		.loc 1 419 0
 116 0090 0023     		movs	r3, #0
 117              	.L3:
 420:Drivers/STM32F1xx_HAL_Driver/Src/stm32f1xx_hal_uart.c **** }
 118              		.loc 1 420 0
 119 0092 1846     		mov	r0, r3
 120 0094 0837     		adds	r7, r7, #8
 121              	.LCFI3:
 122              		.cfi_def_cfa_offset 8
 123 0096 BD46     		mov	sp, r7
 124              	.LCFI4:
 125              		.cfi_def_cfa_register 13
 126              		@ sp needed
 127 0098 80BD     		pop	{r7, pc}
 128              		.cfi_endproc
 129              	.LFE65:
 131              		.section	.text.HAL_HalfDuplex_Init,"ax",%progbits
 132              		.align	1
 133              		.global	HAL_HalfDuplex_Init
 134              		.syntax unified
 135              		.thumb
 136              		.thumb_func
 137              		.fpu softvfp
 139              	HAL_HalfDuplex_Init:
 140              	.LFB66:
 421:Drivers/STM32F1xx_HAL_Driver/Src/stm32f1xx_hal_uart.c **** 
 422:Drivers/STM32F1xx_HAL_Driver/Src/stm32f1xx_hal_uart.c **** /**
 423:Drivers/STM32F1xx_HAL_Driver/Src/stm32f1xx_hal_uart.c ****   * @brief  Initializes the half-duplex mode according to the specified
 424:Drivers/STM32F1xx_HAL_Driver/Src/stm32f1xx_hal_uart.c ****   *         parameters in the UART_InitTypeDef and create the associated handle.
 425:Drivers/STM32F1xx_HAL_Driver/Src/stm32f1xx_hal_uart.c ****   * @param  huart  Pointer to a UART_HandleTypeDef structure that contains
 426:Drivers/STM32F1xx_HAL_Driver/Src/stm32f1xx_hal_uart.c ****   *                the configuration information for the specified UART module.
 427:Drivers/STM32F1xx_HAL_Driver/Src/stm32f1xx_hal_uart.c ****   * @retval HAL status
 428:Drivers/STM32F1xx_HAL_Driver/Src/stm32f1xx_hal_uart.c ****   */
 429:Drivers/STM32F1xx_HAL_Driver/Src/stm32f1xx_hal_uart.c **** HAL_StatusTypeDef HAL_HalfDuplex_Init(UART_HandleTypeDef *huart)
 430:Drivers/STM32F1xx_HAL_Driver/Src/stm32f1xx_hal_uart.c **** {
 141              		.loc 1 430 0
 142              		.cfi_startproc
 143              		@ args = 0, pretend = 0, frame = 8
ARM GAS  /tmp/ccRUQzex.s 			page 11


 144              		@ frame_needed = 1, uses_anonymous_args = 0
 145 0000 80B5     		push	{r7, lr}
 146              	.LCFI5:
 147              		.cfi_def_cfa_offset 8
 148              		.cfi_offset 7, -8
 149              		.cfi_offset 14, -4
 150 0002 82B0     		sub	sp, sp, #8
 151              	.LCFI6:
 152              		.cfi_def_cfa_offset 16
 153 0004 00AF     		add	r7, sp, #0
 154              	.LCFI7:
 155              		.cfi_def_cfa_register 7
 156 0006 7860     		str	r0, [r7, #4]
 431:Drivers/STM32F1xx_HAL_Driver/Src/stm32f1xx_hal_uart.c ****   /* Check the UART handle allocation */
 432:Drivers/STM32F1xx_HAL_Driver/Src/stm32f1xx_hal_uart.c ****   if (huart == NULL)
 157              		.loc 1 432 0
 158 0008 7B68     		ldr	r3, [r7, #4]
 159 000a 002B     		cmp	r3, #0
 160 000c 01D1     		bne	.L6
 433:Drivers/STM32F1xx_HAL_Driver/Src/stm32f1xx_hal_uart.c ****   {
 434:Drivers/STM32F1xx_HAL_Driver/Src/stm32f1xx_hal_uart.c ****     return HAL_ERROR;
 161              		.loc 1 434 0
 162 000e 0123     		movs	r3, #1
 163 0010 47E0     		b	.L7
 164              	.L6:
 435:Drivers/STM32F1xx_HAL_Driver/Src/stm32f1xx_hal_uart.c ****   }
 436:Drivers/STM32F1xx_HAL_Driver/Src/stm32f1xx_hal_uart.c **** 
 437:Drivers/STM32F1xx_HAL_Driver/Src/stm32f1xx_hal_uart.c ****   /* Check the parameters */
 438:Drivers/STM32F1xx_HAL_Driver/Src/stm32f1xx_hal_uart.c ****   assert_param(IS_UART_HALFDUPLEX_INSTANCE(huart->Instance));
 439:Drivers/STM32F1xx_HAL_Driver/Src/stm32f1xx_hal_uart.c ****   assert_param(IS_UART_WORD_LENGTH(huart->Init.WordLength));
 440:Drivers/STM32F1xx_HAL_Driver/Src/stm32f1xx_hal_uart.c **** #if defined(USART_CR1_OVER8)
 441:Drivers/STM32F1xx_HAL_Driver/Src/stm32f1xx_hal_uart.c ****   assert_param(IS_UART_OVERSAMPLING(huart->Init.OverSampling));
 442:Drivers/STM32F1xx_HAL_Driver/Src/stm32f1xx_hal_uart.c **** #endif /* USART_CR1_OVER8 */
 443:Drivers/STM32F1xx_HAL_Driver/Src/stm32f1xx_hal_uart.c **** 
 444:Drivers/STM32F1xx_HAL_Driver/Src/stm32f1xx_hal_uart.c ****   if (huart->gState == HAL_UART_STATE_RESET)
 165              		.loc 1 444 0
 166 0012 7B68     		ldr	r3, [r7, #4]
 167 0014 93F83D30 		ldrb	r3, [r3, #61]
 168 0018 DBB2     		uxtb	r3, r3
 169 001a 002B     		cmp	r3, #0
 170 001c 06D1     		bne	.L8
 445:Drivers/STM32F1xx_HAL_Driver/Src/stm32f1xx_hal_uart.c ****   {
 446:Drivers/STM32F1xx_HAL_Driver/Src/stm32f1xx_hal_uart.c ****     /* Allocate lock resource and initialize it */
 447:Drivers/STM32F1xx_HAL_Driver/Src/stm32f1xx_hal_uart.c ****     huart->Lock = HAL_UNLOCKED;
 171              		.loc 1 447 0
 172 001e 7B68     		ldr	r3, [r7, #4]
 173 0020 0022     		movs	r2, #0
 174 0022 83F83C20 		strb	r2, [r3, #60]
 448:Drivers/STM32F1xx_HAL_Driver/Src/stm32f1xx_hal_uart.c **** 
 449:Drivers/STM32F1xx_HAL_Driver/Src/stm32f1xx_hal_uart.c **** #if (USE_HAL_UART_REGISTER_CALLBACKS == 1)
 450:Drivers/STM32F1xx_HAL_Driver/Src/stm32f1xx_hal_uart.c ****     UART_InitCallbacksToDefault(huart);
 451:Drivers/STM32F1xx_HAL_Driver/Src/stm32f1xx_hal_uart.c **** 
 452:Drivers/STM32F1xx_HAL_Driver/Src/stm32f1xx_hal_uart.c ****     if (huart->MspInitCallback == NULL)
 453:Drivers/STM32F1xx_HAL_Driver/Src/stm32f1xx_hal_uart.c ****     {
 454:Drivers/STM32F1xx_HAL_Driver/Src/stm32f1xx_hal_uart.c ****       huart->MspInitCallback = HAL_UART_MspInit;
 455:Drivers/STM32F1xx_HAL_Driver/Src/stm32f1xx_hal_uart.c ****     }
 456:Drivers/STM32F1xx_HAL_Driver/Src/stm32f1xx_hal_uart.c **** 
ARM GAS  /tmp/ccRUQzex.s 			page 12


 457:Drivers/STM32F1xx_HAL_Driver/Src/stm32f1xx_hal_uart.c ****     /* Init the low level hardware */
 458:Drivers/STM32F1xx_HAL_Driver/Src/stm32f1xx_hal_uart.c ****     huart->MspInitCallback(huart);
 459:Drivers/STM32F1xx_HAL_Driver/Src/stm32f1xx_hal_uart.c **** #else
 460:Drivers/STM32F1xx_HAL_Driver/Src/stm32f1xx_hal_uart.c ****     /* Init the low level hardware : GPIO, CLOCK */
 461:Drivers/STM32F1xx_HAL_Driver/Src/stm32f1xx_hal_uart.c ****     HAL_UART_MspInit(huart);
 175              		.loc 1 461 0
 176 0026 7868     		ldr	r0, [r7, #4]
 177 0028 FFF7FEFF 		bl	HAL_UART_MspInit
 178              	.L8:
 462:Drivers/STM32F1xx_HAL_Driver/Src/stm32f1xx_hal_uart.c **** #endif /* (USE_HAL_UART_REGISTER_CALLBACKS) */
 463:Drivers/STM32F1xx_HAL_Driver/Src/stm32f1xx_hal_uart.c ****   }
 464:Drivers/STM32F1xx_HAL_Driver/Src/stm32f1xx_hal_uart.c **** 
 465:Drivers/STM32F1xx_HAL_Driver/Src/stm32f1xx_hal_uart.c ****   huart->gState = HAL_UART_STATE_BUSY;
 179              		.loc 1 465 0
 180 002c 7B68     		ldr	r3, [r7, #4]
 181 002e 2422     		movs	r2, #36
 182 0030 83F83D20 		strb	r2, [r3, #61]
 466:Drivers/STM32F1xx_HAL_Driver/Src/stm32f1xx_hal_uart.c **** 
 467:Drivers/STM32F1xx_HAL_Driver/Src/stm32f1xx_hal_uart.c ****   /* Disable the peripheral */
 468:Drivers/STM32F1xx_HAL_Driver/Src/stm32f1xx_hal_uart.c ****   __HAL_UART_DISABLE(huart);
 183              		.loc 1 468 0
 184 0034 7B68     		ldr	r3, [r7, #4]
 185 0036 1B68     		ldr	r3, [r3]
 186 0038 7A68     		ldr	r2, [r7, #4]
 187 003a 1268     		ldr	r2, [r2]
 188 003c D268     		ldr	r2, [r2, #12]
 189 003e 22F40052 		bic	r2, r2, #8192
 190 0042 DA60     		str	r2, [r3, #12]
 469:Drivers/STM32F1xx_HAL_Driver/Src/stm32f1xx_hal_uart.c **** 
 470:Drivers/STM32F1xx_HAL_Driver/Src/stm32f1xx_hal_uart.c ****   /* Set the UART Communication parameters */
 471:Drivers/STM32F1xx_HAL_Driver/Src/stm32f1xx_hal_uart.c ****   UART_SetConfig(huart);
 191              		.loc 1 471 0
 192 0044 7868     		ldr	r0, [r7, #4]
 193 0046 FFF7FEFF 		bl	UART_SetConfig
 472:Drivers/STM32F1xx_HAL_Driver/Src/stm32f1xx_hal_uart.c **** 
 473:Drivers/STM32F1xx_HAL_Driver/Src/stm32f1xx_hal_uart.c ****   /* In half-duplex mode, the following bits must be kept cleared:
 474:Drivers/STM32F1xx_HAL_Driver/Src/stm32f1xx_hal_uart.c ****      - LINEN and CLKEN bits in the USART_CR2 register,
 475:Drivers/STM32F1xx_HAL_Driver/Src/stm32f1xx_hal_uart.c ****      - SCEN and IREN bits in the USART_CR3 register.*/
 476:Drivers/STM32F1xx_HAL_Driver/Src/stm32f1xx_hal_uart.c ****   CLEAR_BIT(huart->Instance->CR2, (USART_CR2_LINEN | USART_CR2_CLKEN));
 194              		.loc 1 476 0
 195 004a 7B68     		ldr	r3, [r7, #4]
 196 004c 1B68     		ldr	r3, [r3]
 197 004e 7A68     		ldr	r2, [r7, #4]
 198 0050 1268     		ldr	r2, [r2]
 199 0052 1269     		ldr	r2, [r2, #16]
 200 0054 22F49042 		bic	r2, r2, #18432
 201 0058 1A61     		str	r2, [r3, #16]
 477:Drivers/STM32F1xx_HAL_Driver/Src/stm32f1xx_hal_uart.c ****   CLEAR_BIT(huart->Instance->CR3, (USART_CR3_IREN | USART_CR3_SCEN));
 202              		.loc 1 477 0
 203 005a 7B68     		ldr	r3, [r7, #4]
 204 005c 1B68     		ldr	r3, [r3]
 205 005e 7A68     		ldr	r2, [r7, #4]
 206 0060 1268     		ldr	r2, [r2]
 207 0062 5269     		ldr	r2, [r2, #20]
 208 0064 22F02202 		bic	r2, r2, #34
 209 0068 5A61     		str	r2, [r3, #20]
 478:Drivers/STM32F1xx_HAL_Driver/Src/stm32f1xx_hal_uart.c **** 
ARM GAS  /tmp/ccRUQzex.s 			page 13


 479:Drivers/STM32F1xx_HAL_Driver/Src/stm32f1xx_hal_uart.c ****   /* Enable the Half-Duplex mode by setting the HDSEL bit in the CR3 register */
 480:Drivers/STM32F1xx_HAL_Driver/Src/stm32f1xx_hal_uart.c ****   SET_BIT(huart->Instance->CR3, USART_CR3_HDSEL);
 210              		.loc 1 480 0
 211 006a 7B68     		ldr	r3, [r7, #4]
 212 006c 1B68     		ldr	r3, [r3]
 213 006e 7A68     		ldr	r2, [r7, #4]
 214 0070 1268     		ldr	r2, [r2]
 215 0072 5269     		ldr	r2, [r2, #20]
 216 0074 42F00802 		orr	r2, r2, #8
 217 0078 5A61     		str	r2, [r3, #20]
 481:Drivers/STM32F1xx_HAL_Driver/Src/stm32f1xx_hal_uart.c **** 
 482:Drivers/STM32F1xx_HAL_Driver/Src/stm32f1xx_hal_uart.c ****   /* Enable the peripheral */
 483:Drivers/STM32F1xx_HAL_Driver/Src/stm32f1xx_hal_uart.c ****   __HAL_UART_ENABLE(huart);
 218              		.loc 1 483 0
 219 007a 7B68     		ldr	r3, [r7, #4]
 220 007c 1B68     		ldr	r3, [r3]
 221 007e 7A68     		ldr	r2, [r7, #4]
 222 0080 1268     		ldr	r2, [r2]
 223 0082 D268     		ldr	r2, [r2, #12]
 224 0084 42F40052 		orr	r2, r2, #8192
 225 0088 DA60     		str	r2, [r3, #12]
 484:Drivers/STM32F1xx_HAL_Driver/Src/stm32f1xx_hal_uart.c **** 
 485:Drivers/STM32F1xx_HAL_Driver/Src/stm32f1xx_hal_uart.c ****   /* Initialize the UART state*/
 486:Drivers/STM32F1xx_HAL_Driver/Src/stm32f1xx_hal_uart.c ****   huart->ErrorCode = HAL_UART_ERROR_NONE;
 226              		.loc 1 486 0
 227 008a 7B68     		ldr	r3, [r7, #4]
 228 008c 0022     		movs	r2, #0
 229 008e 1A64     		str	r2, [r3, #64]
 487:Drivers/STM32F1xx_HAL_Driver/Src/stm32f1xx_hal_uart.c ****   huart->gState = HAL_UART_STATE_READY;
 230              		.loc 1 487 0
 231 0090 7B68     		ldr	r3, [r7, #4]
 232 0092 2022     		movs	r2, #32
 233 0094 83F83D20 		strb	r2, [r3, #61]
 488:Drivers/STM32F1xx_HAL_Driver/Src/stm32f1xx_hal_uart.c ****   huart->RxState = HAL_UART_STATE_READY;
 234              		.loc 1 488 0
 235 0098 7B68     		ldr	r3, [r7, #4]
 236 009a 2022     		movs	r2, #32
 237 009c 83F83E20 		strb	r2, [r3, #62]
 489:Drivers/STM32F1xx_HAL_Driver/Src/stm32f1xx_hal_uart.c **** 
 490:Drivers/STM32F1xx_HAL_Driver/Src/stm32f1xx_hal_uart.c ****   return HAL_OK;
 238              		.loc 1 490 0
 239 00a0 0023     		movs	r3, #0
 240              	.L7:
 491:Drivers/STM32F1xx_HAL_Driver/Src/stm32f1xx_hal_uart.c **** }
 241              		.loc 1 491 0
 242 00a2 1846     		mov	r0, r3
 243 00a4 0837     		adds	r7, r7, #8
 244              	.LCFI8:
 245              		.cfi_def_cfa_offset 8
 246 00a6 BD46     		mov	sp, r7
 247              	.LCFI9:
 248              		.cfi_def_cfa_register 13
 249              		@ sp needed
 250 00a8 80BD     		pop	{r7, pc}
 251              		.cfi_endproc
 252              	.LFE66:
 254              		.section	.text.HAL_LIN_Init,"ax",%progbits
ARM GAS  /tmp/ccRUQzex.s 			page 14


 255              		.align	1
 256              		.global	HAL_LIN_Init
 257              		.syntax unified
 258              		.thumb
 259              		.thumb_func
 260              		.fpu softvfp
 262              	HAL_LIN_Init:
 263              	.LFB67:
 492:Drivers/STM32F1xx_HAL_Driver/Src/stm32f1xx_hal_uart.c **** 
 493:Drivers/STM32F1xx_HAL_Driver/Src/stm32f1xx_hal_uart.c **** /**
 494:Drivers/STM32F1xx_HAL_Driver/Src/stm32f1xx_hal_uart.c ****   * @brief  Initializes the LIN mode according to the specified
 495:Drivers/STM32F1xx_HAL_Driver/Src/stm32f1xx_hal_uart.c ****   *         parameters in the UART_InitTypeDef and create the associated handle.
 496:Drivers/STM32F1xx_HAL_Driver/Src/stm32f1xx_hal_uart.c ****   * @param  huart  Pointer to a UART_HandleTypeDef structure that contains
 497:Drivers/STM32F1xx_HAL_Driver/Src/stm32f1xx_hal_uart.c ****   *                the configuration information for the specified UART module.
 498:Drivers/STM32F1xx_HAL_Driver/Src/stm32f1xx_hal_uart.c ****   * @param  BreakDetectLength Specifies the LIN break detection length.
 499:Drivers/STM32F1xx_HAL_Driver/Src/stm32f1xx_hal_uart.c ****   *         This parameter can be one of the following values:
 500:Drivers/STM32F1xx_HAL_Driver/Src/stm32f1xx_hal_uart.c ****   *            @arg UART_LINBREAKDETECTLENGTH_10B: 10-bit break detection
 501:Drivers/STM32F1xx_HAL_Driver/Src/stm32f1xx_hal_uart.c ****   *            @arg UART_LINBREAKDETECTLENGTH_11B: 11-bit break detection
 502:Drivers/STM32F1xx_HAL_Driver/Src/stm32f1xx_hal_uart.c ****   * @retval HAL status
 503:Drivers/STM32F1xx_HAL_Driver/Src/stm32f1xx_hal_uart.c ****   */
 504:Drivers/STM32F1xx_HAL_Driver/Src/stm32f1xx_hal_uart.c **** HAL_StatusTypeDef HAL_LIN_Init(UART_HandleTypeDef *huart, uint32_t BreakDetectLength)
 505:Drivers/STM32F1xx_HAL_Driver/Src/stm32f1xx_hal_uart.c **** {
 264              		.loc 1 505 0
 265              		.cfi_startproc
 266              		@ args = 0, pretend = 0, frame = 8
 267              		@ frame_needed = 1, uses_anonymous_args = 0
 268 0000 80B5     		push	{r7, lr}
 269              	.LCFI10:
 270              		.cfi_def_cfa_offset 8
 271              		.cfi_offset 7, -8
 272              		.cfi_offset 14, -4
 273 0002 82B0     		sub	sp, sp, #8
 274              	.LCFI11:
 275              		.cfi_def_cfa_offset 16
 276 0004 00AF     		add	r7, sp, #0
 277              	.LCFI12:
 278              		.cfi_def_cfa_register 7
 279 0006 7860     		str	r0, [r7, #4]
 280 0008 3960     		str	r1, [r7]
 506:Drivers/STM32F1xx_HAL_Driver/Src/stm32f1xx_hal_uart.c ****   /* Check the UART handle allocation */
 507:Drivers/STM32F1xx_HAL_Driver/Src/stm32f1xx_hal_uart.c ****   if (huart == NULL)
 281              		.loc 1 507 0
 282 000a 7B68     		ldr	r3, [r7, #4]
 283 000c 002B     		cmp	r3, #0
 284 000e 01D1     		bne	.L10
 508:Drivers/STM32F1xx_HAL_Driver/Src/stm32f1xx_hal_uart.c ****   {
 509:Drivers/STM32F1xx_HAL_Driver/Src/stm32f1xx_hal_uart.c ****     return HAL_ERROR;
 285              		.loc 1 509 0
 286 0010 0123     		movs	r3, #1
 287 0012 57E0     		b	.L11
 288              	.L10:
 510:Drivers/STM32F1xx_HAL_Driver/Src/stm32f1xx_hal_uart.c ****   }
 511:Drivers/STM32F1xx_HAL_Driver/Src/stm32f1xx_hal_uart.c **** 
 512:Drivers/STM32F1xx_HAL_Driver/Src/stm32f1xx_hal_uart.c ****   /* Check the LIN UART instance */
 513:Drivers/STM32F1xx_HAL_Driver/Src/stm32f1xx_hal_uart.c ****   assert_param(IS_UART_LIN_INSTANCE(huart->Instance));
 514:Drivers/STM32F1xx_HAL_Driver/Src/stm32f1xx_hal_uart.c **** 
 515:Drivers/STM32F1xx_HAL_Driver/Src/stm32f1xx_hal_uart.c ****   /* Check the Break detection length parameter */
ARM GAS  /tmp/ccRUQzex.s 			page 15


 516:Drivers/STM32F1xx_HAL_Driver/Src/stm32f1xx_hal_uart.c ****   assert_param(IS_UART_LIN_BREAK_DETECT_LENGTH(BreakDetectLength));
 517:Drivers/STM32F1xx_HAL_Driver/Src/stm32f1xx_hal_uart.c ****   assert_param(IS_UART_LIN_WORD_LENGTH(huart->Init.WordLength));
 518:Drivers/STM32F1xx_HAL_Driver/Src/stm32f1xx_hal_uart.c **** #if defined(USART_CR1_OVER8)
 519:Drivers/STM32F1xx_HAL_Driver/Src/stm32f1xx_hal_uart.c ****   assert_param(IS_UART_LIN_OVERSAMPLING(huart->Init.OverSampling));
 520:Drivers/STM32F1xx_HAL_Driver/Src/stm32f1xx_hal_uart.c **** #endif /* USART_CR1_OVER8 */
 521:Drivers/STM32F1xx_HAL_Driver/Src/stm32f1xx_hal_uart.c **** 
 522:Drivers/STM32F1xx_HAL_Driver/Src/stm32f1xx_hal_uart.c ****   if (huart->gState == HAL_UART_STATE_RESET)
 289              		.loc 1 522 0
 290 0014 7B68     		ldr	r3, [r7, #4]
 291 0016 93F83D30 		ldrb	r3, [r3, #61]
 292 001a DBB2     		uxtb	r3, r3
 293 001c 002B     		cmp	r3, #0
 294 001e 06D1     		bne	.L12
 523:Drivers/STM32F1xx_HAL_Driver/Src/stm32f1xx_hal_uart.c ****   {
 524:Drivers/STM32F1xx_HAL_Driver/Src/stm32f1xx_hal_uart.c ****     /* Allocate lock resource and initialize it */
 525:Drivers/STM32F1xx_HAL_Driver/Src/stm32f1xx_hal_uart.c ****     huart->Lock = HAL_UNLOCKED;
 295              		.loc 1 525 0
 296 0020 7B68     		ldr	r3, [r7, #4]
 297 0022 0022     		movs	r2, #0
 298 0024 83F83C20 		strb	r2, [r3, #60]
 526:Drivers/STM32F1xx_HAL_Driver/Src/stm32f1xx_hal_uart.c **** 
 527:Drivers/STM32F1xx_HAL_Driver/Src/stm32f1xx_hal_uart.c **** #if (USE_HAL_UART_REGISTER_CALLBACKS == 1)
 528:Drivers/STM32F1xx_HAL_Driver/Src/stm32f1xx_hal_uart.c ****     UART_InitCallbacksToDefault(huart);
 529:Drivers/STM32F1xx_HAL_Driver/Src/stm32f1xx_hal_uart.c **** 
 530:Drivers/STM32F1xx_HAL_Driver/Src/stm32f1xx_hal_uart.c ****     if (huart->MspInitCallback == NULL)
 531:Drivers/STM32F1xx_HAL_Driver/Src/stm32f1xx_hal_uart.c ****     {
 532:Drivers/STM32F1xx_HAL_Driver/Src/stm32f1xx_hal_uart.c ****       huart->MspInitCallback = HAL_UART_MspInit;
 533:Drivers/STM32F1xx_HAL_Driver/Src/stm32f1xx_hal_uart.c ****     }
 534:Drivers/STM32F1xx_HAL_Driver/Src/stm32f1xx_hal_uart.c **** 
 535:Drivers/STM32F1xx_HAL_Driver/Src/stm32f1xx_hal_uart.c ****     /* Init the low level hardware */
 536:Drivers/STM32F1xx_HAL_Driver/Src/stm32f1xx_hal_uart.c ****     huart->MspInitCallback(huart);
 537:Drivers/STM32F1xx_HAL_Driver/Src/stm32f1xx_hal_uart.c **** #else
 538:Drivers/STM32F1xx_HAL_Driver/Src/stm32f1xx_hal_uart.c ****     /* Init the low level hardware : GPIO, CLOCK */
 539:Drivers/STM32F1xx_HAL_Driver/Src/stm32f1xx_hal_uart.c ****     HAL_UART_MspInit(huart);
 299              		.loc 1 539 0
 300 0028 7868     		ldr	r0, [r7, #4]
 301 002a FFF7FEFF 		bl	HAL_UART_MspInit
 302              	.L12:
 540:Drivers/STM32F1xx_HAL_Driver/Src/stm32f1xx_hal_uart.c **** #endif /* (USE_HAL_UART_REGISTER_CALLBACKS) */
 541:Drivers/STM32F1xx_HAL_Driver/Src/stm32f1xx_hal_uart.c ****   }
 542:Drivers/STM32F1xx_HAL_Driver/Src/stm32f1xx_hal_uart.c **** 
 543:Drivers/STM32F1xx_HAL_Driver/Src/stm32f1xx_hal_uart.c ****   huart->gState = HAL_UART_STATE_BUSY;
 303              		.loc 1 543 0
 304 002e 7B68     		ldr	r3, [r7, #4]
 305 0030 2422     		movs	r2, #36
 306 0032 83F83D20 		strb	r2, [r3, #61]
 544:Drivers/STM32F1xx_HAL_Driver/Src/stm32f1xx_hal_uart.c **** 
 545:Drivers/STM32F1xx_HAL_Driver/Src/stm32f1xx_hal_uart.c ****   /* Disable the peripheral */
 546:Drivers/STM32F1xx_HAL_Driver/Src/stm32f1xx_hal_uart.c ****   __HAL_UART_DISABLE(huart);
 307              		.loc 1 546 0
 308 0036 7B68     		ldr	r3, [r7, #4]
 309 0038 1B68     		ldr	r3, [r3]
 310 003a 7A68     		ldr	r2, [r7, #4]
 311 003c 1268     		ldr	r2, [r2]
 312 003e D268     		ldr	r2, [r2, #12]
 313 0040 22F40052 		bic	r2, r2, #8192
 314 0044 DA60     		str	r2, [r3, #12]
ARM GAS  /tmp/ccRUQzex.s 			page 16


 547:Drivers/STM32F1xx_HAL_Driver/Src/stm32f1xx_hal_uart.c **** 
 548:Drivers/STM32F1xx_HAL_Driver/Src/stm32f1xx_hal_uart.c ****   /* Set the UART Communication parameters */
 549:Drivers/STM32F1xx_HAL_Driver/Src/stm32f1xx_hal_uart.c ****   UART_SetConfig(huart);
 315              		.loc 1 549 0
 316 0046 7868     		ldr	r0, [r7, #4]
 317 0048 FFF7FEFF 		bl	UART_SetConfig
 550:Drivers/STM32F1xx_HAL_Driver/Src/stm32f1xx_hal_uart.c **** 
 551:Drivers/STM32F1xx_HAL_Driver/Src/stm32f1xx_hal_uart.c ****   /* In LIN mode, the following bits must be kept cleared:
 552:Drivers/STM32F1xx_HAL_Driver/Src/stm32f1xx_hal_uart.c ****      - CLKEN bits in the USART_CR2 register,
 553:Drivers/STM32F1xx_HAL_Driver/Src/stm32f1xx_hal_uart.c ****      - SCEN, HDSEL and IREN bits in the USART_CR3 register.*/
 554:Drivers/STM32F1xx_HAL_Driver/Src/stm32f1xx_hal_uart.c ****   CLEAR_BIT(huart->Instance->CR2, (USART_CR2_CLKEN));
 318              		.loc 1 554 0
 319 004c 7B68     		ldr	r3, [r7, #4]
 320 004e 1B68     		ldr	r3, [r3]
 321 0050 7A68     		ldr	r2, [r7, #4]
 322 0052 1268     		ldr	r2, [r2]
 323 0054 1269     		ldr	r2, [r2, #16]
 324 0056 22F40062 		bic	r2, r2, #2048
 325 005a 1A61     		str	r2, [r3, #16]
 555:Drivers/STM32F1xx_HAL_Driver/Src/stm32f1xx_hal_uart.c ****   CLEAR_BIT(huart->Instance->CR3, (USART_CR3_HDSEL | USART_CR3_IREN | USART_CR3_SCEN));
 326              		.loc 1 555 0
 327 005c 7B68     		ldr	r3, [r7, #4]
 328 005e 1B68     		ldr	r3, [r3]
 329 0060 7A68     		ldr	r2, [r7, #4]
 330 0062 1268     		ldr	r2, [r2]
 331 0064 5269     		ldr	r2, [r2, #20]
 332 0066 22F02A02 		bic	r2, r2, #42
 333 006a 5A61     		str	r2, [r3, #20]
 556:Drivers/STM32F1xx_HAL_Driver/Src/stm32f1xx_hal_uart.c **** 
 557:Drivers/STM32F1xx_HAL_Driver/Src/stm32f1xx_hal_uart.c ****   /* Enable the LIN mode by setting the LINEN bit in the CR2 register */
 558:Drivers/STM32F1xx_HAL_Driver/Src/stm32f1xx_hal_uart.c ****   SET_BIT(huart->Instance->CR2, USART_CR2_LINEN);
 334              		.loc 1 558 0
 335 006c 7B68     		ldr	r3, [r7, #4]
 336 006e 1B68     		ldr	r3, [r3]
 337 0070 7A68     		ldr	r2, [r7, #4]
 338 0072 1268     		ldr	r2, [r2]
 339 0074 1269     		ldr	r2, [r2, #16]
 340 0076 42F48042 		orr	r2, r2, #16384
 341 007a 1A61     		str	r2, [r3, #16]
 559:Drivers/STM32F1xx_HAL_Driver/Src/stm32f1xx_hal_uart.c **** 
 560:Drivers/STM32F1xx_HAL_Driver/Src/stm32f1xx_hal_uart.c ****   /* Set the USART LIN Break detection length. */
 561:Drivers/STM32F1xx_HAL_Driver/Src/stm32f1xx_hal_uart.c ****   CLEAR_BIT(huart->Instance->CR2, USART_CR2_LBDL);
 342              		.loc 1 561 0
 343 007c 7B68     		ldr	r3, [r7, #4]
 344 007e 1B68     		ldr	r3, [r3]
 345 0080 7A68     		ldr	r2, [r7, #4]
 346 0082 1268     		ldr	r2, [r2]
 347 0084 1269     		ldr	r2, [r2, #16]
 348 0086 22F02002 		bic	r2, r2, #32
 349 008a 1A61     		str	r2, [r3, #16]
 562:Drivers/STM32F1xx_HAL_Driver/Src/stm32f1xx_hal_uart.c ****   SET_BIT(huart->Instance->CR2, BreakDetectLength);
 350              		.loc 1 562 0
 351 008c 7B68     		ldr	r3, [r7, #4]
 352 008e 1B68     		ldr	r3, [r3]
 353 0090 7A68     		ldr	r2, [r7, #4]
 354 0092 1268     		ldr	r2, [r2]
 355 0094 1169     		ldr	r1, [r2, #16]
ARM GAS  /tmp/ccRUQzex.s 			page 17


 356 0096 3A68     		ldr	r2, [r7]
 357 0098 0A43     		orrs	r2, r2, r1
 358 009a 1A61     		str	r2, [r3, #16]
 563:Drivers/STM32F1xx_HAL_Driver/Src/stm32f1xx_hal_uart.c **** 
 564:Drivers/STM32F1xx_HAL_Driver/Src/stm32f1xx_hal_uart.c ****   /* Enable the peripheral */
 565:Drivers/STM32F1xx_HAL_Driver/Src/stm32f1xx_hal_uart.c ****   __HAL_UART_ENABLE(huart);
 359              		.loc 1 565 0
 360 009c 7B68     		ldr	r3, [r7, #4]
 361 009e 1B68     		ldr	r3, [r3]
 362 00a0 7A68     		ldr	r2, [r7, #4]
 363 00a2 1268     		ldr	r2, [r2]
 364 00a4 D268     		ldr	r2, [r2, #12]
 365 00a6 42F40052 		orr	r2, r2, #8192
 366 00aa DA60     		str	r2, [r3, #12]
 566:Drivers/STM32F1xx_HAL_Driver/Src/stm32f1xx_hal_uart.c **** 
 567:Drivers/STM32F1xx_HAL_Driver/Src/stm32f1xx_hal_uart.c ****   /* Initialize the UART state*/
 568:Drivers/STM32F1xx_HAL_Driver/Src/stm32f1xx_hal_uart.c ****   huart->ErrorCode = HAL_UART_ERROR_NONE;
 367              		.loc 1 568 0
 368 00ac 7B68     		ldr	r3, [r7, #4]
 369 00ae 0022     		movs	r2, #0
 370 00b0 1A64     		str	r2, [r3, #64]
 569:Drivers/STM32F1xx_HAL_Driver/Src/stm32f1xx_hal_uart.c ****   huart->gState = HAL_UART_STATE_READY;
 371              		.loc 1 569 0
 372 00b2 7B68     		ldr	r3, [r7, #4]
 373 00b4 2022     		movs	r2, #32
 374 00b6 83F83D20 		strb	r2, [r3, #61]
 570:Drivers/STM32F1xx_HAL_Driver/Src/stm32f1xx_hal_uart.c ****   huart->RxState = HAL_UART_STATE_READY;
 375              		.loc 1 570 0
 376 00ba 7B68     		ldr	r3, [r7, #4]
 377 00bc 2022     		movs	r2, #32
 378 00be 83F83E20 		strb	r2, [r3, #62]
 571:Drivers/STM32F1xx_HAL_Driver/Src/stm32f1xx_hal_uart.c **** 
 572:Drivers/STM32F1xx_HAL_Driver/Src/stm32f1xx_hal_uart.c ****   return HAL_OK;
 379              		.loc 1 572 0
 380 00c2 0023     		movs	r3, #0
 381              	.L11:
 573:Drivers/STM32F1xx_HAL_Driver/Src/stm32f1xx_hal_uart.c **** }
 382              		.loc 1 573 0
 383 00c4 1846     		mov	r0, r3
 384 00c6 0837     		adds	r7, r7, #8
 385              	.LCFI13:
 386              		.cfi_def_cfa_offset 8
 387 00c8 BD46     		mov	sp, r7
 388              	.LCFI14:
 389              		.cfi_def_cfa_register 13
 390              		@ sp needed
 391 00ca 80BD     		pop	{r7, pc}
 392              		.cfi_endproc
 393              	.LFE67:
 395              		.section	.text.HAL_MultiProcessor_Init,"ax",%progbits
 396              		.align	1
 397              		.global	HAL_MultiProcessor_Init
 398              		.syntax unified
 399              		.thumb
 400              		.thumb_func
 401              		.fpu softvfp
 403              	HAL_MultiProcessor_Init:
ARM GAS  /tmp/ccRUQzex.s 			page 18


 404              	.LFB68:
 574:Drivers/STM32F1xx_HAL_Driver/Src/stm32f1xx_hal_uart.c **** 
 575:Drivers/STM32F1xx_HAL_Driver/Src/stm32f1xx_hal_uart.c **** /**
 576:Drivers/STM32F1xx_HAL_Driver/Src/stm32f1xx_hal_uart.c ****   * @brief  Initializes the Multi-Processor mode according to the specified
 577:Drivers/STM32F1xx_HAL_Driver/Src/stm32f1xx_hal_uart.c ****   *         parameters in the UART_InitTypeDef and create the associated handle.
 578:Drivers/STM32F1xx_HAL_Driver/Src/stm32f1xx_hal_uart.c ****   * @param  huart  Pointer to a UART_HandleTypeDef structure that contains
 579:Drivers/STM32F1xx_HAL_Driver/Src/stm32f1xx_hal_uart.c ****   *                the configuration information for the specified UART module.
 580:Drivers/STM32F1xx_HAL_Driver/Src/stm32f1xx_hal_uart.c ****   * @param  Address USART address
 581:Drivers/STM32F1xx_HAL_Driver/Src/stm32f1xx_hal_uart.c ****   * @param  WakeUpMethod specifies the USART wake-up method.
 582:Drivers/STM32F1xx_HAL_Driver/Src/stm32f1xx_hal_uart.c ****   *         This parameter can be one of the following values:
 583:Drivers/STM32F1xx_HAL_Driver/Src/stm32f1xx_hal_uart.c ****   *            @arg UART_WAKEUPMETHOD_IDLELINE: Wake-up by an idle line detection
 584:Drivers/STM32F1xx_HAL_Driver/Src/stm32f1xx_hal_uart.c ****   *            @arg UART_WAKEUPMETHOD_ADDRESSMARK: Wake-up by an address mark
 585:Drivers/STM32F1xx_HAL_Driver/Src/stm32f1xx_hal_uart.c ****   * @retval HAL status
 586:Drivers/STM32F1xx_HAL_Driver/Src/stm32f1xx_hal_uart.c ****   */
 587:Drivers/STM32F1xx_HAL_Driver/Src/stm32f1xx_hal_uart.c **** HAL_StatusTypeDef HAL_MultiProcessor_Init(UART_HandleTypeDef *huart, uint8_t Address, uint32_t Wake
 588:Drivers/STM32F1xx_HAL_Driver/Src/stm32f1xx_hal_uart.c **** {
 405              		.loc 1 588 0
 406              		.cfi_startproc
 407              		@ args = 0, pretend = 0, frame = 16
 408              		@ frame_needed = 1, uses_anonymous_args = 0
 409 0000 80B5     		push	{r7, lr}
 410              	.LCFI15:
 411              		.cfi_def_cfa_offset 8
 412              		.cfi_offset 7, -8
 413              		.cfi_offset 14, -4
 414 0002 84B0     		sub	sp, sp, #16
 415              	.LCFI16:
 416              		.cfi_def_cfa_offset 24
 417 0004 00AF     		add	r7, sp, #0
 418              	.LCFI17:
 419              		.cfi_def_cfa_register 7
 420 0006 F860     		str	r0, [r7, #12]
 421 0008 0B46     		mov	r3, r1
 422 000a 7A60     		str	r2, [r7, #4]
 423 000c FB72     		strb	r3, [r7, #11]
 589:Drivers/STM32F1xx_HAL_Driver/Src/stm32f1xx_hal_uart.c ****   /* Check the UART handle allocation */
 590:Drivers/STM32F1xx_HAL_Driver/Src/stm32f1xx_hal_uart.c ****   if (huart == NULL)
 424              		.loc 1 590 0
 425 000e FB68     		ldr	r3, [r7, #12]
 426 0010 002B     		cmp	r3, #0
 427 0012 01D1     		bne	.L14
 591:Drivers/STM32F1xx_HAL_Driver/Src/stm32f1xx_hal_uart.c ****   {
 592:Drivers/STM32F1xx_HAL_Driver/Src/stm32f1xx_hal_uart.c ****     return HAL_ERROR;
 428              		.loc 1 592 0
 429 0014 0123     		movs	r3, #1
 430 0016 5FE0     		b	.L15
 431              	.L14:
 593:Drivers/STM32F1xx_HAL_Driver/Src/stm32f1xx_hal_uart.c ****   }
 594:Drivers/STM32F1xx_HAL_Driver/Src/stm32f1xx_hal_uart.c **** 
 595:Drivers/STM32F1xx_HAL_Driver/Src/stm32f1xx_hal_uart.c ****   /* Check the parameters */
 596:Drivers/STM32F1xx_HAL_Driver/Src/stm32f1xx_hal_uart.c ****   assert_param(IS_UART_INSTANCE(huart->Instance));
 597:Drivers/STM32F1xx_HAL_Driver/Src/stm32f1xx_hal_uart.c **** 
 598:Drivers/STM32F1xx_HAL_Driver/Src/stm32f1xx_hal_uart.c ****   /* Check the Address & wake up method parameters */
 599:Drivers/STM32F1xx_HAL_Driver/Src/stm32f1xx_hal_uart.c ****   assert_param(IS_UART_WAKEUPMETHOD(WakeUpMethod));
 600:Drivers/STM32F1xx_HAL_Driver/Src/stm32f1xx_hal_uart.c ****   assert_param(IS_UART_ADDRESS(Address));
 601:Drivers/STM32F1xx_HAL_Driver/Src/stm32f1xx_hal_uart.c ****   assert_param(IS_UART_WORD_LENGTH(huart->Init.WordLength));
 602:Drivers/STM32F1xx_HAL_Driver/Src/stm32f1xx_hal_uart.c **** #if defined(USART_CR1_OVER8)
ARM GAS  /tmp/ccRUQzex.s 			page 19


 603:Drivers/STM32F1xx_HAL_Driver/Src/stm32f1xx_hal_uart.c ****   assert_param(IS_UART_OVERSAMPLING(huart->Init.OverSampling));
 604:Drivers/STM32F1xx_HAL_Driver/Src/stm32f1xx_hal_uart.c **** #endif /* USART_CR1_OVER8 */
 605:Drivers/STM32F1xx_HAL_Driver/Src/stm32f1xx_hal_uart.c **** 
 606:Drivers/STM32F1xx_HAL_Driver/Src/stm32f1xx_hal_uart.c ****   if (huart->gState == HAL_UART_STATE_RESET)
 432              		.loc 1 606 0
 433 0018 FB68     		ldr	r3, [r7, #12]
 434 001a 93F83D30 		ldrb	r3, [r3, #61]
 435 001e DBB2     		uxtb	r3, r3
 436 0020 002B     		cmp	r3, #0
 437 0022 06D1     		bne	.L16
 607:Drivers/STM32F1xx_HAL_Driver/Src/stm32f1xx_hal_uart.c ****   {
 608:Drivers/STM32F1xx_HAL_Driver/Src/stm32f1xx_hal_uart.c ****     /* Allocate lock resource and initialize it */
 609:Drivers/STM32F1xx_HAL_Driver/Src/stm32f1xx_hal_uart.c ****     huart->Lock = HAL_UNLOCKED;
 438              		.loc 1 609 0
 439 0024 FB68     		ldr	r3, [r7, #12]
 440 0026 0022     		movs	r2, #0
 441 0028 83F83C20 		strb	r2, [r3, #60]
 610:Drivers/STM32F1xx_HAL_Driver/Src/stm32f1xx_hal_uart.c **** 
 611:Drivers/STM32F1xx_HAL_Driver/Src/stm32f1xx_hal_uart.c **** #if (USE_HAL_UART_REGISTER_CALLBACKS == 1)
 612:Drivers/STM32F1xx_HAL_Driver/Src/stm32f1xx_hal_uart.c ****     UART_InitCallbacksToDefault(huart);
 613:Drivers/STM32F1xx_HAL_Driver/Src/stm32f1xx_hal_uart.c **** 
 614:Drivers/STM32F1xx_HAL_Driver/Src/stm32f1xx_hal_uart.c ****     if (huart->MspInitCallback == NULL)
 615:Drivers/STM32F1xx_HAL_Driver/Src/stm32f1xx_hal_uart.c ****     {
 616:Drivers/STM32F1xx_HAL_Driver/Src/stm32f1xx_hal_uart.c ****       huart->MspInitCallback = HAL_UART_MspInit;
 617:Drivers/STM32F1xx_HAL_Driver/Src/stm32f1xx_hal_uart.c ****     }
 618:Drivers/STM32F1xx_HAL_Driver/Src/stm32f1xx_hal_uart.c **** 
 619:Drivers/STM32F1xx_HAL_Driver/Src/stm32f1xx_hal_uart.c ****     /* Init the low level hardware */
 620:Drivers/STM32F1xx_HAL_Driver/Src/stm32f1xx_hal_uart.c ****     huart->MspInitCallback(huart);
 621:Drivers/STM32F1xx_HAL_Driver/Src/stm32f1xx_hal_uart.c **** #else
 622:Drivers/STM32F1xx_HAL_Driver/Src/stm32f1xx_hal_uart.c ****     /* Init the low level hardware : GPIO, CLOCK */
 623:Drivers/STM32F1xx_HAL_Driver/Src/stm32f1xx_hal_uart.c ****     HAL_UART_MspInit(huart);
 442              		.loc 1 623 0
 443 002c F868     		ldr	r0, [r7, #12]
 444 002e FFF7FEFF 		bl	HAL_UART_MspInit
 445              	.L16:
 624:Drivers/STM32F1xx_HAL_Driver/Src/stm32f1xx_hal_uart.c **** #endif /* (USE_HAL_UART_REGISTER_CALLBACKS) */
 625:Drivers/STM32F1xx_HAL_Driver/Src/stm32f1xx_hal_uart.c ****   }
 626:Drivers/STM32F1xx_HAL_Driver/Src/stm32f1xx_hal_uart.c **** 
 627:Drivers/STM32F1xx_HAL_Driver/Src/stm32f1xx_hal_uart.c ****   huart->gState = HAL_UART_STATE_BUSY;
 446              		.loc 1 627 0
 447 0032 FB68     		ldr	r3, [r7, #12]
 448 0034 2422     		movs	r2, #36
 449 0036 83F83D20 		strb	r2, [r3, #61]
 628:Drivers/STM32F1xx_HAL_Driver/Src/stm32f1xx_hal_uart.c **** 
 629:Drivers/STM32F1xx_HAL_Driver/Src/stm32f1xx_hal_uart.c ****   /* Disable the peripheral */
 630:Drivers/STM32F1xx_HAL_Driver/Src/stm32f1xx_hal_uart.c ****   __HAL_UART_DISABLE(huart);
 450              		.loc 1 630 0
 451 003a FB68     		ldr	r3, [r7, #12]
 452 003c 1B68     		ldr	r3, [r3]
 453 003e FA68     		ldr	r2, [r7, #12]
 454 0040 1268     		ldr	r2, [r2]
 455 0042 D268     		ldr	r2, [r2, #12]
 456 0044 22F40052 		bic	r2, r2, #8192
 457 0048 DA60     		str	r2, [r3, #12]
 631:Drivers/STM32F1xx_HAL_Driver/Src/stm32f1xx_hal_uart.c **** 
 632:Drivers/STM32F1xx_HAL_Driver/Src/stm32f1xx_hal_uart.c ****   /* Set the UART Communication parameters */
 633:Drivers/STM32F1xx_HAL_Driver/Src/stm32f1xx_hal_uart.c ****   UART_SetConfig(huart);
ARM GAS  /tmp/ccRUQzex.s 			page 20


 458              		.loc 1 633 0
 459 004a F868     		ldr	r0, [r7, #12]
 460 004c FFF7FEFF 		bl	UART_SetConfig
 634:Drivers/STM32F1xx_HAL_Driver/Src/stm32f1xx_hal_uart.c **** 
 635:Drivers/STM32F1xx_HAL_Driver/Src/stm32f1xx_hal_uart.c ****   /* In Multi-Processor mode, the following bits must be kept cleared:
 636:Drivers/STM32F1xx_HAL_Driver/Src/stm32f1xx_hal_uart.c ****      - LINEN and CLKEN bits in the USART_CR2 register,
 637:Drivers/STM32F1xx_HAL_Driver/Src/stm32f1xx_hal_uart.c ****      - SCEN, HDSEL and IREN  bits in the USART_CR3 register */
 638:Drivers/STM32F1xx_HAL_Driver/Src/stm32f1xx_hal_uart.c ****   CLEAR_BIT(huart->Instance->CR2, (USART_CR2_LINEN | USART_CR2_CLKEN));
 461              		.loc 1 638 0
 462 0050 FB68     		ldr	r3, [r7, #12]
 463 0052 1B68     		ldr	r3, [r3]
 464 0054 FA68     		ldr	r2, [r7, #12]
 465 0056 1268     		ldr	r2, [r2]
 466 0058 1269     		ldr	r2, [r2, #16]
 467 005a 22F49042 		bic	r2, r2, #18432
 468 005e 1A61     		str	r2, [r3, #16]
 639:Drivers/STM32F1xx_HAL_Driver/Src/stm32f1xx_hal_uart.c ****   CLEAR_BIT(huart->Instance->CR3, (USART_CR3_SCEN | USART_CR3_HDSEL | USART_CR3_IREN));
 469              		.loc 1 639 0
 470 0060 FB68     		ldr	r3, [r7, #12]
 471 0062 1B68     		ldr	r3, [r3]
 472 0064 FA68     		ldr	r2, [r7, #12]
 473 0066 1268     		ldr	r2, [r2]
 474 0068 5269     		ldr	r2, [r2, #20]
 475 006a 22F02A02 		bic	r2, r2, #42
 476 006e 5A61     		str	r2, [r3, #20]
 640:Drivers/STM32F1xx_HAL_Driver/Src/stm32f1xx_hal_uart.c **** 
 641:Drivers/STM32F1xx_HAL_Driver/Src/stm32f1xx_hal_uart.c ****   /* Set the USART address node */
 642:Drivers/STM32F1xx_HAL_Driver/Src/stm32f1xx_hal_uart.c ****   CLEAR_BIT(huart->Instance->CR2, USART_CR2_ADD);
 477              		.loc 1 642 0
 478 0070 FB68     		ldr	r3, [r7, #12]
 479 0072 1B68     		ldr	r3, [r3]
 480 0074 FA68     		ldr	r2, [r7, #12]
 481 0076 1268     		ldr	r2, [r2]
 482 0078 1269     		ldr	r2, [r2, #16]
 483 007a 22F00F02 		bic	r2, r2, #15
 484 007e 1A61     		str	r2, [r3, #16]
 643:Drivers/STM32F1xx_HAL_Driver/Src/stm32f1xx_hal_uart.c ****   SET_BIT(huart->Instance->CR2, Address);
 485              		.loc 1 643 0
 486 0080 FB68     		ldr	r3, [r7, #12]
 487 0082 1B68     		ldr	r3, [r3]
 488 0084 FA68     		ldr	r2, [r7, #12]
 489 0086 1268     		ldr	r2, [r2]
 490 0088 1169     		ldr	r1, [r2, #16]
 491 008a FA7A     		ldrb	r2, [r7, #11]	@ zero_extendqisi2
 492 008c 0A43     		orrs	r2, r2, r1
 493 008e 1A61     		str	r2, [r3, #16]
 644:Drivers/STM32F1xx_HAL_Driver/Src/stm32f1xx_hal_uart.c **** 
 645:Drivers/STM32F1xx_HAL_Driver/Src/stm32f1xx_hal_uart.c ****   /* Set the wake up method by setting the WAKE bit in the CR1 register */
 646:Drivers/STM32F1xx_HAL_Driver/Src/stm32f1xx_hal_uart.c ****   CLEAR_BIT(huart->Instance->CR1, USART_CR1_WAKE);
 494              		.loc 1 646 0
 495 0090 FB68     		ldr	r3, [r7, #12]
 496 0092 1B68     		ldr	r3, [r3]
 497 0094 FA68     		ldr	r2, [r7, #12]
 498 0096 1268     		ldr	r2, [r2]
 499 0098 D268     		ldr	r2, [r2, #12]
 500 009a 22F40062 		bic	r2, r2, #2048
 501 009e DA60     		str	r2, [r3, #12]
ARM GAS  /tmp/ccRUQzex.s 			page 21


 647:Drivers/STM32F1xx_HAL_Driver/Src/stm32f1xx_hal_uart.c ****   SET_BIT(huart->Instance->CR1, WakeUpMethod);
 502              		.loc 1 647 0
 503 00a0 FB68     		ldr	r3, [r7, #12]
 504 00a2 1B68     		ldr	r3, [r3]
 505 00a4 FA68     		ldr	r2, [r7, #12]
 506 00a6 1268     		ldr	r2, [r2]
 507 00a8 D168     		ldr	r1, [r2, #12]
 508 00aa 7A68     		ldr	r2, [r7, #4]
 509 00ac 0A43     		orrs	r2, r2, r1
 510 00ae DA60     		str	r2, [r3, #12]
 648:Drivers/STM32F1xx_HAL_Driver/Src/stm32f1xx_hal_uart.c **** 
 649:Drivers/STM32F1xx_HAL_Driver/Src/stm32f1xx_hal_uart.c ****   /* Enable the peripheral */
 650:Drivers/STM32F1xx_HAL_Driver/Src/stm32f1xx_hal_uart.c ****   __HAL_UART_ENABLE(huart);
 511              		.loc 1 650 0
 512 00b0 FB68     		ldr	r3, [r7, #12]
 513 00b2 1B68     		ldr	r3, [r3]
 514 00b4 FA68     		ldr	r2, [r7, #12]
 515 00b6 1268     		ldr	r2, [r2]
 516 00b8 D268     		ldr	r2, [r2, #12]
 517 00ba 42F40052 		orr	r2, r2, #8192
 518 00be DA60     		str	r2, [r3, #12]
 651:Drivers/STM32F1xx_HAL_Driver/Src/stm32f1xx_hal_uart.c **** 
 652:Drivers/STM32F1xx_HAL_Driver/Src/stm32f1xx_hal_uart.c ****   /* Initialize the UART state */
 653:Drivers/STM32F1xx_HAL_Driver/Src/stm32f1xx_hal_uart.c ****   huart->ErrorCode = HAL_UART_ERROR_NONE;
 519              		.loc 1 653 0
 520 00c0 FB68     		ldr	r3, [r7, #12]
 521 00c2 0022     		movs	r2, #0
 522 00c4 1A64     		str	r2, [r3, #64]
 654:Drivers/STM32F1xx_HAL_Driver/Src/stm32f1xx_hal_uart.c ****   huart->gState = HAL_UART_STATE_READY;
 523              		.loc 1 654 0
 524 00c6 FB68     		ldr	r3, [r7, #12]
 525 00c8 2022     		movs	r2, #32
 526 00ca 83F83D20 		strb	r2, [r3, #61]
 655:Drivers/STM32F1xx_HAL_Driver/Src/stm32f1xx_hal_uart.c ****   huart->RxState = HAL_UART_STATE_READY;
 527              		.loc 1 655 0
 528 00ce FB68     		ldr	r3, [r7, #12]
 529 00d0 2022     		movs	r2, #32
 530 00d2 83F83E20 		strb	r2, [r3, #62]
 656:Drivers/STM32F1xx_HAL_Driver/Src/stm32f1xx_hal_uart.c **** 
 657:Drivers/STM32F1xx_HAL_Driver/Src/stm32f1xx_hal_uart.c ****   return HAL_OK;
 531              		.loc 1 657 0
 532 00d6 0023     		movs	r3, #0
 533              	.L15:
 658:Drivers/STM32F1xx_HAL_Driver/Src/stm32f1xx_hal_uart.c **** }
 534              		.loc 1 658 0
 535 00d8 1846     		mov	r0, r3
 536 00da 1037     		adds	r7, r7, #16
 537              	.LCFI18:
 538              		.cfi_def_cfa_offset 8
 539 00dc BD46     		mov	sp, r7
 540              	.LCFI19:
 541              		.cfi_def_cfa_register 13
 542              		@ sp needed
 543 00de 80BD     		pop	{r7, pc}
 544              		.cfi_endproc
 545              	.LFE68:
 547              		.section	.text.HAL_UART_DeInit,"ax",%progbits
ARM GAS  /tmp/ccRUQzex.s 			page 22


 548              		.align	1
 549              		.global	HAL_UART_DeInit
 550              		.syntax unified
 551              		.thumb
 552              		.thumb_func
 553              		.fpu softvfp
 555              	HAL_UART_DeInit:
 556              	.LFB69:
 659:Drivers/STM32F1xx_HAL_Driver/Src/stm32f1xx_hal_uart.c **** 
 660:Drivers/STM32F1xx_HAL_Driver/Src/stm32f1xx_hal_uart.c **** /**
 661:Drivers/STM32F1xx_HAL_Driver/Src/stm32f1xx_hal_uart.c ****   * @brief  DeInitializes the UART peripheral.
 662:Drivers/STM32F1xx_HAL_Driver/Src/stm32f1xx_hal_uart.c ****   * @param  huart  Pointer to a UART_HandleTypeDef structure that contains
 663:Drivers/STM32F1xx_HAL_Driver/Src/stm32f1xx_hal_uart.c ****   *                the configuration information for the specified UART module.
 664:Drivers/STM32F1xx_HAL_Driver/Src/stm32f1xx_hal_uart.c ****   * @retval HAL status
 665:Drivers/STM32F1xx_HAL_Driver/Src/stm32f1xx_hal_uart.c ****   */
 666:Drivers/STM32F1xx_HAL_Driver/Src/stm32f1xx_hal_uart.c **** HAL_StatusTypeDef HAL_UART_DeInit(UART_HandleTypeDef *huart)
 667:Drivers/STM32F1xx_HAL_Driver/Src/stm32f1xx_hal_uart.c **** {
 557              		.loc 1 667 0
 558              		.cfi_startproc
 559              		@ args = 0, pretend = 0, frame = 8
 560              		@ frame_needed = 1, uses_anonymous_args = 0
 561 0000 80B5     		push	{r7, lr}
 562              	.LCFI20:
 563              		.cfi_def_cfa_offset 8
 564              		.cfi_offset 7, -8
 565              		.cfi_offset 14, -4
 566 0002 82B0     		sub	sp, sp, #8
 567              	.LCFI21:
 568              		.cfi_def_cfa_offset 16
 569 0004 00AF     		add	r7, sp, #0
 570              	.LCFI22:
 571              		.cfi_def_cfa_register 7
 572 0006 7860     		str	r0, [r7, #4]
 668:Drivers/STM32F1xx_HAL_Driver/Src/stm32f1xx_hal_uart.c ****   /* Check the UART handle allocation */
 669:Drivers/STM32F1xx_HAL_Driver/Src/stm32f1xx_hal_uart.c ****   if (huart == NULL)
 573              		.loc 1 669 0
 574 0008 7B68     		ldr	r3, [r7, #4]
 575 000a 002B     		cmp	r3, #0
 576 000c 01D1     		bne	.L18
 670:Drivers/STM32F1xx_HAL_Driver/Src/stm32f1xx_hal_uart.c ****   {
 671:Drivers/STM32F1xx_HAL_Driver/Src/stm32f1xx_hal_uart.c ****     return HAL_ERROR;
 577              		.loc 1 671 0
 578 000e 0123     		movs	r3, #1
 579 0010 21E0     		b	.L19
 580              	.L18:
 672:Drivers/STM32F1xx_HAL_Driver/Src/stm32f1xx_hal_uart.c ****   }
 673:Drivers/STM32F1xx_HAL_Driver/Src/stm32f1xx_hal_uart.c **** 
 674:Drivers/STM32F1xx_HAL_Driver/Src/stm32f1xx_hal_uart.c ****   /* Check the parameters */
 675:Drivers/STM32F1xx_HAL_Driver/Src/stm32f1xx_hal_uart.c ****   assert_param(IS_UART_INSTANCE(huart->Instance));
 676:Drivers/STM32F1xx_HAL_Driver/Src/stm32f1xx_hal_uart.c **** 
 677:Drivers/STM32F1xx_HAL_Driver/Src/stm32f1xx_hal_uart.c ****   huart->gState = HAL_UART_STATE_BUSY;
 581              		.loc 1 677 0
 582 0012 7B68     		ldr	r3, [r7, #4]
 583 0014 2422     		movs	r2, #36
 584 0016 83F83D20 		strb	r2, [r3, #61]
 678:Drivers/STM32F1xx_HAL_Driver/Src/stm32f1xx_hal_uart.c **** 
 679:Drivers/STM32F1xx_HAL_Driver/Src/stm32f1xx_hal_uart.c ****   /* Disable the Peripheral */
ARM GAS  /tmp/ccRUQzex.s 			page 23


 680:Drivers/STM32F1xx_HAL_Driver/Src/stm32f1xx_hal_uart.c ****   __HAL_UART_DISABLE(huart);
 585              		.loc 1 680 0
 586 001a 7B68     		ldr	r3, [r7, #4]
 587 001c 1B68     		ldr	r3, [r3]
 588 001e 7A68     		ldr	r2, [r7, #4]
 589 0020 1268     		ldr	r2, [r2]
 590 0022 D268     		ldr	r2, [r2, #12]
 591 0024 22F40052 		bic	r2, r2, #8192
 592 0028 DA60     		str	r2, [r3, #12]
 681:Drivers/STM32F1xx_HAL_Driver/Src/stm32f1xx_hal_uart.c **** 
 682:Drivers/STM32F1xx_HAL_Driver/Src/stm32f1xx_hal_uart.c **** #if (USE_HAL_UART_REGISTER_CALLBACKS == 1)
 683:Drivers/STM32F1xx_HAL_Driver/Src/stm32f1xx_hal_uart.c ****   if (huart->MspDeInitCallback == NULL)
 684:Drivers/STM32F1xx_HAL_Driver/Src/stm32f1xx_hal_uart.c ****   {
 685:Drivers/STM32F1xx_HAL_Driver/Src/stm32f1xx_hal_uart.c ****     huart->MspDeInitCallback = HAL_UART_MspDeInit;
 686:Drivers/STM32F1xx_HAL_Driver/Src/stm32f1xx_hal_uart.c ****   }
 687:Drivers/STM32F1xx_HAL_Driver/Src/stm32f1xx_hal_uart.c ****   /* DeInit the low level hardware */
 688:Drivers/STM32F1xx_HAL_Driver/Src/stm32f1xx_hal_uart.c ****   huart->MspDeInitCallback(huart);
 689:Drivers/STM32F1xx_HAL_Driver/Src/stm32f1xx_hal_uart.c **** #else
 690:Drivers/STM32F1xx_HAL_Driver/Src/stm32f1xx_hal_uart.c ****   /* DeInit the low level hardware */
 691:Drivers/STM32F1xx_HAL_Driver/Src/stm32f1xx_hal_uart.c ****   HAL_UART_MspDeInit(huart);
 593              		.loc 1 691 0
 594 002a 7868     		ldr	r0, [r7, #4]
 595 002c FFF7FEFF 		bl	HAL_UART_MspDeInit
 692:Drivers/STM32F1xx_HAL_Driver/Src/stm32f1xx_hal_uart.c **** #endif /* (USE_HAL_UART_REGISTER_CALLBACKS) */
 693:Drivers/STM32F1xx_HAL_Driver/Src/stm32f1xx_hal_uart.c **** 
 694:Drivers/STM32F1xx_HAL_Driver/Src/stm32f1xx_hal_uart.c ****   huart->ErrorCode = HAL_UART_ERROR_NONE;
 596              		.loc 1 694 0
 597 0030 7B68     		ldr	r3, [r7, #4]
 598 0032 0022     		movs	r2, #0
 599 0034 1A64     		str	r2, [r3, #64]
 695:Drivers/STM32F1xx_HAL_Driver/Src/stm32f1xx_hal_uart.c ****   huart->gState = HAL_UART_STATE_RESET;
 600              		.loc 1 695 0
 601 0036 7B68     		ldr	r3, [r7, #4]
 602 0038 0022     		movs	r2, #0
 603 003a 83F83D20 		strb	r2, [r3, #61]
 696:Drivers/STM32F1xx_HAL_Driver/Src/stm32f1xx_hal_uart.c ****   huart->RxState = HAL_UART_STATE_RESET;
 604              		.loc 1 696 0
 605 003e 7B68     		ldr	r3, [r7, #4]
 606 0040 0022     		movs	r2, #0
 607 0042 83F83E20 		strb	r2, [r3, #62]
 697:Drivers/STM32F1xx_HAL_Driver/Src/stm32f1xx_hal_uart.c ****   huart->ReceptionType = HAL_UART_RECEPTION_STANDARD;
 608              		.loc 1 697 0
 609 0046 7B68     		ldr	r3, [r7, #4]
 610 0048 0022     		movs	r2, #0
 611 004a 1A63     		str	r2, [r3, #48]
 698:Drivers/STM32F1xx_HAL_Driver/Src/stm32f1xx_hal_uart.c **** 
 699:Drivers/STM32F1xx_HAL_Driver/Src/stm32f1xx_hal_uart.c ****   /* Process Unlock */
 700:Drivers/STM32F1xx_HAL_Driver/Src/stm32f1xx_hal_uart.c ****   __HAL_UNLOCK(huart);
 612              		.loc 1 700 0
 613 004c 7B68     		ldr	r3, [r7, #4]
 614 004e 0022     		movs	r2, #0
 615 0050 83F83C20 		strb	r2, [r3, #60]
 701:Drivers/STM32F1xx_HAL_Driver/Src/stm32f1xx_hal_uart.c **** 
 702:Drivers/STM32F1xx_HAL_Driver/Src/stm32f1xx_hal_uart.c ****   return HAL_OK;
 616              		.loc 1 702 0
 617 0054 0023     		movs	r3, #0
 618              	.L19:
ARM GAS  /tmp/ccRUQzex.s 			page 24


 703:Drivers/STM32F1xx_HAL_Driver/Src/stm32f1xx_hal_uart.c **** }
 619              		.loc 1 703 0
 620 0056 1846     		mov	r0, r3
 621 0058 0837     		adds	r7, r7, #8
 622              	.LCFI23:
 623              		.cfi_def_cfa_offset 8
 624 005a BD46     		mov	sp, r7
 625              	.LCFI24:
 626              		.cfi_def_cfa_register 13
 627              		@ sp needed
 628 005c 80BD     		pop	{r7, pc}
 629              		.cfi_endproc
 630              	.LFE69:
 632              		.section	.text.HAL_UART_MspInit,"ax",%progbits
 633              		.align	1
 634              		.weak	HAL_UART_MspInit
 635              		.syntax unified
 636              		.thumb
 637              		.thumb_func
 638              		.fpu softvfp
 640              	HAL_UART_MspInit:
 641              	.LFB70:
 704:Drivers/STM32F1xx_HAL_Driver/Src/stm32f1xx_hal_uart.c **** 
 705:Drivers/STM32F1xx_HAL_Driver/Src/stm32f1xx_hal_uart.c **** /**
 706:Drivers/STM32F1xx_HAL_Driver/Src/stm32f1xx_hal_uart.c ****   * @brief  UART MSP Init.
 707:Drivers/STM32F1xx_HAL_Driver/Src/stm32f1xx_hal_uart.c ****   * @param  huart  Pointer to a UART_HandleTypeDef structure that contains
 708:Drivers/STM32F1xx_HAL_Driver/Src/stm32f1xx_hal_uart.c ****   *                the configuration information for the specified UART module.
 709:Drivers/STM32F1xx_HAL_Driver/Src/stm32f1xx_hal_uart.c ****   * @retval None
 710:Drivers/STM32F1xx_HAL_Driver/Src/stm32f1xx_hal_uart.c ****   */
 711:Drivers/STM32F1xx_HAL_Driver/Src/stm32f1xx_hal_uart.c **** __weak void HAL_UART_MspInit(UART_HandleTypeDef *huart)
 712:Drivers/STM32F1xx_HAL_Driver/Src/stm32f1xx_hal_uart.c **** {
 642              		.loc 1 712 0
 643              		.cfi_startproc
 644              		@ args = 0, pretend = 0, frame = 8
 645              		@ frame_needed = 1, uses_anonymous_args = 0
 646              		@ link register save eliminated.
 647 0000 80B4     		push	{r7}
 648              	.LCFI25:
 649              		.cfi_def_cfa_offset 4
 650              		.cfi_offset 7, -4
 651 0002 83B0     		sub	sp, sp, #12
 652              	.LCFI26:
 653              		.cfi_def_cfa_offset 16
 654 0004 00AF     		add	r7, sp, #0
 655              	.LCFI27:
 656              		.cfi_def_cfa_register 7
 657 0006 7860     		str	r0, [r7, #4]
 713:Drivers/STM32F1xx_HAL_Driver/Src/stm32f1xx_hal_uart.c ****   /* Prevent unused argument(s) compilation warning */
 714:Drivers/STM32F1xx_HAL_Driver/Src/stm32f1xx_hal_uart.c ****   UNUSED(huart);
 715:Drivers/STM32F1xx_HAL_Driver/Src/stm32f1xx_hal_uart.c ****   /* NOTE: This function should not be modified, when the callback is needed,
 716:Drivers/STM32F1xx_HAL_Driver/Src/stm32f1xx_hal_uart.c ****            the HAL_UART_MspInit could be implemented in the user file
 717:Drivers/STM32F1xx_HAL_Driver/Src/stm32f1xx_hal_uart.c ****    */
 718:Drivers/STM32F1xx_HAL_Driver/Src/stm32f1xx_hal_uart.c **** }
 658              		.loc 1 718 0
 659 0008 00BF     		nop
 660 000a 0C37     		adds	r7, r7, #12
 661              	.LCFI28:
ARM GAS  /tmp/ccRUQzex.s 			page 25


 662              		.cfi_def_cfa_offset 4
 663 000c BD46     		mov	sp, r7
 664              	.LCFI29:
 665              		.cfi_def_cfa_register 13
 666              		@ sp needed
 667 000e 80BC     		pop	{r7}
 668              	.LCFI30:
 669              		.cfi_restore 7
 670              		.cfi_def_cfa_offset 0
 671 0010 7047     		bx	lr
 672              		.cfi_endproc
 673              	.LFE70:
 675              		.section	.text.HAL_UART_MspDeInit,"ax",%progbits
 676              		.align	1
 677              		.weak	HAL_UART_MspDeInit
 678              		.syntax unified
 679              		.thumb
 680              		.thumb_func
 681              		.fpu softvfp
 683              	HAL_UART_MspDeInit:
 684              	.LFB71:
 719:Drivers/STM32F1xx_HAL_Driver/Src/stm32f1xx_hal_uart.c **** 
 720:Drivers/STM32F1xx_HAL_Driver/Src/stm32f1xx_hal_uart.c **** /**
 721:Drivers/STM32F1xx_HAL_Driver/Src/stm32f1xx_hal_uart.c ****   * @brief  UART MSP DeInit.
 722:Drivers/STM32F1xx_HAL_Driver/Src/stm32f1xx_hal_uart.c ****   * @param  huart  Pointer to a UART_HandleTypeDef structure that contains
 723:Drivers/STM32F1xx_HAL_Driver/Src/stm32f1xx_hal_uart.c ****   *                the configuration information for the specified UART module.
 724:Drivers/STM32F1xx_HAL_Driver/Src/stm32f1xx_hal_uart.c ****   * @retval None
 725:Drivers/STM32F1xx_HAL_Driver/Src/stm32f1xx_hal_uart.c ****   */
 726:Drivers/STM32F1xx_HAL_Driver/Src/stm32f1xx_hal_uart.c **** __weak void HAL_UART_MspDeInit(UART_HandleTypeDef *huart)
 727:Drivers/STM32F1xx_HAL_Driver/Src/stm32f1xx_hal_uart.c **** {
 685              		.loc 1 727 0
 686              		.cfi_startproc
 687              		@ args = 0, pretend = 0, frame = 8
 688              		@ frame_needed = 1, uses_anonymous_args = 0
 689              		@ link register save eliminated.
 690 0000 80B4     		push	{r7}
 691              	.LCFI31:
 692              		.cfi_def_cfa_offset 4
 693              		.cfi_offset 7, -4
 694 0002 83B0     		sub	sp, sp, #12
 695              	.LCFI32:
 696              		.cfi_def_cfa_offset 16
 697 0004 00AF     		add	r7, sp, #0
 698              	.LCFI33:
 699              		.cfi_def_cfa_register 7
 700 0006 7860     		str	r0, [r7, #4]
 728:Drivers/STM32F1xx_HAL_Driver/Src/stm32f1xx_hal_uart.c ****   /* Prevent unused argument(s) compilation warning */
 729:Drivers/STM32F1xx_HAL_Driver/Src/stm32f1xx_hal_uart.c ****   UNUSED(huart);
 730:Drivers/STM32F1xx_HAL_Driver/Src/stm32f1xx_hal_uart.c ****   /* NOTE: This function should not be modified, when the callback is needed,
 731:Drivers/STM32F1xx_HAL_Driver/Src/stm32f1xx_hal_uart.c ****            the HAL_UART_MspDeInit could be implemented in the user file
 732:Drivers/STM32F1xx_HAL_Driver/Src/stm32f1xx_hal_uart.c ****    */
 733:Drivers/STM32F1xx_HAL_Driver/Src/stm32f1xx_hal_uart.c **** }
 701              		.loc 1 733 0
 702 0008 00BF     		nop
 703 000a 0C37     		adds	r7, r7, #12
 704              	.LCFI34:
 705              		.cfi_def_cfa_offset 4
ARM GAS  /tmp/ccRUQzex.s 			page 26


 706 000c BD46     		mov	sp, r7
 707              	.LCFI35:
 708              		.cfi_def_cfa_register 13
 709              		@ sp needed
 710 000e 80BC     		pop	{r7}
 711              	.LCFI36:
 712              		.cfi_restore 7
 713              		.cfi_def_cfa_offset 0
 714 0010 7047     		bx	lr
 715              		.cfi_endproc
 716              	.LFE71:
 718              		.section	.text.HAL_UART_Transmit,"ax",%progbits
 719              		.align	1
 720              		.global	HAL_UART_Transmit
 721              		.syntax unified
 722              		.thumb
 723              		.thumb_func
 724              		.fpu softvfp
 726              	HAL_UART_Transmit:
 727              	.LFB72:
 734:Drivers/STM32F1xx_HAL_Driver/Src/stm32f1xx_hal_uart.c **** 
 735:Drivers/STM32F1xx_HAL_Driver/Src/stm32f1xx_hal_uart.c **** #if (USE_HAL_UART_REGISTER_CALLBACKS == 1)
 736:Drivers/STM32F1xx_HAL_Driver/Src/stm32f1xx_hal_uart.c **** /**
 737:Drivers/STM32F1xx_HAL_Driver/Src/stm32f1xx_hal_uart.c ****   * @brief  Register a User UART Callback
 738:Drivers/STM32F1xx_HAL_Driver/Src/stm32f1xx_hal_uart.c ****   *         To be used instead of the weak predefined callback
 739:Drivers/STM32F1xx_HAL_Driver/Src/stm32f1xx_hal_uart.c ****   * @param  huart uart handle
 740:Drivers/STM32F1xx_HAL_Driver/Src/stm32f1xx_hal_uart.c ****   * @param  CallbackID ID of the callback to be registered
 741:Drivers/STM32F1xx_HAL_Driver/Src/stm32f1xx_hal_uart.c ****   *         This parameter can be one of the following values:
 742:Drivers/STM32F1xx_HAL_Driver/Src/stm32f1xx_hal_uart.c ****   *           @arg @ref HAL_UART_TX_HALFCOMPLETE_CB_ID Tx Half Complete Callback ID
 743:Drivers/STM32F1xx_HAL_Driver/Src/stm32f1xx_hal_uart.c ****   *           @arg @ref HAL_UART_TX_COMPLETE_CB_ID Tx Complete Callback ID
 744:Drivers/STM32F1xx_HAL_Driver/Src/stm32f1xx_hal_uart.c ****   *           @arg @ref HAL_UART_RX_HALFCOMPLETE_CB_ID Rx Half Complete Callback ID
 745:Drivers/STM32F1xx_HAL_Driver/Src/stm32f1xx_hal_uart.c ****   *           @arg @ref HAL_UART_RX_COMPLETE_CB_ID Rx Complete Callback ID
 746:Drivers/STM32F1xx_HAL_Driver/Src/stm32f1xx_hal_uart.c ****   *           @arg @ref HAL_UART_ERROR_CB_ID Error Callback ID
 747:Drivers/STM32F1xx_HAL_Driver/Src/stm32f1xx_hal_uart.c ****   *           @arg @ref HAL_UART_ABORT_COMPLETE_CB_ID Abort Complete Callback ID
 748:Drivers/STM32F1xx_HAL_Driver/Src/stm32f1xx_hal_uart.c ****   *           @arg @ref HAL_UART_ABORT_TRANSMIT_COMPLETE_CB_ID Abort Transmit Complete Callback ID
 749:Drivers/STM32F1xx_HAL_Driver/Src/stm32f1xx_hal_uart.c ****   *           @arg @ref HAL_UART_ABORT_RECEIVE_COMPLETE_CB_ID Abort Receive Complete Callback ID
 750:Drivers/STM32F1xx_HAL_Driver/Src/stm32f1xx_hal_uart.c ****   *           @arg @ref HAL_UART_MSPINIT_CB_ID MspInit Callback ID
 751:Drivers/STM32F1xx_HAL_Driver/Src/stm32f1xx_hal_uart.c ****   *           @arg @ref HAL_UART_MSPDEINIT_CB_ID MspDeInit Callback ID
 752:Drivers/STM32F1xx_HAL_Driver/Src/stm32f1xx_hal_uart.c ****   * @param  pCallback pointer to the Callback function
 753:Drivers/STM32F1xx_HAL_Driver/Src/stm32f1xx_hal_uart.c ****   * @retval HAL status
 754:Drivers/STM32F1xx_HAL_Driver/Src/stm32f1xx_hal_uart.c ****   */
 755:Drivers/STM32F1xx_HAL_Driver/Src/stm32f1xx_hal_uart.c **** HAL_StatusTypeDef HAL_UART_RegisterCallback(UART_HandleTypeDef *huart, HAL_UART_CallbackIDTypeDef C
 756:Drivers/STM32F1xx_HAL_Driver/Src/stm32f1xx_hal_uart.c **** {
 757:Drivers/STM32F1xx_HAL_Driver/Src/stm32f1xx_hal_uart.c ****   HAL_StatusTypeDef status = HAL_OK;
 758:Drivers/STM32F1xx_HAL_Driver/Src/stm32f1xx_hal_uart.c **** 
 759:Drivers/STM32F1xx_HAL_Driver/Src/stm32f1xx_hal_uart.c ****   if (pCallback == NULL)
 760:Drivers/STM32F1xx_HAL_Driver/Src/stm32f1xx_hal_uart.c ****   {
 761:Drivers/STM32F1xx_HAL_Driver/Src/stm32f1xx_hal_uart.c ****     /* Update the error code */
 762:Drivers/STM32F1xx_HAL_Driver/Src/stm32f1xx_hal_uart.c ****     huart->ErrorCode |= HAL_UART_ERROR_INVALID_CALLBACK;
 763:Drivers/STM32F1xx_HAL_Driver/Src/stm32f1xx_hal_uart.c **** 
 764:Drivers/STM32F1xx_HAL_Driver/Src/stm32f1xx_hal_uart.c ****     return HAL_ERROR;
 765:Drivers/STM32F1xx_HAL_Driver/Src/stm32f1xx_hal_uart.c ****   }
 766:Drivers/STM32F1xx_HAL_Driver/Src/stm32f1xx_hal_uart.c ****   /* Process locked */
 767:Drivers/STM32F1xx_HAL_Driver/Src/stm32f1xx_hal_uart.c ****   __HAL_LOCK(huart);
 768:Drivers/STM32F1xx_HAL_Driver/Src/stm32f1xx_hal_uart.c **** 
 769:Drivers/STM32F1xx_HAL_Driver/Src/stm32f1xx_hal_uart.c ****   if (huart->gState == HAL_UART_STATE_READY)
 770:Drivers/STM32F1xx_HAL_Driver/Src/stm32f1xx_hal_uart.c ****   {
ARM GAS  /tmp/ccRUQzex.s 			page 27


 771:Drivers/STM32F1xx_HAL_Driver/Src/stm32f1xx_hal_uart.c ****     switch (CallbackID)
 772:Drivers/STM32F1xx_HAL_Driver/Src/stm32f1xx_hal_uart.c ****     {
 773:Drivers/STM32F1xx_HAL_Driver/Src/stm32f1xx_hal_uart.c ****       case HAL_UART_TX_HALFCOMPLETE_CB_ID :
 774:Drivers/STM32F1xx_HAL_Driver/Src/stm32f1xx_hal_uart.c ****         huart->TxHalfCpltCallback = pCallback;
 775:Drivers/STM32F1xx_HAL_Driver/Src/stm32f1xx_hal_uart.c ****         break;
 776:Drivers/STM32F1xx_HAL_Driver/Src/stm32f1xx_hal_uart.c **** 
 777:Drivers/STM32F1xx_HAL_Driver/Src/stm32f1xx_hal_uart.c ****       case HAL_UART_TX_COMPLETE_CB_ID :
 778:Drivers/STM32F1xx_HAL_Driver/Src/stm32f1xx_hal_uart.c ****         huart->TxCpltCallback = pCallback;
 779:Drivers/STM32F1xx_HAL_Driver/Src/stm32f1xx_hal_uart.c ****         break;
 780:Drivers/STM32F1xx_HAL_Driver/Src/stm32f1xx_hal_uart.c **** 
 781:Drivers/STM32F1xx_HAL_Driver/Src/stm32f1xx_hal_uart.c ****       case HAL_UART_RX_HALFCOMPLETE_CB_ID :
 782:Drivers/STM32F1xx_HAL_Driver/Src/stm32f1xx_hal_uart.c ****         huart->RxHalfCpltCallback = pCallback;
 783:Drivers/STM32F1xx_HAL_Driver/Src/stm32f1xx_hal_uart.c ****         break;
 784:Drivers/STM32F1xx_HAL_Driver/Src/stm32f1xx_hal_uart.c **** 
 785:Drivers/STM32F1xx_HAL_Driver/Src/stm32f1xx_hal_uart.c ****       case HAL_UART_RX_COMPLETE_CB_ID :
 786:Drivers/STM32F1xx_HAL_Driver/Src/stm32f1xx_hal_uart.c ****         huart->RxCpltCallback = pCallback;
 787:Drivers/STM32F1xx_HAL_Driver/Src/stm32f1xx_hal_uart.c ****         break;
 788:Drivers/STM32F1xx_HAL_Driver/Src/stm32f1xx_hal_uart.c **** 
 789:Drivers/STM32F1xx_HAL_Driver/Src/stm32f1xx_hal_uart.c ****       case HAL_UART_ERROR_CB_ID :
 790:Drivers/STM32F1xx_HAL_Driver/Src/stm32f1xx_hal_uart.c ****         huart->ErrorCallback = pCallback;
 791:Drivers/STM32F1xx_HAL_Driver/Src/stm32f1xx_hal_uart.c ****         break;
 792:Drivers/STM32F1xx_HAL_Driver/Src/stm32f1xx_hal_uart.c **** 
 793:Drivers/STM32F1xx_HAL_Driver/Src/stm32f1xx_hal_uart.c ****       case HAL_UART_ABORT_COMPLETE_CB_ID :
 794:Drivers/STM32F1xx_HAL_Driver/Src/stm32f1xx_hal_uart.c ****         huart->AbortCpltCallback = pCallback;
 795:Drivers/STM32F1xx_HAL_Driver/Src/stm32f1xx_hal_uart.c ****         break;
 796:Drivers/STM32F1xx_HAL_Driver/Src/stm32f1xx_hal_uart.c **** 
 797:Drivers/STM32F1xx_HAL_Driver/Src/stm32f1xx_hal_uart.c ****       case HAL_UART_ABORT_TRANSMIT_COMPLETE_CB_ID :
 798:Drivers/STM32F1xx_HAL_Driver/Src/stm32f1xx_hal_uart.c ****         huart->AbortTransmitCpltCallback = pCallback;
 799:Drivers/STM32F1xx_HAL_Driver/Src/stm32f1xx_hal_uart.c ****         break;
 800:Drivers/STM32F1xx_HAL_Driver/Src/stm32f1xx_hal_uart.c **** 
 801:Drivers/STM32F1xx_HAL_Driver/Src/stm32f1xx_hal_uart.c ****       case HAL_UART_ABORT_RECEIVE_COMPLETE_CB_ID :
 802:Drivers/STM32F1xx_HAL_Driver/Src/stm32f1xx_hal_uart.c ****         huart->AbortReceiveCpltCallback = pCallback;
 803:Drivers/STM32F1xx_HAL_Driver/Src/stm32f1xx_hal_uart.c ****         break;
 804:Drivers/STM32F1xx_HAL_Driver/Src/stm32f1xx_hal_uart.c **** 
 805:Drivers/STM32F1xx_HAL_Driver/Src/stm32f1xx_hal_uart.c ****       case HAL_UART_MSPINIT_CB_ID :
 806:Drivers/STM32F1xx_HAL_Driver/Src/stm32f1xx_hal_uart.c ****         huart->MspInitCallback = pCallback;
 807:Drivers/STM32F1xx_HAL_Driver/Src/stm32f1xx_hal_uart.c ****         break;
 808:Drivers/STM32F1xx_HAL_Driver/Src/stm32f1xx_hal_uart.c **** 
 809:Drivers/STM32F1xx_HAL_Driver/Src/stm32f1xx_hal_uart.c ****       case HAL_UART_MSPDEINIT_CB_ID :
 810:Drivers/STM32F1xx_HAL_Driver/Src/stm32f1xx_hal_uart.c ****         huart->MspDeInitCallback = pCallback;
 811:Drivers/STM32F1xx_HAL_Driver/Src/stm32f1xx_hal_uart.c ****         break;
 812:Drivers/STM32F1xx_HAL_Driver/Src/stm32f1xx_hal_uart.c **** 
 813:Drivers/STM32F1xx_HAL_Driver/Src/stm32f1xx_hal_uart.c ****       default :
 814:Drivers/STM32F1xx_HAL_Driver/Src/stm32f1xx_hal_uart.c ****         /* Update the error code */
 815:Drivers/STM32F1xx_HAL_Driver/Src/stm32f1xx_hal_uart.c ****         huart->ErrorCode |= HAL_UART_ERROR_INVALID_CALLBACK;
 816:Drivers/STM32F1xx_HAL_Driver/Src/stm32f1xx_hal_uart.c **** 
 817:Drivers/STM32F1xx_HAL_Driver/Src/stm32f1xx_hal_uart.c ****         /* Return error status */
 818:Drivers/STM32F1xx_HAL_Driver/Src/stm32f1xx_hal_uart.c ****         status =  HAL_ERROR;
 819:Drivers/STM32F1xx_HAL_Driver/Src/stm32f1xx_hal_uart.c ****         break;
 820:Drivers/STM32F1xx_HAL_Driver/Src/stm32f1xx_hal_uart.c ****     }
 821:Drivers/STM32F1xx_HAL_Driver/Src/stm32f1xx_hal_uart.c ****   }
 822:Drivers/STM32F1xx_HAL_Driver/Src/stm32f1xx_hal_uart.c ****   else if (huart->gState == HAL_UART_STATE_RESET)
 823:Drivers/STM32F1xx_HAL_Driver/Src/stm32f1xx_hal_uart.c ****   {
 824:Drivers/STM32F1xx_HAL_Driver/Src/stm32f1xx_hal_uart.c ****     switch (CallbackID)
 825:Drivers/STM32F1xx_HAL_Driver/Src/stm32f1xx_hal_uart.c ****     {
 826:Drivers/STM32F1xx_HAL_Driver/Src/stm32f1xx_hal_uart.c ****       case HAL_UART_MSPINIT_CB_ID :
 827:Drivers/STM32F1xx_HAL_Driver/Src/stm32f1xx_hal_uart.c ****         huart->MspInitCallback = pCallback;
ARM GAS  /tmp/ccRUQzex.s 			page 28


 828:Drivers/STM32F1xx_HAL_Driver/Src/stm32f1xx_hal_uart.c ****         break;
 829:Drivers/STM32F1xx_HAL_Driver/Src/stm32f1xx_hal_uart.c **** 
 830:Drivers/STM32F1xx_HAL_Driver/Src/stm32f1xx_hal_uart.c ****       case HAL_UART_MSPDEINIT_CB_ID :
 831:Drivers/STM32F1xx_HAL_Driver/Src/stm32f1xx_hal_uart.c ****         huart->MspDeInitCallback = pCallback;
 832:Drivers/STM32F1xx_HAL_Driver/Src/stm32f1xx_hal_uart.c ****         break;
 833:Drivers/STM32F1xx_HAL_Driver/Src/stm32f1xx_hal_uart.c **** 
 834:Drivers/STM32F1xx_HAL_Driver/Src/stm32f1xx_hal_uart.c ****       default :
 835:Drivers/STM32F1xx_HAL_Driver/Src/stm32f1xx_hal_uart.c ****         /* Update the error code */
 836:Drivers/STM32F1xx_HAL_Driver/Src/stm32f1xx_hal_uart.c ****         huart->ErrorCode |= HAL_UART_ERROR_INVALID_CALLBACK;
 837:Drivers/STM32F1xx_HAL_Driver/Src/stm32f1xx_hal_uart.c **** 
 838:Drivers/STM32F1xx_HAL_Driver/Src/stm32f1xx_hal_uart.c ****         /* Return error status */
 839:Drivers/STM32F1xx_HAL_Driver/Src/stm32f1xx_hal_uart.c ****         status =  HAL_ERROR;
 840:Drivers/STM32F1xx_HAL_Driver/Src/stm32f1xx_hal_uart.c ****         break;
 841:Drivers/STM32F1xx_HAL_Driver/Src/stm32f1xx_hal_uart.c ****     }
 842:Drivers/STM32F1xx_HAL_Driver/Src/stm32f1xx_hal_uart.c ****   }
 843:Drivers/STM32F1xx_HAL_Driver/Src/stm32f1xx_hal_uart.c ****   else
 844:Drivers/STM32F1xx_HAL_Driver/Src/stm32f1xx_hal_uart.c ****   {
 845:Drivers/STM32F1xx_HAL_Driver/Src/stm32f1xx_hal_uart.c ****     /* Update the error code */
 846:Drivers/STM32F1xx_HAL_Driver/Src/stm32f1xx_hal_uart.c ****     huart->ErrorCode |= HAL_UART_ERROR_INVALID_CALLBACK;
 847:Drivers/STM32F1xx_HAL_Driver/Src/stm32f1xx_hal_uart.c **** 
 848:Drivers/STM32F1xx_HAL_Driver/Src/stm32f1xx_hal_uart.c ****     /* Return error status */
 849:Drivers/STM32F1xx_HAL_Driver/Src/stm32f1xx_hal_uart.c ****     status =  HAL_ERROR;
 850:Drivers/STM32F1xx_HAL_Driver/Src/stm32f1xx_hal_uart.c ****   }
 851:Drivers/STM32F1xx_HAL_Driver/Src/stm32f1xx_hal_uart.c **** 
 852:Drivers/STM32F1xx_HAL_Driver/Src/stm32f1xx_hal_uart.c ****   /* Release Lock */
 853:Drivers/STM32F1xx_HAL_Driver/Src/stm32f1xx_hal_uart.c ****   __HAL_UNLOCK(huart);
 854:Drivers/STM32F1xx_HAL_Driver/Src/stm32f1xx_hal_uart.c **** 
 855:Drivers/STM32F1xx_HAL_Driver/Src/stm32f1xx_hal_uart.c ****   return status;
 856:Drivers/STM32F1xx_HAL_Driver/Src/stm32f1xx_hal_uart.c **** }
 857:Drivers/STM32F1xx_HAL_Driver/Src/stm32f1xx_hal_uart.c **** 
 858:Drivers/STM32F1xx_HAL_Driver/Src/stm32f1xx_hal_uart.c **** /**
 859:Drivers/STM32F1xx_HAL_Driver/Src/stm32f1xx_hal_uart.c ****   * @brief  Unregister an UART Callback
 860:Drivers/STM32F1xx_HAL_Driver/Src/stm32f1xx_hal_uart.c ****   *         UART callaback is redirected to the weak predefined callback
 861:Drivers/STM32F1xx_HAL_Driver/Src/stm32f1xx_hal_uart.c ****   * @param  huart uart handle
 862:Drivers/STM32F1xx_HAL_Driver/Src/stm32f1xx_hal_uart.c ****   * @param  CallbackID ID of the callback to be unregistered
 863:Drivers/STM32F1xx_HAL_Driver/Src/stm32f1xx_hal_uart.c ****   *         This parameter can be one of the following values:
 864:Drivers/STM32F1xx_HAL_Driver/Src/stm32f1xx_hal_uart.c ****   *           @arg @ref HAL_UART_TX_HALFCOMPLETE_CB_ID Tx Half Complete Callback ID
 865:Drivers/STM32F1xx_HAL_Driver/Src/stm32f1xx_hal_uart.c ****   *           @arg @ref HAL_UART_TX_COMPLETE_CB_ID Tx Complete Callback ID
 866:Drivers/STM32F1xx_HAL_Driver/Src/stm32f1xx_hal_uart.c ****   *           @arg @ref HAL_UART_RX_HALFCOMPLETE_CB_ID Rx Half Complete Callback ID
 867:Drivers/STM32F1xx_HAL_Driver/Src/stm32f1xx_hal_uart.c ****   *           @arg @ref HAL_UART_RX_COMPLETE_CB_ID Rx Complete Callback ID
 868:Drivers/STM32F1xx_HAL_Driver/Src/stm32f1xx_hal_uart.c ****   *           @arg @ref HAL_UART_ERROR_CB_ID Error Callback ID
 869:Drivers/STM32F1xx_HAL_Driver/Src/stm32f1xx_hal_uart.c ****   *           @arg @ref HAL_UART_ABORT_COMPLETE_CB_ID Abort Complete Callback ID
 870:Drivers/STM32F1xx_HAL_Driver/Src/stm32f1xx_hal_uart.c ****   *           @arg @ref HAL_UART_ABORT_TRANSMIT_COMPLETE_CB_ID Abort Transmit Complete Callback ID
 871:Drivers/STM32F1xx_HAL_Driver/Src/stm32f1xx_hal_uart.c ****   *           @arg @ref HAL_UART_ABORT_RECEIVE_COMPLETE_CB_ID Abort Receive Complete Callback ID
 872:Drivers/STM32F1xx_HAL_Driver/Src/stm32f1xx_hal_uart.c ****   *           @arg @ref HAL_UART_MSPINIT_CB_ID MspInit Callback ID
 873:Drivers/STM32F1xx_HAL_Driver/Src/stm32f1xx_hal_uart.c ****   *           @arg @ref HAL_UART_MSPDEINIT_CB_ID MspDeInit Callback ID
 874:Drivers/STM32F1xx_HAL_Driver/Src/stm32f1xx_hal_uart.c ****   * @retval HAL status
 875:Drivers/STM32F1xx_HAL_Driver/Src/stm32f1xx_hal_uart.c ****   */
 876:Drivers/STM32F1xx_HAL_Driver/Src/stm32f1xx_hal_uart.c **** HAL_StatusTypeDef HAL_UART_UnRegisterCallback(UART_HandleTypeDef *huart, HAL_UART_CallbackIDTypeDef
 877:Drivers/STM32F1xx_HAL_Driver/Src/stm32f1xx_hal_uart.c **** {
 878:Drivers/STM32F1xx_HAL_Driver/Src/stm32f1xx_hal_uart.c ****   HAL_StatusTypeDef status = HAL_OK;
 879:Drivers/STM32F1xx_HAL_Driver/Src/stm32f1xx_hal_uart.c **** 
 880:Drivers/STM32F1xx_HAL_Driver/Src/stm32f1xx_hal_uart.c ****   /* Process locked */
 881:Drivers/STM32F1xx_HAL_Driver/Src/stm32f1xx_hal_uart.c ****   __HAL_LOCK(huart);
 882:Drivers/STM32F1xx_HAL_Driver/Src/stm32f1xx_hal_uart.c **** 
 883:Drivers/STM32F1xx_HAL_Driver/Src/stm32f1xx_hal_uart.c ****   if (HAL_UART_STATE_READY == huart->gState)
 884:Drivers/STM32F1xx_HAL_Driver/Src/stm32f1xx_hal_uart.c ****   {
ARM GAS  /tmp/ccRUQzex.s 			page 29


 885:Drivers/STM32F1xx_HAL_Driver/Src/stm32f1xx_hal_uart.c ****     switch (CallbackID)
 886:Drivers/STM32F1xx_HAL_Driver/Src/stm32f1xx_hal_uart.c ****     {
 887:Drivers/STM32F1xx_HAL_Driver/Src/stm32f1xx_hal_uart.c ****       case HAL_UART_TX_HALFCOMPLETE_CB_ID :
 888:Drivers/STM32F1xx_HAL_Driver/Src/stm32f1xx_hal_uart.c ****         huart->TxHalfCpltCallback = HAL_UART_TxHalfCpltCallback;               /* Legacy weak  TxHa
 889:Drivers/STM32F1xx_HAL_Driver/Src/stm32f1xx_hal_uart.c ****         break;
 890:Drivers/STM32F1xx_HAL_Driver/Src/stm32f1xx_hal_uart.c **** 
 891:Drivers/STM32F1xx_HAL_Driver/Src/stm32f1xx_hal_uart.c ****       case HAL_UART_TX_COMPLETE_CB_ID :
 892:Drivers/STM32F1xx_HAL_Driver/Src/stm32f1xx_hal_uart.c ****         huart->TxCpltCallback = HAL_UART_TxCpltCallback;                       /* Legacy weak TxCpl
 893:Drivers/STM32F1xx_HAL_Driver/Src/stm32f1xx_hal_uart.c ****         break;
 894:Drivers/STM32F1xx_HAL_Driver/Src/stm32f1xx_hal_uart.c **** 
 895:Drivers/STM32F1xx_HAL_Driver/Src/stm32f1xx_hal_uart.c ****       case HAL_UART_RX_HALFCOMPLETE_CB_ID :
 896:Drivers/STM32F1xx_HAL_Driver/Src/stm32f1xx_hal_uart.c ****         huart->RxHalfCpltCallback = HAL_UART_RxHalfCpltCallback;               /* Legacy weak RxHal
 897:Drivers/STM32F1xx_HAL_Driver/Src/stm32f1xx_hal_uart.c ****         break;
 898:Drivers/STM32F1xx_HAL_Driver/Src/stm32f1xx_hal_uart.c **** 
 899:Drivers/STM32F1xx_HAL_Driver/Src/stm32f1xx_hal_uart.c ****       case HAL_UART_RX_COMPLETE_CB_ID :
 900:Drivers/STM32F1xx_HAL_Driver/Src/stm32f1xx_hal_uart.c ****         huart->RxCpltCallback = HAL_UART_RxCpltCallback;                       /* Legacy weak RxCpl
 901:Drivers/STM32F1xx_HAL_Driver/Src/stm32f1xx_hal_uart.c ****         break;
 902:Drivers/STM32F1xx_HAL_Driver/Src/stm32f1xx_hal_uart.c **** 
 903:Drivers/STM32F1xx_HAL_Driver/Src/stm32f1xx_hal_uart.c ****       case HAL_UART_ERROR_CB_ID :
 904:Drivers/STM32F1xx_HAL_Driver/Src/stm32f1xx_hal_uart.c ****         huart->ErrorCallback = HAL_UART_ErrorCallback;                         /* Legacy weak Error
 905:Drivers/STM32F1xx_HAL_Driver/Src/stm32f1xx_hal_uart.c ****         break;
 906:Drivers/STM32F1xx_HAL_Driver/Src/stm32f1xx_hal_uart.c **** 
 907:Drivers/STM32F1xx_HAL_Driver/Src/stm32f1xx_hal_uart.c ****       case HAL_UART_ABORT_COMPLETE_CB_ID :
 908:Drivers/STM32F1xx_HAL_Driver/Src/stm32f1xx_hal_uart.c ****         huart->AbortCpltCallback = HAL_UART_AbortCpltCallback;                 /* Legacy weak Abort
 909:Drivers/STM32F1xx_HAL_Driver/Src/stm32f1xx_hal_uart.c ****         break;
 910:Drivers/STM32F1xx_HAL_Driver/Src/stm32f1xx_hal_uart.c **** 
 911:Drivers/STM32F1xx_HAL_Driver/Src/stm32f1xx_hal_uart.c ****       case HAL_UART_ABORT_TRANSMIT_COMPLETE_CB_ID :
 912:Drivers/STM32F1xx_HAL_Driver/Src/stm32f1xx_hal_uart.c ****         huart->AbortTransmitCpltCallback = HAL_UART_AbortTransmitCpltCallback; /* Legacy weak Abort
 913:Drivers/STM32F1xx_HAL_Driver/Src/stm32f1xx_hal_uart.c ****         break;
 914:Drivers/STM32F1xx_HAL_Driver/Src/stm32f1xx_hal_uart.c **** 
 915:Drivers/STM32F1xx_HAL_Driver/Src/stm32f1xx_hal_uart.c ****       case HAL_UART_ABORT_RECEIVE_COMPLETE_CB_ID :
 916:Drivers/STM32F1xx_HAL_Driver/Src/stm32f1xx_hal_uart.c ****         huart->AbortReceiveCpltCallback = HAL_UART_AbortReceiveCpltCallback;   /* Legacy weak Abort
 917:Drivers/STM32F1xx_HAL_Driver/Src/stm32f1xx_hal_uart.c ****         break;
 918:Drivers/STM32F1xx_HAL_Driver/Src/stm32f1xx_hal_uart.c **** 
 919:Drivers/STM32F1xx_HAL_Driver/Src/stm32f1xx_hal_uart.c ****       case HAL_UART_MSPINIT_CB_ID :
 920:Drivers/STM32F1xx_HAL_Driver/Src/stm32f1xx_hal_uart.c ****         huart->MspInitCallback = HAL_UART_MspInit;                             /* Legacy weak MspIn
 921:Drivers/STM32F1xx_HAL_Driver/Src/stm32f1xx_hal_uart.c ****         break;
 922:Drivers/STM32F1xx_HAL_Driver/Src/stm32f1xx_hal_uart.c **** 
 923:Drivers/STM32F1xx_HAL_Driver/Src/stm32f1xx_hal_uart.c ****       case HAL_UART_MSPDEINIT_CB_ID :
 924:Drivers/STM32F1xx_HAL_Driver/Src/stm32f1xx_hal_uart.c ****         huart->MspDeInitCallback = HAL_UART_MspDeInit;                         /* Legacy weak MspDe
 925:Drivers/STM32F1xx_HAL_Driver/Src/stm32f1xx_hal_uart.c ****         break;
 926:Drivers/STM32F1xx_HAL_Driver/Src/stm32f1xx_hal_uart.c **** 
 927:Drivers/STM32F1xx_HAL_Driver/Src/stm32f1xx_hal_uart.c ****       default :
 928:Drivers/STM32F1xx_HAL_Driver/Src/stm32f1xx_hal_uart.c ****         /* Update the error code */
 929:Drivers/STM32F1xx_HAL_Driver/Src/stm32f1xx_hal_uart.c ****         huart->ErrorCode |= HAL_UART_ERROR_INVALID_CALLBACK;
 930:Drivers/STM32F1xx_HAL_Driver/Src/stm32f1xx_hal_uart.c **** 
 931:Drivers/STM32F1xx_HAL_Driver/Src/stm32f1xx_hal_uart.c ****         /* Return error status */
 932:Drivers/STM32F1xx_HAL_Driver/Src/stm32f1xx_hal_uart.c ****         status =  HAL_ERROR;
 933:Drivers/STM32F1xx_HAL_Driver/Src/stm32f1xx_hal_uart.c ****         break;
 934:Drivers/STM32F1xx_HAL_Driver/Src/stm32f1xx_hal_uart.c ****     }
 935:Drivers/STM32F1xx_HAL_Driver/Src/stm32f1xx_hal_uart.c ****   }
 936:Drivers/STM32F1xx_HAL_Driver/Src/stm32f1xx_hal_uart.c ****   else if (HAL_UART_STATE_RESET == huart->gState)
 937:Drivers/STM32F1xx_HAL_Driver/Src/stm32f1xx_hal_uart.c ****   {
 938:Drivers/STM32F1xx_HAL_Driver/Src/stm32f1xx_hal_uart.c ****     switch (CallbackID)
 939:Drivers/STM32F1xx_HAL_Driver/Src/stm32f1xx_hal_uart.c ****     {
 940:Drivers/STM32F1xx_HAL_Driver/Src/stm32f1xx_hal_uart.c ****       case HAL_UART_MSPINIT_CB_ID :
 941:Drivers/STM32F1xx_HAL_Driver/Src/stm32f1xx_hal_uart.c ****         huart->MspInitCallback = HAL_UART_MspInit;
ARM GAS  /tmp/ccRUQzex.s 			page 30


 942:Drivers/STM32F1xx_HAL_Driver/Src/stm32f1xx_hal_uart.c ****         break;
 943:Drivers/STM32F1xx_HAL_Driver/Src/stm32f1xx_hal_uart.c **** 
 944:Drivers/STM32F1xx_HAL_Driver/Src/stm32f1xx_hal_uart.c ****       case HAL_UART_MSPDEINIT_CB_ID :
 945:Drivers/STM32F1xx_HAL_Driver/Src/stm32f1xx_hal_uart.c ****         huart->MspDeInitCallback = HAL_UART_MspDeInit;
 946:Drivers/STM32F1xx_HAL_Driver/Src/stm32f1xx_hal_uart.c ****         break;
 947:Drivers/STM32F1xx_HAL_Driver/Src/stm32f1xx_hal_uart.c **** 
 948:Drivers/STM32F1xx_HAL_Driver/Src/stm32f1xx_hal_uart.c ****       default :
 949:Drivers/STM32F1xx_HAL_Driver/Src/stm32f1xx_hal_uart.c ****         /* Update the error code */
 950:Drivers/STM32F1xx_HAL_Driver/Src/stm32f1xx_hal_uart.c ****         huart->ErrorCode |= HAL_UART_ERROR_INVALID_CALLBACK;
 951:Drivers/STM32F1xx_HAL_Driver/Src/stm32f1xx_hal_uart.c **** 
 952:Drivers/STM32F1xx_HAL_Driver/Src/stm32f1xx_hal_uart.c ****         /* Return error status */
 953:Drivers/STM32F1xx_HAL_Driver/Src/stm32f1xx_hal_uart.c ****         status =  HAL_ERROR;
 954:Drivers/STM32F1xx_HAL_Driver/Src/stm32f1xx_hal_uart.c ****         break;
 955:Drivers/STM32F1xx_HAL_Driver/Src/stm32f1xx_hal_uart.c ****     }
 956:Drivers/STM32F1xx_HAL_Driver/Src/stm32f1xx_hal_uart.c ****   }
 957:Drivers/STM32F1xx_HAL_Driver/Src/stm32f1xx_hal_uart.c ****   else
 958:Drivers/STM32F1xx_HAL_Driver/Src/stm32f1xx_hal_uart.c ****   {
 959:Drivers/STM32F1xx_HAL_Driver/Src/stm32f1xx_hal_uart.c ****     /* Update the error code */
 960:Drivers/STM32F1xx_HAL_Driver/Src/stm32f1xx_hal_uart.c ****     huart->ErrorCode |= HAL_UART_ERROR_INVALID_CALLBACK;
 961:Drivers/STM32F1xx_HAL_Driver/Src/stm32f1xx_hal_uart.c **** 
 962:Drivers/STM32F1xx_HAL_Driver/Src/stm32f1xx_hal_uart.c ****     /* Return error status */
 963:Drivers/STM32F1xx_HAL_Driver/Src/stm32f1xx_hal_uart.c ****     status =  HAL_ERROR;
 964:Drivers/STM32F1xx_HAL_Driver/Src/stm32f1xx_hal_uart.c ****   }
 965:Drivers/STM32F1xx_HAL_Driver/Src/stm32f1xx_hal_uart.c **** 
 966:Drivers/STM32F1xx_HAL_Driver/Src/stm32f1xx_hal_uart.c ****   /* Release Lock */
 967:Drivers/STM32F1xx_HAL_Driver/Src/stm32f1xx_hal_uart.c ****   __HAL_UNLOCK(huart);
 968:Drivers/STM32F1xx_HAL_Driver/Src/stm32f1xx_hal_uart.c **** 
 969:Drivers/STM32F1xx_HAL_Driver/Src/stm32f1xx_hal_uart.c ****   return status;
 970:Drivers/STM32F1xx_HAL_Driver/Src/stm32f1xx_hal_uart.c **** }
 971:Drivers/STM32F1xx_HAL_Driver/Src/stm32f1xx_hal_uart.c **** 
 972:Drivers/STM32F1xx_HAL_Driver/Src/stm32f1xx_hal_uart.c **** /**
 973:Drivers/STM32F1xx_HAL_Driver/Src/stm32f1xx_hal_uart.c ****   * @brief  Register a User UART Rx Event Callback
 974:Drivers/STM32F1xx_HAL_Driver/Src/stm32f1xx_hal_uart.c ****   *         To be used instead of the weak predefined callback
 975:Drivers/STM32F1xx_HAL_Driver/Src/stm32f1xx_hal_uart.c ****   * @param  huart     Uart handle
 976:Drivers/STM32F1xx_HAL_Driver/Src/stm32f1xx_hal_uart.c ****   * @param  pCallback Pointer to the Rx Event Callback function
 977:Drivers/STM32F1xx_HAL_Driver/Src/stm32f1xx_hal_uart.c ****   * @retval HAL status
 978:Drivers/STM32F1xx_HAL_Driver/Src/stm32f1xx_hal_uart.c ****   */
 979:Drivers/STM32F1xx_HAL_Driver/Src/stm32f1xx_hal_uart.c **** HAL_StatusTypeDef HAL_UART_RegisterRxEventCallback(UART_HandleTypeDef *huart, pUART_RxEventCallback
 980:Drivers/STM32F1xx_HAL_Driver/Src/stm32f1xx_hal_uart.c **** {
 981:Drivers/STM32F1xx_HAL_Driver/Src/stm32f1xx_hal_uart.c ****   HAL_StatusTypeDef status = HAL_OK;
 982:Drivers/STM32F1xx_HAL_Driver/Src/stm32f1xx_hal_uart.c **** 
 983:Drivers/STM32F1xx_HAL_Driver/Src/stm32f1xx_hal_uart.c ****   if (pCallback == NULL)
 984:Drivers/STM32F1xx_HAL_Driver/Src/stm32f1xx_hal_uart.c ****   {
 985:Drivers/STM32F1xx_HAL_Driver/Src/stm32f1xx_hal_uart.c ****     huart->ErrorCode |= HAL_UART_ERROR_INVALID_CALLBACK;
 986:Drivers/STM32F1xx_HAL_Driver/Src/stm32f1xx_hal_uart.c **** 
 987:Drivers/STM32F1xx_HAL_Driver/Src/stm32f1xx_hal_uart.c ****     return HAL_ERROR;
 988:Drivers/STM32F1xx_HAL_Driver/Src/stm32f1xx_hal_uart.c ****   }
 989:Drivers/STM32F1xx_HAL_Driver/Src/stm32f1xx_hal_uart.c **** 
 990:Drivers/STM32F1xx_HAL_Driver/Src/stm32f1xx_hal_uart.c ****   /* Process locked */
 991:Drivers/STM32F1xx_HAL_Driver/Src/stm32f1xx_hal_uart.c ****   __HAL_LOCK(huart);
 992:Drivers/STM32F1xx_HAL_Driver/Src/stm32f1xx_hal_uart.c **** 
 993:Drivers/STM32F1xx_HAL_Driver/Src/stm32f1xx_hal_uart.c ****   if (huart->gState == HAL_UART_STATE_READY)
 994:Drivers/STM32F1xx_HAL_Driver/Src/stm32f1xx_hal_uart.c ****   {
 995:Drivers/STM32F1xx_HAL_Driver/Src/stm32f1xx_hal_uart.c ****     huart->RxEventCallback = pCallback;
 996:Drivers/STM32F1xx_HAL_Driver/Src/stm32f1xx_hal_uart.c ****   }
 997:Drivers/STM32F1xx_HAL_Driver/Src/stm32f1xx_hal_uart.c ****   else
 998:Drivers/STM32F1xx_HAL_Driver/Src/stm32f1xx_hal_uart.c ****   {
ARM GAS  /tmp/ccRUQzex.s 			page 31


 999:Drivers/STM32F1xx_HAL_Driver/Src/stm32f1xx_hal_uart.c ****     huart->ErrorCode |= HAL_UART_ERROR_INVALID_CALLBACK;
1000:Drivers/STM32F1xx_HAL_Driver/Src/stm32f1xx_hal_uart.c **** 
1001:Drivers/STM32F1xx_HAL_Driver/Src/stm32f1xx_hal_uart.c ****     status =  HAL_ERROR;
1002:Drivers/STM32F1xx_HAL_Driver/Src/stm32f1xx_hal_uart.c ****   }
1003:Drivers/STM32F1xx_HAL_Driver/Src/stm32f1xx_hal_uart.c **** 
1004:Drivers/STM32F1xx_HAL_Driver/Src/stm32f1xx_hal_uart.c ****   /* Release Lock */
1005:Drivers/STM32F1xx_HAL_Driver/Src/stm32f1xx_hal_uart.c ****   __HAL_UNLOCK(huart);
1006:Drivers/STM32F1xx_HAL_Driver/Src/stm32f1xx_hal_uart.c **** 
1007:Drivers/STM32F1xx_HAL_Driver/Src/stm32f1xx_hal_uart.c ****   return status;
1008:Drivers/STM32F1xx_HAL_Driver/Src/stm32f1xx_hal_uart.c **** }
1009:Drivers/STM32F1xx_HAL_Driver/Src/stm32f1xx_hal_uart.c **** 
1010:Drivers/STM32F1xx_HAL_Driver/Src/stm32f1xx_hal_uart.c **** /**
1011:Drivers/STM32F1xx_HAL_Driver/Src/stm32f1xx_hal_uart.c ****   * @brief  UnRegister the UART Rx Event Callback
1012:Drivers/STM32F1xx_HAL_Driver/Src/stm32f1xx_hal_uart.c ****   *         UART Rx Event Callback is redirected to the weak HAL_UARTEx_RxEventCallback() predefine
1013:Drivers/STM32F1xx_HAL_Driver/Src/stm32f1xx_hal_uart.c ****   * @param  huart     Uart handle
1014:Drivers/STM32F1xx_HAL_Driver/Src/stm32f1xx_hal_uart.c ****   * @retval HAL status
1015:Drivers/STM32F1xx_HAL_Driver/Src/stm32f1xx_hal_uart.c ****   */
1016:Drivers/STM32F1xx_HAL_Driver/Src/stm32f1xx_hal_uart.c **** HAL_StatusTypeDef HAL_UART_UnRegisterRxEventCallback(UART_HandleTypeDef *huart)
1017:Drivers/STM32F1xx_HAL_Driver/Src/stm32f1xx_hal_uart.c **** {
1018:Drivers/STM32F1xx_HAL_Driver/Src/stm32f1xx_hal_uart.c ****   HAL_StatusTypeDef status = HAL_OK;
1019:Drivers/STM32F1xx_HAL_Driver/Src/stm32f1xx_hal_uart.c **** 
1020:Drivers/STM32F1xx_HAL_Driver/Src/stm32f1xx_hal_uart.c ****   /* Process locked */
1021:Drivers/STM32F1xx_HAL_Driver/Src/stm32f1xx_hal_uart.c ****   __HAL_LOCK(huart);
1022:Drivers/STM32F1xx_HAL_Driver/Src/stm32f1xx_hal_uart.c **** 
1023:Drivers/STM32F1xx_HAL_Driver/Src/stm32f1xx_hal_uart.c ****   if (huart->gState == HAL_UART_STATE_READY)
1024:Drivers/STM32F1xx_HAL_Driver/Src/stm32f1xx_hal_uart.c ****   {
1025:Drivers/STM32F1xx_HAL_Driver/Src/stm32f1xx_hal_uart.c ****     huart->RxEventCallback = HAL_UARTEx_RxEventCallback; /* Legacy weak UART Rx Event Callback  */
1026:Drivers/STM32F1xx_HAL_Driver/Src/stm32f1xx_hal_uart.c ****   }
1027:Drivers/STM32F1xx_HAL_Driver/Src/stm32f1xx_hal_uart.c ****   else
1028:Drivers/STM32F1xx_HAL_Driver/Src/stm32f1xx_hal_uart.c ****   {
1029:Drivers/STM32F1xx_HAL_Driver/Src/stm32f1xx_hal_uart.c ****     huart->ErrorCode |= HAL_UART_ERROR_INVALID_CALLBACK;
1030:Drivers/STM32F1xx_HAL_Driver/Src/stm32f1xx_hal_uart.c **** 
1031:Drivers/STM32F1xx_HAL_Driver/Src/stm32f1xx_hal_uart.c ****     status =  HAL_ERROR;
1032:Drivers/STM32F1xx_HAL_Driver/Src/stm32f1xx_hal_uart.c ****   }
1033:Drivers/STM32F1xx_HAL_Driver/Src/stm32f1xx_hal_uart.c **** 
1034:Drivers/STM32F1xx_HAL_Driver/Src/stm32f1xx_hal_uart.c ****   /* Release Lock */
1035:Drivers/STM32F1xx_HAL_Driver/Src/stm32f1xx_hal_uart.c ****   __HAL_UNLOCK(huart);
1036:Drivers/STM32F1xx_HAL_Driver/Src/stm32f1xx_hal_uart.c ****   return status;
1037:Drivers/STM32F1xx_HAL_Driver/Src/stm32f1xx_hal_uart.c **** }
1038:Drivers/STM32F1xx_HAL_Driver/Src/stm32f1xx_hal_uart.c **** #endif /* USE_HAL_UART_REGISTER_CALLBACKS */
1039:Drivers/STM32F1xx_HAL_Driver/Src/stm32f1xx_hal_uart.c **** 
1040:Drivers/STM32F1xx_HAL_Driver/Src/stm32f1xx_hal_uart.c **** /**
1041:Drivers/STM32F1xx_HAL_Driver/Src/stm32f1xx_hal_uart.c ****   * @}
1042:Drivers/STM32F1xx_HAL_Driver/Src/stm32f1xx_hal_uart.c ****   */
1043:Drivers/STM32F1xx_HAL_Driver/Src/stm32f1xx_hal_uart.c **** 
1044:Drivers/STM32F1xx_HAL_Driver/Src/stm32f1xx_hal_uart.c **** /** @defgroup UART_Exported_Functions_Group2 IO operation functions
1045:Drivers/STM32F1xx_HAL_Driver/Src/stm32f1xx_hal_uart.c ****   *  @brief UART Transmit and Receive functions
1046:Drivers/STM32F1xx_HAL_Driver/Src/stm32f1xx_hal_uart.c ****   *
1047:Drivers/STM32F1xx_HAL_Driver/Src/stm32f1xx_hal_uart.c **** @verbatim
1048:Drivers/STM32F1xx_HAL_Driver/Src/stm32f1xx_hal_uart.c ****  ===============================================================================
1049:Drivers/STM32F1xx_HAL_Driver/Src/stm32f1xx_hal_uart.c ****                       ##### IO operation functions #####
1050:Drivers/STM32F1xx_HAL_Driver/Src/stm32f1xx_hal_uart.c ****  ===============================================================================
1051:Drivers/STM32F1xx_HAL_Driver/Src/stm32f1xx_hal_uart.c ****     This subsection provides a set of functions allowing to manage the UART asynchronous
1052:Drivers/STM32F1xx_HAL_Driver/Src/stm32f1xx_hal_uart.c ****     and Half duplex data transfers.
1053:Drivers/STM32F1xx_HAL_Driver/Src/stm32f1xx_hal_uart.c **** 
1054:Drivers/STM32F1xx_HAL_Driver/Src/stm32f1xx_hal_uart.c ****     (#) There are two modes of transfer:
1055:Drivers/STM32F1xx_HAL_Driver/Src/stm32f1xx_hal_uart.c ****        (+) Blocking mode: The communication is performed in polling mode.
ARM GAS  /tmp/ccRUQzex.s 			page 32


1056:Drivers/STM32F1xx_HAL_Driver/Src/stm32f1xx_hal_uart.c ****            The HAL status of all data processing is returned by the same function
1057:Drivers/STM32F1xx_HAL_Driver/Src/stm32f1xx_hal_uart.c ****            after finishing transfer.
1058:Drivers/STM32F1xx_HAL_Driver/Src/stm32f1xx_hal_uart.c ****        (+) Non-Blocking mode: The communication is performed using Interrupts
1059:Drivers/STM32F1xx_HAL_Driver/Src/stm32f1xx_hal_uart.c ****            or DMA, these API's return the HAL status.
1060:Drivers/STM32F1xx_HAL_Driver/Src/stm32f1xx_hal_uart.c ****            The end of the data processing will be indicated through the
1061:Drivers/STM32F1xx_HAL_Driver/Src/stm32f1xx_hal_uart.c ****            dedicated UART IRQ when using Interrupt mode or the DMA IRQ when
1062:Drivers/STM32F1xx_HAL_Driver/Src/stm32f1xx_hal_uart.c ****            using DMA mode.
1063:Drivers/STM32F1xx_HAL_Driver/Src/stm32f1xx_hal_uart.c ****            The HAL_UART_TxCpltCallback(), HAL_UART_RxCpltCallback() user callbacks
1064:Drivers/STM32F1xx_HAL_Driver/Src/stm32f1xx_hal_uart.c ****            will be executed respectively at the end of the transmit or receive process
1065:Drivers/STM32F1xx_HAL_Driver/Src/stm32f1xx_hal_uart.c ****            The HAL_UART_ErrorCallback()user callback will be executed when a communication error is
1066:Drivers/STM32F1xx_HAL_Driver/Src/stm32f1xx_hal_uart.c **** 
1067:Drivers/STM32F1xx_HAL_Driver/Src/stm32f1xx_hal_uart.c ****     (#) Blocking mode API's are :
1068:Drivers/STM32F1xx_HAL_Driver/Src/stm32f1xx_hal_uart.c ****         (+) HAL_UART_Transmit()
1069:Drivers/STM32F1xx_HAL_Driver/Src/stm32f1xx_hal_uart.c ****         (+) HAL_UART_Receive()
1070:Drivers/STM32F1xx_HAL_Driver/Src/stm32f1xx_hal_uart.c **** 
1071:Drivers/STM32F1xx_HAL_Driver/Src/stm32f1xx_hal_uart.c ****     (#) Non-Blocking mode API's with Interrupt are :
1072:Drivers/STM32F1xx_HAL_Driver/Src/stm32f1xx_hal_uart.c ****         (+) HAL_UART_Transmit_IT()
1073:Drivers/STM32F1xx_HAL_Driver/Src/stm32f1xx_hal_uart.c ****         (+) HAL_UART_Receive_IT()
1074:Drivers/STM32F1xx_HAL_Driver/Src/stm32f1xx_hal_uart.c ****         (+) HAL_UART_IRQHandler()
1075:Drivers/STM32F1xx_HAL_Driver/Src/stm32f1xx_hal_uart.c **** 
1076:Drivers/STM32F1xx_HAL_Driver/Src/stm32f1xx_hal_uart.c ****     (#) Non-Blocking mode API's with DMA are :
1077:Drivers/STM32F1xx_HAL_Driver/Src/stm32f1xx_hal_uart.c ****         (+) HAL_UART_Transmit_DMA()
1078:Drivers/STM32F1xx_HAL_Driver/Src/stm32f1xx_hal_uart.c ****         (+) HAL_UART_Receive_DMA()
1079:Drivers/STM32F1xx_HAL_Driver/Src/stm32f1xx_hal_uart.c ****         (+) HAL_UART_DMAPause()
1080:Drivers/STM32F1xx_HAL_Driver/Src/stm32f1xx_hal_uart.c ****         (+) HAL_UART_DMAResume()
1081:Drivers/STM32F1xx_HAL_Driver/Src/stm32f1xx_hal_uart.c ****         (+) HAL_UART_DMAStop()
1082:Drivers/STM32F1xx_HAL_Driver/Src/stm32f1xx_hal_uart.c **** 
1083:Drivers/STM32F1xx_HAL_Driver/Src/stm32f1xx_hal_uart.c ****     (#) A set of Transfer Complete Callbacks are provided in Non_Blocking mode:
1084:Drivers/STM32F1xx_HAL_Driver/Src/stm32f1xx_hal_uart.c ****         (+) HAL_UART_TxHalfCpltCallback()
1085:Drivers/STM32F1xx_HAL_Driver/Src/stm32f1xx_hal_uart.c ****         (+) HAL_UART_TxCpltCallback()
1086:Drivers/STM32F1xx_HAL_Driver/Src/stm32f1xx_hal_uart.c ****         (+) HAL_UART_RxHalfCpltCallback()
1087:Drivers/STM32F1xx_HAL_Driver/Src/stm32f1xx_hal_uart.c ****         (+) HAL_UART_RxCpltCallback()
1088:Drivers/STM32F1xx_HAL_Driver/Src/stm32f1xx_hal_uart.c ****         (+) HAL_UART_ErrorCallback()
1089:Drivers/STM32F1xx_HAL_Driver/Src/stm32f1xx_hal_uart.c **** 
1090:Drivers/STM32F1xx_HAL_Driver/Src/stm32f1xx_hal_uart.c ****     (#) Non-Blocking mode transfers could be aborted using Abort API's :
1091:Drivers/STM32F1xx_HAL_Driver/Src/stm32f1xx_hal_uart.c ****         (+) HAL_UART_Abort()
1092:Drivers/STM32F1xx_HAL_Driver/Src/stm32f1xx_hal_uart.c ****         (+) HAL_UART_AbortTransmit()
1093:Drivers/STM32F1xx_HAL_Driver/Src/stm32f1xx_hal_uart.c ****         (+) HAL_UART_AbortReceive()
1094:Drivers/STM32F1xx_HAL_Driver/Src/stm32f1xx_hal_uart.c ****         (+) HAL_UART_Abort_IT()
1095:Drivers/STM32F1xx_HAL_Driver/Src/stm32f1xx_hal_uart.c ****         (+) HAL_UART_AbortTransmit_IT()
1096:Drivers/STM32F1xx_HAL_Driver/Src/stm32f1xx_hal_uart.c ****         (+) HAL_UART_AbortReceive_IT()
1097:Drivers/STM32F1xx_HAL_Driver/Src/stm32f1xx_hal_uart.c **** 
1098:Drivers/STM32F1xx_HAL_Driver/Src/stm32f1xx_hal_uart.c ****     (#) For Abort services based on interrupts (HAL_UART_Abortxxx_IT), a set of Abort Complete Call
1099:Drivers/STM32F1xx_HAL_Driver/Src/stm32f1xx_hal_uart.c ****         (+) HAL_UART_AbortCpltCallback()
1100:Drivers/STM32F1xx_HAL_Driver/Src/stm32f1xx_hal_uart.c ****         (+) HAL_UART_AbortTransmitCpltCallback()
1101:Drivers/STM32F1xx_HAL_Driver/Src/stm32f1xx_hal_uart.c ****         (+) HAL_UART_AbortReceiveCpltCallback()
1102:Drivers/STM32F1xx_HAL_Driver/Src/stm32f1xx_hal_uart.c **** 
1103:Drivers/STM32F1xx_HAL_Driver/Src/stm32f1xx_hal_uart.c ****     (#) A Rx Event Reception Callback (Rx event notification) is available for Non_Blocking modes o
1104:Drivers/STM32F1xx_HAL_Driver/Src/stm32f1xx_hal_uart.c ****         (+) HAL_UARTEx_RxEventCallback()
1105:Drivers/STM32F1xx_HAL_Driver/Src/stm32f1xx_hal_uart.c **** 
1106:Drivers/STM32F1xx_HAL_Driver/Src/stm32f1xx_hal_uart.c ****     (#) In Non-Blocking mode transfers, possible errors are split into 2 categories.
1107:Drivers/STM32F1xx_HAL_Driver/Src/stm32f1xx_hal_uart.c ****         Errors are handled as follows :
1108:Drivers/STM32F1xx_HAL_Driver/Src/stm32f1xx_hal_uart.c ****        (+) Error is considered as Recoverable and non blocking : Transfer could go till end, but er
1109:Drivers/STM32F1xx_HAL_Driver/Src/stm32f1xx_hal_uart.c ****            to be evaluated by user : this concerns Frame Error, Parity Error or Noise Error in Inte
1110:Drivers/STM32F1xx_HAL_Driver/Src/stm32f1xx_hal_uart.c ****            Received character is then retrieved and stored in Rx buffer, Error code is set to allow
1111:Drivers/STM32F1xx_HAL_Driver/Src/stm32f1xx_hal_uart.c ****            and HAL_UART_ErrorCallback() user callback is executed. Transfer is kept ongoing on UART
1112:Drivers/STM32F1xx_HAL_Driver/Src/stm32f1xx_hal_uart.c ****            If user wants to abort it, Abort services should be called by user.
ARM GAS  /tmp/ccRUQzex.s 			page 33


1113:Drivers/STM32F1xx_HAL_Driver/Src/stm32f1xx_hal_uart.c ****        (+) Error is considered as Blocking : Transfer could not be completed properly and is aborte
1114:Drivers/STM32F1xx_HAL_Driver/Src/stm32f1xx_hal_uart.c ****            This concerns Overrun Error In Interrupt mode reception and all errors in DMA mode.
1115:Drivers/STM32F1xx_HAL_Driver/Src/stm32f1xx_hal_uart.c ****            Error code is set to allow user to identify error type, and HAL_UART_ErrorCallback() use
1116:Drivers/STM32F1xx_HAL_Driver/Src/stm32f1xx_hal_uart.c **** 
1117:Drivers/STM32F1xx_HAL_Driver/Src/stm32f1xx_hal_uart.c ****     -@- In the Half duplex communication, it is forbidden to run the transmit
1118:Drivers/STM32F1xx_HAL_Driver/Src/stm32f1xx_hal_uart.c ****         and receive process in parallel, the UART state HAL_UART_STATE_BUSY_TX_RX can't be useful.
1119:Drivers/STM32F1xx_HAL_Driver/Src/stm32f1xx_hal_uart.c **** 
1120:Drivers/STM32F1xx_HAL_Driver/Src/stm32f1xx_hal_uart.c **** @endverbatim
1121:Drivers/STM32F1xx_HAL_Driver/Src/stm32f1xx_hal_uart.c ****   * @{
1122:Drivers/STM32F1xx_HAL_Driver/Src/stm32f1xx_hal_uart.c ****   */
1123:Drivers/STM32F1xx_HAL_Driver/Src/stm32f1xx_hal_uart.c **** 
1124:Drivers/STM32F1xx_HAL_Driver/Src/stm32f1xx_hal_uart.c **** /**
1125:Drivers/STM32F1xx_HAL_Driver/Src/stm32f1xx_hal_uart.c ****   * @brief  Sends an amount of data in blocking mode.
1126:Drivers/STM32F1xx_HAL_Driver/Src/stm32f1xx_hal_uart.c ****   * @note   When UART parity is not enabled (PCE = 0), and Word Length is configured to 9 bits (M1-
1127:Drivers/STM32F1xx_HAL_Driver/Src/stm32f1xx_hal_uart.c ****   *         the sent data is handled as a set of u16. In this case, Size must indicate the number
1128:Drivers/STM32F1xx_HAL_Driver/Src/stm32f1xx_hal_uart.c ****   *         of u16 provided through pData.
1129:Drivers/STM32F1xx_HAL_Driver/Src/stm32f1xx_hal_uart.c ****   * @param  huart Pointer to a UART_HandleTypeDef structure that contains
1130:Drivers/STM32F1xx_HAL_Driver/Src/stm32f1xx_hal_uart.c ****   *               the configuration information for the specified UART module.
1131:Drivers/STM32F1xx_HAL_Driver/Src/stm32f1xx_hal_uart.c ****   * @param  pData Pointer to data buffer (u8 or u16 data elements).
1132:Drivers/STM32F1xx_HAL_Driver/Src/stm32f1xx_hal_uart.c ****   * @param  Size  Amount of data elements (u8 or u16) to be sent
1133:Drivers/STM32F1xx_HAL_Driver/Src/stm32f1xx_hal_uart.c ****   * @param  Timeout Timeout duration
1134:Drivers/STM32F1xx_HAL_Driver/Src/stm32f1xx_hal_uart.c ****   * @retval HAL status
1135:Drivers/STM32F1xx_HAL_Driver/Src/stm32f1xx_hal_uart.c ****   */
1136:Drivers/STM32F1xx_HAL_Driver/Src/stm32f1xx_hal_uart.c **** HAL_StatusTypeDef HAL_UART_Transmit(UART_HandleTypeDef *huart, uint8_t *pData, uint16_t Size, uint3
1137:Drivers/STM32F1xx_HAL_Driver/Src/stm32f1xx_hal_uart.c **** {
 728              		.loc 1 1137 0
 729              		.cfi_startproc
 730              		@ args = 0, pretend = 0, frame = 32
 731              		@ frame_needed = 1, uses_anonymous_args = 0
 732 0000 80B5     		push	{r7, lr}
 733              	.LCFI37:
 734              		.cfi_def_cfa_offset 8
 735              		.cfi_offset 7, -8
 736              		.cfi_offset 14, -4
 737 0002 8AB0     		sub	sp, sp, #40
 738              	.LCFI38:
 739              		.cfi_def_cfa_offset 48
 740 0004 02AF     		add	r7, sp, #8
 741              	.LCFI39:
 742              		.cfi_def_cfa 7, 40
 743 0006 F860     		str	r0, [r7, #12]
 744 0008 B960     		str	r1, [r7, #8]
 745 000a 3B60     		str	r3, [r7]
 746 000c 1346     		mov	r3, r2	@ movhi
 747 000e FB80     		strh	r3, [r7, #6]	@ movhi
1138:Drivers/STM32F1xx_HAL_Driver/Src/stm32f1xx_hal_uart.c ****   uint8_t  *pdata8bits;
1139:Drivers/STM32F1xx_HAL_Driver/Src/stm32f1xx_hal_uart.c ****   uint16_t *pdata16bits;
1140:Drivers/STM32F1xx_HAL_Driver/Src/stm32f1xx_hal_uart.c ****   uint32_t tickstart = 0U;
 748              		.loc 1 1140 0
 749 0010 0023     		movs	r3, #0
 750 0012 7B61     		str	r3, [r7, #20]
1141:Drivers/STM32F1xx_HAL_Driver/Src/stm32f1xx_hal_uart.c **** 
1142:Drivers/STM32F1xx_HAL_Driver/Src/stm32f1xx_hal_uart.c ****   /* Check that a Tx process is not already ongoing */
1143:Drivers/STM32F1xx_HAL_Driver/Src/stm32f1xx_hal_uart.c ****   if (huart->gState == HAL_UART_STATE_READY)
 751              		.loc 1 1143 0
 752 0014 FB68     		ldr	r3, [r7, #12]
 753 0016 93F83D30 		ldrb	r3, [r3, #61]
ARM GAS  /tmp/ccRUQzex.s 			page 34


 754 001a DBB2     		uxtb	r3, r3
 755 001c 202B     		cmp	r3, #32
 756 001e 7BD1     		bne	.L23
1144:Drivers/STM32F1xx_HAL_Driver/Src/stm32f1xx_hal_uart.c ****   {
1145:Drivers/STM32F1xx_HAL_Driver/Src/stm32f1xx_hal_uart.c ****     if ((pData == NULL) || (Size == 0U))
 757              		.loc 1 1145 0
 758 0020 BB68     		ldr	r3, [r7, #8]
 759 0022 002B     		cmp	r3, #0
 760 0024 02D0     		beq	.L24
 761              		.loc 1 1145 0 is_stmt 0 discriminator 1
 762 0026 FB88     		ldrh	r3, [r7, #6]
 763 0028 002B     		cmp	r3, #0
 764 002a 01D1     		bne	.L25
 765              	.L24:
1146:Drivers/STM32F1xx_HAL_Driver/Src/stm32f1xx_hal_uart.c ****     {
1147:Drivers/STM32F1xx_HAL_Driver/Src/stm32f1xx_hal_uart.c ****       return  HAL_ERROR;
 766              		.loc 1 1147 0 is_stmt 1
 767 002c 0123     		movs	r3, #1
 768 002e 74E0     		b	.L26
 769              	.L25:
1148:Drivers/STM32F1xx_HAL_Driver/Src/stm32f1xx_hal_uart.c ****     }
1149:Drivers/STM32F1xx_HAL_Driver/Src/stm32f1xx_hal_uart.c **** 
1150:Drivers/STM32F1xx_HAL_Driver/Src/stm32f1xx_hal_uart.c ****     /* Process Locked */
1151:Drivers/STM32F1xx_HAL_Driver/Src/stm32f1xx_hal_uart.c ****     __HAL_LOCK(huart);
 770              		.loc 1 1151 0
 771 0030 FB68     		ldr	r3, [r7, #12]
 772 0032 93F83C30 		ldrb	r3, [r3, #60]	@ zero_extendqisi2
 773 0036 012B     		cmp	r3, #1
 774 0038 01D1     		bne	.L27
 775              		.loc 1 1151 0 is_stmt 0 discriminator 1
 776 003a 0223     		movs	r3, #2
 777 003c 6DE0     		b	.L26
 778              	.L27:
 779              		.loc 1 1151 0 discriminator 2
 780 003e FB68     		ldr	r3, [r7, #12]
 781 0040 0122     		movs	r2, #1
 782 0042 83F83C20 		strb	r2, [r3, #60]
1152:Drivers/STM32F1xx_HAL_Driver/Src/stm32f1xx_hal_uart.c **** 
1153:Drivers/STM32F1xx_HAL_Driver/Src/stm32f1xx_hal_uart.c ****     huart->ErrorCode = HAL_UART_ERROR_NONE;
 783              		.loc 1 1153 0 is_stmt 1 discriminator 2
 784 0046 FB68     		ldr	r3, [r7, #12]
 785 0048 0022     		movs	r2, #0
 786 004a 1A64     		str	r2, [r3, #64]
1154:Drivers/STM32F1xx_HAL_Driver/Src/stm32f1xx_hal_uart.c ****     huart->gState = HAL_UART_STATE_BUSY_TX;
 787              		.loc 1 1154 0 discriminator 2
 788 004c FB68     		ldr	r3, [r7, #12]
 789 004e 2122     		movs	r2, #33
 790 0050 83F83D20 		strb	r2, [r3, #61]
1155:Drivers/STM32F1xx_HAL_Driver/Src/stm32f1xx_hal_uart.c **** 
1156:Drivers/STM32F1xx_HAL_Driver/Src/stm32f1xx_hal_uart.c ****     /* Init tickstart for timeout management */
1157:Drivers/STM32F1xx_HAL_Driver/Src/stm32f1xx_hal_uart.c ****     tickstart = HAL_GetTick();
 791              		.loc 1 1157 0 discriminator 2
 792 0054 FFF7FEFF 		bl	HAL_GetTick
 793 0058 7861     		str	r0, [r7, #20]
1158:Drivers/STM32F1xx_HAL_Driver/Src/stm32f1xx_hal_uart.c **** 
1159:Drivers/STM32F1xx_HAL_Driver/Src/stm32f1xx_hal_uart.c ****     huart->TxXferSize = Size;
 794              		.loc 1 1159 0 discriminator 2
ARM GAS  /tmp/ccRUQzex.s 			page 35


 795 005a FB68     		ldr	r3, [r7, #12]
 796 005c FA88     		ldrh	r2, [r7, #6]	@ movhi
 797 005e 9A84     		strh	r2, [r3, #36]	@ movhi
1160:Drivers/STM32F1xx_HAL_Driver/Src/stm32f1xx_hal_uart.c ****     huart->TxXferCount = Size;
 798              		.loc 1 1160 0 discriminator 2
 799 0060 FB68     		ldr	r3, [r7, #12]
 800 0062 FA88     		ldrh	r2, [r7, #6]	@ movhi
 801 0064 DA84     		strh	r2, [r3, #38]	@ movhi
1161:Drivers/STM32F1xx_HAL_Driver/Src/stm32f1xx_hal_uart.c **** 
1162:Drivers/STM32F1xx_HAL_Driver/Src/stm32f1xx_hal_uart.c ****     /* In case of 9bits/No Parity transfer, pData needs to be handled as a uint16_t pointer */
1163:Drivers/STM32F1xx_HAL_Driver/Src/stm32f1xx_hal_uart.c ****     if ((huart->Init.WordLength == UART_WORDLENGTH_9B) && (huart->Init.Parity == UART_PARITY_NONE))
 802              		.loc 1 1163 0 discriminator 2
 803 0066 FB68     		ldr	r3, [r7, #12]
 804 0068 9B68     		ldr	r3, [r3, #8]
 805 006a B3F5805F 		cmp	r3, #4096
 806 006e 08D1     		bne	.L28
 807              		.loc 1 1163 0 is_stmt 0 discriminator 1
 808 0070 FB68     		ldr	r3, [r7, #12]
 809 0072 1B69     		ldr	r3, [r3, #16]
 810 0074 002B     		cmp	r3, #0
 811 0076 04D1     		bne	.L28
1164:Drivers/STM32F1xx_HAL_Driver/Src/stm32f1xx_hal_uart.c ****     {
1165:Drivers/STM32F1xx_HAL_Driver/Src/stm32f1xx_hal_uart.c ****       pdata8bits  = NULL;
 812              		.loc 1 1165 0 is_stmt 1
 813 0078 0023     		movs	r3, #0
 814 007a FB61     		str	r3, [r7, #28]
1166:Drivers/STM32F1xx_HAL_Driver/Src/stm32f1xx_hal_uart.c ****       pdata16bits = (uint16_t *) pData;
 815              		.loc 1 1166 0
 816 007c BB68     		ldr	r3, [r7, #8]
 817 007e BB61     		str	r3, [r7, #24]
 818 0080 03E0     		b	.L29
 819              	.L28:
1167:Drivers/STM32F1xx_HAL_Driver/Src/stm32f1xx_hal_uart.c ****     }
1168:Drivers/STM32F1xx_HAL_Driver/Src/stm32f1xx_hal_uart.c ****     else
1169:Drivers/STM32F1xx_HAL_Driver/Src/stm32f1xx_hal_uart.c ****     {
1170:Drivers/STM32F1xx_HAL_Driver/Src/stm32f1xx_hal_uart.c ****       pdata8bits  = pData;
 820              		.loc 1 1170 0
 821 0082 BB68     		ldr	r3, [r7, #8]
 822 0084 FB61     		str	r3, [r7, #28]
1171:Drivers/STM32F1xx_HAL_Driver/Src/stm32f1xx_hal_uart.c ****       pdata16bits = NULL;
 823              		.loc 1 1171 0
 824 0086 0023     		movs	r3, #0
 825 0088 BB61     		str	r3, [r7, #24]
 826              	.L29:
1172:Drivers/STM32F1xx_HAL_Driver/Src/stm32f1xx_hal_uart.c ****     }
1173:Drivers/STM32F1xx_HAL_Driver/Src/stm32f1xx_hal_uart.c **** 
1174:Drivers/STM32F1xx_HAL_Driver/Src/stm32f1xx_hal_uart.c ****     /* Process Unlocked */
1175:Drivers/STM32F1xx_HAL_Driver/Src/stm32f1xx_hal_uart.c ****     __HAL_UNLOCK(huart);
 827              		.loc 1 1175 0
 828 008a FB68     		ldr	r3, [r7, #12]
 829 008c 0022     		movs	r2, #0
 830 008e 83F83C20 		strb	r2, [r3, #60]
1176:Drivers/STM32F1xx_HAL_Driver/Src/stm32f1xx_hal_uart.c **** 
1177:Drivers/STM32F1xx_HAL_Driver/Src/stm32f1xx_hal_uart.c ****     while (huart->TxXferCount > 0U)
 831              		.loc 1 1177 0
 832 0092 29E0     		b	.L30
 833              	.L34:
ARM GAS  /tmp/ccRUQzex.s 			page 36


1178:Drivers/STM32F1xx_HAL_Driver/Src/stm32f1xx_hal_uart.c ****     {
1179:Drivers/STM32F1xx_HAL_Driver/Src/stm32f1xx_hal_uart.c ****       if (UART_WaitOnFlagUntilTimeout(huart, UART_FLAG_TXE, RESET, tickstart, Timeout) != HAL_OK)
 834              		.loc 1 1179 0
 835 0094 3B68     		ldr	r3, [r7]
 836 0096 0093     		str	r3, [sp]
 837 0098 7B69     		ldr	r3, [r7, #20]
 838 009a 0022     		movs	r2, #0
 839 009c 8021     		movs	r1, #128
 840 009e F868     		ldr	r0, [r7, #12]
 841 00a0 FFF7FEFF 		bl	UART_WaitOnFlagUntilTimeout
 842 00a4 0346     		mov	r3, r0
 843 00a6 002B     		cmp	r3, #0
 844 00a8 01D0     		beq	.L31
1180:Drivers/STM32F1xx_HAL_Driver/Src/stm32f1xx_hal_uart.c ****       {
1181:Drivers/STM32F1xx_HAL_Driver/Src/stm32f1xx_hal_uart.c ****         return HAL_TIMEOUT;
 845              		.loc 1 1181 0
 846 00aa 0323     		movs	r3, #3
 847 00ac 35E0     		b	.L26
 848              	.L31:
1182:Drivers/STM32F1xx_HAL_Driver/Src/stm32f1xx_hal_uart.c ****       }
1183:Drivers/STM32F1xx_HAL_Driver/Src/stm32f1xx_hal_uart.c ****       if (pdata8bits == NULL)
 849              		.loc 1 1183 0
 850 00ae FB69     		ldr	r3, [r7, #28]
 851 00b0 002B     		cmp	r3, #0
 852 00b2 0AD1     		bne	.L32
1184:Drivers/STM32F1xx_HAL_Driver/Src/stm32f1xx_hal_uart.c ****       {
1185:Drivers/STM32F1xx_HAL_Driver/Src/stm32f1xx_hal_uart.c ****         huart->Instance->DR = (uint16_t)(*pdata16bits & 0x01FFU);
 853              		.loc 1 1185 0
 854 00b4 FB68     		ldr	r3, [r7, #12]
 855 00b6 1B68     		ldr	r3, [r3]
 856 00b8 BA69     		ldr	r2, [r7, #24]
 857 00ba 1288     		ldrh	r2, [r2]
 858 00bc C2F30802 		ubfx	r2, r2, #0, #9
 859 00c0 5A60     		str	r2, [r3, #4]
1186:Drivers/STM32F1xx_HAL_Driver/Src/stm32f1xx_hal_uart.c ****         pdata16bits++;
 860              		.loc 1 1186 0
 861 00c2 BB69     		ldr	r3, [r7, #24]
 862 00c4 0233     		adds	r3, r3, #2
 863 00c6 BB61     		str	r3, [r7, #24]
 864 00c8 07E0     		b	.L33
 865              	.L32:
1187:Drivers/STM32F1xx_HAL_Driver/Src/stm32f1xx_hal_uart.c ****       }
1188:Drivers/STM32F1xx_HAL_Driver/Src/stm32f1xx_hal_uart.c ****       else
1189:Drivers/STM32F1xx_HAL_Driver/Src/stm32f1xx_hal_uart.c ****       {
1190:Drivers/STM32F1xx_HAL_Driver/Src/stm32f1xx_hal_uart.c ****         huart->Instance->DR = (uint8_t)(*pdata8bits & 0xFFU);
 866              		.loc 1 1190 0
 867 00ca FB68     		ldr	r3, [r7, #12]
 868 00cc 1B68     		ldr	r3, [r3]
 869 00ce FA69     		ldr	r2, [r7, #28]
 870 00d0 1278     		ldrb	r2, [r2]	@ zero_extendqisi2
 871 00d2 5A60     		str	r2, [r3, #4]
1191:Drivers/STM32F1xx_HAL_Driver/Src/stm32f1xx_hal_uart.c ****         pdata8bits++;
 872              		.loc 1 1191 0
 873 00d4 FB69     		ldr	r3, [r7, #28]
 874 00d6 0133     		adds	r3, r3, #1
 875 00d8 FB61     		str	r3, [r7, #28]
 876              	.L33:
ARM GAS  /tmp/ccRUQzex.s 			page 37


1192:Drivers/STM32F1xx_HAL_Driver/Src/stm32f1xx_hal_uart.c ****       }
1193:Drivers/STM32F1xx_HAL_Driver/Src/stm32f1xx_hal_uart.c ****       huart->TxXferCount--;
 877              		.loc 1 1193 0
 878 00da FB68     		ldr	r3, [r7, #12]
 879 00dc DB8C     		ldrh	r3, [r3, #38]	@ movhi
 880 00de 9BB2     		uxth	r3, r3
 881 00e0 013B     		subs	r3, r3, #1
 882 00e2 9AB2     		uxth	r2, r3
 883 00e4 FB68     		ldr	r3, [r7, #12]
 884 00e6 DA84     		strh	r2, [r3, #38]	@ movhi
 885              	.L30:
1177:Drivers/STM32F1xx_HAL_Driver/Src/stm32f1xx_hal_uart.c ****     {
 886              		.loc 1 1177 0
 887 00e8 FB68     		ldr	r3, [r7, #12]
 888 00ea DB8C     		ldrh	r3, [r3, #38]	@ movhi
 889 00ec 9BB2     		uxth	r3, r3
 890 00ee 002B     		cmp	r3, #0
 891 00f0 D0D1     		bne	.L34
1194:Drivers/STM32F1xx_HAL_Driver/Src/stm32f1xx_hal_uart.c ****     }
1195:Drivers/STM32F1xx_HAL_Driver/Src/stm32f1xx_hal_uart.c **** 
1196:Drivers/STM32F1xx_HAL_Driver/Src/stm32f1xx_hal_uart.c ****     if (UART_WaitOnFlagUntilTimeout(huart, UART_FLAG_TC, RESET, tickstart, Timeout) != HAL_OK)
 892              		.loc 1 1196 0
 893 00f2 3B68     		ldr	r3, [r7]
 894 00f4 0093     		str	r3, [sp]
 895 00f6 7B69     		ldr	r3, [r7, #20]
 896 00f8 0022     		movs	r2, #0
 897 00fa 4021     		movs	r1, #64
 898 00fc F868     		ldr	r0, [r7, #12]
 899 00fe FFF7FEFF 		bl	UART_WaitOnFlagUntilTimeout
 900 0102 0346     		mov	r3, r0
 901 0104 002B     		cmp	r3, #0
 902 0106 01D0     		beq	.L35
1197:Drivers/STM32F1xx_HAL_Driver/Src/stm32f1xx_hal_uart.c ****     {
1198:Drivers/STM32F1xx_HAL_Driver/Src/stm32f1xx_hal_uart.c ****       return HAL_TIMEOUT;
 903              		.loc 1 1198 0
 904 0108 0323     		movs	r3, #3
 905 010a 06E0     		b	.L26
 906              	.L35:
1199:Drivers/STM32F1xx_HAL_Driver/Src/stm32f1xx_hal_uart.c ****     }
1200:Drivers/STM32F1xx_HAL_Driver/Src/stm32f1xx_hal_uart.c **** 
1201:Drivers/STM32F1xx_HAL_Driver/Src/stm32f1xx_hal_uart.c ****     /* At end of Tx process, restore huart->gState to Ready */
1202:Drivers/STM32F1xx_HAL_Driver/Src/stm32f1xx_hal_uart.c ****     huart->gState = HAL_UART_STATE_READY;
 907              		.loc 1 1202 0
 908 010c FB68     		ldr	r3, [r7, #12]
 909 010e 2022     		movs	r2, #32
 910 0110 83F83D20 		strb	r2, [r3, #61]
1203:Drivers/STM32F1xx_HAL_Driver/Src/stm32f1xx_hal_uart.c **** 
1204:Drivers/STM32F1xx_HAL_Driver/Src/stm32f1xx_hal_uart.c ****     return HAL_OK;
 911              		.loc 1 1204 0
 912 0114 0023     		movs	r3, #0
 913 0116 00E0     		b	.L26
 914              	.L23:
1205:Drivers/STM32F1xx_HAL_Driver/Src/stm32f1xx_hal_uart.c ****   }
1206:Drivers/STM32F1xx_HAL_Driver/Src/stm32f1xx_hal_uart.c ****   else
1207:Drivers/STM32F1xx_HAL_Driver/Src/stm32f1xx_hal_uart.c ****   {
1208:Drivers/STM32F1xx_HAL_Driver/Src/stm32f1xx_hal_uart.c ****     return HAL_BUSY;
 915              		.loc 1 1208 0
ARM GAS  /tmp/ccRUQzex.s 			page 38


 916 0118 0223     		movs	r3, #2
 917              	.L26:
1209:Drivers/STM32F1xx_HAL_Driver/Src/stm32f1xx_hal_uart.c ****   }
1210:Drivers/STM32F1xx_HAL_Driver/Src/stm32f1xx_hal_uart.c **** }
 918              		.loc 1 1210 0
 919 011a 1846     		mov	r0, r3
 920 011c 2037     		adds	r7, r7, #32
 921              	.LCFI40:
 922              		.cfi_def_cfa_offset 8
 923 011e BD46     		mov	sp, r7
 924              	.LCFI41:
 925              		.cfi_def_cfa_register 13
 926              		@ sp needed
 927 0120 80BD     		pop	{r7, pc}
 928              		.cfi_endproc
 929              	.LFE72:
 931              		.section	.text.HAL_UART_Receive,"ax",%progbits
 932              		.align	1
 933              		.global	HAL_UART_Receive
 934              		.syntax unified
 935              		.thumb
 936              		.thumb_func
 937              		.fpu softvfp
 939              	HAL_UART_Receive:
 940              	.LFB73:
1211:Drivers/STM32F1xx_HAL_Driver/Src/stm32f1xx_hal_uart.c **** 
1212:Drivers/STM32F1xx_HAL_Driver/Src/stm32f1xx_hal_uart.c **** /**
1213:Drivers/STM32F1xx_HAL_Driver/Src/stm32f1xx_hal_uart.c ****   * @brief  Receives an amount of data in blocking mode.
1214:Drivers/STM32F1xx_HAL_Driver/Src/stm32f1xx_hal_uart.c ****   * @note   When UART parity is not enabled (PCE = 0), and Word Length is configured to 9 bits (M1-
1215:Drivers/STM32F1xx_HAL_Driver/Src/stm32f1xx_hal_uart.c ****   *         the received data is handled as a set of u16. In this case, Size must indicate the numb
1216:Drivers/STM32F1xx_HAL_Driver/Src/stm32f1xx_hal_uart.c ****   *         of u16 available through pData.
1217:Drivers/STM32F1xx_HAL_Driver/Src/stm32f1xx_hal_uart.c ****   * @param  huart Pointer to a UART_HandleTypeDef structure that contains
1218:Drivers/STM32F1xx_HAL_Driver/Src/stm32f1xx_hal_uart.c ****   *               the configuration information for the specified UART module.
1219:Drivers/STM32F1xx_HAL_Driver/Src/stm32f1xx_hal_uart.c ****   * @param  pData Pointer to data buffer (u8 or u16 data elements).
1220:Drivers/STM32F1xx_HAL_Driver/Src/stm32f1xx_hal_uart.c ****   * @param  Size  Amount of data elements (u8 or u16) to be received.
1221:Drivers/STM32F1xx_HAL_Driver/Src/stm32f1xx_hal_uart.c ****   * @param  Timeout Timeout duration
1222:Drivers/STM32F1xx_HAL_Driver/Src/stm32f1xx_hal_uart.c ****   * @retval HAL status
1223:Drivers/STM32F1xx_HAL_Driver/Src/stm32f1xx_hal_uart.c ****   */
1224:Drivers/STM32F1xx_HAL_Driver/Src/stm32f1xx_hal_uart.c **** HAL_StatusTypeDef HAL_UART_Receive(UART_HandleTypeDef *huart, uint8_t *pData, uint16_t Size, uint32
1225:Drivers/STM32F1xx_HAL_Driver/Src/stm32f1xx_hal_uart.c **** {
 941              		.loc 1 1225 0
 942              		.cfi_startproc
 943              		@ args = 0, pretend = 0, frame = 32
 944              		@ frame_needed = 1, uses_anonymous_args = 0
 945 0000 80B5     		push	{r7, lr}
 946              	.LCFI42:
 947              		.cfi_def_cfa_offset 8
 948              		.cfi_offset 7, -8
 949              		.cfi_offset 14, -4
 950 0002 8AB0     		sub	sp, sp, #40
 951              	.LCFI43:
 952              		.cfi_def_cfa_offset 48
 953 0004 02AF     		add	r7, sp, #8
 954              	.LCFI44:
 955              		.cfi_def_cfa 7, 40
 956 0006 F860     		str	r0, [r7, #12]
 957 0008 B960     		str	r1, [r7, #8]
ARM GAS  /tmp/ccRUQzex.s 			page 39


 958 000a 3B60     		str	r3, [r7]
 959 000c 1346     		mov	r3, r2	@ movhi
 960 000e FB80     		strh	r3, [r7, #6]	@ movhi
1226:Drivers/STM32F1xx_HAL_Driver/Src/stm32f1xx_hal_uart.c ****   uint8_t  *pdata8bits;
1227:Drivers/STM32F1xx_HAL_Driver/Src/stm32f1xx_hal_uart.c ****   uint16_t *pdata16bits;
1228:Drivers/STM32F1xx_HAL_Driver/Src/stm32f1xx_hal_uart.c ****   uint32_t tickstart = 0U;
 961              		.loc 1 1228 0
 962 0010 0023     		movs	r3, #0
 963 0012 7B61     		str	r3, [r7, #20]
1229:Drivers/STM32F1xx_HAL_Driver/Src/stm32f1xx_hal_uart.c **** 
1230:Drivers/STM32F1xx_HAL_Driver/Src/stm32f1xx_hal_uart.c ****   /* Check that a Rx process is not already ongoing */
1231:Drivers/STM32F1xx_HAL_Driver/Src/stm32f1xx_hal_uart.c ****   if (huart->RxState == HAL_UART_STATE_READY)
 964              		.loc 1 1231 0
 965 0014 FB68     		ldr	r3, [r7, #12]
 966 0016 93F83E30 		ldrb	r3, [r3, #62]
 967 001a DBB2     		uxtb	r3, r3
 968 001c 202B     		cmp	r3, #32
 969 001e 40F08C80 		bne	.L37
1232:Drivers/STM32F1xx_HAL_Driver/Src/stm32f1xx_hal_uart.c ****   {
1233:Drivers/STM32F1xx_HAL_Driver/Src/stm32f1xx_hal_uart.c ****     if ((pData == NULL) || (Size == 0U))
 970              		.loc 1 1233 0
 971 0022 BB68     		ldr	r3, [r7, #8]
 972 0024 002B     		cmp	r3, #0
 973 0026 02D0     		beq	.L38
 974              		.loc 1 1233 0 is_stmt 0 discriminator 1
 975 0028 FB88     		ldrh	r3, [r7, #6]
 976 002a 002B     		cmp	r3, #0
 977 002c 01D1     		bne	.L39
 978              	.L38:
1234:Drivers/STM32F1xx_HAL_Driver/Src/stm32f1xx_hal_uart.c ****     {
1235:Drivers/STM32F1xx_HAL_Driver/Src/stm32f1xx_hal_uart.c ****       return  HAL_ERROR;
 979              		.loc 1 1235 0 is_stmt 1
 980 002e 0123     		movs	r3, #1
 981 0030 84E0     		b	.L40
 982              	.L39:
1236:Drivers/STM32F1xx_HAL_Driver/Src/stm32f1xx_hal_uart.c ****     }
1237:Drivers/STM32F1xx_HAL_Driver/Src/stm32f1xx_hal_uart.c **** 
1238:Drivers/STM32F1xx_HAL_Driver/Src/stm32f1xx_hal_uart.c ****     /* Process Locked */
1239:Drivers/STM32F1xx_HAL_Driver/Src/stm32f1xx_hal_uart.c ****     __HAL_LOCK(huart);
 983              		.loc 1 1239 0
 984 0032 FB68     		ldr	r3, [r7, #12]
 985 0034 93F83C30 		ldrb	r3, [r3, #60]	@ zero_extendqisi2
 986 0038 012B     		cmp	r3, #1
 987 003a 01D1     		bne	.L41
 988              		.loc 1 1239 0 is_stmt 0 discriminator 1
 989 003c 0223     		movs	r3, #2
 990 003e 7DE0     		b	.L40
 991              	.L41:
 992              		.loc 1 1239 0 discriminator 2
 993 0040 FB68     		ldr	r3, [r7, #12]
 994 0042 0122     		movs	r2, #1
 995 0044 83F83C20 		strb	r2, [r3, #60]
1240:Drivers/STM32F1xx_HAL_Driver/Src/stm32f1xx_hal_uart.c **** 
1241:Drivers/STM32F1xx_HAL_Driver/Src/stm32f1xx_hal_uart.c ****     huart->ErrorCode = HAL_UART_ERROR_NONE;
 996              		.loc 1 1241 0 is_stmt 1 discriminator 2
 997 0048 FB68     		ldr	r3, [r7, #12]
 998 004a 0022     		movs	r2, #0
ARM GAS  /tmp/ccRUQzex.s 			page 40


 999 004c 1A64     		str	r2, [r3, #64]
1242:Drivers/STM32F1xx_HAL_Driver/Src/stm32f1xx_hal_uart.c ****     huart->RxState = HAL_UART_STATE_BUSY_RX;
 1000              		.loc 1 1242 0 discriminator 2
 1001 004e FB68     		ldr	r3, [r7, #12]
 1002 0050 2222     		movs	r2, #34
 1003 0052 83F83E20 		strb	r2, [r3, #62]
1243:Drivers/STM32F1xx_HAL_Driver/Src/stm32f1xx_hal_uart.c ****     huart->ReceptionType = HAL_UART_RECEPTION_STANDARD;
 1004              		.loc 1 1243 0 discriminator 2
 1005 0056 FB68     		ldr	r3, [r7, #12]
 1006 0058 0022     		movs	r2, #0
 1007 005a 1A63     		str	r2, [r3, #48]
1244:Drivers/STM32F1xx_HAL_Driver/Src/stm32f1xx_hal_uart.c **** 
1245:Drivers/STM32F1xx_HAL_Driver/Src/stm32f1xx_hal_uart.c ****     /* Init tickstart for timeout management */
1246:Drivers/STM32F1xx_HAL_Driver/Src/stm32f1xx_hal_uart.c ****     tickstart = HAL_GetTick();
 1008              		.loc 1 1246 0 discriminator 2
 1009 005c FFF7FEFF 		bl	HAL_GetTick
 1010 0060 7861     		str	r0, [r7, #20]
1247:Drivers/STM32F1xx_HAL_Driver/Src/stm32f1xx_hal_uart.c **** 
1248:Drivers/STM32F1xx_HAL_Driver/Src/stm32f1xx_hal_uart.c ****     huart->RxXferSize = Size;
 1011              		.loc 1 1248 0 discriminator 2
 1012 0062 FB68     		ldr	r3, [r7, #12]
 1013 0064 FA88     		ldrh	r2, [r7, #6]	@ movhi
 1014 0066 9A85     		strh	r2, [r3, #44]	@ movhi
1249:Drivers/STM32F1xx_HAL_Driver/Src/stm32f1xx_hal_uart.c ****     huart->RxXferCount = Size;
 1015              		.loc 1 1249 0 discriminator 2
 1016 0068 FB68     		ldr	r3, [r7, #12]
 1017 006a FA88     		ldrh	r2, [r7, #6]	@ movhi
 1018 006c DA85     		strh	r2, [r3, #46]	@ movhi
1250:Drivers/STM32F1xx_HAL_Driver/Src/stm32f1xx_hal_uart.c **** 
1251:Drivers/STM32F1xx_HAL_Driver/Src/stm32f1xx_hal_uart.c ****     /* In case of 9bits/No Parity transfer, pRxData needs to be handled as a uint16_t pointer */
1252:Drivers/STM32F1xx_HAL_Driver/Src/stm32f1xx_hal_uart.c ****     if ((huart->Init.WordLength == UART_WORDLENGTH_9B) && (huart->Init.Parity == UART_PARITY_NONE))
 1019              		.loc 1 1252 0 discriminator 2
 1020 006e FB68     		ldr	r3, [r7, #12]
 1021 0070 9B68     		ldr	r3, [r3, #8]
 1022 0072 B3F5805F 		cmp	r3, #4096
 1023 0076 08D1     		bne	.L42
 1024              		.loc 1 1252 0 is_stmt 0 discriminator 1
 1025 0078 FB68     		ldr	r3, [r7, #12]
 1026 007a 1B69     		ldr	r3, [r3, #16]
 1027 007c 002B     		cmp	r3, #0
 1028 007e 04D1     		bne	.L42
1253:Drivers/STM32F1xx_HAL_Driver/Src/stm32f1xx_hal_uart.c ****     {
1254:Drivers/STM32F1xx_HAL_Driver/Src/stm32f1xx_hal_uart.c ****       pdata8bits  = NULL;
 1029              		.loc 1 1254 0 is_stmt 1
 1030 0080 0023     		movs	r3, #0
 1031 0082 FB61     		str	r3, [r7, #28]
1255:Drivers/STM32F1xx_HAL_Driver/Src/stm32f1xx_hal_uart.c ****       pdata16bits = (uint16_t *) pData;
 1032              		.loc 1 1255 0
 1033 0084 BB68     		ldr	r3, [r7, #8]
 1034 0086 BB61     		str	r3, [r7, #24]
 1035 0088 03E0     		b	.L43
 1036              	.L42:
1256:Drivers/STM32F1xx_HAL_Driver/Src/stm32f1xx_hal_uart.c ****     }
1257:Drivers/STM32F1xx_HAL_Driver/Src/stm32f1xx_hal_uart.c ****     else
1258:Drivers/STM32F1xx_HAL_Driver/Src/stm32f1xx_hal_uart.c ****     {
1259:Drivers/STM32F1xx_HAL_Driver/Src/stm32f1xx_hal_uart.c ****       pdata8bits  = pData;
 1037              		.loc 1 1259 0
ARM GAS  /tmp/ccRUQzex.s 			page 41


 1038 008a BB68     		ldr	r3, [r7, #8]
 1039 008c FB61     		str	r3, [r7, #28]
1260:Drivers/STM32F1xx_HAL_Driver/Src/stm32f1xx_hal_uart.c ****       pdata16bits = NULL;
 1040              		.loc 1 1260 0
 1041 008e 0023     		movs	r3, #0
 1042 0090 BB61     		str	r3, [r7, #24]
 1043              	.L43:
1261:Drivers/STM32F1xx_HAL_Driver/Src/stm32f1xx_hal_uart.c ****     }
1262:Drivers/STM32F1xx_HAL_Driver/Src/stm32f1xx_hal_uart.c **** 
1263:Drivers/STM32F1xx_HAL_Driver/Src/stm32f1xx_hal_uart.c ****     /* Process Unlocked */
1264:Drivers/STM32F1xx_HAL_Driver/Src/stm32f1xx_hal_uart.c ****     __HAL_UNLOCK(huart);
 1044              		.loc 1 1264 0
 1045 0092 FB68     		ldr	r3, [r7, #12]
 1046 0094 0022     		movs	r2, #0
 1047 0096 83F83C20 		strb	r2, [r3, #60]
1265:Drivers/STM32F1xx_HAL_Driver/Src/stm32f1xx_hal_uart.c **** 
1266:Drivers/STM32F1xx_HAL_Driver/Src/stm32f1xx_hal_uart.c ****     /* Check the remain data to be received */
1267:Drivers/STM32F1xx_HAL_Driver/Src/stm32f1xx_hal_uart.c ****     while (huart->RxXferCount > 0U)
 1048              		.loc 1 1267 0
 1049 009a 43E0     		b	.L44
 1050              	.L51:
1268:Drivers/STM32F1xx_HAL_Driver/Src/stm32f1xx_hal_uart.c ****     {
1269:Drivers/STM32F1xx_HAL_Driver/Src/stm32f1xx_hal_uart.c ****       if (UART_WaitOnFlagUntilTimeout(huart, UART_FLAG_RXNE, RESET, tickstart, Timeout) != HAL_OK)
 1051              		.loc 1 1269 0
 1052 009c 3B68     		ldr	r3, [r7]
 1053 009e 0093     		str	r3, [sp]
 1054 00a0 7B69     		ldr	r3, [r7, #20]
 1055 00a2 0022     		movs	r2, #0
 1056 00a4 2021     		movs	r1, #32
 1057 00a6 F868     		ldr	r0, [r7, #12]
 1058 00a8 FFF7FEFF 		bl	UART_WaitOnFlagUntilTimeout
 1059 00ac 0346     		mov	r3, r0
 1060 00ae 002B     		cmp	r3, #0
 1061 00b0 01D0     		beq	.L45
1270:Drivers/STM32F1xx_HAL_Driver/Src/stm32f1xx_hal_uart.c ****       {
1271:Drivers/STM32F1xx_HAL_Driver/Src/stm32f1xx_hal_uart.c ****         return HAL_TIMEOUT;
 1062              		.loc 1 1271 0
 1063 00b2 0323     		movs	r3, #3
 1064 00b4 42E0     		b	.L40
 1065              	.L45:
1272:Drivers/STM32F1xx_HAL_Driver/Src/stm32f1xx_hal_uart.c ****       }
1273:Drivers/STM32F1xx_HAL_Driver/Src/stm32f1xx_hal_uart.c ****       if (pdata8bits == NULL)
 1066              		.loc 1 1273 0
 1067 00b6 FB69     		ldr	r3, [r7, #28]
 1068 00b8 002B     		cmp	r3, #0
 1069 00ba 0CD1     		bne	.L46
1274:Drivers/STM32F1xx_HAL_Driver/Src/stm32f1xx_hal_uart.c ****       {
1275:Drivers/STM32F1xx_HAL_Driver/Src/stm32f1xx_hal_uart.c ****         *pdata16bits = (uint16_t)(huart->Instance->DR & 0x01FF);
 1070              		.loc 1 1275 0
 1071 00bc FB68     		ldr	r3, [r7, #12]
 1072 00be 1B68     		ldr	r3, [r3]
 1073 00c0 5B68     		ldr	r3, [r3, #4]
 1074 00c2 9BB2     		uxth	r3, r3
 1075 00c4 C3F30803 		ubfx	r3, r3, #0, #9
 1076 00c8 9AB2     		uxth	r2, r3
 1077 00ca BB69     		ldr	r3, [r7, #24]
 1078 00cc 1A80     		strh	r2, [r3]	@ movhi
ARM GAS  /tmp/ccRUQzex.s 			page 42


1276:Drivers/STM32F1xx_HAL_Driver/Src/stm32f1xx_hal_uart.c ****         pdata16bits++;
 1079              		.loc 1 1276 0
 1080 00ce BB69     		ldr	r3, [r7, #24]
 1081 00d0 0233     		adds	r3, r3, #2
 1082 00d2 BB61     		str	r3, [r7, #24]
 1083 00d4 1FE0     		b	.L47
 1084              	.L46:
1277:Drivers/STM32F1xx_HAL_Driver/Src/stm32f1xx_hal_uart.c ****       }
1278:Drivers/STM32F1xx_HAL_Driver/Src/stm32f1xx_hal_uart.c ****       else
1279:Drivers/STM32F1xx_HAL_Driver/Src/stm32f1xx_hal_uart.c ****       {
1280:Drivers/STM32F1xx_HAL_Driver/Src/stm32f1xx_hal_uart.c ****         if ((huart->Init.WordLength == UART_WORDLENGTH_9B) || ((huart->Init.WordLength == UART_WORD
 1085              		.loc 1 1280 0
 1086 00d6 FB68     		ldr	r3, [r7, #12]
 1087 00d8 9B68     		ldr	r3, [r3, #8]
 1088 00da B3F5805F 		cmp	r3, #4096
 1089 00de 07D0     		beq	.L48
 1090              		.loc 1 1280 0 is_stmt 0 discriminator 1
 1091 00e0 FB68     		ldr	r3, [r7, #12]
 1092 00e2 9B68     		ldr	r3, [r3, #8]
 1093 00e4 002B     		cmp	r3, #0
 1094 00e6 0AD1     		bne	.L49
 1095              		.loc 1 1280 0 discriminator 2
 1096 00e8 FB68     		ldr	r3, [r7, #12]
 1097 00ea 1B69     		ldr	r3, [r3, #16]
 1098 00ec 002B     		cmp	r3, #0
 1099 00ee 06D1     		bne	.L49
 1100              	.L48:
1281:Drivers/STM32F1xx_HAL_Driver/Src/stm32f1xx_hal_uart.c ****         {
1282:Drivers/STM32F1xx_HAL_Driver/Src/stm32f1xx_hal_uart.c ****           *pdata8bits = (uint8_t)(huart->Instance->DR & (uint8_t)0x00FF);
 1101              		.loc 1 1282 0 is_stmt 1
 1102 00f0 FB68     		ldr	r3, [r7, #12]
 1103 00f2 1B68     		ldr	r3, [r3]
 1104 00f4 5B68     		ldr	r3, [r3, #4]
 1105 00f6 DAB2     		uxtb	r2, r3
 1106 00f8 FB69     		ldr	r3, [r7, #28]
 1107 00fa 1A70     		strb	r2, [r3]
 1108 00fc 08E0     		b	.L50
 1109              	.L49:
1283:Drivers/STM32F1xx_HAL_Driver/Src/stm32f1xx_hal_uart.c ****         }
1284:Drivers/STM32F1xx_HAL_Driver/Src/stm32f1xx_hal_uart.c ****         else
1285:Drivers/STM32F1xx_HAL_Driver/Src/stm32f1xx_hal_uart.c ****         {
1286:Drivers/STM32F1xx_HAL_Driver/Src/stm32f1xx_hal_uart.c ****           *pdata8bits = (uint8_t)(huart->Instance->DR & (uint8_t)0x007F);
 1110              		.loc 1 1286 0
 1111 00fe FB68     		ldr	r3, [r7, #12]
 1112 0100 1B68     		ldr	r3, [r3]
 1113 0102 5B68     		ldr	r3, [r3, #4]
 1114 0104 DBB2     		uxtb	r3, r3
 1115 0106 03F07F03 		and	r3, r3, #127
 1116 010a DAB2     		uxtb	r2, r3
 1117 010c FB69     		ldr	r3, [r7, #28]
 1118 010e 1A70     		strb	r2, [r3]
 1119              	.L50:
1287:Drivers/STM32F1xx_HAL_Driver/Src/stm32f1xx_hal_uart.c ****         }
1288:Drivers/STM32F1xx_HAL_Driver/Src/stm32f1xx_hal_uart.c ****         pdata8bits++;
 1120              		.loc 1 1288 0
 1121 0110 FB69     		ldr	r3, [r7, #28]
 1122 0112 0133     		adds	r3, r3, #1
ARM GAS  /tmp/ccRUQzex.s 			page 43


 1123 0114 FB61     		str	r3, [r7, #28]
 1124              	.L47:
1289:Drivers/STM32F1xx_HAL_Driver/Src/stm32f1xx_hal_uart.c ****       }
1290:Drivers/STM32F1xx_HAL_Driver/Src/stm32f1xx_hal_uart.c ****       huart->RxXferCount--;
 1125              		.loc 1 1290 0
 1126 0116 FB68     		ldr	r3, [r7, #12]
 1127 0118 DB8D     		ldrh	r3, [r3, #46]	@ movhi
 1128 011a 9BB2     		uxth	r3, r3
 1129 011c 013B     		subs	r3, r3, #1
 1130 011e 9AB2     		uxth	r2, r3
 1131 0120 FB68     		ldr	r3, [r7, #12]
 1132 0122 DA85     		strh	r2, [r3, #46]	@ movhi
 1133              	.L44:
1267:Drivers/STM32F1xx_HAL_Driver/Src/stm32f1xx_hal_uart.c ****     {
 1134              		.loc 1 1267 0
 1135 0124 FB68     		ldr	r3, [r7, #12]
 1136 0126 DB8D     		ldrh	r3, [r3, #46]	@ movhi
 1137 0128 9BB2     		uxth	r3, r3
 1138 012a 002B     		cmp	r3, #0
 1139 012c B6D1     		bne	.L51
1291:Drivers/STM32F1xx_HAL_Driver/Src/stm32f1xx_hal_uart.c ****     }
1292:Drivers/STM32F1xx_HAL_Driver/Src/stm32f1xx_hal_uart.c **** 
1293:Drivers/STM32F1xx_HAL_Driver/Src/stm32f1xx_hal_uart.c ****     /* At end of Rx process, restore huart->RxState to Ready */
1294:Drivers/STM32F1xx_HAL_Driver/Src/stm32f1xx_hal_uart.c ****     huart->RxState = HAL_UART_STATE_READY;
 1140              		.loc 1 1294 0
 1141 012e FB68     		ldr	r3, [r7, #12]
 1142 0130 2022     		movs	r2, #32
 1143 0132 83F83E20 		strb	r2, [r3, #62]
1295:Drivers/STM32F1xx_HAL_Driver/Src/stm32f1xx_hal_uart.c **** 
1296:Drivers/STM32F1xx_HAL_Driver/Src/stm32f1xx_hal_uart.c ****     return HAL_OK;
 1144              		.loc 1 1296 0
 1145 0136 0023     		movs	r3, #0
 1146 0138 00E0     		b	.L40
 1147              	.L37:
1297:Drivers/STM32F1xx_HAL_Driver/Src/stm32f1xx_hal_uart.c ****   }
1298:Drivers/STM32F1xx_HAL_Driver/Src/stm32f1xx_hal_uart.c ****   else
1299:Drivers/STM32F1xx_HAL_Driver/Src/stm32f1xx_hal_uart.c ****   {
1300:Drivers/STM32F1xx_HAL_Driver/Src/stm32f1xx_hal_uart.c ****     return HAL_BUSY;
 1148              		.loc 1 1300 0
 1149 013a 0223     		movs	r3, #2
 1150              	.L40:
1301:Drivers/STM32F1xx_HAL_Driver/Src/stm32f1xx_hal_uart.c ****   }
1302:Drivers/STM32F1xx_HAL_Driver/Src/stm32f1xx_hal_uart.c **** }
 1151              		.loc 1 1302 0
 1152 013c 1846     		mov	r0, r3
 1153 013e 2037     		adds	r7, r7, #32
 1154              	.LCFI45:
 1155              		.cfi_def_cfa_offset 8
 1156 0140 BD46     		mov	sp, r7
 1157              	.LCFI46:
 1158              		.cfi_def_cfa_register 13
 1159              		@ sp needed
 1160 0142 80BD     		pop	{r7, pc}
 1161              		.cfi_endproc
 1162              	.LFE73:
 1164              		.section	.text.HAL_UART_Transmit_IT,"ax",%progbits
 1165              		.align	1
ARM GAS  /tmp/ccRUQzex.s 			page 44


 1166              		.global	HAL_UART_Transmit_IT
 1167              		.syntax unified
 1168              		.thumb
 1169              		.thumb_func
 1170              		.fpu softvfp
 1172              	HAL_UART_Transmit_IT:
 1173              	.LFB74:
1303:Drivers/STM32F1xx_HAL_Driver/Src/stm32f1xx_hal_uart.c **** 
1304:Drivers/STM32F1xx_HAL_Driver/Src/stm32f1xx_hal_uart.c **** /**
1305:Drivers/STM32F1xx_HAL_Driver/Src/stm32f1xx_hal_uart.c ****   * @brief  Sends an amount of data in non blocking mode.
1306:Drivers/STM32F1xx_HAL_Driver/Src/stm32f1xx_hal_uart.c ****   * @note   When UART parity is not enabled (PCE = 0), and Word Length is configured to 9 bits (M1-
1307:Drivers/STM32F1xx_HAL_Driver/Src/stm32f1xx_hal_uart.c ****   *         the sent data is handled as a set of u16. In this case, Size must indicate the number
1308:Drivers/STM32F1xx_HAL_Driver/Src/stm32f1xx_hal_uart.c ****   *         of u16 provided through pData.
1309:Drivers/STM32F1xx_HAL_Driver/Src/stm32f1xx_hal_uart.c ****   * @param  huart Pointer to a UART_HandleTypeDef structure that contains
1310:Drivers/STM32F1xx_HAL_Driver/Src/stm32f1xx_hal_uart.c ****   *               the configuration information for the specified UART module.
1311:Drivers/STM32F1xx_HAL_Driver/Src/stm32f1xx_hal_uart.c ****   * @param  pData Pointer to data buffer (u8 or u16 data elements).
1312:Drivers/STM32F1xx_HAL_Driver/Src/stm32f1xx_hal_uart.c ****   * @param  Size  Amount of data elements (u8 or u16) to be sent
1313:Drivers/STM32F1xx_HAL_Driver/Src/stm32f1xx_hal_uart.c ****   * @retval HAL status
1314:Drivers/STM32F1xx_HAL_Driver/Src/stm32f1xx_hal_uart.c ****   */
1315:Drivers/STM32F1xx_HAL_Driver/Src/stm32f1xx_hal_uart.c **** HAL_StatusTypeDef HAL_UART_Transmit_IT(UART_HandleTypeDef *huart, uint8_t *pData, uint16_t Size)
1316:Drivers/STM32F1xx_HAL_Driver/Src/stm32f1xx_hal_uart.c **** {
 1174              		.loc 1 1316 0
 1175              		.cfi_startproc
 1176              		@ args = 0, pretend = 0, frame = 16
 1177              		@ frame_needed = 1, uses_anonymous_args = 0
 1178              		@ link register save eliminated.
 1179 0000 80B4     		push	{r7}
 1180              	.LCFI47:
 1181              		.cfi_def_cfa_offset 4
 1182              		.cfi_offset 7, -4
 1183 0002 85B0     		sub	sp, sp, #20
 1184              	.LCFI48:
 1185              		.cfi_def_cfa_offset 24
 1186 0004 00AF     		add	r7, sp, #0
 1187              	.LCFI49:
 1188              		.cfi_def_cfa_register 7
 1189 0006 F860     		str	r0, [r7, #12]
 1190 0008 B960     		str	r1, [r7, #8]
 1191 000a 1346     		mov	r3, r2
 1192 000c FB80     		strh	r3, [r7, #6]	@ movhi
1317:Drivers/STM32F1xx_HAL_Driver/Src/stm32f1xx_hal_uart.c ****   /* Check that a Tx process is not already ongoing */
1318:Drivers/STM32F1xx_HAL_Driver/Src/stm32f1xx_hal_uart.c ****   if (huart->gState == HAL_UART_STATE_READY)
 1193              		.loc 1 1318 0
 1194 000e FB68     		ldr	r3, [r7, #12]
 1195 0010 93F83D30 		ldrb	r3, [r3, #61]
 1196 0014 DBB2     		uxtb	r3, r3
 1197 0016 202B     		cmp	r3, #32
 1198 0018 30D1     		bne	.L53
1319:Drivers/STM32F1xx_HAL_Driver/Src/stm32f1xx_hal_uart.c ****   {
1320:Drivers/STM32F1xx_HAL_Driver/Src/stm32f1xx_hal_uart.c ****     if ((pData == NULL) || (Size == 0U))
 1199              		.loc 1 1320 0
 1200 001a BB68     		ldr	r3, [r7, #8]
 1201 001c 002B     		cmp	r3, #0
 1202 001e 02D0     		beq	.L54
 1203              		.loc 1 1320 0 is_stmt 0 discriminator 1
 1204 0020 FB88     		ldrh	r3, [r7, #6]
 1205 0022 002B     		cmp	r3, #0
ARM GAS  /tmp/ccRUQzex.s 			page 45


 1206 0024 01D1     		bne	.L55
 1207              	.L54:
1321:Drivers/STM32F1xx_HAL_Driver/Src/stm32f1xx_hal_uart.c ****     {
1322:Drivers/STM32F1xx_HAL_Driver/Src/stm32f1xx_hal_uart.c ****       return HAL_ERROR;
 1208              		.loc 1 1322 0 is_stmt 1
 1209 0026 0123     		movs	r3, #1
 1210 0028 29E0     		b	.L56
 1211              	.L55:
1323:Drivers/STM32F1xx_HAL_Driver/Src/stm32f1xx_hal_uart.c ****     }
1324:Drivers/STM32F1xx_HAL_Driver/Src/stm32f1xx_hal_uart.c **** 
1325:Drivers/STM32F1xx_HAL_Driver/Src/stm32f1xx_hal_uart.c ****     /* Process Locked */
1326:Drivers/STM32F1xx_HAL_Driver/Src/stm32f1xx_hal_uart.c ****     __HAL_LOCK(huart);
 1212              		.loc 1 1326 0
 1213 002a FB68     		ldr	r3, [r7, #12]
 1214 002c 93F83C30 		ldrb	r3, [r3, #60]	@ zero_extendqisi2
 1215 0030 012B     		cmp	r3, #1
 1216 0032 01D1     		bne	.L57
 1217              		.loc 1 1326 0 is_stmt 0 discriminator 1
 1218 0034 0223     		movs	r3, #2
 1219 0036 22E0     		b	.L56
 1220              	.L57:
 1221              		.loc 1 1326 0 discriminator 2
 1222 0038 FB68     		ldr	r3, [r7, #12]
 1223 003a 0122     		movs	r2, #1
 1224 003c 83F83C20 		strb	r2, [r3, #60]
1327:Drivers/STM32F1xx_HAL_Driver/Src/stm32f1xx_hal_uart.c **** 
1328:Drivers/STM32F1xx_HAL_Driver/Src/stm32f1xx_hal_uart.c ****     huart->pTxBuffPtr = pData;
 1225              		.loc 1 1328 0 is_stmt 1 discriminator 2
 1226 0040 FB68     		ldr	r3, [r7, #12]
 1227 0042 BA68     		ldr	r2, [r7, #8]
 1228 0044 1A62     		str	r2, [r3, #32]
1329:Drivers/STM32F1xx_HAL_Driver/Src/stm32f1xx_hal_uart.c ****     huart->TxXferSize = Size;
 1229              		.loc 1 1329 0 discriminator 2
 1230 0046 FB68     		ldr	r3, [r7, #12]
 1231 0048 FA88     		ldrh	r2, [r7, #6]	@ movhi
 1232 004a 9A84     		strh	r2, [r3, #36]	@ movhi
1330:Drivers/STM32F1xx_HAL_Driver/Src/stm32f1xx_hal_uart.c ****     huart->TxXferCount = Size;
 1233              		.loc 1 1330 0 discriminator 2
 1234 004c FB68     		ldr	r3, [r7, #12]
 1235 004e FA88     		ldrh	r2, [r7, #6]	@ movhi
 1236 0050 DA84     		strh	r2, [r3, #38]	@ movhi
1331:Drivers/STM32F1xx_HAL_Driver/Src/stm32f1xx_hal_uart.c **** 
1332:Drivers/STM32F1xx_HAL_Driver/Src/stm32f1xx_hal_uart.c ****     huart->ErrorCode = HAL_UART_ERROR_NONE;
 1237              		.loc 1 1332 0 discriminator 2
 1238 0052 FB68     		ldr	r3, [r7, #12]
 1239 0054 0022     		movs	r2, #0
 1240 0056 1A64     		str	r2, [r3, #64]
1333:Drivers/STM32F1xx_HAL_Driver/Src/stm32f1xx_hal_uart.c ****     huart->gState = HAL_UART_STATE_BUSY_TX;
 1241              		.loc 1 1333 0 discriminator 2
 1242 0058 FB68     		ldr	r3, [r7, #12]
 1243 005a 2122     		movs	r2, #33
 1244 005c 83F83D20 		strb	r2, [r3, #61]
1334:Drivers/STM32F1xx_HAL_Driver/Src/stm32f1xx_hal_uart.c **** 
1335:Drivers/STM32F1xx_HAL_Driver/Src/stm32f1xx_hal_uart.c ****     /* Process Unlocked */
1336:Drivers/STM32F1xx_HAL_Driver/Src/stm32f1xx_hal_uart.c ****     __HAL_UNLOCK(huart);
 1245              		.loc 1 1336 0 discriminator 2
 1246 0060 FB68     		ldr	r3, [r7, #12]
ARM GAS  /tmp/ccRUQzex.s 			page 46


 1247 0062 0022     		movs	r2, #0
 1248 0064 83F83C20 		strb	r2, [r3, #60]
1337:Drivers/STM32F1xx_HAL_Driver/Src/stm32f1xx_hal_uart.c **** 
1338:Drivers/STM32F1xx_HAL_Driver/Src/stm32f1xx_hal_uart.c ****     /* Enable the UART Transmit data register empty Interrupt */
1339:Drivers/STM32F1xx_HAL_Driver/Src/stm32f1xx_hal_uart.c ****     __HAL_UART_ENABLE_IT(huart, UART_IT_TXE);
 1249              		.loc 1 1339 0 discriminator 2
 1250 0068 FB68     		ldr	r3, [r7, #12]
 1251 006a 1B68     		ldr	r3, [r3]
 1252 006c FA68     		ldr	r2, [r7, #12]
 1253 006e 1268     		ldr	r2, [r2]
 1254 0070 D268     		ldr	r2, [r2, #12]
 1255 0072 42F08002 		orr	r2, r2, #128
 1256 0076 DA60     		str	r2, [r3, #12]
1340:Drivers/STM32F1xx_HAL_Driver/Src/stm32f1xx_hal_uart.c **** 
1341:Drivers/STM32F1xx_HAL_Driver/Src/stm32f1xx_hal_uart.c ****     return HAL_OK;
 1257              		.loc 1 1341 0 discriminator 2
 1258 0078 0023     		movs	r3, #0
 1259 007a 00E0     		b	.L56
 1260              	.L53:
1342:Drivers/STM32F1xx_HAL_Driver/Src/stm32f1xx_hal_uart.c ****   }
1343:Drivers/STM32F1xx_HAL_Driver/Src/stm32f1xx_hal_uart.c ****   else
1344:Drivers/STM32F1xx_HAL_Driver/Src/stm32f1xx_hal_uart.c ****   {
1345:Drivers/STM32F1xx_HAL_Driver/Src/stm32f1xx_hal_uart.c ****     return HAL_BUSY;
 1261              		.loc 1 1345 0
 1262 007c 0223     		movs	r3, #2
 1263              	.L56:
1346:Drivers/STM32F1xx_HAL_Driver/Src/stm32f1xx_hal_uart.c ****   }
1347:Drivers/STM32F1xx_HAL_Driver/Src/stm32f1xx_hal_uart.c **** }
 1264              		.loc 1 1347 0
 1265 007e 1846     		mov	r0, r3
 1266 0080 1437     		adds	r7, r7, #20
 1267              	.LCFI50:
 1268              		.cfi_def_cfa_offset 4
 1269 0082 BD46     		mov	sp, r7
 1270              	.LCFI51:
 1271              		.cfi_def_cfa_register 13
 1272              		@ sp needed
 1273 0084 80BC     		pop	{r7}
 1274              	.LCFI52:
 1275              		.cfi_restore 7
 1276              		.cfi_def_cfa_offset 0
 1277 0086 7047     		bx	lr
 1278              		.cfi_endproc
 1279              	.LFE74:
 1281              		.section	.text.HAL_UART_Receive_IT,"ax",%progbits
 1282              		.align	1
 1283              		.global	HAL_UART_Receive_IT
 1284              		.syntax unified
 1285              		.thumb
 1286              		.thumb_func
 1287              		.fpu softvfp
 1289              	HAL_UART_Receive_IT:
 1290              	.LFB75:
1348:Drivers/STM32F1xx_HAL_Driver/Src/stm32f1xx_hal_uart.c **** 
1349:Drivers/STM32F1xx_HAL_Driver/Src/stm32f1xx_hal_uart.c **** /**
1350:Drivers/STM32F1xx_HAL_Driver/Src/stm32f1xx_hal_uart.c ****   * @brief  Receives an amount of data in non blocking mode.
1351:Drivers/STM32F1xx_HAL_Driver/Src/stm32f1xx_hal_uart.c ****   * @note   When UART parity is not enabled (PCE = 0), and Word Length is configured to 9 bits (M1-
ARM GAS  /tmp/ccRUQzex.s 			page 47


1352:Drivers/STM32F1xx_HAL_Driver/Src/stm32f1xx_hal_uart.c ****   *         the received data is handled as a set of u16. In this case, Size must indicate the numb
1353:Drivers/STM32F1xx_HAL_Driver/Src/stm32f1xx_hal_uart.c ****   *         of u16 available through pData.
1354:Drivers/STM32F1xx_HAL_Driver/Src/stm32f1xx_hal_uart.c ****   * @param  huart Pointer to a UART_HandleTypeDef structure that contains
1355:Drivers/STM32F1xx_HAL_Driver/Src/stm32f1xx_hal_uart.c ****   *               the configuration information for the specified UART module.
1356:Drivers/STM32F1xx_HAL_Driver/Src/stm32f1xx_hal_uart.c ****   * @param  pData Pointer to data buffer (u8 or u16 data elements).
1357:Drivers/STM32F1xx_HAL_Driver/Src/stm32f1xx_hal_uart.c ****   * @param  Size  Amount of data elements (u8 or u16) to be received.
1358:Drivers/STM32F1xx_HAL_Driver/Src/stm32f1xx_hal_uart.c ****   * @retval HAL status
1359:Drivers/STM32F1xx_HAL_Driver/Src/stm32f1xx_hal_uart.c ****   */
1360:Drivers/STM32F1xx_HAL_Driver/Src/stm32f1xx_hal_uart.c **** HAL_StatusTypeDef HAL_UART_Receive_IT(UART_HandleTypeDef *huart, uint8_t *pData, uint16_t Size)
1361:Drivers/STM32F1xx_HAL_Driver/Src/stm32f1xx_hal_uart.c **** {
 1291              		.loc 1 1361 0
 1292              		.cfi_startproc
 1293              		@ args = 0, pretend = 0, frame = 16
 1294              		@ frame_needed = 1, uses_anonymous_args = 0
 1295 0000 80B5     		push	{r7, lr}
 1296              	.LCFI53:
 1297              		.cfi_def_cfa_offset 8
 1298              		.cfi_offset 7, -8
 1299              		.cfi_offset 14, -4
 1300 0002 84B0     		sub	sp, sp, #16
 1301              	.LCFI54:
 1302              		.cfi_def_cfa_offset 24
 1303 0004 00AF     		add	r7, sp, #0
 1304              	.LCFI55:
 1305              		.cfi_def_cfa_register 7
 1306 0006 F860     		str	r0, [r7, #12]
 1307 0008 B960     		str	r1, [r7, #8]
 1308 000a 1346     		mov	r3, r2
 1309 000c FB80     		strh	r3, [r7, #6]	@ movhi
1362:Drivers/STM32F1xx_HAL_Driver/Src/stm32f1xx_hal_uart.c ****   /* Check that a Rx process is not already ongoing */
1363:Drivers/STM32F1xx_HAL_Driver/Src/stm32f1xx_hal_uart.c ****   if (huart->RxState == HAL_UART_STATE_READY)
 1310              		.loc 1 1363 0
 1311 000e FB68     		ldr	r3, [r7, #12]
 1312 0010 93F83E30 		ldrb	r3, [r3, #62]
 1313 0014 DBB2     		uxtb	r3, r3
 1314 0016 202B     		cmp	r3, #32
 1315 0018 1DD1     		bne	.L59
1364:Drivers/STM32F1xx_HAL_Driver/Src/stm32f1xx_hal_uart.c ****   {
1365:Drivers/STM32F1xx_HAL_Driver/Src/stm32f1xx_hal_uart.c ****     if ((pData == NULL) || (Size == 0U))
 1316              		.loc 1 1365 0
 1317 001a BB68     		ldr	r3, [r7, #8]
 1318 001c 002B     		cmp	r3, #0
 1319 001e 02D0     		beq	.L60
 1320              		.loc 1 1365 0 is_stmt 0 discriminator 1
 1321 0020 FB88     		ldrh	r3, [r7, #6]
 1322 0022 002B     		cmp	r3, #0
 1323 0024 01D1     		bne	.L61
 1324              	.L60:
1366:Drivers/STM32F1xx_HAL_Driver/Src/stm32f1xx_hal_uart.c ****     {
1367:Drivers/STM32F1xx_HAL_Driver/Src/stm32f1xx_hal_uart.c ****       return HAL_ERROR;
 1325              		.loc 1 1367 0 is_stmt 1
 1326 0026 0123     		movs	r3, #1
 1327 0028 16E0     		b	.L62
 1328              	.L61:
1368:Drivers/STM32F1xx_HAL_Driver/Src/stm32f1xx_hal_uart.c ****     }
1369:Drivers/STM32F1xx_HAL_Driver/Src/stm32f1xx_hal_uart.c **** 
1370:Drivers/STM32F1xx_HAL_Driver/Src/stm32f1xx_hal_uart.c ****     /* Process Locked */
ARM GAS  /tmp/ccRUQzex.s 			page 48


1371:Drivers/STM32F1xx_HAL_Driver/Src/stm32f1xx_hal_uart.c ****     __HAL_LOCK(huart);
 1329              		.loc 1 1371 0
 1330 002a FB68     		ldr	r3, [r7, #12]
 1331 002c 93F83C30 		ldrb	r3, [r3, #60]	@ zero_extendqisi2
 1332 0030 012B     		cmp	r3, #1
 1333 0032 01D1     		bne	.L63
 1334              		.loc 1 1371 0 is_stmt 0 discriminator 1
 1335 0034 0223     		movs	r3, #2
 1336 0036 0FE0     		b	.L62
 1337              	.L63:
 1338              		.loc 1 1371 0 discriminator 2
 1339 0038 FB68     		ldr	r3, [r7, #12]
 1340 003a 0122     		movs	r2, #1
 1341 003c 83F83C20 		strb	r2, [r3, #60]
1372:Drivers/STM32F1xx_HAL_Driver/Src/stm32f1xx_hal_uart.c **** 
1373:Drivers/STM32F1xx_HAL_Driver/Src/stm32f1xx_hal_uart.c ****     /* Set Reception type to Standard reception */
1374:Drivers/STM32F1xx_HAL_Driver/Src/stm32f1xx_hal_uart.c ****     huart->ReceptionType = HAL_UART_RECEPTION_STANDARD;
 1342              		.loc 1 1374 0 is_stmt 1 discriminator 2
 1343 0040 FB68     		ldr	r3, [r7, #12]
 1344 0042 0022     		movs	r2, #0
 1345 0044 1A63     		str	r2, [r3, #48]
1375:Drivers/STM32F1xx_HAL_Driver/Src/stm32f1xx_hal_uart.c **** 
1376:Drivers/STM32F1xx_HAL_Driver/Src/stm32f1xx_hal_uart.c ****     return(UART_Start_Receive_IT(huart, pData, Size));
 1346              		.loc 1 1376 0 discriminator 2
 1347 0046 FB88     		ldrh	r3, [r7, #6]
 1348 0048 1A46     		mov	r2, r3
 1349 004a B968     		ldr	r1, [r7, #8]
 1350 004c F868     		ldr	r0, [r7, #12]
 1351 004e FFF7FEFF 		bl	UART_Start_Receive_IT
 1352 0052 0346     		mov	r3, r0
 1353 0054 00E0     		b	.L62
 1354              	.L59:
1377:Drivers/STM32F1xx_HAL_Driver/Src/stm32f1xx_hal_uart.c ****   }
1378:Drivers/STM32F1xx_HAL_Driver/Src/stm32f1xx_hal_uart.c ****   else
1379:Drivers/STM32F1xx_HAL_Driver/Src/stm32f1xx_hal_uart.c ****   {
1380:Drivers/STM32F1xx_HAL_Driver/Src/stm32f1xx_hal_uart.c ****     return HAL_BUSY;
 1355              		.loc 1 1380 0
 1356 0056 0223     		movs	r3, #2
 1357              	.L62:
1381:Drivers/STM32F1xx_HAL_Driver/Src/stm32f1xx_hal_uart.c ****   }
1382:Drivers/STM32F1xx_HAL_Driver/Src/stm32f1xx_hal_uart.c **** }
 1358              		.loc 1 1382 0
 1359 0058 1846     		mov	r0, r3
 1360 005a 1037     		adds	r7, r7, #16
 1361              	.LCFI56:
 1362              		.cfi_def_cfa_offset 8
 1363 005c BD46     		mov	sp, r7
 1364              	.LCFI57:
 1365              		.cfi_def_cfa_register 13
 1366              		@ sp needed
 1367 005e 80BD     		pop	{r7, pc}
 1368              		.cfi_endproc
 1369              	.LFE75:
 1371              		.section	.text.HAL_UART_Transmit_DMA,"ax",%progbits
 1372              		.align	1
 1373              		.global	HAL_UART_Transmit_DMA
 1374              		.syntax unified
ARM GAS  /tmp/ccRUQzex.s 			page 49


 1375              		.thumb
 1376              		.thumb_func
 1377              		.fpu softvfp
 1379              	HAL_UART_Transmit_DMA:
 1380              	.LFB76:
1383:Drivers/STM32F1xx_HAL_Driver/Src/stm32f1xx_hal_uart.c **** 
1384:Drivers/STM32F1xx_HAL_Driver/Src/stm32f1xx_hal_uart.c **** /**
1385:Drivers/STM32F1xx_HAL_Driver/Src/stm32f1xx_hal_uart.c ****   * @brief  Sends an amount of data in DMA mode.
1386:Drivers/STM32F1xx_HAL_Driver/Src/stm32f1xx_hal_uart.c ****   * @note   When UART parity is not enabled (PCE = 0), and Word Length is configured to 9 bits (M1-
1387:Drivers/STM32F1xx_HAL_Driver/Src/stm32f1xx_hal_uart.c ****   *         the sent data is handled as a set of u16. In this case, Size must indicate the number
1388:Drivers/STM32F1xx_HAL_Driver/Src/stm32f1xx_hal_uart.c ****   *         of u16 provided through pData.
1389:Drivers/STM32F1xx_HAL_Driver/Src/stm32f1xx_hal_uart.c ****   * @param  huart  Pointer to a UART_HandleTypeDef structure that contains
1390:Drivers/STM32F1xx_HAL_Driver/Src/stm32f1xx_hal_uart.c ****   *                the configuration information for the specified UART module.
1391:Drivers/STM32F1xx_HAL_Driver/Src/stm32f1xx_hal_uart.c ****   * @param  pData Pointer to data buffer (u8 or u16 data elements).
1392:Drivers/STM32F1xx_HAL_Driver/Src/stm32f1xx_hal_uart.c ****   * @param  Size  Amount of data elements (u8 or u16) to be sent
1393:Drivers/STM32F1xx_HAL_Driver/Src/stm32f1xx_hal_uart.c ****   * @retval HAL status
1394:Drivers/STM32F1xx_HAL_Driver/Src/stm32f1xx_hal_uart.c ****   */
1395:Drivers/STM32F1xx_HAL_Driver/Src/stm32f1xx_hal_uart.c **** HAL_StatusTypeDef HAL_UART_Transmit_DMA(UART_HandleTypeDef *huart, uint8_t *pData, uint16_t Size)
1396:Drivers/STM32F1xx_HAL_Driver/Src/stm32f1xx_hal_uart.c **** {
 1381              		.loc 1 1396 0
 1382              		.cfi_startproc
 1383              		@ args = 0, pretend = 0, frame = 24
 1384              		@ frame_needed = 1, uses_anonymous_args = 0
 1385 0000 80B5     		push	{r7, lr}
 1386              	.LCFI58:
 1387              		.cfi_def_cfa_offset 8
 1388              		.cfi_offset 7, -8
 1389              		.cfi_offset 14, -4
 1390 0002 86B0     		sub	sp, sp, #24
 1391              	.LCFI59:
 1392              		.cfi_def_cfa_offset 32
 1393 0004 00AF     		add	r7, sp, #0
 1394              	.LCFI60:
 1395              		.cfi_def_cfa_register 7
 1396 0006 F860     		str	r0, [r7, #12]
 1397 0008 B960     		str	r1, [r7, #8]
 1398 000a 1346     		mov	r3, r2
 1399 000c FB80     		strh	r3, [r7, #6]	@ movhi
1397:Drivers/STM32F1xx_HAL_Driver/Src/stm32f1xx_hal_uart.c ****   uint32_t *tmp;
1398:Drivers/STM32F1xx_HAL_Driver/Src/stm32f1xx_hal_uart.c **** 
1399:Drivers/STM32F1xx_HAL_Driver/Src/stm32f1xx_hal_uart.c ****   /* Check that a Tx process is not already ongoing */
1400:Drivers/STM32F1xx_HAL_Driver/Src/stm32f1xx_hal_uart.c ****   if (huart->gState == HAL_UART_STATE_READY)
 1400              		.loc 1 1400 0
 1401 000e FB68     		ldr	r3, [r7, #12]
 1402 0010 93F83D30 		ldrb	r3, [r3, #61]
 1403 0014 DBB2     		uxtb	r3, r3
 1404 0016 202B     		cmp	r3, #32
 1405 0018 53D1     		bne	.L65
1401:Drivers/STM32F1xx_HAL_Driver/Src/stm32f1xx_hal_uart.c ****   {
1402:Drivers/STM32F1xx_HAL_Driver/Src/stm32f1xx_hal_uart.c ****     if ((pData == NULL) || (Size == 0U))
 1406              		.loc 1 1402 0
 1407 001a BB68     		ldr	r3, [r7, #8]
 1408 001c 002B     		cmp	r3, #0
 1409 001e 02D0     		beq	.L66
 1410              		.loc 1 1402 0 is_stmt 0 discriminator 1
 1411 0020 FB88     		ldrh	r3, [r7, #6]
 1412 0022 002B     		cmp	r3, #0
ARM GAS  /tmp/ccRUQzex.s 			page 50


 1413 0024 01D1     		bne	.L67
 1414              	.L66:
1403:Drivers/STM32F1xx_HAL_Driver/Src/stm32f1xx_hal_uart.c ****     {
1404:Drivers/STM32F1xx_HAL_Driver/Src/stm32f1xx_hal_uart.c ****       return HAL_ERROR;
 1415              		.loc 1 1404 0 is_stmt 1
 1416 0026 0123     		movs	r3, #1
 1417 0028 4CE0     		b	.L68
 1418              	.L67:
1405:Drivers/STM32F1xx_HAL_Driver/Src/stm32f1xx_hal_uart.c ****     }
1406:Drivers/STM32F1xx_HAL_Driver/Src/stm32f1xx_hal_uart.c **** 
1407:Drivers/STM32F1xx_HAL_Driver/Src/stm32f1xx_hal_uart.c ****     /* Process Locked */
1408:Drivers/STM32F1xx_HAL_Driver/Src/stm32f1xx_hal_uart.c ****     __HAL_LOCK(huart);
 1419              		.loc 1 1408 0
 1420 002a FB68     		ldr	r3, [r7, #12]
 1421 002c 93F83C30 		ldrb	r3, [r3, #60]	@ zero_extendqisi2
 1422 0030 012B     		cmp	r3, #1
 1423 0032 01D1     		bne	.L69
 1424              		.loc 1 1408 0 is_stmt 0 discriminator 1
 1425 0034 0223     		movs	r3, #2
 1426 0036 45E0     		b	.L68
 1427              	.L69:
 1428              		.loc 1 1408 0 discriminator 2
 1429 0038 FB68     		ldr	r3, [r7, #12]
 1430 003a 0122     		movs	r2, #1
 1431 003c 83F83C20 		strb	r2, [r3, #60]
1409:Drivers/STM32F1xx_HAL_Driver/Src/stm32f1xx_hal_uart.c **** 
1410:Drivers/STM32F1xx_HAL_Driver/Src/stm32f1xx_hal_uart.c ****     huart->pTxBuffPtr = pData;
 1432              		.loc 1 1410 0 is_stmt 1 discriminator 2
 1433 0040 BA68     		ldr	r2, [r7, #8]
 1434 0042 FB68     		ldr	r3, [r7, #12]
 1435 0044 1A62     		str	r2, [r3, #32]
1411:Drivers/STM32F1xx_HAL_Driver/Src/stm32f1xx_hal_uart.c ****     huart->TxXferSize = Size;
 1436              		.loc 1 1411 0 discriminator 2
 1437 0046 FB68     		ldr	r3, [r7, #12]
 1438 0048 FA88     		ldrh	r2, [r7, #6]	@ movhi
 1439 004a 9A84     		strh	r2, [r3, #36]	@ movhi
1412:Drivers/STM32F1xx_HAL_Driver/Src/stm32f1xx_hal_uart.c ****     huart->TxXferCount = Size;
 1440              		.loc 1 1412 0 discriminator 2
 1441 004c FB68     		ldr	r3, [r7, #12]
 1442 004e FA88     		ldrh	r2, [r7, #6]	@ movhi
 1443 0050 DA84     		strh	r2, [r3, #38]	@ movhi
1413:Drivers/STM32F1xx_HAL_Driver/Src/stm32f1xx_hal_uart.c **** 
1414:Drivers/STM32F1xx_HAL_Driver/Src/stm32f1xx_hal_uart.c ****     huart->ErrorCode = HAL_UART_ERROR_NONE;
 1444              		.loc 1 1414 0 discriminator 2
 1445 0052 FB68     		ldr	r3, [r7, #12]
 1446 0054 0022     		movs	r2, #0
 1447 0056 1A64     		str	r2, [r3, #64]
1415:Drivers/STM32F1xx_HAL_Driver/Src/stm32f1xx_hal_uart.c ****     huart->gState = HAL_UART_STATE_BUSY_TX;
 1448              		.loc 1 1415 0 discriminator 2
 1449 0058 FB68     		ldr	r3, [r7, #12]
 1450 005a 2122     		movs	r2, #33
 1451 005c 83F83D20 		strb	r2, [r3, #61]
1416:Drivers/STM32F1xx_HAL_Driver/Src/stm32f1xx_hal_uart.c **** 
1417:Drivers/STM32F1xx_HAL_Driver/Src/stm32f1xx_hal_uart.c ****     /* Set the UART DMA transfer complete callback */
1418:Drivers/STM32F1xx_HAL_Driver/Src/stm32f1xx_hal_uart.c ****     huart->hdmatx->XferCpltCallback = UART_DMATransmitCplt;
 1452              		.loc 1 1418 0 discriminator 2
 1453 0060 FB68     		ldr	r3, [r7, #12]
ARM GAS  /tmp/ccRUQzex.s 			page 51


 1454 0062 5B6B     		ldr	r3, [r3, #52]
 1455 0064 194A     		ldr	r2, .L70
 1456 0066 9A62     		str	r2, [r3, #40]
1419:Drivers/STM32F1xx_HAL_Driver/Src/stm32f1xx_hal_uart.c **** 
1420:Drivers/STM32F1xx_HAL_Driver/Src/stm32f1xx_hal_uart.c ****     /* Set the UART DMA Half transfer complete callback */
1421:Drivers/STM32F1xx_HAL_Driver/Src/stm32f1xx_hal_uart.c ****     huart->hdmatx->XferHalfCpltCallback = UART_DMATxHalfCplt;
 1457              		.loc 1 1421 0 discriminator 2
 1458 0068 FB68     		ldr	r3, [r7, #12]
 1459 006a 5B6B     		ldr	r3, [r3, #52]
 1460 006c 184A     		ldr	r2, .L70+4
 1461 006e DA62     		str	r2, [r3, #44]
1422:Drivers/STM32F1xx_HAL_Driver/Src/stm32f1xx_hal_uart.c **** 
1423:Drivers/STM32F1xx_HAL_Driver/Src/stm32f1xx_hal_uart.c ****     /* Set the DMA error callback */
1424:Drivers/STM32F1xx_HAL_Driver/Src/stm32f1xx_hal_uart.c ****     huart->hdmatx->XferErrorCallback = UART_DMAError;
 1462              		.loc 1 1424 0 discriminator 2
 1463 0070 FB68     		ldr	r3, [r7, #12]
 1464 0072 5B6B     		ldr	r3, [r3, #52]
 1465 0074 174A     		ldr	r2, .L70+8
 1466 0076 1A63     		str	r2, [r3, #48]
1425:Drivers/STM32F1xx_HAL_Driver/Src/stm32f1xx_hal_uart.c **** 
1426:Drivers/STM32F1xx_HAL_Driver/Src/stm32f1xx_hal_uart.c ****     /* Set the DMA abort callback */
1427:Drivers/STM32F1xx_HAL_Driver/Src/stm32f1xx_hal_uart.c ****     huart->hdmatx->XferAbortCallback = NULL;
 1467              		.loc 1 1427 0 discriminator 2
 1468 0078 FB68     		ldr	r3, [r7, #12]
 1469 007a 5B6B     		ldr	r3, [r3, #52]
 1470 007c 0022     		movs	r2, #0
 1471 007e 5A63     		str	r2, [r3, #52]
1428:Drivers/STM32F1xx_HAL_Driver/Src/stm32f1xx_hal_uart.c **** 
1429:Drivers/STM32F1xx_HAL_Driver/Src/stm32f1xx_hal_uart.c ****     /* Enable the UART transmit DMA channel */
1430:Drivers/STM32F1xx_HAL_Driver/Src/stm32f1xx_hal_uart.c ****     tmp = (uint32_t *)&pData;
 1472              		.loc 1 1430 0 discriminator 2
 1473 0080 07F10803 		add	r3, r7, #8
 1474 0084 7B61     		str	r3, [r7, #20]
1431:Drivers/STM32F1xx_HAL_Driver/Src/stm32f1xx_hal_uart.c ****     HAL_DMA_Start_IT(huart->hdmatx, *(uint32_t *)tmp, (uint32_t)&huart->Instance->DR, Size);
 1475              		.loc 1 1431 0 discriminator 2
 1476 0086 FB68     		ldr	r3, [r7, #12]
 1477 0088 586B     		ldr	r0, [r3, #52]
 1478 008a 7B69     		ldr	r3, [r7, #20]
 1479 008c 1968     		ldr	r1, [r3]
 1480 008e FB68     		ldr	r3, [r7, #12]
 1481 0090 1B68     		ldr	r3, [r3]
 1482 0092 0433     		adds	r3, r3, #4
 1483 0094 1A46     		mov	r2, r3
 1484 0096 FB88     		ldrh	r3, [r7, #6]
 1485 0098 FFF7FEFF 		bl	HAL_DMA_Start_IT
1432:Drivers/STM32F1xx_HAL_Driver/Src/stm32f1xx_hal_uart.c **** 
1433:Drivers/STM32F1xx_HAL_Driver/Src/stm32f1xx_hal_uart.c ****     /* Clear the TC flag in the SR register by writing 0 to it */
1434:Drivers/STM32F1xx_HAL_Driver/Src/stm32f1xx_hal_uart.c ****     __HAL_UART_CLEAR_FLAG(huart, UART_FLAG_TC);
 1486              		.loc 1 1434 0 discriminator 2
 1487 009c FB68     		ldr	r3, [r7, #12]
 1488 009e 1B68     		ldr	r3, [r3]
 1489 00a0 6FF04002 		mvn	r2, #64
 1490 00a4 1A60     		str	r2, [r3]
1435:Drivers/STM32F1xx_HAL_Driver/Src/stm32f1xx_hal_uart.c **** 
1436:Drivers/STM32F1xx_HAL_Driver/Src/stm32f1xx_hal_uart.c ****     /* Process Unlocked */
1437:Drivers/STM32F1xx_HAL_Driver/Src/stm32f1xx_hal_uart.c ****     __HAL_UNLOCK(huart);
 1491              		.loc 1 1437 0 discriminator 2
ARM GAS  /tmp/ccRUQzex.s 			page 52


 1492 00a6 FB68     		ldr	r3, [r7, #12]
 1493 00a8 0022     		movs	r2, #0
 1494 00aa 83F83C20 		strb	r2, [r3, #60]
1438:Drivers/STM32F1xx_HAL_Driver/Src/stm32f1xx_hal_uart.c **** 
1439:Drivers/STM32F1xx_HAL_Driver/Src/stm32f1xx_hal_uart.c ****     /* Enable the DMA transfer for transmit request by setting the DMAT bit
1440:Drivers/STM32F1xx_HAL_Driver/Src/stm32f1xx_hal_uart.c ****        in the UART CR3 register */
1441:Drivers/STM32F1xx_HAL_Driver/Src/stm32f1xx_hal_uart.c ****     SET_BIT(huart->Instance->CR3, USART_CR3_DMAT);
 1495              		.loc 1 1441 0 discriminator 2
 1496 00ae FB68     		ldr	r3, [r7, #12]
 1497 00b0 1B68     		ldr	r3, [r3]
 1498 00b2 FA68     		ldr	r2, [r7, #12]
 1499 00b4 1268     		ldr	r2, [r2]
 1500 00b6 5269     		ldr	r2, [r2, #20]
 1501 00b8 42F08002 		orr	r2, r2, #128
 1502 00bc 5A61     		str	r2, [r3, #20]
1442:Drivers/STM32F1xx_HAL_Driver/Src/stm32f1xx_hal_uart.c **** 
1443:Drivers/STM32F1xx_HAL_Driver/Src/stm32f1xx_hal_uart.c ****     return HAL_OK;
 1503              		.loc 1 1443 0 discriminator 2
 1504 00be 0023     		movs	r3, #0
 1505 00c0 00E0     		b	.L68
 1506              	.L65:
1444:Drivers/STM32F1xx_HAL_Driver/Src/stm32f1xx_hal_uart.c ****   }
1445:Drivers/STM32F1xx_HAL_Driver/Src/stm32f1xx_hal_uart.c ****   else
1446:Drivers/STM32F1xx_HAL_Driver/Src/stm32f1xx_hal_uart.c ****   {
1447:Drivers/STM32F1xx_HAL_Driver/Src/stm32f1xx_hal_uart.c ****     return HAL_BUSY;
 1507              		.loc 1 1447 0
 1508 00c2 0223     		movs	r3, #2
 1509              	.L68:
1448:Drivers/STM32F1xx_HAL_Driver/Src/stm32f1xx_hal_uart.c ****   }
1449:Drivers/STM32F1xx_HAL_Driver/Src/stm32f1xx_hal_uart.c **** }
 1510              		.loc 1 1449 0
 1511 00c4 1846     		mov	r0, r3
 1512 00c6 1837     		adds	r7, r7, #24
 1513              	.LCFI61:
 1514              		.cfi_def_cfa_offset 8
 1515 00c8 BD46     		mov	sp, r7
 1516              	.LCFI62:
 1517              		.cfi_def_cfa_register 13
 1518              		@ sp needed
 1519 00ca 80BD     		pop	{r7, pc}
 1520              	.L71:
 1521              		.align	2
 1522              	.L70:
 1523 00cc 00000000 		.word	UART_DMATransmitCplt
 1524 00d0 00000000 		.word	UART_DMATxHalfCplt
 1525 00d4 00000000 		.word	UART_DMAError
 1526              		.cfi_endproc
 1527              	.LFE76:
 1529              		.section	.text.HAL_UART_Receive_DMA,"ax",%progbits
 1530              		.align	1
 1531              		.global	HAL_UART_Receive_DMA
 1532              		.syntax unified
 1533              		.thumb
 1534              		.thumb_func
 1535              		.fpu softvfp
 1537              	HAL_UART_Receive_DMA:
 1538              	.LFB77:
ARM GAS  /tmp/ccRUQzex.s 			page 53


1450:Drivers/STM32F1xx_HAL_Driver/Src/stm32f1xx_hal_uart.c **** 
1451:Drivers/STM32F1xx_HAL_Driver/Src/stm32f1xx_hal_uart.c **** /**
1452:Drivers/STM32F1xx_HAL_Driver/Src/stm32f1xx_hal_uart.c ****   * @brief  Receives an amount of data in DMA mode.
1453:Drivers/STM32F1xx_HAL_Driver/Src/stm32f1xx_hal_uart.c ****   * @note   When UART parity is not enabled (PCE = 0), and Word Length is configured to 9 bits (M1-
1454:Drivers/STM32F1xx_HAL_Driver/Src/stm32f1xx_hal_uart.c ****   *         the received data is handled as a set of u16. In this case, Size must indicate the numb
1455:Drivers/STM32F1xx_HAL_Driver/Src/stm32f1xx_hal_uart.c ****   *         of u16 available through pData.
1456:Drivers/STM32F1xx_HAL_Driver/Src/stm32f1xx_hal_uart.c ****   * @param  huart Pointer to a UART_HandleTypeDef structure that contains
1457:Drivers/STM32F1xx_HAL_Driver/Src/stm32f1xx_hal_uart.c ****   *               the configuration information for the specified UART module.
1458:Drivers/STM32F1xx_HAL_Driver/Src/stm32f1xx_hal_uart.c ****   * @param  pData Pointer to data buffer (u8 or u16 data elements).
1459:Drivers/STM32F1xx_HAL_Driver/Src/stm32f1xx_hal_uart.c ****   * @param  Size  Amount of data elements (u8 or u16) to be received.
1460:Drivers/STM32F1xx_HAL_Driver/Src/stm32f1xx_hal_uart.c ****   * @note   When the UART parity is enabled (PCE = 1) the received data contains the parity bit.
1461:Drivers/STM32F1xx_HAL_Driver/Src/stm32f1xx_hal_uart.c ****   * @retval HAL status
1462:Drivers/STM32F1xx_HAL_Driver/Src/stm32f1xx_hal_uart.c ****   */
1463:Drivers/STM32F1xx_HAL_Driver/Src/stm32f1xx_hal_uart.c **** HAL_StatusTypeDef HAL_UART_Receive_DMA(UART_HandleTypeDef *huart, uint8_t *pData, uint16_t Size)
1464:Drivers/STM32F1xx_HAL_Driver/Src/stm32f1xx_hal_uart.c **** {
 1539              		.loc 1 1464 0
 1540              		.cfi_startproc
 1541              		@ args = 0, pretend = 0, frame = 16
 1542              		@ frame_needed = 1, uses_anonymous_args = 0
 1543 0000 80B5     		push	{r7, lr}
 1544              	.LCFI63:
 1545              		.cfi_def_cfa_offset 8
 1546              		.cfi_offset 7, -8
 1547              		.cfi_offset 14, -4
 1548 0002 84B0     		sub	sp, sp, #16
 1549              	.LCFI64:
 1550              		.cfi_def_cfa_offset 24
 1551 0004 00AF     		add	r7, sp, #0
 1552              	.LCFI65:
 1553              		.cfi_def_cfa_register 7
 1554 0006 F860     		str	r0, [r7, #12]
 1555 0008 B960     		str	r1, [r7, #8]
 1556 000a 1346     		mov	r3, r2
 1557 000c FB80     		strh	r3, [r7, #6]	@ movhi
1465:Drivers/STM32F1xx_HAL_Driver/Src/stm32f1xx_hal_uart.c ****   /* Check that a Rx process is not already ongoing */
1466:Drivers/STM32F1xx_HAL_Driver/Src/stm32f1xx_hal_uart.c ****   if (huart->RxState == HAL_UART_STATE_READY)
 1558              		.loc 1 1466 0
 1559 000e FB68     		ldr	r3, [r7, #12]
 1560 0010 93F83E30 		ldrb	r3, [r3, #62]
 1561 0014 DBB2     		uxtb	r3, r3
 1562 0016 202B     		cmp	r3, #32
 1563 0018 1DD1     		bne	.L73
1467:Drivers/STM32F1xx_HAL_Driver/Src/stm32f1xx_hal_uart.c ****   {
1468:Drivers/STM32F1xx_HAL_Driver/Src/stm32f1xx_hal_uart.c ****     if ((pData == NULL) || (Size == 0U))
 1564              		.loc 1 1468 0
 1565 001a BB68     		ldr	r3, [r7, #8]
 1566 001c 002B     		cmp	r3, #0
 1567 001e 02D0     		beq	.L74
 1568              		.loc 1 1468 0 is_stmt 0 discriminator 1
 1569 0020 FB88     		ldrh	r3, [r7, #6]
 1570 0022 002B     		cmp	r3, #0
 1571 0024 01D1     		bne	.L75
 1572              	.L74:
1469:Drivers/STM32F1xx_HAL_Driver/Src/stm32f1xx_hal_uart.c ****     {
1470:Drivers/STM32F1xx_HAL_Driver/Src/stm32f1xx_hal_uart.c ****       return HAL_ERROR;
 1573              		.loc 1 1470 0 is_stmt 1
 1574 0026 0123     		movs	r3, #1
ARM GAS  /tmp/ccRUQzex.s 			page 54


 1575 0028 16E0     		b	.L76
 1576              	.L75:
1471:Drivers/STM32F1xx_HAL_Driver/Src/stm32f1xx_hal_uart.c ****     }
1472:Drivers/STM32F1xx_HAL_Driver/Src/stm32f1xx_hal_uart.c **** 
1473:Drivers/STM32F1xx_HAL_Driver/Src/stm32f1xx_hal_uart.c ****     /* Process Locked */
1474:Drivers/STM32F1xx_HAL_Driver/Src/stm32f1xx_hal_uart.c ****     __HAL_LOCK(huart);
 1577              		.loc 1 1474 0
 1578 002a FB68     		ldr	r3, [r7, #12]
 1579 002c 93F83C30 		ldrb	r3, [r3, #60]	@ zero_extendqisi2
 1580 0030 012B     		cmp	r3, #1
 1581 0032 01D1     		bne	.L77
 1582              		.loc 1 1474 0 is_stmt 0 discriminator 1
 1583 0034 0223     		movs	r3, #2
 1584 0036 0FE0     		b	.L76
 1585              	.L77:
 1586              		.loc 1 1474 0 discriminator 2
 1587 0038 FB68     		ldr	r3, [r7, #12]
 1588 003a 0122     		movs	r2, #1
 1589 003c 83F83C20 		strb	r2, [r3, #60]
1475:Drivers/STM32F1xx_HAL_Driver/Src/stm32f1xx_hal_uart.c **** 
1476:Drivers/STM32F1xx_HAL_Driver/Src/stm32f1xx_hal_uart.c ****     /* Set Reception type to Standard reception */
1477:Drivers/STM32F1xx_HAL_Driver/Src/stm32f1xx_hal_uart.c ****     huart->ReceptionType = HAL_UART_RECEPTION_STANDARD;
 1590              		.loc 1 1477 0 is_stmt 1 discriminator 2
 1591 0040 FB68     		ldr	r3, [r7, #12]
 1592 0042 0022     		movs	r2, #0
 1593 0044 1A63     		str	r2, [r3, #48]
1478:Drivers/STM32F1xx_HAL_Driver/Src/stm32f1xx_hal_uart.c **** 
1479:Drivers/STM32F1xx_HAL_Driver/Src/stm32f1xx_hal_uart.c ****     return(UART_Start_Receive_DMA(huart, pData, Size));
 1594              		.loc 1 1479 0 discriminator 2
 1595 0046 FB88     		ldrh	r3, [r7, #6]
 1596 0048 1A46     		mov	r2, r3
 1597 004a B968     		ldr	r1, [r7, #8]
 1598 004c F868     		ldr	r0, [r7, #12]
 1599 004e FFF7FEFF 		bl	UART_Start_Receive_DMA
 1600 0052 0346     		mov	r3, r0
 1601 0054 00E0     		b	.L76
 1602              	.L73:
1480:Drivers/STM32F1xx_HAL_Driver/Src/stm32f1xx_hal_uart.c ****   }
1481:Drivers/STM32F1xx_HAL_Driver/Src/stm32f1xx_hal_uart.c ****   else
1482:Drivers/STM32F1xx_HAL_Driver/Src/stm32f1xx_hal_uart.c ****   {
1483:Drivers/STM32F1xx_HAL_Driver/Src/stm32f1xx_hal_uart.c ****     return HAL_BUSY;
 1603              		.loc 1 1483 0
 1604 0056 0223     		movs	r3, #2
 1605              	.L76:
1484:Drivers/STM32F1xx_HAL_Driver/Src/stm32f1xx_hal_uart.c ****   }
1485:Drivers/STM32F1xx_HAL_Driver/Src/stm32f1xx_hal_uart.c **** }
 1606              		.loc 1 1485 0
 1607 0058 1846     		mov	r0, r3
 1608 005a 1037     		adds	r7, r7, #16
 1609              	.LCFI66:
 1610              		.cfi_def_cfa_offset 8
 1611 005c BD46     		mov	sp, r7
 1612              	.LCFI67:
 1613              		.cfi_def_cfa_register 13
 1614              		@ sp needed
 1615 005e 80BD     		pop	{r7, pc}
 1616              		.cfi_endproc
ARM GAS  /tmp/ccRUQzex.s 			page 55


 1617              	.LFE77:
 1619              		.section	.text.HAL_UART_DMAPause,"ax",%progbits
 1620              		.align	1
 1621              		.global	HAL_UART_DMAPause
 1622              		.syntax unified
 1623              		.thumb
 1624              		.thumb_func
 1625              		.fpu softvfp
 1627              	HAL_UART_DMAPause:
 1628              	.LFB78:
1486:Drivers/STM32F1xx_HAL_Driver/Src/stm32f1xx_hal_uart.c **** 
1487:Drivers/STM32F1xx_HAL_Driver/Src/stm32f1xx_hal_uart.c **** /**
1488:Drivers/STM32F1xx_HAL_Driver/Src/stm32f1xx_hal_uart.c ****   * @brief Pauses the DMA Transfer.
1489:Drivers/STM32F1xx_HAL_Driver/Src/stm32f1xx_hal_uart.c ****   * @param  huart  Pointer to a UART_HandleTypeDef structure that contains
1490:Drivers/STM32F1xx_HAL_Driver/Src/stm32f1xx_hal_uart.c ****   *                the configuration information for the specified UART module.
1491:Drivers/STM32F1xx_HAL_Driver/Src/stm32f1xx_hal_uart.c ****   * @retval HAL status
1492:Drivers/STM32F1xx_HAL_Driver/Src/stm32f1xx_hal_uart.c ****   */
1493:Drivers/STM32F1xx_HAL_Driver/Src/stm32f1xx_hal_uart.c **** HAL_StatusTypeDef HAL_UART_DMAPause(UART_HandleTypeDef *huart)
1494:Drivers/STM32F1xx_HAL_Driver/Src/stm32f1xx_hal_uart.c **** {
 1629              		.loc 1 1494 0
 1630              		.cfi_startproc
 1631              		@ args = 0, pretend = 0, frame = 16
 1632              		@ frame_needed = 1, uses_anonymous_args = 0
 1633              		@ link register save eliminated.
 1634 0000 80B4     		push	{r7}
 1635              	.LCFI68:
 1636              		.cfi_def_cfa_offset 4
 1637              		.cfi_offset 7, -4
 1638 0002 85B0     		sub	sp, sp, #20
 1639              	.LCFI69:
 1640              		.cfi_def_cfa_offset 24
 1641 0004 00AF     		add	r7, sp, #0
 1642              	.LCFI70:
 1643              		.cfi_def_cfa_register 7
 1644 0006 7860     		str	r0, [r7, #4]
1495:Drivers/STM32F1xx_HAL_Driver/Src/stm32f1xx_hal_uart.c ****   uint32_t dmarequest = 0x00U;
 1645              		.loc 1 1495 0
 1646 0008 0023     		movs	r3, #0
 1647 000a FB60     		str	r3, [r7, #12]
1496:Drivers/STM32F1xx_HAL_Driver/Src/stm32f1xx_hal_uart.c **** 
1497:Drivers/STM32F1xx_HAL_Driver/Src/stm32f1xx_hal_uart.c ****   /* Process Locked */
1498:Drivers/STM32F1xx_HAL_Driver/Src/stm32f1xx_hal_uart.c ****   __HAL_LOCK(huart);
 1648              		.loc 1 1498 0
 1649 000c 7B68     		ldr	r3, [r7, #4]
 1650 000e 93F83C30 		ldrb	r3, [r3, #60]	@ zero_extendqisi2
 1651 0012 012B     		cmp	r3, #1
 1652 0014 01D1     		bne	.L79
 1653              		.loc 1 1498 0 is_stmt 0 discriminator 1
 1654 0016 0223     		movs	r3, #2
 1655 0018 50E0     		b	.L80
 1656              	.L79:
 1657              		.loc 1 1498 0 discriminator 2
 1658 001a 7B68     		ldr	r3, [r7, #4]
 1659 001c 0122     		movs	r2, #1
 1660 001e 83F83C20 		strb	r2, [r3, #60]
1499:Drivers/STM32F1xx_HAL_Driver/Src/stm32f1xx_hal_uart.c **** 
1500:Drivers/STM32F1xx_HAL_Driver/Src/stm32f1xx_hal_uart.c ****   dmarequest = HAL_IS_BIT_SET(huart->Instance->CR3, USART_CR3_DMAT);
ARM GAS  /tmp/ccRUQzex.s 			page 56


 1661              		.loc 1 1500 0 is_stmt 1 discriminator 2
 1662 0022 7B68     		ldr	r3, [r7, #4]
 1663 0024 1B68     		ldr	r3, [r3]
 1664 0026 5B69     		ldr	r3, [r3, #20]
 1665 0028 03F08003 		and	r3, r3, #128
 1666 002c 002B     		cmp	r3, #0
 1667 002e 14BF     		ite	ne
 1668 0030 0123     		movne	r3, #1
 1669 0032 0023     		moveq	r3, #0
 1670 0034 DBB2     		uxtb	r3, r3
 1671 0036 FB60     		str	r3, [r7, #12]
1501:Drivers/STM32F1xx_HAL_Driver/Src/stm32f1xx_hal_uart.c ****   if ((huart->gState == HAL_UART_STATE_BUSY_TX) && dmarequest)
 1672              		.loc 1 1501 0 discriminator 2
 1673 0038 7B68     		ldr	r3, [r7, #4]
 1674 003a 93F83D30 		ldrb	r3, [r3, #61]
 1675 003e DBB2     		uxtb	r3, r3
 1676 0040 212B     		cmp	r3, #33
 1677 0042 0AD1     		bne	.L81
 1678              		.loc 1 1501 0 is_stmt 0 discriminator 1
 1679 0044 FB68     		ldr	r3, [r7, #12]
 1680 0046 002B     		cmp	r3, #0
 1681 0048 07D0     		beq	.L81
1502:Drivers/STM32F1xx_HAL_Driver/Src/stm32f1xx_hal_uart.c ****   {
1503:Drivers/STM32F1xx_HAL_Driver/Src/stm32f1xx_hal_uart.c ****     /* Disable the UART DMA Tx request */
1504:Drivers/STM32F1xx_HAL_Driver/Src/stm32f1xx_hal_uart.c ****     CLEAR_BIT(huart->Instance->CR3, USART_CR3_DMAT);
 1682              		.loc 1 1504 0 is_stmt 1
 1683 004a 7B68     		ldr	r3, [r7, #4]
 1684 004c 1B68     		ldr	r3, [r3]
 1685 004e 7A68     		ldr	r2, [r7, #4]
 1686 0050 1268     		ldr	r2, [r2]
 1687 0052 5269     		ldr	r2, [r2, #20]
 1688 0054 22F08002 		bic	r2, r2, #128
 1689 0058 5A61     		str	r2, [r3, #20]
 1690              	.L81:
1505:Drivers/STM32F1xx_HAL_Driver/Src/stm32f1xx_hal_uart.c ****   }
1506:Drivers/STM32F1xx_HAL_Driver/Src/stm32f1xx_hal_uart.c **** 
1507:Drivers/STM32F1xx_HAL_Driver/Src/stm32f1xx_hal_uart.c ****   dmarequest = HAL_IS_BIT_SET(huart->Instance->CR3, USART_CR3_DMAR);
 1691              		.loc 1 1507 0
 1692 005a 7B68     		ldr	r3, [r7, #4]
 1693 005c 1B68     		ldr	r3, [r3]
 1694 005e 5B69     		ldr	r3, [r3, #20]
 1695 0060 03F04003 		and	r3, r3, #64
 1696 0064 002B     		cmp	r3, #0
 1697 0066 14BF     		ite	ne
 1698 0068 0123     		movne	r3, #1
 1699 006a 0023     		moveq	r3, #0
 1700 006c DBB2     		uxtb	r3, r3
 1701 006e FB60     		str	r3, [r7, #12]
1508:Drivers/STM32F1xx_HAL_Driver/Src/stm32f1xx_hal_uart.c ****   if ((huart->RxState == HAL_UART_STATE_BUSY_RX) && dmarequest)
 1702              		.loc 1 1508 0
 1703 0070 7B68     		ldr	r3, [r7, #4]
 1704 0072 93F83E30 		ldrb	r3, [r3, #62]
 1705 0076 DBB2     		uxtb	r3, r3
 1706 0078 222B     		cmp	r3, #34
 1707 007a 1AD1     		bne	.L82
 1708              		.loc 1 1508 0 is_stmt 0 discriminator 1
 1709 007c FB68     		ldr	r3, [r7, #12]
ARM GAS  /tmp/ccRUQzex.s 			page 57


 1710 007e 002B     		cmp	r3, #0
 1711 0080 17D0     		beq	.L82
1509:Drivers/STM32F1xx_HAL_Driver/Src/stm32f1xx_hal_uart.c ****   {
1510:Drivers/STM32F1xx_HAL_Driver/Src/stm32f1xx_hal_uart.c ****     /* Disable RXNE, PE and ERR (Frame error, noise error, overrun error) interrupts */
1511:Drivers/STM32F1xx_HAL_Driver/Src/stm32f1xx_hal_uart.c ****     CLEAR_BIT(huart->Instance->CR1, USART_CR1_PEIE);
 1712              		.loc 1 1511 0 is_stmt 1
 1713 0082 7B68     		ldr	r3, [r7, #4]
 1714 0084 1B68     		ldr	r3, [r3]
 1715 0086 7A68     		ldr	r2, [r7, #4]
 1716 0088 1268     		ldr	r2, [r2]
 1717 008a D268     		ldr	r2, [r2, #12]
 1718 008c 22F48072 		bic	r2, r2, #256
 1719 0090 DA60     		str	r2, [r3, #12]
1512:Drivers/STM32F1xx_HAL_Driver/Src/stm32f1xx_hal_uart.c ****     CLEAR_BIT(huart->Instance->CR3, USART_CR3_EIE);
 1720              		.loc 1 1512 0
 1721 0092 7B68     		ldr	r3, [r7, #4]
 1722 0094 1B68     		ldr	r3, [r3]
 1723 0096 7A68     		ldr	r2, [r7, #4]
 1724 0098 1268     		ldr	r2, [r2]
 1725 009a 5269     		ldr	r2, [r2, #20]
 1726 009c 22F00102 		bic	r2, r2, #1
 1727 00a0 5A61     		str	r2, [r3, #20]
1513:Drivers/STM32F1xx_HAL_Driver/Src/stm32f1xx_hal_uart.c **** 
1514:Drivers/STM32F1xx_HAL_Driver/Src/stm32f1xx_hal_uart.c ****     /* Disable the UART DMA Rx request */
1515:Drivers/STM32F1xx_HAL_Driver/Src/stm32f1xx_hal_uart.c ****     CLEAR_BIT(huart->Instance->CR3, USART_CR3_DMAR);
 1728              		.loc 1 1515 0
 1729 00a2 7B68     		ldr	r3, [r7, #4]
 1730 00a4 1B68     		ldr	r3, [r3]
 1731 00a6 7A68     		ldr	r2, [r7, #4]
 1732 00a8 1268     		ldr	r2, [r2]
 1733 00aa 5269     		ldr	r2, [r2, #20]
 1734 00ac 22F04002 		bic	r2, r2, #64
 1735 00b0 5A61     		str	r2, [r3, #20]
 1736              	.L82:
1516:Drivers/STM32F1xx_HAL_Driver/Src/stm32f1xx_hal_uart.c ****   }
1517:Drivers/STM32F1xx_HAL_Driver/Src/stm32f1xx_hal_uart.c **** 
1518:Drivers/STM32F1xx_HAL_Driver/Src/stm32f1xx_hal_uart.c ****   /* Process Unlocked */
1519:Drivers/STM32F1xx_HAL_Driver/Src/stm32f1xx_hal_uart.c ****   __HAL_UNLOCK(huart);
 1737              		.loc 1 1519 0
 1738 00b2 7B68     		ldr	r3, [r7, #4]
 1739 00b4 0022     		movs	r2, #0
 1740 00b6 83F83C20 		strb	r2, [r3, #60]
1520:Drivers/STM32F1xx_HAL_Driver/Src/stm32f1xx_hal_uart.c **** 
1521:Drivers/STM32F1xx_HAL_Driver/Src/stm32f1xx_hal_uart.c ****   return HAL_OK;
 1741              		.loc 1 1521 0
 1742 00ba 0023     		movs	r3, #0
 1743              	.L80:
1522:Drivers/STM32F1xx_HAL_Driver/Src/stm32f1xx_hal_uart.c **** }
 1744              		.loc 1 1522 0
 1745 00bc 1846     		mov	r0, r3
 1746 00be 1437     		adds	r7, r7, #20
 1747              	.LCFI71:
 1748              		.cfi_def_cfa_offset 4
 1749 00c0 BD46     		mov	sp, r7
 1750              	.LCFI72:
 1751              		.cfi_def_cfa_register 13
 1752              		@ sp needed
ARM GAS  /tmp/ccRUQzex.s 			page 58


 1753 00c2 80BC     		pop	{r7}
 1754              	.LCFI73:
 1755              		.cfi_restore 7
 1756              		.cfi_def_cfa_offset 0
 1757 00c4 7047     		bx	lr
 1758              		.cfi_endproc
 1759              	.LFE78:
 1761              		.section	.text.HAL_UART_DMAResume,"ax",%progbits
 1762              		.align	1
 1763              		.global	HAL_UART_DMAResume
 1764              		.syntax unified
 1765              		.thumb
 1766              		.thumb_func
 1767              		.fpu softvfp
 1769              	HAL_UART_DMAResume:
 1770              	.LFB79:
1523:Drivers/STM32F1xx_HAL_Driver/Src/stm32f1xx_hal_uart.c **** 
1524:Drivers/STM32F1xx_HAL_Driver/Src/stm32f1xx_hal_uart.c **** /**
1525:Drivers/STM32F1xx_HAL_Driver/Src/stm32f1xx_hal_uart.c ****   * @brief Resumes the DMA Transfer.
1526:Drivers/STM32F1xx_HAL_Driver/Src/stm32f1xx_hal_uart.c ****   * @param  huart  Pointer to a UART_HandleTypeDef structure that contains
1527:Drivers/STM32F1xx_HAL_Driver/Src/stm32f1xx_hal_uart.c ****   *                the configuration information for the specified UART module.
1528:Drivers/STM32F1xx_HAL_Driver/Src/stm32f1xx_hal_uart.c ****   * @retval HAL status
1529:Drivers/STM32F1xx_HAL_Driver/Src/stm32f1xx_hal_uart.c ****   */
1530:Drivers/STM32F1xx_HAL_Driver/Src/stm32f1xx_hal_uart.c **** HAL_StatusTypeDef HAL_UART_DMAResume(UART_HandleTypeDef *huart)
1531:Drivers/STM32F1xx_HAL_Driver/Src/stm32f1xx_hal_uart.c **** {
 1771              		.loc 1 1531 0
 1772              		.cfi_startproc
 1773              		@ args = 0, pretend = 0, frame = 16
 1774              		@ frame_needed = 1, uses_anonymous_args = 0
 1775              		@ link register save eliminated.
 1776 0000 80B4     		push	{r7}
 1777              	.LCFI74:
 1778              		.cfi_def_cfa_offset 4
 1779              		.cfi_offset 7, -4
 1780 0002 85B0     		sub	sp, sp, #20
 1781              	.LCFI75:
 1782              		.cfi_def_cfa_offset 24
 1783 0004 00AF     		add	r7, sp, #0
 1784              	.LCFI76:
 1785              		.cfi_def_cfa_register 7
 1786 0006 7860     		str	r0, [r7, #4]
1532:Drivers/STM32F1xx_HAL_Driver/Src/stm32f1xx_hal_uart.c ****   /* Process Locked */
1533:Drivers/STM32F1xx_HAL_Driver/Src/stm32f1xx_hal_uart.c ****   __HAL_LOCK(huart);
 1787              		.loc 1 1533 0
 1788 0008 7B68     		ldr	r3, [r7, #4]
 1789 000a 93F83C30 		ldrb	r3, [r3, #60]	@ zero_extendqisi2
 1790 000e 012B     		cmp	r3, #1
 1791 0010 01D1     		bne	.L84
 1792              		.loc 1 1533 0 is_stmt 0 discriminator 1
 1793 0012 0223     		movs	r3, #2
 1794 0014 3FE0     		b	.L85
 1795              	.L84:
 1796              		.loc 1 1533 0 discriminator 2
 1797 0016 7B68     		ldr	r3, [r7, #4]
 1798 0018 0122     		movs	r2, #1
 1799 001a 83F83C20 		strb	r2, [r3, #60]
1534:Drivers/STM32F1xx_HAL_Driver/Src/stm32f1xx_hal_uart.c **** 
ARM GAS  /tmp/ccRUQzex.s 			page 59


1535:Drivers/STM32F1xx_HAL_Driver/Src/stm32f1xx_hal_uart.c ****   if (huart->gState == HAL_UART_STATE_BUSY_TX)
 1800              		.loc 1 1535 0 is_stmt 1 discriminator 2
 1801 001e 7B68     		ldr	r3, [r7, #4]
 1802 0020 93F83D30 		ldrb	r3, [r3, #61]
 1803 0024 DBB2     		uxtb	r3, r3
 1804 0026 212B     		cmp	r3, #33
 1805 0028 07D1     		bne	.L86
1536:Drivers/STM32F1xx_HAL_Driver/Src/stm32f1xx_hal_uart.c ****   {
1537:Drivers/STM32F1xx_HAL_Driver/Src/stm32f1xx_hal_uart.c ****     /* Enable the UART DMA Tx request */
1538:Drivers/STM32F1xx_HAL_Driver/Src/stm32f1xx_hal_uart.c ****     SET_BIT(huart->Instance->CR3, USART_CR3_DMAT);
 1806              		.loc 1 1538 0
 1807 002a 7B68     		ldr	r3, [r7, #4]
 1808 002c 1B68     		ldr	r3, [r3]
 1809 002e 7A68     		ldr	r2, [r7, #4]
 1810 0030 1268     		ldr	r2, [r2]
 1811 0032 5269     		ldr	r2, [r2, #20]
 1812 0034 42F08002 		orr	r2, r2, #128
 1813 0038 5A61     		str	r2, [r3, #20]
 1814              	.L86:
1539:Drivers/STM32F1xx_HAL_Driver/Src/stm32f1xx_hal_uart.c ****   }
1540:Drivers/STM32F1xx_HAL_Driver/Src/stm32f1xx_hal_uart.c **** 
1541:Drivers/STM32F1xx_HAL_Driver/Src/stm32f1xx_hal_uart.c ****   if (huart->RxState == HAL_UART_STATE_BUSY_RX)
 1815              		.loc 1 1541 0
 1816 003a 7B68     		ldr	r3, [r7, #4]
 1817 003c 93F83E30 		ldrb	r3, [r3, #62]
 1818 0040 DBB2     		uxtb	r3, r3
 1819 0042 222B     		cmp	r3, #34
 1820 0044 22D1     		bne	.L87
 1821              	.LBB2:
1542:Drivers/STM32F1xx_HAL_Driver/Src/stm32f1xx_hal_uart.c ****   {
1543:Drivers/STM32F1xx_HAL_Driver/Src/stm32f1xx_hal_uart.c ****     /* Clear the Overrun flag before resuming the Rx transfer*/
1544:Drivers/STM32F1xx_HAL_Driver/Src/stm32f1xx_hal_uart.c ****     __HAL_UART_CLEAR_OREFLAG(huart);
 1822              		.loc 1 1544 0
 1823 0046 0023     		movs	r3, #0
 1824 0048 FB60     		str	r3, [r7, #12]
 1825 004a 7B68     		ldr	r3, [r7, #4]
 1826 004c 1B68     		ldr	r3, [r3]
 1827 004e 1B68     		ldr	r3, [r3]
 1828 0050 FB60     		str	r3, [r7, #12]
 1829 0052 7B68     		ldr	r3, [r7, #4]
 1830 0054 1B68     		ldr	r3, [r3]
 1831 0056 5B68     		ldr	r3, [r3, #4]
 1832 0058 FB60     		str	r3, [r7, #12]
 1833 005a FB68     		ldr	r3, [r7, #12]
 1834              	.LBE2:
1545:Drivers/STM32F1xx_HAL_Driver/Src/stm32f1xx_hal_uart.c **** 
1546:Drivers/STM32F1xx_HAL_Driver/Src/stm32f1xx_hal_uart.c ****     /* Re-enable PE and ERR (Frame error, noise error, overrun error) interrupts */
1547:Drivers/STM32F1xx_HAL_Driver/Src/stm32f1xx_hal_uart.c ****     SET_BIT(huart->Instance->CR1, USART_CR1_PEIE);
 1835              		.loc 1 1547 0
 1836 005c 7B68     		ldr	r3, [r7, #4]
 1837 005e 1B68     		ldr	r3, [r3]
 1838 0060 7A68     		ldr	r2, [r7, #4]
 1839 0062 1268     		ldr	r2, [r2]
 1840 0064 D268     		ldr	r2, [r2, #12]
 1841 0066 42F48072 		orr	r2, r2, #256
 1842 006a DA60     		str	r2, [r3, #12]
1548:Drivers/STM32F1xx_HAL_Driver/Src/stm32f1xx_hal_uart.c ****     SET_BIT(huart->Instance->CR3, USART_CR3_EIE);
ARM GAS  /tmp/ccRUQzex.s 			page 60


 1843              		.loc 1 1548 0
 1844 006c 7B68     		ldr	r3, [r7, #4]
 1845 006e 1B68     		ldr	r3, [r3]
 1846 0070 7A68     		ldr	r2, [r7, #4]
 1847 0072 1268     		ldr	r2, [r2]
 1848 0074 5269     		ldr	r2, [r2, #20]
 1849 0076 42F00102 		orr	r2, r2, #1
 1850 007a 5A61     		str	r2, [r3, #20]
1549:Drivers/STM32F1xx_HAL_Driver/Src/stm32f1xx_hal_uart.c **** 
1550:Drivers/STM32F1xx_HAL_Driver/Src/stm32f1xx_hal_uart.c ****     /* Enable the UART DMA Rx request */
1551:Drivers/STM32F1xx_HAL_Driver/Src/stm32f1xx_hal_uart.c ****     SET_BIT(huart->Instance->CR3, USART_CR3_DMAR);
 1851              		.loc 1 1551 0
 1852 007c 7B68     		ldr	r3, [r7, #4]
 1853 007e 1B68     		ldr	r3, [r3]
 1854 0080 7A68     		ldr	r2, [r7, #4]
 1855 0082 1268     		ldr	r2, [r2]
 1856 0084 5269     		ldr	r2, [r2, #20]
 1857 0086 42F04002 		orr	r2, r2, #64
 1858 008a 5A61     		str	r2, [r3, #20]
 1859              	.L87:
1552:Drivers/STM32F1xx_HAL_Driver/Src/stm32f1xx_hal_uart.c ****   }
1553:Drivers/STM32F1xx_HAL_Driver/Src/stm32f1xx_hal_uart.c **** 
1554:Drivers/STM32F1xx_HAL_Driver/Src/stm32f1xx_hal_uart.c ****   /* Process Unlocked */
1555:Drivers/STM32F1xx_HAL_Driver/Src/stm32f1xx_hal_uart.c ****   __HAL_UNLOCK(huart);
 1860              		.loc 1 1555 0
 1861 008c 7B68     		ldr	r3, [r7, #4]
 1862 008e 0022     		movs	r2, #0
 1863 0090 83F83C20 		strb	r2, [r3, #60]
1556:Drivers/STM32F1xx_HAL_Driver/Src/stm32f1xx_hal_uart.c **** 
1557:Drivers/STM32F1xx_HAL_Driver/Src/stm32f1xx_hal_uart.c ****   return HAL_OK;
 1864              		.loc 1 1557 0
 1865 0094 0023     		movs	r3, #0
 1866              	.L85:
1558:Drivers/STM32F1xx_HAL_Driver/Src/stm32f1xx_hal_uart.c **** }
 1867              		.loc 1 1558 0
 1868 0096 1846     		mov	r0, r3
 1869 0098 1437     		adds	r7, r7, #20
 1870              	.LCFI77:
 1871              		.cfi_def_cfa_offset 4
 1872 009a BD46     		mov	sp, r7
 1873              	.LCFI78:
 1874              		.cfi_def_cfa_register 13
 1875              		@ sp needed
 1876 009c 80BC     		pop	{r7}
 1877              	.LCFI79:
 1878              		.cfi_restore 7
 1879              		.cfi_def_cfa_offset 0
 1880 009e 7047     		bx	lr
 1881              		.cfi_endproc
 1882              	.LFE79:
 1884              		.section	.text.HAL_UART_DMAStop,"ax",%progbits
 1885              		.align	1
 1886              		.global	HAL_UART_DMAStop
 1887              		.syntax unified
 1888              		.thumb
 1889              		.thumb_func
 1890              		.fpu softvfp
ARM GAS  /tmp/ccRUQzex.s 			page 61


 1892              	HAL_UART_DMAStop:
 1893              	.LFB80:
1559:Drivers/STM32F1xx_HAL_Driver/Src/stm32f1xx_hal_uart.c **** 
1560:Drivers/STM32F1xx_HAL_Driver/Src/stm32f1xx_hal_uart.c **** /**
1561:Drivers/STM32F1xx_HAL_Driver/Src/stm32f1xx_hal_uart.c ****   * @brief Stops the DMA Transfer.
1562:Drivers/STM32F1xx_HAL_Driver/Src/stm32f1xx_hal_uart.c ****   * @param  huart  Pointer to a UART_HandleTypeDef structure that contains
1563:Drivers/STM32F1xx_HAL_Driver/Src/stm32f1xx_hal_uart.c ****   *                the configuration information for the specified UART module.
1564:Drivers/STM32F1xx_HAL_Driver/Src/stm32f1xx_hal_uart.c ****   * @retval HAL status
1565:Drivers/STM32F1xx_HAL_Driver/Src/stm32f1xx_hal_uart.c ****   */
1566:Drivers/STM32F1xx_HAL_Driver/Src/stm32f1xx_hal_uart.c **** HAL_StatusTypeDef HAL_UART_DMAStop(UART_HandleTypeDef *huart)
1567:Drivers/STM32F1xx_HAL_Driver/Src/stm32f1xx_hal_uart.c **** {
 1894              		.loc 1 1567 0
 1895              		.cfi_startproc
 1896              		@ args = 0, pretend = 0, frame = 16
 1897              		@ frame_needed = 1, uses_anonymous_args = 0
 1898 0000 80B5     		push	{r7, lr}
 1899              	.LCFI80:
 1900              		.cfi_def_cfa_offset 8
 1901              		.cfi_offset 7, -8
 1902              		.cfi_offset 14, -4
 1903 0002 84B0     		sub	sp, sp, #16
 1904              	.LCFI81:
 1905              		.cfi_def_cfa_offset 24
 1906 0004 00AF     		add	r7, sp, #0
 1907              	.LCFI82:
 1908              		.cfi_def_cfa_register 7
 1909 0006 7860     		str	r0, [r7, #4]
1568:Drivers/STM32F1xx_HAL_Driver/Src/stm32f1xx_hal_uart.c ****   uint32_t dmarequest = 0x00U;
 1910              		.loc 1 1568 0
 1911 0008 0023     		movs	r3, #0
 1912 000a FB60     		str	r3, [r7, #12]
1569:Drivers/STM32F1xx_HAL_Driver/Src/stm32f1xx_hal_uart.c ****   /* The Lock is not implemented on this API to allow the user application
1570:Drivers/STM32F1xx_HAL_Driver/Src/stm32f1xx_hal_uart.c ****      to call the HAL UART API under callbacks HAL_UART_TxCpltCallback() / HAL_UART_RxCpltCallback()
1571:Drivers/STM32F1xx_HAL_Driver/Src/stm32f1xx_hal_uart.c ****      when calling HAL_DMA_Abort() API the DMA TX/RX Transfer complete interrupt is generated
1572:Drivers/STM32F1xx_HAL_Driver/Src/stm32f1xx_hal_uart.c ****      and the correspond call back is executed HAL_UART_TxCpltCallback() / HAL_UART_RxCpltCallback()
1573:Drivers/STM32F1xx_HAL_Driver/Src/stm32f1xx_hal_uart.c ****      */
1574:Drivers/STM32F1xx_HAL_Driver/Src/stm32f1xx_hal_uart.c **** 
1575:Drivers/STM32F1xx_HAL_Driver/Src/stm32f1xx_hal_uart.c ****   /* Stop UART DMA Tx request if ongoing */
1576:Drivers/STM32F1xx_HAL_Driver/Src/stm32f1xx_hal_uart.c ****   dmarequest = HAL_IS_BIT_SET(huart->Instance->CR3, USART_CR3_DMAT);
 1913              		.loc 1 1576 0
 1914 000c 7B68     		ldr	r3, [r7, #4]
 1915 000e 1B68     		ldr	r3, [r3]
 1916 0010 5B69     		ldr	r3, [r3, #20]
 1917 0012 03F08003 		and	r3, r3, #128
 1918 0016 002B     		cmp	r3, #0
 1919 0018 14BF     		ite	ne
 1920 001a 0123     		movne	r3, #1
 1921 001c 0023     		moveq	r3, #0
 1922 001e DBB2     		uxtb	r3, r3
 1923 0020 FB60     		str	r3, [r7, #12]
1577:Drivers/STM32F1xx_HAL_Driver/Src/stm32f1xx_hal_uart.c ****   if ((huart->gState == HAL_UART_STATE_BUSY_TX) && dmarequest)
 1924              		.loc 1 1577 0
 1925 0022 7B68     		ldr	r3, [r7, #4]
 1926 0024 93F83D30 		ldrb	r3, [r3, #61]
 1927 0028 DBB2     		uxtb	r3, r3
 1928 002a 212B     		cmp	r3, #33
 1929 002c 16D1     		bne	.L89
ARM GAS  /tmp/ccRUQzex.s 			page 62


 1930              		.loc 1 1577 0 is_stmt 0 discriminator 1
 1931 002e FB68     		ldr	r3, [r7, #12]
 1932 0030 002B     		cmp	r3, #0
 1933 0032 13D0     		beq	.L89
1578:Drivers/STM32F1xx_HAL_Driver/Src/stm32f1xx_hal_uart.c ****   {
1579:Drivers/STM32F1xx_HAL_Driver/Src/stm32f1xx_hal_uart.c ****     CLEAR_BIT(huart->Instance->CR3, USART_CR3_DMAT);
 1934              		.loc 1 1579 0 is_stmt 1
 1935 0034 7B68     		ldr	r3, [r7, #4]
 1936 0036 1B68     		ldr	r3, [r3]
 1937 0038 7A68     		ldr	r2, [r7, #4]
 1938 003a 1268     		ldr	r2, [r2]
 1939 003c 5269     		ldr	r2, [r2, #20]
 1940 003e 22F08002 		bic	r2, r2, #128
 1941 0042 5A61     		str	r2, [r3, #20]
1580:Drivers/STM32F1xx_HAL_Driver/Src/stm32f1xx_hal_uart.c **** 
1581:Drivers/STM32F1xx_HAL_Driver/Src/stm32f1xx_hal_uart.c ****     /* Abort the UART DMA Tx channel */
1582:Drivers/STM32F1xx_HAL_Driver/Src/stm32f1xx_hal_uart.c ****     if (huart->hdmatx != NULL)
 1942              		.loc 1 1582 0
 1943 0044 7B68     		ldr	r3, [r7, #4]
 1944 0046 5B6B     		ldr	r3, [r3, #52]
 1945 0048 002B     		cmp	r3, #0
 1946 004a 04D0     		beq	.L90
1583:Drivers/STM32F1xx_HAL_Driver/Src/stm32f1xx_hal_uart.c ****     {
1584:Drivers/STM32F1xx_HAL_Driver/Src/stm32f1xx_hal_uart.c ****       HAL_DMA_Abort(huart->hdmatx);
 1947              		.loc 1 1584 0
 1948 004c 7B68     		ldr	r3, [r7, #4]
 1949 004e 5B6B     		ldr	r3, [r3, #52]
 1950 0050 1846     		mov	r0, r3
 1951 0052 FFF7FEFF 		bl	HAL_DMA_Abort
 1952              	.L90:
1585:Drivers/STM32F1xx_HAL_Driver/Src/stm32f1xx_hal_uart.c ****     }
1586:Drivers/STM32F1xx_HAL_Driver/Src/stm32f1xx_hal_uart.c ****     UART_EndTxTransfer(huart);
 1953              		.loc 1 1586 0
 1954 0056 7868     		ldr	r0, [r7, #4]
 1955 0058 FFF7FEFF 		bl	UART_EndTxTransfer
 1956              	.L89:
1587:Drivers/STM32F1xx_HAL_Driver/Src/stm32f1xx_hal_uart.c ****   }
1588:Drivers/STM32F1xx_HAL_Driver/Src/stm32f1xx_hal_uart.c **** 
1589:Drivers/STM32F1xx_HAL_Driver/Src/stm32f1xx_hal_uart.c ****   /* Stop UART DMA Rx request if ongoing */
1590:Drivers/STM32F1xx_HAL_Driver/Src/stm32f1xx_hal_uart.c ****   dmarequest = HAL_IS_BIT_SET(huart->Instance->CR3, USART_CR3_DMAR);
 1957              		.loc 1 1590 0
 1958 005c 7B68     		ldr	r3, [r7, #4]
 1959 005e 1B68     		ldr	r3, [r3]
 1960 0060 5B69     		ldr	r3, [r3, #20]
 1961 0062 03F04003 		and	r3, r3, #64
 1962 0066 002B     		cmp	r3, #0
 1963 0068 14BF     		ite	ne
 1964 006a 0123     		movne	r3, #1
 1965 006c 0023     		moveq	r3, #0
 1966 006e DBB2     		uxtb	r3, r3
 1967 0070 FB60     		str	r3, [r7, #12]
1591:Drivers/STM32F1xx_HAL_Driver/Src/stm32f1xx_hal_uart.c ****   if ((huart->RxState == HAL_UART_STATE_BUSY_RX) && dmarequest)
 1968              		.loc 1 1591 0
 1969 0072 7B68     		ldr	r3, [r7, #4]
 1970 0074 93F83E30 		ldrb	r3, [r3, #62]
 1971 0078 DBB2     		uxtb	r3, r3
 1972 007a 222B     		cmp	r3, #34
ARM GAS  /tmp/ccRUQzex.s 			page 63


 1973 007c 16D1     		bne	.L91
 1974              		.loc 1 1591 0 is_stmt 0 discriminator 1
 1975 007e FB68     		ldr	r3, [r7, #12]
 1976 0080 002B     		cmp	r3, #0
 1977 0082 13D0     		beq	.L91
1592:Drivers/STM32F1xx_HAL_Driver/Src/stm32f1xx_hal_uart.c ****   {
1593:Drivers/STM32F1xx_HAL_Driver/Src/stm32f1xx_hal_uart.c ****     CLEAR_BIT(huart->Instance->CR3, USART_CR3_DMAR);
 1978              		.loc 1 1593 0 is_stmt 1
 1979 0084 7B68     		ldr	r3, [r7, #4]
 1980 0086 1B68     		ldr	r3, [r3]
 1981 0088 7A68     		ldr	r2, [r7, #4]
 1982 008a 1268     		ldr	r2, [r2]
 1983 008c 5269     		ldr	r2, [r2, #20]
 1984 008e 22F04002 		bic	r2, r2, #64
 1985 0092 5A61     		str	r2, [r3, #20]
1594:Drivers/STM32F1xx_HAL_Driver/Src/stm32f1xx_hal_uart.c **** 
1595:Drivers/STM32F1xx_HAL_Driver/Src/stm32f1xx_hal_uart.c ****     /* Abort the UART DMA Rx channel */
1596:Drivers/STM32F1xx_HAL_Driver/Src/stm32f1xx_hal_uart.c ****     if (huart->hdmarx != NULL)
 1986              		.loc 1 1596 0
 1987 0094 7B68     		ldr	r3, [r7, #4]
 1988 0096 9B6B     		ldr	r3, [r3, #56]
 1989 0098 002B     		cmp	r3, #0
 1990 009a 04D0     		beq	.L92
1597:Drivers/STM32F1xx_HAL_Driver/Src/stm32f1xx_hal_uart.c ****     {
1598:Drivers/STM32F1xx_HAL_Driver/Src/stm32f1xx_hal_uart.c ****       HAL_DMA_Abort(huart->hdmarx);
 1991              		.loc 1 1598 0
 1992 009c 7B68     		ldr	r3, [r7, #4]
 1993 009e 9B6B     		ldr	r3, [r3, #56]
 1994 00a0 1846     		mov	r0, r3
 1995 00a2 FFF7FEFF 		bl	HAL_DMA_Abort
 1996              	.L92:
1599:Drivers/STM32F1xx_HAL_Driver/Src/stm32f1xx_hal_uart.c ****     }
1600:Drivers/STM32F1xx_HAL_Driver/Src/stm32f1xx_hal_uart.c ****     UART_EndRxTransfer(huart);
 1997              		.loc 1 1600 0
 1998 00a6 7868     		ldr	r0, [r7, #4]
 1999 00a8 FFF7FEFF 		bl	UART_EndRxTransfer
 2000              	.L91:
1601:Drivers/STM32F1xx_HAL_Driver/Src/stm32f1xx_hal_uart.c ****   }
1602:Drivers/STM32F1xx_HAL_Driver/Src/stm32f1xx_hal_uart.c **** 
1603:Drivers/STM32F1xx_HAL_Driver/Src/stm32f1xx_hal_uart.c ****   return HAL_OK;
 2001              		.loc 1 1603 0
 2002 00ac 0023     		movs	r3, #0
1604:Drivers/STM32F1xx_HAL_Driver/Src/stm32f1xx_hal_uart.c **** }
 2003              		.loc 1 1604 0
 2004 00ae 1846     		mov	r0, r3
 2005 00b0 1037     		adds	r7, r7, #16
 2006              	.LCFI83:
 2007              		.cfi_def_cfa_offset 8
 2008 00b2 BD46     		mov	sp, r7
 2009              	.LCFI84:
 2010              		.cfi_def_cfa_register 13
 2011              		@ sp needed
 2012 00b4 80BD     		pop	{r7, pc}
 2013              		.cfi_endproc
 2014              	.LFE80:
 2016              		.section	.text.HAL_UARTEx_ReceiveToIdle,"ax",%progbits
 2017              		.align	1
ARM GAS  /tmp/ccRUQzex.s 			page 64


 2018              		.global	HAL_UARTEx_ReceiveToIdle
 2019              		.syntax unified
 2020              		.thumb
 2021              		.thumb_func
 2022              		.fpu softvfp
 2024              	HAL_UARTEx_ReceiveToIdle:
 2025              	.LFB81:
1605:Drivers/STM32F1xx_HAL_Driver/Src/stm32f1xx_hal_uart.c **** 
1606:Drivers/STM32F1xx_HAL_Driver/Src/stm32f1xx_hal_uart.c **** /**
1607:Drivers/STM32F1xx_HAL_Driver/Src/stm32f1xx_hal_uart.c ****   * @brief Receive an amount of data in blocking mode till either the expected number of data is re
1608:Drivers/STM32F1xx_HAL_Driver/Src/stm32f1xx_hal_uart.c ****   * @note   HAL_OK is returned if reception is completed (expected number of data has been received
1609:Drivers/STM32F1xx_HAL_Driver/Src/stm32f1xx_hal_uart.c ****   *         or if reception is stopped after IDLE event (less than the expected number of data has 
1610:Drivers/STM32F1xx_HAL_Driver/Src/stm32f1xx_hal_uart.c ****   *         In this case, RxLen output parameter indicates number of data available in reception bu
1611:Drivers/STM32F1xx_HAL_Driver/Src/stm32f1xx_hal_uart.c ****   * @note   When UART parity is not enabled (PCE = 0), and Word Length is configured to 9 bits (M =
1612:Drivers/STM32F1xx_HAL_Driver/Src/stm32f1xx_hal_uart.c ****   *         the received data is handled as a set of uint16_t. In this case, Size must indicate the
1613:Drivers/STM32F1xx_HAL_Driver/Src/stm32f1xx_hal_uart.c ****   *         of uint16_t available through pData.
1614:Drivers/STM32F1xx_HAL_Driver/Src/stm32f1xx_hal_uart.c ****   * @param huart   UART handle.
1615:Drivers/STM32F1xx_HAL_Driver/Src/stm32f1xx_hal_uart.c ****   * @param pData   Pointer to data buffer (uint8_t or uint16_t data elements).
1616:Drivers/STM32F1xx_HAL_Driver/Src/stm32f1xx_hal_uart.c ****   * @param Size    Amount of data elements (uint8_t or uint16_t) to be received.
1617:Drivers/STM32F1xx_HAL_Driver/Src/stm32f1xx_hal_uart.c ****   * @param RxLen   Number of data elements finally received (could be lower than Size, in case rece
1618:Drivers/STM32F1xx_HAL_Driver/Src/stm32f1xx_hal_uart.c ****   * @param Timeout Timeout duration expressed in ms (covers the whole reception sequence).
1619:Drivers/STM32F1xx_HAL_Driver/Src/stm32f1xx_hal_uart.c ****   * @retval HAL status
1620:Drivers/STM32F1xx_HAL_Driver/Src/stm32f1xx_hal_uart.c ****   */
1621:Drivers/STM32F1xx_HAL_Driver/Src/stm32f1xx_hal_uart.c **** HAL_StatusTypeDef HAL_UARTEx_ReceiveToIdle(UART_HandleTypeDef *huart, uint8_t *pData, uint16_t Size
1622:Drivers/STM32F1xx_HAL_Driver/Src/stm32f1xx_hal_uart.c **** {
 2026              		.loc 1 1622 0
 2027              		.cfi_startproc
 2028              		@ args = 4, pretend = 0, frame = 32
 2029              		@ frame_needed = 1, uses_anonymous_args = 0
 2030 0000 80B5     		push	{r7, lr}
 2031              	.LCFI85:
 2032              		.cfi_def_cfa_offset 8
 2033              		.cfi_offset 7, -8
 2034              		.cfi_offset 14, -4
 2035 0002 88B0     		sub	sp, sp, #32
 2036              	.LCFI86:
 2037              		.cfi_def_cfa_offset 40
 2038 0004 00AF     		add	r7, sp, #0
 2039              	.LCFI87:
 2040              		.cfi_def_cfa_register 7
 2041 0006 F860     		str	r0, [r7, #12]
 2042 0008 B960     		str	r1, [r7, #8]
 2043 000a 3B60     		str	r3, [r7]
 2044 000c 1346     		mov	r3, r2	@ movhi
 2045 000e FB80     		strh	r3, [r7, #6]	@ movhi
1623:Drivers/STM32F1xx_HAL_Driver/Src/stm32f1xx_hal_uart.c ****   uint8_t  *pdata8bits;
1624:Drivers/STM32F1xx_HAL_Driver/Src/stm32f1xx_hal_uart.c ****   uint16_t *pdata16bits;
1625:Drivers/STM32F1xx_HAL_Driver/Src/stm32f1xx_hal_uart.c ****   uint32_t tickstart;
1626:Drivers/STM32F1xx_HAL_Driver/Src/stm32f1xx_hal_uart.c **** 
1627:Drivers/STM32F1xx_HAL_Driver/Src/stm32f1xx_hal_uart.c ****   /* Check that a Rx process is not already ongoing */
1628:Drivers/STM32F1xx_HAL_Driver/Src/stm32f1xx_hal_uart.c ****   if (huart->RxState == HAL_UART_STATE_READY)
 2046              		.loc 1 1628 0
 2047 0010 FB68     		ldr	r3, [r7, #12]
 2048 0012 93F83E30 		ldrb	r3, [r3, #62]
 2049 0016 DBB2     		uxtb	r3, r3
 2050 0018 202B     		cmp	r3, #32
 2051 001a 40F0C980 		bne	.L95
ARM GAS  /tmp/ccRUQzex.s 			page 65


1629:Drivers/STM32F1xx_HAL_Driver/Src/stm32f1xx_hal_uart.c ****   {
1630:Drivers/STM32F1xx_HAL_Driver/Src/stm32f1xx_hal_uart.c ****     if ((pData == NULL) || (Size == 0U))
 2052              		.loc 1 1630 0
 2053 001e BB68     		ldr	r3, [r7, #8]
 2054 0020 002B     		cmp	r3, #0
 2055 0022 02D0     		beq	.L96
 2056              		.loc 1 1630 0 is_stmt 0 discriminator 1
 2057 0024 FB88     		ldrh	r3, [r7, #6]
 2058 0026 002B     		cmp	r3, #0
 2059 0028 01D1     		bne	.L97
 2060              	.L96:
1631:Drivers/STM32F1xx_HAL_Driver/Src/stm32f1xx_hal_uart.c ****     {
1632:Drivers/STM32F1xx_HAL_Driver/Src/stm32f1xx_hal_uart.c ****       return  HAL_ERROR;
 2061              		.loc 1 1632 0 is_stmt 1
 2062 002a 0123     		movs	r3, #1
 2063 002c C1E0     		b	.L98
 2064              	.L97:
1633:Drivers/STM32F1xx_HAL_Driver/Src/stm32f1xx_hal_uart.c ****     }
1634:Drivers/STM32F1xx_HAL_Driver/Src/stm32f1xx_hal_uart.c **** 
1635:Drivers/STM32F1xx_HAL_Driver/Src/stm32f1xx_hal_uart.c ****     __HAL_LOCK(huart);
 2065              		.loc 1 1635 0
 2066 002e FB68     		ldr	r3, [r7, #12]
 2067 0030 93F83C30 		ldrb	r3, [r3, #60]	@ zero_extendqisi2
 2068 0034 012B     		cmp	r3, #1
 2069 0036 01D1     		bne	.L99
 2070              		.loc 1 1635 0 is_stmt 0 discriminator 1
 2071 0038 0223     		movs	r3, #2
 2072 003a BAE0     		b	.L98
 2073              	.L99:
 2074              		.loc 1 1635 0 discriminator 2
 2075 003c FB68     		ldr	r3, [r7, #12]
 2076 003e 0122     		movs	r2, #1
 2077 0040 83F83C20 		strb	r2, [r3, #60]
1636:Drivers/STM32F1xx_HAL_Driver/Src/stm32f1xx_hal_uart.c **** 
1637:Drivers/STM32F1xx_HAL_Driver/Src/stm32f1xx_hal_uart.c ****     huart->ErrorCode = HAL_UART_ERROR_NONE;
 2078              		.loc 1 1637 0 is_stmt 1 discriminator 2
 2079 0044 FB68     		ldr	r3, [r7, #12]
 2080 0046 0022     		movs	r2, #0
 2081 0048 1A64     		str	r2, [r3, #64]
1638:Drivers/STM32F1xx_HAL_Driver/Src/stm32f1xx_hal_uart.c ****     huart->RxState = HAL_UART_STATE_BUSY_RX;
 2082              		.loc 1 1638 0 discriminator 2
 2083 004a FB68     		ldr	r3, [r7, #12]
 2084 004c 2222     		movs	r2, #34
 2085 004e 83F83E20 		strb	r2, [r3, #62]
1639:Drivers/STM32F1xx_HAL_Driver/Src/stm32f1xx_hal_uart.c ****     huart->ReceptionType = HAL_UART_RECEPTION_TOIDLE;
 2086              		.loc 1 1639 0 discriminator 2
 2087 0052 FB68     		ldr	r3, [r7, #12]
 2088 0054 0122     		movs	r2, #1
 2089 0056 1A63     		str	r2, [r3, #48]
1640:Drivers/STM32F1xx_HAL_Driver/Src/stm32f1xx_hal_uart.c **** 
1641:Drivers/STM32F1xx_HAL_Driver/Src/stm32f1xx_hal_uart.c ****     /* Init tickstart for timeout management */
1642:Drivers/STM32F1xx_HAL_Driver/Src/stm32f1xx_hal_uart.c ****     tickstart = HAL_GetTick();
 2090              		.loc 1 1642 0 discriminator 2
 2091 0058 FFF7FEFF 		bl	HAL_GetTick
 2092 005c 7861     		str	r0, [r7, #20]
1643:Drivers/STM32F1xx_HAL_Driver/Src/stm32f1xx_hal_uart.c **** 
1644:Drivers/STM32F1xx_HAL_Driver/Src/stm32f1xx_hal_uart.c ****     huart->RxXferSize  = Size;
ARM GAS  /tmp/ccRUQzex.s 			page 66


 2093              		.loc 1 1644 0 discriminator 2
 2094 005e FB68     		ldr	r3, [r7, #12]
 2095 0060 FA88     		ldrh	r2, [r7, #6]	@ movhi
 2096 0062 9A85     		strh	r2, [r3, #44]	@ movhi
1645:Drivers/STM32F1xx_HAL_Driver/Src/stm32f1xx_hal_uart.c ****     huart->RxXferCount = Size;
 2097              		.loc 1 1645 0 discriminator 2
 2098 0064 FB68     		ldr	r3, [r7, #12]
 2099 0066 FA88     		ldrh	r2, [r7, #6]	@ movhi
 2100 0068 DA85     		strh	r2, [r3, #46]	@ movhi
1646:Drivers/STM32F1xx_HAL_Driver/Src/stm32f1xx_hal_uart.c **** 
1647:Drivers/STM32F1xx_HAL_Driver/Src/stm32f1xx_hal_uart.c ****     /* In case of 9bits/No Parity transfer, pRxData needs to be handled as a uint16_t pointer */
1648:Drivers/STM32F1xx_HAL_Driver/Src/stm32f1xx_hal_uart.c ****     if ((huart->Init.WordLength == UART_WORDLENGTH_9B) && (huart->Init.Parity == UART_PARITY_NONE))
 2101              		.loc 1 1648 0 discriminator 2
 2102 006a FB68     		ldr	r3, [r7, #12]
 2103 006c 9B68     		ldr	r3, [r3, #8]
 2104 006e B3F5805F 		cmp	r3, #4096
 2105 0072 08D1     		bne	.L100
 2106              		.loc 1 1648 0 is_stmt 0 discriminator 1
 2107 0074 FB68     		ldr	r3, [r7, #12]
 2108 0076 1B69     		ldr	r3, [r3, #16]
 2109 0078 002B     		cmp	r3, #0
 2110 007a 04D1     		bne	.L100
1649:Drivers/STM32F1xx_HAL_Driver/Src/stm32f1xx_hal_uart.c ****     {
1650:Drivers/STM32F1xx_HAL_Driver/Src/stm32f1xx_hal_uart.c ****       pdata8bits  = NULL;
 2111              		.loc 1 1650 0 is_stmt 1
 2112 007c 0023     		movs	r3, #0
 2113 007e FB61     		str	r3, [r7, #28]
1651:Drivers/STM32F1xx_HAL_Driver/Src/stm32f1xx_hal_uart.c ****       pdata16bits = (uint16_t *) pData;
 2114              		.loc 1 1651 0
 2115 0080 BB68     		ldr	r3, [r7, #8]
 2116 0082 BB61     		str	r3, [r7, #24]
 2117 0084 03E0     		b	.L101
 2118              	.L100:
1652:Drivers/STM32F1xx_HAL_Driver/Src/stm32f1xx_hal_uart.c ****     }
1653:Drivers/STM32F1xx_HAL_Driver/Src/stm32f1xx_hal_uart.c ****     else
1654:Drivers/STM32F1xx_HAL_Driver/Src/stm32f1xx_hal_uart.c ****     {
1655:Drivers/STM32F1xx_HAL_Driver/Src/stm32f1xx_hal_uart.c ****       pdata8bits  = pData;
 2119              		.loc 1 1655 0
 2120 0086 BB68     		ldr	r3, [r7, #8]
 2121 0088 FB61     		str	r3, [r7, #28]
1656:Drivers/STM32F1xx_HAL_Driver/Src/stm32f1xx_hal_uart.c ****       pdata16bits = NULL;
 2122              		.loc 1 1656 0
 2123 008a 0023     		movs	r3, #0
 2124 008c BB61     		str	r3, [r7, #24]
 2125              	.L101:
1657:Drivers/STM32F1xx_HAL_Driver/Src/stm32f1xx_hal_uart.c ****     }
1658:Drivers/STM32F1xx_HAL_Driver/Src/stm32f1xx_hal_uart.c **** 
1659:Drivers/STM32F1xx_HAL_Driver/Src/stm32f1xx_hal_uart.c ****     __HAL_UNLOCK(huart);
 2126              		.loc 1 1659 0
 2127 008e FB68     		ldr	r3, [r7, #12]
 2128 0090 0022     		movs	r2, #0
 2129 0092 83F83C20 		strb	r2, [r3, #60]
1660:Drivers/STM32F1xx_HAL_Driver/Src/stm32f1xx_hal_uart.c **** 
1661:Drivers/STM32F1xx_HAL_Driver/Src/stm32f1xx_hal_uart.c ****     /* Initialize output number of received elements */
1662:Drivers/STM32F1xx_HAL_Driver/Src/stm32f1xx_hal_uart.c ****     *RxLen = 0U;
 2130              		.loc 1 1662 0
 2131 0096 3B68     		ldr	r3, [r7]
ARM GAS  /tmp/ccRUQzex.s 			page 67


 2132 0098 0022     		movs	r2, #0
 2133 009a 1A80     		strh	r2, [r3]	@ movhi
1663:Drivers/STM32F1xx_HAL_Driver/Src/stm32f1xx_hal_uart.c **** 
1664:Drivers/STM32F1xx_HAL_Driver/Src/stm32f1xx_hal_uart.c ****     /* as long as data have to be received */
1665:Drivers/STM32F1xx_HAL_Driver/Src/stm32f1xx_hal_uart.c ****     while (huart->RxXferCount > 0U)
 2134              		.loc 1 1665 0
 2135 009c 74E0     		b	.L102
 2136              	.L111:
1666:Drivers/STM32F1xx_HAL_Driver/Src/stm32f1xx_hal_uart.c ****     {
1667:Drivers/STM32F1xx_HAL_Driver/Src/stm32f1xx_hal_uart.c ****       /* Check if IDLE flag is set */
1668:Drivers/STM32F1xx_HAL_Driver/Src/stm32f1xx_hal_uart.c ****       if (__HAL_UART_GET_FLAG(huart, UART_FLAG_IDLE))
 2137              		.loc 1 1668 0
 2138 009e FB68     		ldr	r3, [r7, #12]
 2139 00a0 1B68     		ldr	r3, [r3]
 2140 00a2 1B68     		ldr	r3, [r3]
 2141 00a4 03F01003 		and	r3, r3, #16
 2142 00a8 102B     		cmp	r3, #16
 2143 00aa 14D1     		bne	.L103
 2144              	.LBB3:
1669:Drivers/STM32F1xx_HAL_Driver/Src/stm32f1xx_hal_uart.c ****       {
1670:Drivers/STM32F1xx_HAL_Driver/Src/stm32f1xx_hal_uart.c ****         /* Clear IDLE flag in ISR */
1671:Drivers/STM32F1xx_HAL_Driver/Src/stm32f1xx_hal_uart.c ****         __HAL_UART_CLEAR_IDLEFLAG(huart);
 2145              		.loc 1 1671 0
 2146 00ac 0023     		movs	r3, #0
 2147 00ae 3B61     		str	r3, [r7, #16]
 2148 00b0 FB68     		ldr	r3, [r7, #12]
 2149 00b2 1B68     		ldr	r3, [r3]
 2150 00b4 1B68     		ldr	r3, [r3]
 2151 00b6 3B61     		str	r3, [r7, #16]
 2152 00b8 FB68     		ldr	r3, [r7, #12]
 2153 00ba 1B68     		ldr	r3, [r3]
 2154 00bc 5B68     		ldr	r3, [r3, #4]
 2155 00be 3B61     		str	r3, [r7, #16]
 2156 00c0 3B69     		ldr	r3, [r7, #16]
 2157              	.LBE3:
1672:Drivers/STM32F1xx_HAL_Driver/Src/stm32f1xx_hal_uart.c **** 
1673:Drivers/STM32F1xx_HAL_Driver/Src/stm32f1xx_hal_uart.c ****         /* If Set, but no data ever received, clear flag without exiting loop */
1674:Drivers/STM32F1xx_HAL_Driver/Src/stm32f1xx_hal_uart.c ****         /* If Set, and data has already been received, this means Idle Event is valid : End recepti
1675:Drivers/STM32F1xx_HAL_Driver/Src/stm32f1xx_hal_uart.c ****         if (*RxLen > 0U)
 2158              		.loc 1 1675 0
 2159 00c2 3B68     		ldr	r3, [r7]
 2160 00c4 1B88     		ldrh	r3, [r3]
 2161 00c6 002B     		cmp	r3, #0
 2162 00c8 05D0     		beq	.L103
1676:Drivers/STM32F1xx_HAL_Driver/Src/stm32f1xx_hal_uart.c ****         {
1677:Drivers/STM32F1xx_HAL_Driver/Src/stm32f1xx_hal_uart.c ****           huart->RxState = HAL_UART_STATE_READY;
 2163              		.loc 1 1677 0
 2164 00ca FB68     		ldr	r3, [r7, #12]
 2165 00cc 2022     		movs	r2, #32
 2166 00ce 83F83E20 		strb	r2, [r3, #62]
1678:Drivers/STM32F1xx_HAL_Driver/Src/stm32f1xx_hal_uart.c **** 
1679:Drivers/STM32F1xx_HAL_Driver/Src/stm32f1xx_hal_uart.c ****           return HAL_OK;
 2167              		.loc 1 1679 0
 2168 00d2 0023     		movs	r3, #0
 2169 00d4 6DE0     		b	.L98
 2170              	.L103:
1680:Drivers/STM32F1xx_HAL_Driver/Src/stm32f1xx_hal_uart.c ****         }
ARM GAS  /tmp/ccRUQzex.s 			page 68


1681:Drivers/STM32F1xx_HAL_Driver/Src/stm32f1xx_hal_uart.c ****       }
1682:Drivers/STM32F1xx_HAL_Driver/Src/stm32f1xx_hal_uart.c **** 
