ARM GAS  /tmp/ccFqkhxP.s 			page 1


   1              		.cpu cortex-m3
   2              		.arch armv7-m
   3              		.fpu softvfp
   4              		.eabi_attribute 20, 1
   5              		.eabi_attribute 21, 1
   6              		.eabi_attribute 23, 3
   7              		.eabi_attribute 24, 1
   8              		.eabi_attribute 25, 1
   9              		.eabi_attribute 26, 1
  10              		.eabi_attribute 30, 6
  11              		.eabi_attribute 34, 1
  12              		.eabi_attribute 18, 4
  13              		.file	"stm32f1xx_hal_i2c.c"
  14              		.text
  15              	.Ltext0:
  16              		.cfi_sections	.debug_frame
  17              		.section	.text.HAL_I2C_Init,"ax",%progbits
  18              		.align	1
  19              		.global	HAL_I2C_Init
  20              		.syntax unified
  21              		.thumb
  22              		.thumb_func
  24              	HAL_I2C_Init:
  25              	.LFB65:
  26              		.file 1 "Drivers/STM32F1xx_HAL_Driver/Src/stm32f1xx_hal_i2c.c"
   1:Drivers/STM32F1xx_HAL_Driver/Src/stm32f1xx_hal_i2c.c **** /**
   2:Drivers/STM32F1xx_HAL_Driver/Src/stm32f1xx_hal_i2c.c ****   ******************************************************************************
   3:Drivers/STM32F1xx_HAL_Driver/Src/stm32f1xx_hal_i2c.c ****   * @file    stm32f1xx_hal_i2c.c
   4:Drivers/STM32F1xx_HAL_Driver/Src/stm32f1xx_hal_i2c.c ****   * @author  MCD Application Team
   5:Drivers/STM32F1xx_HAL_Driver/Src/stm32f1xx_hal_i2c.c ****   * @brief   I2C HAL module driver.
   6:Drivers/STM32F1xx_HAL_Driver/Src/stm32f1xx_hal_i2c.c ****   *          This file provides firmware functions to manage the following
   7:Drivers/STM32F1xx_HAL_Driver/Src/stm32f1xx_hal_i2c.c ****   *          functionalities of the Inter Integrated Circuit (I2C) peripheral:
   8:Drivers/STM32F1xx_HAL_Driver/Src/stm32f1xx_hal_i2c.c ****   *           + Initialization and de-initialization functions
   9:Drivers/STM32F1xx_HAL_Driver/Src/stm32f1xx_hal_i2c.c ****   *           + IO operation functions
  10:Drivers/STM32F1xx_HAL_Driver/Src/stm32f1xx_hal_i2c.c ****   *           + Peripheral State, Mode and Error functions
  11:Drivers/STM32F1xx_HAL_Driver/Src/stm32f1xx_hal_i2c.c ****   *
  12:Drivers/STM32F1xx_HAL_Driver/Src/stm32f1xx_hal_i2c.c ****   @verbatim
  13:Drivers/STM32F1xx_HAL_Driver/Src/stm32f1xx_hal_i2c.c ****   ==============================================================================
  14:Drivers/STM32F1xx_HAL_Driver/Src/stm32f1xx_hal_i2c.c ****                         ##### How to use this driver #####
  15:Drivers/STM32F1xx_HAL_Driver/Src/stm32f1xx_hal_i2c.c ****   ==============================================================================
  16:Drivers/STM32F1xx_HAL_Driver/Src/stm32f1xx_hal_i2c.c ****   [..]
  17:Drivers/STM32F1xx_HAL_Driver/Src/stm32f1xx_hal_i2c.c ****     The I2C HAL driver can be used as follows:
  18:Drivers/STM32F1xx_HAL_Driver/Src/stm32f1xx_hal_i2c.c **** 
  19:Drivers/STM32F1xx_HAL_Driver/Src/stm32f1xx_hal_i2c.c ****     (#) Declare a I2C_HandleTypeDef handle structure, for example:
  20:Drivers/STM32F1xx_HAL_Driver/Src/stm32f1xx_hal_i2c.c ****         I2C_HandleTypeDef  hi2c;
  21:Drivers/STM32F1xx_HAL_Driver/Src/stm32f1xx_hal_i2c.c **** 
  22:Drivers/STM32F1xx_HAL_Driver/Src/stm32f1xx_hal_i2c.c ****     (#)Initialize the I2C low level resources by implementing the @ref HAL_I2C_MspInit() API:
  23:Drivers/STM32F1xx_HAL_Driver/Src/stm32f1xx_hal_i2c.c ****         (##) Enable the I2Cx interface clock
  24:Drivers/STM32F1xx_HAL_Driver/Src/stm32f1xx_hal_i2c.c ****         (##) I2C pins configuration
  25:Drivers/STM32F1xx_HAL_Driver/Src/stm32f1xx_hal_i2c.c ****             (+++) Enable the clock for the I2C GPIOs
  26:Drivers/STM32F1xx_HAL_Driver/Src/stm32f1xx_hal_i2c.c ****             (+++) Configure I2C pins as alternate function open-drain
  27:Drivers/STM32F1xx_HAL_Driver/Src/stm32f1xx_hal_i2c.c ****         (##) NVIC configuration if you need to use interrupt process
  28:Drivers/STM32F1xx_HAL_Driver/Src/stm32f1xx_hal_i2c.c ****             (+++) Configure the I2Cx interrupt priority
  29:Drivers/STM32F1xx_HAL_Driver/Src/stm32f1xx_hal_i2c.c ****             (+++) Enable the NVIC I2C IRQ Channel
  30:Drivers/STM32F1xx_HAL_Driver/Src/stm32f1xx_hal_i2c.c ****         (##) DMA Configuration if you need to use DMA process
  31:Drivers/STM32F1xx_HAL_Driver/Src/stm32f1xx_hal_i2c.c ****             (+++) Declare a DMA_HandleTypeDef handle structure for the transmit or receive channel
  32:Drivers/STM32F1xx_HAL_Driver/Src/stm32f1xx_hal_i2c.c ****             (+++) Enable the DMAx interface clock using
ARM GAS  /tmp/ccFqkhxP.s 			page 2


  33:Drivers/STM32F1xx_HAL_Driver/Src/stm32f1xx_hal_i2c.c ****             (+++) Configure the DMA handle parameters
  34:Drivers/STM32F1xx_HAL_Driver/Src/stm32f1xx_hal_i2c.c ****             (+++) Configure the DMA Tx or Rx channel
  35:Drivers/STM32F1xx_HAL_Driver/Src/stm32f1xx_hal_i2c.c ****             (+++) Associate the initialized DMA handle to the hi2c DMA Tx or Rx handle
  36:Drivers/STM32F1xx_HAL_Driver/Src/stm32f1xx_hal_i2c.c ****             (+++) Configure the priority and enable the NVIC for the transfer complete interrupt on
  37:Drivers/STM32F1xx_HAL_Driver/Src/stm32f1xx_hal_i2c.c ****                   the DMA Tx or Rx channel
  38:Drivers/STM32F1xx_HAL_Driver/Src/stm32f1xx_hal_i2c.c **** 
  39:Drivers/STM32F1xx_HAL_Driver/Src/stm32f1xx_hal_i2c.c ****     (#) Configure the Communication Speed, Duty cycle, Addressing mode, Own Address1,
  40:Drivers/STM32F1xx_HAL_Driver/Src/stm32f1xx_hal_i2c.c ****         Dual Addressing mode, Own Address2, General call and Nostretch mode in the hi2c Init struct
  41:Drivers/STM32F1xx_HAL_Driver/Src/stm32f1xx_hal_i2c.c **** 
  42:Drivers/STM32F1xx_HAL_Driver/Src/stm32f1xx_hal_i2c.c ****     (#) Initialize the I2C registers by calling the @ref HAL_I2C_Init(), configures also the low le
  43:Drivers/STM32F1xx_HAL_Driver/Src/stm32f1xx_hal_i2c.c ****         (GPIO, CLOCK, NVIC...etc) by calling the customized @ref HAL_I2C_MspInit() API.
  44:Drivers/STM32F1xx_HAL_Driver/Src/stm32f1xx_hal_i2c.c **** 
  45:Drivers/STM32F1xx_HAL_Driver/Src/stm32f1xx_hal_i2c.c ****     (#) To check if target device is ready for communication, use the function @ref HAL_I2C_IsDevic
  46:Drivers/STM32F1xx_HAL_Driver/Src/stm32f1xx_hal_i2c.c **** 
  47:Drivers/STM32F1xx_HAL_Driver/Src/stm32f1xx_hal_i2c.c ****     (#) For I2C IO and IO MEM operations, three operation modes are available within this driver :
  48:Drivers/STM32F1xx_HAL_Driver/Src/stm32f1xx_hal_i2c.c **** 
  49:Drivers/STM32F1xx_HAL_Driver/Src/stm32f1xx_hal_i2c.c ****     *** Polling mode IO operation ***
  50:Drivers/STM32F1xx_HAL_Driver/Src/stm32f1xx_hal_i2c.c ****     =================================
  51:Drivers/STM32F1xx_HAL_Driver/Src/stm32f1xx_hal_i2c.c ****     [..]
  52:Drivers/STM32F1xx_HAL_Driver/Src/stm32f1xx_hal_i2c.c ****       (+) Transmit in master mode an amount of data in blocking mode using @ref HAL_I2C_Master_Tran
  53:Drivers/STM32F1xx_HAL_Driver/Src/stm32f1xx_hal_i2c.c ****       (+) Receive in master mode an amount of data in blocking mode using @ref HAL_I2C_Master_Recei
  54:Drivers/STM32F1xx_HAL_Driver/Src/stm32f1xx_hal_i2c.c ****       (+) Transmit in slave mode an amount of data in blocking mode using @ref HAL_I2C_Slave_Transm
  55:Drivers/STM32F1xx_HAL_Driver/Src/stm32f1xx_hal_i2c.c ****       (+) Receive in slave mode an amount of data in blocking mode using @ref HAL_I2C_Slave_Receive
  56:Drivers/STM32F1xx_HAL_Driver/Src/stm32f1xx_hal_i2c.c **** 
  57:Drivers/STM32F1xx_HAL_Driver/Src/stm32f1xx_hal_i2c.c ****     *** Polling mode IO MEM operation ***
  58:Drivers/STM32F1xx_HAL_Driver/Src/stm32f1xx_hal_i2c.c ****     =====================================
  59:Drivers/STM32F1xx_HAL_Driver/Src/stm32f1xx_hal_i2c.c ****     [..]
  60:Drivers/STM32F1xx_HAL_Driver/Src/stm32f1xx_hal_i2c.c ****       (+) Write an amount of data in blocking mode to a specific memory address using @ref HAL_I2C_
  61:Drivers/STM32F1xx_HAL_Driver/Src/stm32f1xx_hal_i2c.c ****       (+) Read an amount of data in blocking mode from a specific memory address using @ref HAL_I2C
  62:Drivers/STM32F1xx_HAL_Driver/Src/stm32f1xx_hal_i2c.c **** 
  63:Drivers/STM32F1xx_HAL_Driver/Src/stm32f1xx_hal_i2c.c **** 
  64:Drivers/STM32F1xx_HAL_Driver/Src/stm32f1xx_hal_i2c.c ****     *** Interrupt mode IO operation ***
  65:Drivers/STM32F1xx_HAL_Driver/Src/stm32f1xx_hal_i2c.c ****     ===================================
  66:Drivers/STM32F1xx_HAL_Driver/Src/stm32f1xx_hal_i2c.c ****     [..]
  67:Drivers/STM32F1xx_HAL_Driver/Src/stm32f1xx_hal_i2c.c ****       (+) Transmit in master mode an amount of data in non-blocking mode using @ref HAL_I2C_Master_
  68:Drivers/STM32F1xx_HAL_Driver/Src/stm32f1xx_hal_i2c.c ****       (+) At transmission end of transfer, @ref HAL_I2C_MasterTxCpltCallback() is executed and user
  69:Drivers/STM32F1xx_HAL_Driver/Src/stm32f1xx_hal_i2c.c ****            add his own code by customization of function pointer @ref HAL_I2C_MasterTxCpltCallback(
  70:Drivers/STM32F1xx_HAL_Driver/Src/stm32f1xx_hal_i2c.c ****       (+) Receive in master mode an amount of data in non-blocking mode using @ref HAL_I2C_Master_R
  71:Drivers/STM32F1xx_HAL_Driver/Src/stm32f1xx_hal_i2c.c ****       (+) At reception end of transfer, @ref HAL_I2C_MasterRxCpltCallback() is executed and user ca
  72:Drivers/STM32F1xx_HAL_Driver/Src/stm32f1xx_hal_i2c.c ****            add his own code by customization of function pointer @ref HAL_I2C_MasterRxCpltCallback(
  73:Drivers/STM32F1xx_HAL_Driver/Src/stm32f1xx_hal_i2c.c ****       (+) Transmit in slave mode an amount of data in non-blocking mode using @ref HAL_I2C_Slave_Tr
  74:Drivers/STM32F1xx_HAL_Driver/Src/stm32f1xx_hal_i2c.c ****       (+) At transmission end of transfer, @ref HAL_I2C_SlaveTxCpltCallback() is executed and user 
  75:Drivers/STM32F1xx_HAL_Driver/Src/stm32f1xx_hal_i2c.c ****            add his own code by customization of function pointer @ref HAL_I2C_SlaveTxCpltCallback()
  76:Drivers/STM32F1xx_HAL_Driver/Src/stm32f1xx_hal_i2c.c ****       (+) Receive in slave mode an amount of data in non-blocking mode using @ref HAL_I2C_Slave_Rec
  77:Drivers/STM32F1xx_HAL_Driver/Src/stm32f1xx_hal_i2c.c ****       (+) At reception end of transfer, @ref HAL_I2C_SlaveRxCpltCallback() is executed and user can
  78:Drivers/STM32F1xx_HAL_Driver/Src/stm32f1xx_hal_i2c.c ****            add his own code by customization of function pointer @ref HAL_I2C_SlaveRxCpltCallback()
  79:Drivers/STM32F1xx_HAL_Driver/Src/stm32f1xx_hal_i2c.c ****       (+) In case of transfer Error, @ref HAL_I2C_ErrorCallback() function is executed and user can
  80:Drivers/STM32F1xx_HAL_Driver/Src/stm32f1xx_hal_i2c.c ****            add his own code by customization of function pointer @ref HAL_I2C_ErrorCallback()
  81:Drivers/STM32F1xx_HAL_Driver/Src/stm32f1xx_hal_i2c.c ****       (+) Abort a master I2C process communication with Interrupt using @ref HAL_I2C_Master_Abort_I
  82:Drivers/STM32F1xx_HAL_Driver/Src/stm32f1xx_hal_i2c.c ****       (+) End of abort process, @ref HAL_I2C_AbortCpltCallback() is executed and user can
  83:Drivers/STM32F1xx_HAL_Driver/Src/stm32f1xx_hal_i2c.c ****            add his own code by customization of function pointer @ref HAL_I2C_AbortCpltCallback()
  84:Drivers/STM32F1xx_HAL_Driver/Src/stm32f1xx_hal_i2c.c **** 
  85:Drivers/STM32F1xx_HAL_Driver/Src/stm32f1xx_hal_i2c.c ****     *** Interrupt mode or DMA mode IO sequential operation ***
  86:Drivers/STM32F1xx_HAL_Driver/Src/stm32f1xx_hal_i2c.c ****     ==========================================================
  87:Drivers/STM32F1xx_HAL_Driver/Src/stm32f1xx_hal_i2c.c ****     [..]
  88:Drivers/STM32F1xx_HAL_Driver/Src/stm32f1xx_hal_i2c.c ****       (@) These interfaces allow to manage a sequential transfer with a repeated start condition
  89:Drivers/STM32F1xx_HAL_Driver/Src/stm32f1xx_hal_i2c.c ****           when a direction change during transfer
ARM GAS  /tmp/ccFqkhxP.s 			page 3


  90:Drivers/STM32F1xx_HAL_Driver/Src/stm32f1xx_hal_i2c.c ****     [..]
  91:Drivers/STM32F1xx_HAL_Driver/Src/stm32f1xx_hal_i2c.c ****       (+) A specific option field manage the different steps of a sequential transfer
  92:Drivers/STM32F1xx_HAL_Driver/Src/stm32f1xx_hal_i2c.c ****       (+) Option field values are defined through @ref I2C_XferOptions_definition and are listed be
  93:Drivers/STM32F1xx_HAL_Driver/Src/stm32f1xx_hal_i2c.c ****       (++) I2C_FIRST_AND_LAST_FRAME: No sequential usage, functional is same as associated interfac
  94:Drivers/STM32F1xx_HAL_Driver/Src/stm32f1xx_hal_i2c.c ****       (++) I2C_FIRST_FRAME: Sequential usage, this option allow to manage a sequence with start con
  95:Drivers/STM32F1xx_HAL_Driver/Src/stm32f1xx_hal_i2c.c ****                             and data to transfer without a final stop condition
  96:Drivers/STM32F1xx_HAL_Driver/Src/stm32f1xx_hal_i2c.c ****       (++) I2C_FIRST_AND_NEXT_FRAME: Sequential usage (Master only), this option allow to manage a 
  97:Drivers/STM32F1xx_HAL_Driver/Src/stm32f1xx_hal_i2c.c ****                             and data to transfer without a final stop condition, an then permit a c
  98:Drivers/STM32F1xx_HAL_Driver/Src/stm32f1xx_hal_i2c.c ****                             several times (like @ref HAL_I2C_Master_Seq_Transmit_IT() then @ref HAL
  99:Drivers/STM32F1xx_HAL_Driver/Src/stm32f1xx_hal_i2c.c ****                             or @ref HAL_I2C_Master_Seq_Transmit_DMA() then @ref HAL_I2C_Master_Seq_
 100:Drivers/STM32F1xx_HAL_Driver/Src/stm32f1xx_hal_i2c.c ****       (++) I2C_NEXT_FRAME: Sequential usage, this option allow to manage a sequence with a restart 
 101:Drivers/STM32F1xx_HAL_Driver/Src/stm32f1xx_hal_i2c.c ****                             and with new data to transfer if the direction change or manage only th
 102:Drivers/STM32F1xx_HAL_Driver/Src/stm32f1xx_hal_i2c.c ****                             if no direction change and without a final stop condition in both cases
 103:Drivers/STM32F1xx_HAL_Driver/Src/stm32f1xx_hal_i2c.c ****       (++) I2C_LAST_FRAME: Sequential usage, this option allow to manage a sequance with a restart 
 104:Drivers/STM32F1xx_HAL_Driver/Src/stm32f1xx_hal_i2c.c ****                             and with new data to transfer if the direction change or manage only th
 105:Drivers/STM32F1xx_HAL_Driver/Src/stm32f1xx_hal_i2c.c ****                             if no direction change and with a final stop condition in both cases
 106:Drivers/STM32F1xx_HAL_Driver/Src/stm32f1xx_hal_i2c.c ****       (++) I2C_LAST_FRAME_NO_STOP: Sequential usage (Master only), this option allow to manage a re
 107:Drivers/STM32F1xx_HAL_Driver/Src/stm32f1xx_hal_i2c.c ****                             interface several times (link with option I2C_FIRST_AND_NEXT_FRAME).
 108:Drivers/STM32F1xx_HAL_Driver/Src/stm32f1xx_hal_i2c.c ****                             Usage can, transfer several bytes one by one using HAL_I2C_Master_Seq_T
 109:Drivers/STM32F1xx_HAL_Driver/Src/stm32f1xx_hal_i2c.c ****                               or HAL_I2C_Master_Seq_Receive_IT(option I2C_FIRST_AND_NEXT_FRAME then
 110:Drivers/STM32F1xx_HAL_Driver/Src/stm32f1xx_hal_i2c.c ****                               or HAL_I2C_Master_Seq_Transmit_DMA(option I2C_FIRST_AND_NEXT_FRAME th
 111:Drivers/STM32F1xx_HAL_Driver/Src/stm32f1xx_hal_i2c.c ****                               or HAL_I2C_Master_Seq_Receive_DMA(option I2C_FIRST_AND_NEXT_FRAME the
 112:Drivers/STM32F1xx_HAL_Driver/Src/stm32f1xx_hal_i2c.c ****                             Then usage of this option I2C_LAST_FRAME_NO_STOP at the last Transmit o
 113:Drivers/STM32F1xx_HAL_Driver/Src/stm32f1xx_hal_i2c.c ****                               without stopping the communication and so generate a restart conditio
 114:Drivers/STM32F1xx_HAL_Driver/Src/stm32f1xx_hal_i2c.c ****       (++) I2C_OTHER_FRAME: Sequential usage (Master only), this option allow to manage a restart c
 115:Drivers/STM32F1xx_HAL_Driver/Src/stm32f1xx_hal_i2c.c ****                             interface.
 116:Drivers/STM32F1xx_HAL_Driver/Src/stm32f1xx_hal_i2c.c ****                             Usage can, transfer several bytes one by one with a restart with slave 
 117:Drivers/STM32F1xx_HAL_Driver/Src/stm32f1xx_hal_i2c.c ****                               or HAL_I2C_Master_Seq_Receive_IT(option I2C_FIRST_FRAME then I2C_OTHE
 118:Drivers/STM32F1xx_HAL_Driver/Src/stm32f1xx_hal_i2c.c ****                               or HAL_I2C_Master_Seq_Transmit_DMA(option I2C_FIRST_FRAME then I2C_OT
 119:Drivers/STM32F1xx_HAL_Driver/Src/stm32f1xx_hal_i2c.c ****                               or HAL_I2C_Master_Seq_Receive_DMA(option I2C_FIRST_FRAME then I2C_OTH
 120:Drivers/STM32F1xx_HAL_Driver/Src/stm32f1xx_hal_i2c.c ****                             Then usage of this option I2C_OTHER_AND_LAST_FRAME at the last frame to
 121:Drivers/STM32F1xx_HAL_Driver/Src/stm32f1xx_hal_i2c.c **** 
 122:Drivers/STM32F1xx_HAL_Driver/Src/stm32f1xx_hal_i2c.c ****       (+) Different sequential I2C interfaces are listed below:
 123:Drivers/STM32F1xx_HAL_Driver/Src/stm32f1xx_hal_i2c.c ****       (++) Sequential transmit in master I2C mode an amount of data in non-blocking mode using @ref
 124:Drivers/STM32F1xx_HAL_Driver/Src/stm32f1xx_hal_i2c.c ****             or using @ref HAL_I2C_Master_Seq_Transmit_DMA()
 125:Drivers/STM32F1xx_HAL_Driver/Src/stm32f1xx_hal_i2c.c ****       (+++) At transmission end of current frame transfer, @ref HAL_I2C_MasterTxCpltCallback() is e
 126:Drivers/STM32F1xx_HAL_Driver/Src/stm32f1xx_hal_i2c.c ****            add his own code by customization of function pointer @ref HAL_I2C_MasterTxCpltCallback(
 127:Drivers/STM32F1xx_HAL_Driver/Src/stm32f1xx_hal_i2c.c ****       (++) Sequential receive in master I2C mode an amount of data in non-blocking mode using @ref 
 128:Drivers/STM32F1xx_HAL_Driver/Src/stm32f1xx_hal_i2c.c ****             or using @ref HAL_I2C_Master_Seq_Receive_DMA()
 129:Drivers/STM32F1xx_HAL_Driver/Src/stm32f1xx_hal_i2c.c ****       (+++) At reception end of current frame transfer, @ref HAL_I2C_MasterRxCpltCallback() is exec
 130:Drivers/STM32F1xx_HAL_Driver/Src/stm32f1xx_hal_i2c.c ****            add his own code by customization of function pointer @ref HAL_I2C_MasterRxCpltCallback(
 131:Drivers/STM32F1xx_HAL_Driver/Src/stm32f1xx_hal_i2c.c ****       (++) Abort a master IT or DMA I2C process communication with Interrupt using @ref HAL_I2C_Mas
 132:Drivers/STM32F1xx_HAL_Driver/Src/stm32f1xx_hal_i2c.c ****       (+++) End of abort process, @ref HAL_I2C_AbortCpltCallback() is executed and user can
 133:Drivers/STM32F1xx_HAL_Driver/Src/stm32f1xx_hal_i2c.c ****            add his own code by customization of function pointer @ref HAL_I2C_AbortCpltCallback()
 134:Drivers/STM32F1xx_HAL_Driver/Src/stm32f1xx_hal_i2c.c ****       (++) Enable/disable the Address listen mode in slave I2C mode using @ref HAL_I2C_EnableListen
 135:Drivers/STM32F1xx_HAL_Driver/Src/stm32f1xx_hal_i2c.c ****       (+++) When address slave I2C match, @ref HAL_I2C_AddrCallback() is executed and user can
 136:Drivers/STM32F1xx_HAL_Driver/Src/stm32f1xx_hal_i2c.c ****            add his own code to check the Address Match Code and the transmission direction request 
 137:Drivers/STM32F1xx_HAL_Driver/Src/stm32f1xx_hal_i2c.c ****       (+++) At Listen mode end @ref HAL_I2C_ListenCpltCallback() is executed and user can
 138:Drivers/STM32F1xx_HAL_Driver/Src/stm32f1xx_hal_i2c.c ****            add his own code by customization of function pointer @ref HAL_I2C_ListenCpltCallback()
 139:Drivers/STM32F1xx_HAL_Driver/Src/stm32f1xx_hal_i2c.c ****       (++) Sequential transmit in slave I2C mode an amount of data in non-blocking mode using @ref 
 140:Drivers/STM32F1xx_HAL_Driver/Src/stm32f1xx_hal_i2c.c ****             or using @ref HAL_I2C_Slave_Seq_Transmit_DMA()
 141:Drivers/STM32F1xx_HAL_Driver/Src/stm32f1xx_hal_i2c.c ****       (+++) At transmission end of current frame transfer, @ref HAL_I2C_SlaveTxCpltCallback() is ex
 142:Drivers/STM32F1xx_HAL_Driver/Src/stm32f1xx_hal_i2c.c ****            add his own code by customization of function pointer @ref HAL_I2C_SlaveTxCpltCallback()
 143:Drivers/STM32F1xx_HAL_Driver/Src/stm32f1xx_hal_i2c.c ****       (++) Sequential receive in slave I2C mode an amount of data in non-blocking mode using @ref H
 144:Drivers/STM32F1xx_HAL_Driver/Src/stm32f1xx_hal_i2c.c ****             or using @ref HAL_I2C_Slave_Seq_Receive_DMA()
 145:Drivers/STM32F1xx_HAL_Driver/Src/stm32f1xx_hal_i2c.c ****       (+++) At reception end of current frame transfer, @ref HAL_I2C_SlaveRxCpltCallback() is execu
 146:Drivers/STM32F1xx_HAL_Driver/Src/stm32f1xx_hal_i2c.c ****            add his own code by customization of function pointer @ref HAL_I2C_SlaveRxCpltCallback()
ARM GAS  /tmp/ccFqkhxP.s 			page 4


 147:Drivers/STM32F1xx_HAL_Driver/Src/stm32f1xx_hal_i2c.c ****       (++) In case of transfer Error, @ref HAL_I2C_ErrorCallback() function is executed and user ca
 148:Drivers/STM32F1xx_HAL_Driver/Src/stm32f1xx_hal_i2c.c ****            add his own code by customization of function pointer @ref HAL_I2C_ErrorCallback()
 149:Drivers/STM32F1xx_HAL_Driver/Src/stm32f1xx_hal_i2c.c **** 
 150:Drivers/STM32F1xx_HAL_Driver/Src/stm32f1xx_hal_i2c.c ****     *** Interrupt mode IO MEM operation ***
 151:Drivers/STM32F1xx_HAL_Driver/Src/stm32f1xx_hal_i2c.c ****     =======================================
 152:Drivers/STM32F1xx_HAL_Driver/Src/stm32f1xx_hal_i2c.c ****     [..]
 153:Drivers/STM32F1xx_HAL_Driver/Src/stm32f1xx_hal_i2c.c ****       (+) Write an amount of data in non-blocking mode with Interrupt to a specific memory address 
 154:Drivers/STM32F1xx_HAL_Driver/Src/stm32f1xx_hal_i2c.c ****           @ref HAL_I2C_Mem_Write_IT()
 155:Drivers/STM32F1xx_HAL_Driver/Src/stm32f1xx_hal_i2c.c ****       (+) At Memory end of write transfer, @ref HAL_I2C_MemTxCpltCallback() is executed and user ca
 156:Drivers/STM32F1xx_HAL_Driver/Src/stm32f1xx_hal_i2c.c ****            add his own code by customization of function pointer @ref HAL_I2C_MemTxCpltCallback()
 157:Drivers/STM32F1xx_HAL_Driver/Src/stm32f1xx_hal_i2c.c ****       (+) Read an amount of data in non-blocking mode with Interrupt from a specific memory address
 158:Drivers/STM32F1xx_HAL_Driver/Src/stm32f1xx_hal_i2c.c ****           @ref HAL_I2C_Mem_Read_IT()
 159:Drivers/STM32F1xx_HAL_Driver/Src/stm32f1xx_hal_i2c.c ****       (+) At Memory end of read transfer, @ref HAL_I2C_MemRxCpltCallback() is executed and user can
 160:Drivers/STM32F1xx_HAL_Driver/Src/stm32f1xx_hal_i2c.c ****            add his own code by customization of function pointer @ref HAL_I2C_MemRxCpltCallback()
 161:Drivers/STM32F1xx_HAL_Driver/Src/stm32f1xx_hal_i2c.c ****       (+) In case of transfer Error, @ref HAL_I2C_ErrorCallback() function is executed and user can
 162:Drivers/STM32F1xx_HAL_Driver/Src/stm32f1xx_hal_i2c.c ****            add his own code by customization of function pointer @ref HAL_I2C_ErrorCallback()
 163:Drivers/STM32F1xx_HAL_Driver/Src/stm32f1xx_hal_i2c.c **** 
 164:Drivers/STM32F1xx_HAL_Driver/Src/stm32f1xx_hal_i2c.c ****     *** DMA mode IO operation ***
 165:Drivers/STM32F1xx_HAL_Driver/Src/stm32f1xx_hal_i2c.c ****     ==============================
 166:Drivers/STM32F1xx_HAL_Driver/Src/stm32f1xx_hal_i2c.c ****     [..]
 167:Drivers/STM32F1xx_HAL_Driver/Src/stm32f1xx_hal_i2c.c ****       (+) Transmit in master mode an amount of data in non-blocking mode (DMA) using
 168:Drivers/STM32F1xx_HAL_Driver/Src/stm32f1xx_hal_i2c.c ****           @ref HAL_I2C_Master_Transmit_DMA()
 169:Drivers/STM32F1xx_HAL_Driver/Src/stm32f1xx_hal_i2c.c ****       (+) At transmission end of transfer, @ref HAL_I2C_MasterTxCpltCallback() is executed and user
 170:Drivers/STM32F1xx_HAL_Driver/Src/stm32f1xx_hal_i2c.c ****            add his own code by customization of function pointer @ref HAL_I2C_MasterTxCpltCallback(
 171:Drivers/STM32F1xx_HAL_Driver/Src/stm32f1xx_hal_i2c.c ****       (+) Receive in master mode an amount of data in non-blocking mode (DMA) using
 172:Drivers/STM32F1xx_HAL_Driver/Src/stm32f1xx_hal_i2c.c ****           @ref HAL_I2C_Master_Receive_DMA()
 173:Drivers/STM32F1xx_HAL_Driver/Src/stm32f1xx_hal_i2c.c ****       (+) At reception end of transfer, @ref HAL_I2C_MasterRxCpltCallback() is executed and user ca
 174:Drivers/STM32F1xx_HAL_Driver/Src/stm32f1xx_hal_i2c.c ****            add his own code by customization of function pointer @ref HAL_I2C_MasterRxCpltCallback(
 175:Drivers/STM32F1xx_HAL_Driver/Src/stm32f1xx_hal_i2c.c ****       (+) Transmit in slave mode an amount of data in non-blocking mode (DMA) using
 176:Drivers/STM32F1xx_HAL_Driver/Src/stm32f1xx_hal_i2c.c ****           @ref HAL_I2C_Slave_Transmit_DMA()
 177:Drivers/STM32F1xx_HAL_Driver/Src/stm32f1xx_hal_i2c.c ****       (+) At transmission end of transfer, @ref HAL_I2C_SlaveTxCpltCallback() is executed and user 
 178:Drivers/STM32F1xx_HAL_Driver/Src/stm32f1xx_hal_i2c.c ****            add his own code by customization of function pointer @ref HAL_I2C_SlaveTxCpltCallback()
 179:Drivers/STM32F1xx_HAL_Driver/Src/stm32f1xx_hal_i2c.c ****       (+) Receive in slave mode an amount of data in non-blocking mode (DMA) using
 180:Drivers/STM32F1xx_HAL_Driver/Src/stm32f1xx_hal_i2c.c ****           @ref HAL_I2C_Slave_Receive_DMA()
 181:Drivers/STM32F1xx_HAL_Driver/Src/stm32f1xx_hal_i2c.c ****       (+) At reception end of transfer, @ref HAL_I2C_SlaveRxCpltCallback() is executed and user can
 182:Drivers/STM32F1xx_HAL_Driver/Src/stm32f1xx_hal_i2c.c ****            add his own code by customization of function pointer @ref HAL_I2C_SlaveRxCpltCallback()
 183:Drivers/STM32F1xx_HAL_Driver/Src/stm32f1xx_hal_i2c.c ****       (+) In case of transfer Error, @ref HAL_I2C_ErrorCallback() function is executed and user can
 184:Drivers/STM32F1xx_HAL_Driver/Src/stm32f1xx_hal_i2c.c ****            add his own code by customization of function pointer @ref HAL_I2C_ErrorCallback()
 185:Drivers/STM32F1xx_HAL_Driver/Src/stm32f1xx_hal_i2c.c ****       (+) Abort a master I2C process communication with Interrupt using @ref HAL_I2C_Master_Abort_I
 186:Drivers/STM32F1xx_HAL_Driver/Src/stm32f1xx_hal_i2c.c ****       (+) End of abort process, @ref HAL_I2C_AbortCpltCallback() is executed and user can
 187:Drivers/STM32F1xx_HAL_Driver/Src/stm32f1xx_hal_i2c.c ****            add his own code by customization of function pointer @ref HAL_I2C_AbortCpltCallback()
 188:Drivers/STM32F1xx_HAL_Driver/Src/stm32f1xx_hal_i2c.c **** 
 189:Drivers/STM32F1xx_HAL_Driver/Src/stm32f1xx_hal_i2c.c ****     *** DMA mode IO MEM operation ***
 190:Drivers/STM32F1xx_HAL_Driver/Src/stm32f1xx_hal_i2c.c ****     =================================
 191:Drivers/STM32F1xx_HAL_Driver/Src/stm32f1xx_hal_i2c.c ****     [..]
 192:Drivers/STM32F1xx_HAL_Driver/Src/stm32f1xx_hal_i2c.c ****       (+) Write an amount of data in non-blocking mode with DMA to a specific memory address using
 193:Drivers/STM32F1xx_HAL_Driver/Src/stm32f1xx_hal_i2c.c ****           @ref HAL_I2C_Mem_Write_DMA()
 194:Drivers/STM32F1xx_HAL_Driver/Src/stm32f1xx_hal_i2c.c ****       (+) At Memory end of write transfer, @ref HAL_I2C_MemTxCpltCallback() is executed and user ca
 195:Drivers/STM32F1xx_HAL_Driver/Src/stm32f1xx_hal_i2c.c ****            add his own code by customization of function pointer @ref HAL_I2C_MemTxCpltCallback()
 196:Drivers/STM32F1xx_HAL_Driver/Src/stm32f1xx_hal_i2c.c ****       (+) Read an amount of data in non-blocking mode with DMA from a specific memory address using
 197:Drivers/STM32F1xx_HAL_Driver/Src/stm32f1xx_hal_i2c.c ****           @ref HAL_I2C_Mem_Read_DMA()
 198:Drivers/STM32F1xx_HAL_Driver/Src/stm32f1xx_hal_i2c.c ****       (+) At Memory end of read transfer, @ref HAL_I2C_MemRxCpltCallback() is executed and user can
 199:Drivers/STM32F1xx_HAL_Driver/Src/stm32f1xx_hal_i2c.c ****            add his own code by customization of function pointer @ref HAL_I2C_MemRxCpltCallback()
 200:Drivers/STM32F1xx_HAL_Driver/Src/stm32f1xx_hal_i2c.c ****       (+) In case of transfer Error, @ref HAL_I2C_ErrorCallback() function is executed and user can
 201:Drivers/STM32F1xx_HAL_Driver/Src/stm32f1xx_hal_i2c.c ****            add his own code by customization of function pointer @ref HAL_I2C_ErrorCallback()
 202:Drivers/STM32F1xx_HAL_Driver/Src/stm32f1xx_hal_i2c.c **** 
 203:Drivers/STM32F1xx_HAL_Driver/Src/stm32f1xx_hal_i2c.c **** 
ARM GAS  /tmp/ccFqkhxP.s 			page 5


 204:Drivers/STM32F1xx_HAL_Driver/Src/stm32f1xx_hal_i2c.c ****      *** I2C HAL driver macros list ***
 205:Drivers/STM32F1xx_HAL_Driver/Src/stm32f1xx_hal_i2c.c ****      ==================================
 206:Drivers/STM32F1xx_HAL_Driver/Src/stm32f1xx_hal_i2c.c ****      [..]
 207:Drivers/STM32F1xx_HAL_Driver/Src/stm32f1xx_hal_i2c.c ****        Below the list of most used macros in I2C HAL driver.
 208:Drivers/STM32F1xx_HAL_Driver/Src/stm32f1xx_hal_i2c.c **** 
 209:Drivers/STM32F1xx_HAL_Driver/Src/stm32f1xx_hal_i2c.c ****       (+) @ref __HAL_I2C_ENABLE:     Enable the I2C peripheral
 210:Drivers/STM32F1xx_HAL_Driver/Src/stm32f1xx_hal_i2c.c ****       (+) @ref __HAL_I2C_DISABLE:    Disable the I2C peripheral
 211:Drivers/STM32F1xx_HAL_Driver/Src/stm32f1xx_hal_i2c.c ****       (+) @ref __HAL_I2C_GET_FLAG:   Checks whether the specified I2C flag is set or not
 212:Drivers/STM32F1xx_HAL_Driver/Src/stm32f1xx_hal_i2c.c ****       (+) @ref __HAL_I2C_CLEAR_FLAG: Clear the specified I2C pending flag
 213:Drivers/STM32F1xx_HAL_Driver/Src/stm32f1xx_hal_i2c.c ****       (+) @ref __HAL_I2C_ENABLE_IT:  Enable the specified I2C interrupt
 214:Drivers/STM32F1xx_HAL_Driver/Src/stm32f1xx_hal_i2c.c ****       (+) @ref __HAL_I2C_DISABLE_IT: Disable the specified I2C interrupt
 215:Drivers/STM32F1xx_HAL_Driver/Src/stm32f1xx_hal_i2c.c **** 
 216:Drivers/STM32F1xx_HAL_Driver/Src/stm32f1xx_hal_i2c.c ****      *** Callback registration ***
 217:Drivers/STM32F1xx_HAL_Driver/Src/stm32f1xx_hal_i2c.c ****      =============================================
 218:Drivers/STM32F1xx_HAL_Driver/Src/stm32f1xx_hal_i2c.c ****     [..]
 219:Drivers/STM32F1xx_HAL_Driver/Src/stm32f1xx_hal_i2c.c ****      The compilation flag USE_HAL_I2C_REGISTER_CALLBACKS when set to 1
 220:Drivers/STM32F1xx_HAL_Driver/Src/stm32f1xx_hal_i2c.c ****      allows the user to configure dynamically the driver callbacks.
 221:Drivers/STM32F1xx_HAL_Driver/Src/stm32f1xx_hal_i2c.c ****      Use Functions @ref HAL_I2C_RegisterCallback() or @ref HAL_I2C_RegisterAddrCallback()
 222:Drivers/STM32F1xx_HAL_Driver/Src/stm32f1xx_hal_i2c.c ****      to register an interrupt callback.
 223:Drivers/STM32F1xx_HAL_Driver/Src/stm32f1xx_hal_i2c.c ****     [..]
 224:Drivers/STM32F1xx_HAL_Driver/Src/stm32f1xx_hal_i2c.c ****      Function @ref HAL_I2C_RegisterCallback() allows to register following callbacks:
 225:Drivers/STM32F1xx_HAL_Driver/Src/stm32f1xx_hal_i2c.c ****        (+) MasterTxCpltCallback : callback for Master transmission end of transfer.
 226:Drivers/STM32F1xx_HAL_Driver/Src/stm32f1xx_hal_i2c.c ****        (+) MasterRxCpltCallback : callback for Master reception end of transfer.
 227:Drivers/STM32F1xx_HAL_Driver/Src/stm32f1xx_hal_i2c.c ****        (+) SlaveTxCpltCallback  : callback for Slave transmission end of transfer.
 228:Drivers/STM32F1xx_HAL_Driver/Src/stm32f1xx_hal_i2c.c ****        (+) SlaveRxCpltCallback  : callback for Slave reception end of transfer.
 229:Drivers/STM32F1xx_HAL_Driver/Src/stm32f1xx_hal_i2c.c ****        (+) ListenCpltCallback   : callback for end of listen mode.
 230:Drivers/STM32F1xx_HAL_Driver/Src/stm32f1xx_hal_i2c.c ****        (+) MemTxCpltCallback    : callback for Memory transmission end of transfer.
 231:Drivers/STM32F1xx_HAL_Driver/Src/stm32f1xx_hal_i2c.c ****        (+) MemRxCpltCallback    : callback for Memory reception end of transfer.
 232:Drivers/STM32F1xx_HAL_Driver/Src/stm32f1xx_hal_i2c.c ****        (+) ErrorCallback        : callback for error detection.
 233:Drivers/STM32F1xx_HAL_Driver/Src/stm32f1xx_hal_i2c.c ****        (+) AbortCpltCallback    : callback for abort completion process.
 234:Drivers/STM32F1xx_HAL_Driver/Src/stm32f1xx_hal_i2c.c ****        (+) MspInitCallback      : callback for Msp Init.
 235:Drivers/STM32F1xx_HAL_Driver/Src/stm32f1xx_hal_i2c.c ****        (+) MspDeInitCallback    : callback for Msp DeInit.
 236:Drivers/STM32F1xx_HAL_Driver/Src/stm32f1xx_hal_i2c.c ****      This function takes as parameters the HAL peripheral handle, the Callback ID
 237:Drivers/STM32F1xx_HAL_Driver/Src/stm32f1xx_hal_i2c.c ****      and a pointer to the user callback function.
 238:Drivers/STM32F1xx_HAL_Driver/Src/stm32f1xx_hal_i2c.c ****     [..]
 239:Drivers/STM32F1xx_HAL_Driver/Src/stm32f1xx_hal_i2c.c ****      For specific callback AddrCallback use dedicated register callbacks : @ref HAL_I2C_RegisterAdd
 240:Drivers/STM32F1xx_HAL_Driver/Src/stm32f1xx_hal_i2c.c ****     [..]
 241:Drivers/STM32F1xx_HAL_Driver/Src/stm32f1xx_hal_i2c.c ****      Use function @ref HAL_I2C_UnRegisterCallback to reset a callback to the default
 242:Drivers/STM32F1xx_HAL_Driver/Src/stm32f1xx_hal_i2c.c ****      weak function.
 243:Drivers/STM32F1xx_HAL_Driver/Src/stm32f1xx_hal_i2c.c ****      @ref HAL_I2C_UnRegisterCallback takes as parameters the HAL peripheral handle,
 244:Drivers/STM32F1xx_HAL_Driver/Src/stm32f1xx_hal_i2c.c ****      and the Callback ID.
 245:Drivers/STM32F1xx_HAL_Driver/Src/stm32f1xx_hal_i2c.c ****      This function allows to reset following callbacks:
 246:Drivers/STM32F1xx_HAL_Driver/Src/stm32f1xx_hal_i2c.c ****        (+) MasterTxCpltCallback : callback for Master transmission end of transfer.
 247:Drivers/STM32F1xx_HAL_Driver/Src/stm32f1xx_hal_i2c.c ****        (+) MasterRxCpltCallback : callback for Master reception end of transfer.
 248:Drivers/STM32F1xx_HAL_Driver/Src/stm32f1xx_hal_i2c.c ****        (+) SlaveTxCpltCallback  : callback for Slave transmission end of transfer.
 249:Drivers/STM32F1xx_HAL_Driver/Src/stm32f1xx_hal_i2c.c ****        (+) SlaveRxCpltCallback  : callback for Slave reception end of transfer.
 250:Drivers/STM32F1xx_HAL_Driver/Src/stm32f1xx_hal_i2c.c ****        (+) ListenCpltCallback   : callback for end of listen mode.
 251:Drivers/STM32F1xx_HAL_Driver/Src/stm32f1xx_hal_i2c.c ****        (+) MemTxCpltCallback    : callback for Memory transmission end of transfer.
 252:Drivers/STM32F1xx_HAL_Driver/Src/stm32f1xx_hal_i2c.c ****        (+) MemRxCpltCallback    : callback for Memory reception end of transfer.
 253:Drivers/STM32F1xx_HAL_Driver/Src/stm32f1xx_hal_i2c.c ****        (+) ErrorCallback        : callback for error detection.
 254:Drivers/STM32F1xx_HAL_Driver/Src/stm32f1xx_hal_i2c.c ****        (+) AbortCpltCallback    : callback for abort completion process.
 255:Drivers/STM32F1xx_HAL_Driver/Src/stm32f1xx_hal_i2c.c ****        (+) MspInitCallback      : callback for Msp Init.
 256:Drivers/STM32F1xx_HAL_Driver/Src/stm32f1xx_hal_i2c.c ****        (+) MspDeInitCallback    : callback for Msp DeInit.
 257:Drivers/STM32F1xx_HAL_Driver/Src/stm32f1xx_hal_i2c.c ****     [..]
 258:Drivers/STM32F1xx_HAL_Driver/Src/stm32f1xx_hal_i2c.c ****      For callback AddrCallback use dedicated register callbacks : @ref HAL_I2C_UnRegisterAddrCallba
 259:Drivers/STM32F1xx_HAL_Driver/Src/stm32f1xx_hal_i2c.c ****     [..]
 260:Drivers/STM32F1xx_HAL_Driver/Src/stm32f1xx_hal_i2c.c ****      By default, after the @ref HAL_I2C_Init() and when the state is @ref HAL_I2C_STATE_RESET
ARM GAS  /tmp/ccFqkhxP.s 			page 6


 261:Drivers/STM32F1xx_HAL_Driver/Src/stm32f1xx_hal_i2c.c ****      all callbacks are set to the corresponding weak functions:
 262:Drivers/STM32F1xx_HAL_Driver/Src/stm32f1xx_hal_i2c.c ****      examples @ref HAL_I2C_MasterTxCpltCallback(), @ref HAL_I2C_MasterRxCpltCallback().
 263:Drivers/STM32F1xx_HAL_Driver/Src/stm32f1xx_hal_i2c.c ****      Exception done for MspInit and MspDeInit functions that are
 264:Drivers/STM32F1xx_HAL_Driver/Src/stm32f1xx_hal_i2c.c ****      reset to the legacy weak functions in the @ref HAL_I2C_Init()/ @ref HAL_I2C_DeInit() only when
 265:Drivers/STM32F1xx_HAL_Driver/Src/stm32f1xx_hal_i2c.c ****      these callbacks are null (not registered beforehand).
 266:Drivers/STM32F1xx_HAL_Driver/Src/stm32f1xx_hal_i2c.c ****      If MspInit or MspDeInit are not null, the @ref HAL_I2C_Init()/ @ref HAL_I2C_DeInit()
 267:Drivers/STM32F1xx_HAL_Driver/Src/stm32f1xx_hal_i2c.c ****      keep and use the user MspInit/MspDeInit callbacks (registered beforehand) whatever the state.
 268:Drivers/STM32F1xx_HAL_Driver/Src/stm32f1xx_hal_i2c.c ****     [..]
 269:Drivers/STM32F1xx_HAL_Driver/Src/stm32f1xx_hal_i2c.c ****      Callbacks can be registered/unregistered in @ref HAL_I2C_STATE_READY state only.
 270:Drivers/STM32F1xx_HAL_Driver/Src/stm32f1xx_hal_i2c.c ****      Exception done MspInit/MspDeInit functions that can be registered/unregistered
 271:Drivers/STM32F1xx_HAL_Driver/Src/stm32f1xx_hal_i2c.c ****      in @ref HAL_I2C_STATE_READY or @ref HAL_I2C_STATE_RESET state,
 272:Drivers/STM32F1xx_HAL_Driver/Src/stm32f1xx_hal_i2c.c ****      thus registered (user) MspInit/DeInit callbacks can be used during the Init/DeInit.
 273:Drivers/STM32F1xx_HAL_Driver/Src/stm32f1xx_hal_i2c.c ****      Then, the user first registers the MspInit/MspDeInit user callbacks
 274:Drivers/STM32F1xx_HAL_Driver/Src/stm32f1xx_hal_i2c.c ****      using @ref HAL_I2C_RegisterCallback() before calling @ref HAL_I2C_DeInit()
 275:Drivers/STM32F1xx_HAL_Driver/Src/stm32f1xx_hal_i2c.c ****      or @ref HAL_I2C_Init() function.
 276:Drivers/STM32F1xx_HAL_Driver/Src/stm32f1xx_hal_i2c.c ****     [..]
 277:Drivers/STM32F1xx_HAL_Driver/Src/stm32f1xx_hal_i2c.c ****      When the compilation flag USE_HAL_I2C_REGISTER_CALLBACKS is set to 0 or
 278:Drivers/STM32F1xx_HAL_Driver/Src/stm32f1xx_hal_i2c.c ****      not defined, the callback registration feature is not available and all callbacks
 279:Drivers/STM32F1xx_HAL_Driver/Src/stm32f1xx_hal_i2c.c ****      are set to the corresponding weak functions.
 280:Drivers/STM32F1xx_HAL_Driver/Src/stm32f1xx_hal_i2c.c **** 
 281:Drivers/STM32F1xx_HAL_Driver/Src/stm32f1xx_hal_i2c.c **** 
 282:Drivers/STM32F1xx_HAL_Driver/Src/stm32f1xx_hal_i2c.c ****      *** I2C Workarounds linked to Silicon Limitation ***
 283:Drivers/STM32F1xx_HAL_Driver/Src/stm32f1xx_hal_i2c.c ****      ====================================================
 284:Drivers/STM32F1xx_HAL_Driver/Src/stm32f1xx_hal_i2c.c ****      [..]
 285:Drivers/STM32F1xx_HAL_Driver/Src/stm32f1xx_hal_i2c.c ****        Below the list of all silicon limitations implemented for HAL on STM32F1xx product.
 286:Drivers/STM32F1xx_HAL_Driver/Src/stm32f1xx_hal_i2c.c ****        (@) See ErrataSheet to know full silicon limitation list of your product.
 287:Drivers/STM32F1xx_HAL_Driver/Src/stm32f1xx_hal_i2c.c **** 
 288:Drivers/STM32F1xx_HAL_Driver/Src/stm32f1xx_hal_i2c.c ****        (+) Workarounds Implemented inside I2C HAL Driver
 289:Drivers/STM32F1xx_HAL_Driver/Src/stm32f1xx_hal_i2c.c ****           (++) Wrong data read into data register (Polling and Interrupt mode)
 290:Drivers/STM32F1xx_HAL_Driver/Src/stm32f1xx_hal_i2c.c ****           (++) Start cannot be generated after a misplaced Stop
 291:Drivers/STM32F1xx_HAL_Driver/Src/stm32f1xx_hal_i2c.c ****           (++) Some software events must be managed before the current byte is being transferred:
 292:Drivers/STM32F1xx_HAL_Driver/Src/stm32f1xx_hal_i2c.c ****                Workaround: Use DMA in general, except when the Master is receiving a single byte.
 293:Drivers/STM32F1xx_HAL_Driver/Src/stm32f1xx_hal_i2c.c ****                For Interupt mode, I2C should have the highest priority in the application.
 294:Drivers/STM32F1xx_HAL_Driver/Src/stm32f1xx_hal_i2c.c ****           (++) Mismatch on the "Setup time for a repeated Start condition" timing parameter:
 295:Drivers/STM32F1xx_HAL_Driver/Src/stm32f1xx_hal_i2c.c ****                Workaround: Reduce the frequency down to 88 kHz or use the I2C Fast-mode if
 296:Drivers/STM32F1xx_HAL_Driver/Src/stm32f1xx_hal_i2c.c ****                supported by the slave.
 297:Drivers/STM32F1xx_HAL_Driver/Src/stm32f1xx_hal_i2c.c ****           (++) Data valid time (tVD;DAT) violated without the OVR flag being set:
 298:Drivers/STM32F1xx_HAL_Driver/Src/stm32f1xx_hal_i2c.c ****                Workaround: If the slave device allows it, use the clock stretching mechanism
 299:Drivers/STM32F1xx_HAL_Driver/Src/stm32f1xx_hal_i2c.c ****                by programming NoStretchMode = I2C_NOSTRETCH_DISABLE in @ref HAL_I2C_Init.
 300:Drivers/STM32F1xx_HAL_Driver/Src/stm32f1xx_hal_i2c.c **** 
 301:Drivers/STM32F1xx_HAL_Driver/Src/stm32f1xx_hal_i2c.c ****      [..]
 302:Drivers/STM32F1xx_HAL_Driver/Src/stm32f1xx_hal_i2c.c ****        (@) You can refer to the I2C HAL driver header file for more useful macros
 303:Drivers/STM32F1xx_HAL_Driver/Src/stm32f1xx_hal_i2c.c **** 
 304:Drivers/STM32F1xx_HAL_Driver/Src/stm32f1xx_hal_i2c.c ****   @endverbatim
 305:Drivers/STM32F1xx_HAL_Driver/Src/stm32f1xx_hal_i2c.c ****   ******************************************************************************
 306:Drivers/STM32F1xx_HAL_Driver/Src/stm32f1xx_hal_i2c.c ****   * @attention
 307:Drivers/STM32F1xx_HAL_Driver/Src/stm32f1xx_hal_i2c.c ****   *
 308:Drivers/STM32F1xx_HAL_Driver/Src/stm32f1xx_hal_i2c.c ****   * <h2><center>&copy; Copyright (c) 2016 STMicroelectronics.
 309:Drivers/STM32F1xx_HAL_Driver/Src/stm32f1xx_hal_i2c.c ****   * All rights reserved.</center></h2>
 310:Drivers/STM32F1xx_HAL_Driver/Src/stm32f1xx_hal_i2c.c ****   *
 311:Drivers/STM32F1xx_HAL_Driver/Src/stm32f1xx_hal_i2c.c ****   * This software component is licensed by ST under BSD 3-Clause license,
 312:Drivers/STM32F1xx_HAL_Driver/Src/stm32f1xx_hal_i2c.c ****   * the "License"; You may not use this file except in compliance with the
 313:Drivers/STM32F1xx_HAL_Driver/Src/stm32f1xx_hal_i2c.c ****   * License. You may obtain a copy of the License at:
 314:Drivers/STM32F1xx_HAL_Driver/Src/stm32f1xx_hal_i2c.c ****   *                        opensource.org/licenses/BSD-3-Clause
 315:Drivers/STM32F1xx_HAL_Driver/Src/stm32f1xx_hal_i2c.c ****   *
 316:Drivers/STM32F1xx_HAL_Driver/Src/stm32f1xx_hal_i2c.c ****   ******************************************************************************
 317:Drivers/STM32F1xx_HAL_Driver/Src/stm32f1xx_hal_i2c.c ****   */
ARM GAS  /tmp/ccFqkhxP.s 			page 7


 318:Drivers/STM32F1xx_HAL_Driver/Src/stm32f1xx_hal_i2c.c **** 
 319:Drivers/STM32F1xx_HAL_Driver/Src/stm32f1xx_hal_i2c.c **** /* Includes ------------------------------------------------------------------*/
 320:Drivers/STM32F1xx_HAL_Driver/Src/stm32f1xx_hal_i2c.c **** #include "stm32f1xx_hal.h"
 321:Drivers/STM32F1xx_HAL_Driver/Src/stm32f1xx_hal_i2c.c **** 
 322:Drivers/STM32F1xx_HAL_Driver/Src/stm32f1xx_hal_i2c.c **** /** @addtogroup STM32F1xx_HAL_Driver
 323:Drivers/STM32F1xx_HAL_Driver/Src/stm32f1xx_hal_i2c.c ****   * @{
 324:Drivers/STM32F1xx_HAL_Driver/Src/stm32f1xx_hal_i2c.c ****   */
 325:Drivers/STM32F1xx_HAL_Driver/Src/stm32f1xx_hal_i2c.c **** 
 326:Drivers/STM32F1xx_HAL_Driver/Src/stm32f1xx_hal_i2c.c **** /** @defgroup I2C I2C
 327:Drivers/STM32F1xx_HAL_Driver/Src/stm32f1xx_hal_i2c.c ****   * @brief I2C HAL module driver
 328:Drivers/STM32F1xx_HAL_Driver/Src/stm32f1xx_hal_i2c.c ****   * @{
 329:Drivers/STM32F1xx_HAL_Driver/Src/stm32f1xx_hal_i2c.c ****   */
 330:Drivers/STM32F1xx_HAL_Driver/Src/stm32f1xx_hal_i2c.c **** 
 331:Drivers/STM32F1xx_HAL_Driver/Src/stm32f1xx_hal_i2c.c **** #ifdef HAL_I2C_MODULE_ENABLED
 332:Drivers/STM32F1xx_HAL_Driver/Src/stm32f1xx_hal_i2c.c **** 
 333:Drivers/STM32F1xx_HAL_Driver/Src/stm32f1xx_hal_i2c.c **** /* Private typedef -----------------------------------------------------------*/
 334:Drivers/STM32F1xx_HAL_Driver/Src/stm32f1xx_hal_i2c.c **** /* Private define ------------------------------------------------------------*/
 335:Drivers/STM32F1xx_HAL_Driver/Src/stm32f1xx_hal_i2c.c **** /** @addtogroup I2C_Private_Define
 336:Drivers/STM32F1xx_HAL_Driver/Src/stm32f1xx_hal_i2c.c ****   * @{
 337:Drivers/STM32F1xx_HAL_Driver/Src/stm32f1xx_hal_i2c.c ****   */
 338:Drivers/STM32F1xx_HAL_Driver/Src/stm32f1xx_hal_i2c.c **** #define I2C_TIMEOUT_FLAG          35U         /*!< Timeout 35 ms             */
 339:Drivers/STM32F1xx_HAL_Driver/Src/stm32f1xx_hal_i2c.c **** #define I2C_TIMEOUT_BUSY_FLAG     25U         /*!< Timeout 25 ms             */
 340:Drivers/STM32F1xx_HAL_Driver/Src/stm32f1xx_hal_i2c.c **** #define I2C_TIMEOUT_STOP_FLAG     5U          /*!< Timeout 5 ms              */
 341:Drivers/STM32F1xx_HAL_Driver/Src/stm32f1xx_hal_i2c.c **** #define I2C_NO_OPTION_FRAME       0xFFFF0000U /*!< XferOptions default value */
 342:Drivers/STM32F1xx_HAL_Driver/Src/stm32f1xx_hal_i2c.c **** 
 343:Drivers/STM32F1xx_HAL_Driver/Src/stm32f1xx_hal_i2c.c **** /* Private define for @ref PreviousState usage */
 344:Drivers/STM32F1xx_HAL_Driver/Src/stm32f1xx_hal_i2c.c **** #define I2C_STATE_MSK             ((uint32_t)((uint32_t)((uint32_t)HAL_I2C_STATE_BUSY_TX | (uint32_
 345:Drivers/STM32F1xx_HAL_Driver/Src/stm32f1xx_hal_i2c.c **** #define I2C_STATE_NONE            ((uint32_t)(HAL_I2C_MODE_NONE))                                  
 346:Drivers/STM32F1xx_HAL_Driver/Src/stm32f1xx_hal_i2c.c **** #define I2C_STATE_MASTER_BUSY_TX  ((uint32_t)(((uint32_t)HAL_I2C_STATE_BUSY_TX & I2C_STATE_MSK) | (
 347:Drivers/STM32F1xx_HAL_Driver/Src/stm32f1xx_hal_i2c.c **** #define I2C_STATE_MASTER_BUSY_RX  ((uint32_t)(((uint32_t)HAL_I2C_STATE_BUSY_RX & I2C_STATE_MSK) | (
 348:Drivers/STM32F1xx_HAL_Driver/Src/stm32f1xx_hal_i2c.c **** #define I2C_STATE_SLAVE_BUSY_TX   ((uint32_t)(((uint32_t)HAL_I2C_STATE_BUSY_TX & I2C_STATE_MSK) | (
 349:Drivers/STM32F1xx_HAL_Driver/Src/stm32f1xx_hal_i2c.c **** #define I2C_STATE_SLAVE_BUSY_RX   ((uint32_t)(((uint32_t)HAL_I2C_STATE_BUSY_RX & I2C_STATE_MSK) | (
 350:Drivers/STM32F1xx_HAL_Driver/Src/stm32f1xx_hal_i2c.c **** 
 351:Drivers/STM32F1xx_HAL_Driver/Src/stm32f1xx_hal_i2c.c **** /**
 352:Drivers/STM32F1xx_HAL_Driver/Src/stm32f1xx_hal_i2c.c ****   * @}
 353:Drivers/STM32F1xx_HAL_Driver/Src/stm32f1xx_hal_i2c.c ****   */
 354:Drivers/STM32F1xx_HAL_Driver/Src/stm32f1xx_hal_i2c.c **** 
 355:Drivers/STM32F1xx_HAL_Driver/Src/stm32f1xx_hal_i2c.c **** /* Private macro -------------------------------------------------------------*/
 356:Drivers/STM32F1xx_HAL_Driver/Src/stm32f1xx_hal_i2c.c **** /* Private variables ---------------------------------------------------------*/
 357:Drivers/STM32F1xx_HAL_Driver/Src/stm32f1xx_hal_i2c.c **** /* Private function prototypes -----------------------------------------------*/
 358:Drivers/STM32F1xx_HAL_Driver/Src/stm32f1xx_hal_i2c.c **** 
 359:Drivers/STM32F1xx_HAL_Driver/Src/stm32f1xx_hal_i2c.c **** /** @defgroup I2C_Private_Functions I2C Private Functions
 360:Drivers/STM32F1xx_HAL_Driver/Src/stm32f1xx_hal_i2c.c ****   * @{
 361:Drivers/STM32F1xx_HAL_Driver/Src/stm32f1xx_hal_i2c.c ****   */
 362:Drivers/STM32F1xx_HAL_Driver/Src/stm32f1xx_hal_i2c.c **** /* Private functions to handle DMA transfer */
 363:Drivers/STM32F1xx_HAL_Driver/Src/stm32f1xx_hal_i2c.c **** static void I2C_DMAXferCplt(DMA_HandleTypeDef *hdma);
 364:Drivers/STM32F1xx_HAL_Driver/Src/stm32f1xx_hal_i2c.c **** static void I2C_DMAError(DMA_HandleTypeDef *hdma);
 365:Drivers/STM32F1xx_HAL_Driver/Src/stm32f1xx_hal_i2c.c **** static void I2C_DMAAbort(DMA_HandleTypeDef *hdma);
 366:Drivers/STM32F1xx_HAL_Driver/Src/stm32f1xx_hal_i2c.c **** 
 367:Drivers/STM32F1xx_HAL_Driver/Src/stm32f1xx_hal_i2c.c **** static void I2C_ITError(I2C_HandleTypeDef *hi2c);
 368:Drivers/STM32F1xx_HAL_Driver/Src/stm32f1xx_hal_i2c.c **** 
 369:Drivers/STM32F1xx_HAL_Driver/Src/stm32f1xx_hal_i2c.c **** static HAL_StatusTypeDef I2C_MasterRequestWrite(I2C_HandleTypeDef *hi2c, uint16_t DevAddress, uint3
 370:Drivers/STM32F1xx_HAL_Driver/Src/stm32f1xx_hal_i2c.c **** static HAL_StatusTypeDef I2C_MasterRequestRead(I2C_HandleTypeDef *hi2c, uint16_t DevAddress, uint32
 371:Drivers/STM32F1xx_HAL_Driver/Src/stm32f1xx_hal_i2c.c **** static HAL_StatusTypeDef I2C_RequestMemoryWrite(I2C_HandleTypeDef *hi2c, uint16_t DevAddress, uint1
 372:Drivers/STM32F1xx_HAL_Driver/Src/stm32f1xx_hal_i2c.c **** static HAL_StatusTypeDef I2C_RequestMemoryRead(I2C_HandleTypeDef *hi2c, uint16_t DevAddress, uint16
 373:Drivers/STM32F1xx_HAL_Driver/Src/stm32f1xx_hal_i2c.c **** 
 374:Drivers/STM32F1xx_HAL_Driver/Src/stm32f1xx_hal_i2c.c **** /* Private functions to handle flags during polling transfer */
ARM GAS  /tmp/ccFqkhxP.s 			page 8


 375:Drivers/STM32F1xx_HAL_Driver/Src/stm32f1xx_hal_i2c.c **** static HAL_StatusTypeDef I2C_WaitOnFlagUntilTimeout(I2C_HandleTypeDef *hi2c, uint32_t Flag, FlagSta
 376:Drivers/STM32F1xx_HAL_Driver/Src/stm32f1xx_hal_i2c.c **** static HAL_StatusTypeDef I2C_WaitOnMasterAddressFlagUntilTimeout(I2C_HandleTypeDef *hi2c, uint32_t 
 377:Drivers/STM32F1xx_HAL_Driver/Src/stm32f1xx_hal_i2c.c **** static HAL_StatusTypeDef I2C_WaitOnTXEFlagUntilTimeout(I2C_HandleTypeDef *hi2c, uint32_t Timeout, u
 378:Drivers/STM32F1xx_HAL_Driver/Src/stm32f1xx_hal_i2c.c **** static HAL_StatusTypeDef I2C_WaitOnBTFFlagUntilTimeout(I2C_HandleTypeDef *hi2c, uint32_t Timeout, u
 379:Drivers/STM32F1xx_HAL_Driver/Src/stm32f1xx_hal_i2c.c **** static HAL_StatusTypeDef I2C_WaitOnRXNEFlagUntilTimeout(I2C_HandleTypeDef *hi2c, uint32_t Timeout, 
 380:Drivers/STM32F1xx_HAL_Driver/Src/stm32f1xx_hal_i2c.c **** static HAL_StatusTypeDef I2C_WaitOnSTOPFlagUntilTimeout(I2C_HandleTypeDef *hi2c, uint32_t Timeout, 
 381:Drivers/STM32F1xx_HAL_Driver/Src/stm32f1xx_hal_i2c.c **** static HAL_StatusTypeDef I2C_WaitOnSTOPRequestThroughIT(I2C_HandleTypeDef *hi2c);
 382:Drivers/STM32F1xx_HAL_Driver/Src/stm32f1xx_hal_i2c.c **** static HAL_StatusTypeDef I2C_IsAcknowledgeFailed(I2C_HandleTypeDef *hi2c);
 383:Drivers/STM32F1xx_HAL_Driver/Src/stm32f1xx_hal_i2c.c **** 
 384:Drivers/STM32F1xx_HAL_Driver/Src/stm32f1xx_hal_i2c.c **** /* Private functions for I2C transfer IRQ handler */
 385:Drivers/STM32F1xx_HAL_Driver/Src/stm32f1xx_hal_i2c.c **** static void I2C_MasterTransmit_TXE(I2C_HandleTypeDef *hi2c);
 386:Drivers/STM32F1xx_HAL_Driver/Src/stm32f1xx_hal_i2c.c **** static void I2C_MasterTransmit_BTF(I2C_HandleTypeDef *hi2c);
 387:Drivers/STM32F1xx_HAL_Driver/Src/stm32f1xx_hal_i2c.c **** static void I2C_MasterReceive_RXNE(I2C_HandleTypeDef *hi2c);
 388:Drivers/STM32F1xx_HAL_Driver/Src/stm32f1xx_hal_i2c.c **** static void I2C_MasterReceive_BTF(I2C_HandleTypeDef *hi2c);
 389:Drivers/STM32F1xx_HAL_Driver/Src/stm32f1xx_hal_i2c.c **** static void I2C_Master_SB(I2C_HandleTypeDef *hi2c);
 390:Drivers/STM32F1xx_HAL_Driver/Src/stm32f1xx_hal_i2c.c **** static void I2C_Master_ADD10(I2C_HandleTypeDef *hi2c);
 391:Drivers/STM32F1xx_HAL_Driver/Src/stm32f1xx_hal_i2c.c **** static void I2C_Master_ADDR(I2C_HandleTypeDef *hi2c);
 392:Drivers/STM32F1xx_HAL_Driver/Src/stm32f1xx_hal_i2c.c **** 
 393:Drivers/STM32F1xx_HAL_Driver/Src/stm32f1xx_hal_i2c.c **** static void I2C_SlaveTransmit_TXE(I2C_HandleTypeDef *hi2c);
 394:Drivers/STM32F1xx_HAL_Driver/Src/stm32f1xx_hal_i2c.c **** static void I2C_SlaveTransmit_BTF(I2C_HandleTypeDef *hi2c);
 395:Drivers/STM32F1xx_HAL_Driver/Src/stm32f1xx_hal_i2c.c **** static void I2C_SlaveReceive_RXNE(I2C_HandleTypeDef *hi2c);
 396:Drivers/STM32F1xx_HAL_Driver/Src/stm32f1xx_hal_i2c.c **** static void I2C_SlaveReceive_BTF(I2C_HandleTypeDef *hi2c);
 397:Drivers/STM32F1xx_HAL_Driver/Src/stm32f1xx_hal_i2c.c **** static void I2C_Slave_ADDR(I2C_HandleTypeDef *hi2c, uint32_t IT2Flags);
 398:Drivers/STM32F1xx_HAL_Driver/Src/stm32f1xx_hal_i2c.c **** static void I2C_Slave_STOPF(I2C_HandleTypeDef *hi2c);
 399:Drivers/STM32F1xx_HAL_Driver/Src/stm32f1xx_hal_i2c.c **** static void I2C_Slave_AF(I2C_HandleTypeDef *hi2c);
 400:Drivers/STM32F1xx_HAL_Driver/Src/stm32f1xx_hal_i2c.c **** 
 401:Drivers/STM32F1xx_HAL_Driver/Src/stm32f1xx_hal_i2c.c **** static void I2C_MemoryTransmit_TXE_BTF(I2C_HandleTypeDef *hi2c);
 402:Drivers/STM32F1xx_HAL_Driver/Src/stm32f1xx_hal_i2c.c **** 
 403:Drivers/STM32F1xx_HAL_Driver/Src/stm32f1xx_hal_i2c.c **** /* Private function to Convert Specific options */
 404:Drivers/STM32F1xx_HAL_Driver/Src/stm32f1xx_hal_i2c.c **** static void I2C_ConvertOtherXferOptions(I2C_HandleTypeDef *hi2c);
 405:Drivers/STM32F1xx_HAL_Driver/Src/stm32f1xx_hal_i2c.c **** /**
 406:Drivers/STM32F1xx_HAL_Driver/Src/stm32f1xx_hal_i2c.c ****   * @}
 407:Drivers/STM32F1xx_HAL_Driver/Src/stm32f1xx_hal_i2c.c ****   */
 408:Drivers/STM32F1xx_HAL_Driver/Src/stm32f1xx_hal_i2c.c **** 
 409:Drivers/STM32F1xx_HAL_Driver/Src/stm32f1xx_hal_i2c.c **** /* Exported functions --------------------------------------------------------*/
 410:Drivers/STM32F1xx_HAL_Driver/Src/stm32f1xx_hal_i2c.c **** 
 411:Drivers/STM32F1xx_HAL_Driver/Src/stm32f1xx_hal_i2c.c **** /** @defgroup I2C_Exported_Functions I2C Exported Functions
 412:Drivers/STM32F1xx_HAL_Driver/Src/stm32f1xx_hal_i2c.c ****   * @{
 413:Drivers/STM32F1xx_HAL_Driver/Src/stm32f1xx_hal_i2c.c ****   */
 414:Drivers/STM32F1xx_HAL_Driver/Src/stm32f1xx_hal_i2c.c **** 
 415:Drivers/STM32F1xx_HAL_Driver/Src/stm32f1xx_hal_i2c.c **** /** @defgroup I2C_Exported_Functions_Group1 Initialization and de-initialization functions
 416:Drivers/STM32F1xx_HAL_Driver/Src/stm32f1xx_hal_i2c.c ****  *  @brief    Initialization and Configuration functions
 417:Drivers/STM32F1xx_HAL_Driver/Src/stm32f1xx_hal_i2c.c ****  *
 418:Drivers/STM32F1xx_HAL_Driver/Src/stm32f1xx_hal_i2c.c **** @verbatim
 419:Drivers/STM32F1xx_HAL_Driver/Src/stm32f1xx_hal_i2c.c ****  ===============================================================================
 420:Drivers/STM32F1xx_HAL_Driver/Src/stm32f1xx_hal_i2c.c ****               ##### Initialization and de-initialization functions #####
 421:Drivers/STM32F1xx_HAL_Driver/Src/stm32f1xx_hal_i2c.c ****  ===============================================================================
 422:Drivers/STM32F1xx_HAL_Driver/Src/stm32f1xx_hal_i2c.c ****     [..]  This subsection provides a set of functions allowing to initialize and
 423:Drivers/STM32F1xx_HAL_Driver/Src/stm32f1xx_hal_i2c.c ****           deinitialize the I2Cx peripheral:
 424:Drivers/STM32F1xx_HAL_Driver/Src/stm32f1xx_hal_i2c.c **** 
 425:Drivers/STM32F1xx_HAL_Driver/Src/stm32f1xx_hal_i2c.c ****       (+) User must Implement HAL_I2C_MspInit() function in which he configures
 426:Drivers/STM32F1xx_HAL_Driver/Src/stm32f1xx_hal_i2c.c ****           all related peripherals resources (CLOCK, GPIO, DMA, IT and NVIC).
 427:Drivers/STM32F1xx_HAL_Driver/Src/stm32f1xx_hal_i2c.c **** 
 428:Drivers/STM32F1xx_HAL_Driver/Src/stm32f1xx_hal_i2c.c ****       (+) Call the function HAL_I2C_Init() to configure the selected device with
 429:Drivers/STM32F1xx_HAL_Driver/Src/stm32f1xx_hal_i2c.c ****           the selected configuration:
 430:Drivers/STM32F1xx_HAL_Driver/Src/stm32f1xx_hal_i2c.c ****         (++) Communication Speed
 431:Drivers/STM32F1xx_HAL_Driver/Src/stm32f1xx_hal_i2c.c ****         (++) Duty cycle
ARM GAS  /tmp/ccFqkhxP.s 			page 9


 432:Drivers/STM32F1xx_HAL_Driver/Src/stm32f1xx_hal_i2c.c ****         (++) Addressing mode
 433:Drivers/STM32F1xx_HAL_Driver/Src/stm32f1xx_hal_i2c.c ****         (++) Own Address 1
 434:Drivers/STM32F1xx_HAL_Driver/Src/stm32f1xx_hal_i2c.c ****         (++) Dual Addressing mode
 435:Drivers/STM32F1xx_HAL_Driver/Src/stm32f1xx_hal_i2c.c ****         (++) Own Address 2
 436:Drivers/STM32F1xx_HAL_Driver/Src/stm32f1xx_hal_i2c.c ****         (++) General call mode
 437:Drivers/STM32F1xx_HAL_Driver/Src/stm32f1xx_hal_i2c.c ****         (++) Nostretch mode
 438:Drivers/STM32F1xx_HAL_Driver/Src/stm32f1xx_hal_i2c.c **** 
 439:Drivers/STM32F1xx_HAL_Driver/Src/stm32f1xx_hal_i2c.c ****       (+) Call the function HAL_I2C_DeInit() to restore the default configuration
 440:Drivers/STM32F1xx_HAL_Driver/Src/stm32f1xx_hal_i2c.c ****           of the selected I2Cx peripheral.
 441:Drivers/STM32F1xx_HAL_Driver/Src/stm32f1xx_hal_i2c.c **** 
 442:Drivers/STM32F1xx_HAL_Driver/Src/stm32f1xx_hal_i2c.c **** @endverbatim
 443:Drivers/STM32F1xx_HAL_Driver/Src/stm32f1xx_hal_i2c.c ****   * @{
 444:Drivers/STM32F1xx_HAL_Driver/Src/stm32f1xx_hal_i2c.c ****   */
 445:Drivers/STM32F1xx_HAL_Driver/Src/stm32f1xx_hal_i2c.c **** 
 446:Drivers/STM32F1xx_HAL_Driver/Src/stm32f1xx_hal_i2c.c **** /**
 447:Drivers/STM32F1xx_HAL_Driver/Src/stm32f1xx_hal_i2c.c ****   * @brief  Initializes the I2C according to the specified parameters
 448:Drivers/STM32F1xx_HAL_Driver/Src/stm32f1xx_hal_i2c.c ****   *         in the I2C_InitTypeDef and initialize the associated handle.
 449:Drivers/STM32F1xx_HAL_Driver/Src/stm32f1xx_hal_i2c.c ****   * @param  hi2c Pointer to a I2C_HandleTypeDef structure that contains
 450:Drivers/STM32F1xx_HAL_Driver/Src/stm32f1xx_hal_i2c.c ****   *                the configuration information for the specified I2C.
 451:Drivers/STM32F1xx_HAL_Driver/Src/stm32f1xx_hal_i2c.c ****   * @retval HAL status
 452:Drivers/STM32F1xx_HAL_Driver/Src/stm32f1xx_hal_i2c.c ****   */
 453:Drivers/STM32F1xx_HAL_Driver/Src/stm32f1xx_hal_i2c.c **** HAL_StatusTypeDef HAL_I2C_Init(I2C_HandleTypeDef *hi2c)
 454:Drivers/STM32F1xx_HAL_Driver/Src/stm32f1xx_hal_i2c.c **** {
  27              		.loc 1 454 1
  28              		.cfi_startproc
  29              		@ args = 0, pretend = 0, frame = 16
  30              		@ frame_needed = 1, uses_anonymous_args = 0
  31 0000 80B5     		push	{r7, lr}
  32              	.LCFI0:
  33              		.cfi_def_cfa_offset 8
  34              		.cfi_offset 7, -8
  35              		.cfi_offset 14, -4
  36 0002 84B0     		sub	sp, sp, #16
  37              	.LCFI1:
  38              		.cfi_def_cfa_offset 24
  39 0004 00AF     		add	r7, sp, #0
  40              	.LCFI2:
  41              		.cfi_def_cfa_register 7
  42 0006 7860     		str	r0, [r7, #4]
 455:Drivers/STM32F1xx_HAL_Driver/Src/stm32f1xx_hal_i2c.c ****   uint32_t freqrange;
 456:Drivers/STM32F1xx_HAL_Driver/Src/stm32f1xx_hal_i2c.c ****   uint32_t pclk1;
 457:Drivers/STM32F1xx_HAL_Driver/Src/stm32f1xx_hal_i2c.c **** 
 458:Drivers/STM32F1xx_HAL_Driver/Src/stm32f1xx_hal_i2c.c ****   /* Check the I2C handle allocation */
 459:Drivers/STM32F1xx_HAL_Driver/Src/stm32f1xx_hal_i2c.c ****   if (hi2c == NULL)
  43              		.loc 1 459 6
  44 0008 7B68     		ldr	r3, [r7, #4]
  45 000a 002B     		cmp	r3, #0
  46 000c 01D1     		bne	.L2
 460:Drivers/STM32F1xx_HAL_Driver/Src/stm32f1xx_hal_i2c.c ****   {
 461:Drivers/STM32F1xx_HAL_Driver/Src/stm32f1xx_hal_i2c.c ****     return HAL_ERROR;
  47              		.loc 1 461 12
  48 000e 0123     		movs	r3, #1
  49 0010 2BE1     		b	.L3
  50              	.L2:
 462:Drivers/STM32F1xx_HAL_Driver/Src/stm32f1xx_hal_i2c.c ****   }
 463:Drivers/STM32F1xx_HAL_Driver/Src/stm32f1xx_hal_i2c.c **** 
 464:Drivers/STM32F1xx_HAL_Driver/Src/stm32f1xx_hal_i2c.c ****   /* Check the parameters */
ARM GAS  /tmp/ccFqkhxP.s 			page 10


 465:Drivers/STM32F1xx_HAL_Driver/Src/stm32f1xx_hal_i2c.c ****   assert_param(IS_I2C_ALL_INSTANCE(hi2c->Instance));
 466:Drivers/STM32F1xx_HAL_Driver/Src/stm32f1xx_hal_i2c.c ****   assert_param(IS_I2C_CLOCK_SPEED(hi2c->Init.ClockSpeed));
 467:Drivers/STM32F1xx_HAL_Driver/Src/stm32f1xx_hal_i2c.c ****   assert_param(IS_I2C_DUTY_CYCLE(hi2c->Init.DutyCycle));
 468:Drivers/STM32F1xx_HAL_Driver/Src/stm32f1xx_hal_i2c.c ****   assert_param(IS_I2C_OWN_ADDRESS1(hi2c->Init.OwnAddress1));
 469:Drivers/STM32F1xx_HAL_Driver/Src/stm32f1xx_hal_i2c.c ****   assert_param(IS_I2C_ADDRESSING_MODE(hi2c->Init.AddressingMode));
 470:Drivers/STM32F1xx_HAL_Driver/Src/stm32f1xx_hal_i2c.c ****   assert_param(IS_I2C_DUAL_ADDRESS(hi2c->Init.DualAddressMode));
 471:Drivers/STM32F1xx_HAL_Driver/Src/stm32f1xx_hal_i2c.c ****   assert_param(IS_I2C_OWN_ADDRESS2(hi2c->Init.OwnAddress2));
 472:Drivers/STM32F1xx_HAL_Driver/Src/stm32f1xx_hal_i2c.c ****   assert_param(IS_I2C_GENERAL_CALL(hi2c->Init.GeneralCallMode));
 473:Drivers/STM32F1xx_HAL_Driver/Src/stm32f1xx_hal_i2c.c ****   assert_param(IS_I2C_NO_STRETCH(hi2c->Init.NoStretchMode));
 474:Drivers/STM32F1xx_HAL_Driver/Src/stm32f1xx_hal_i2c.c **** 
 475:Drivers/STM32F1xx_HAL_Driver/Src/stm32f1xx_hal_i2c.c ****   if (hi2c->State == HAL_I2C_STATE_RESET)
  51              		.loc 1 475 11
  52 0012 7B68     		ldr	r3, [r7, #4]
  53 0014 93F83D30 		ldrb	r3, [r3, #61]
  54 0018 DBB2     		uxtb	r3, r3
  55              		.loc 1 475 6
  56 001a 002B     		cmp	r3, #0
  57 001c 06D1     		bne	.L4
 476:Drivers/STM32F1xx_HAL_Driver/Src/stm32f1xx_hal_i2c.c ****   {
 477:Drivers/STM32F1xx_HAL_Driver/Src/stm32f1xx_hal_i2c.c ****     /* Allocate lock resource and initialize it */
 478:Drivers/STM32F1xx_HAL_Driver/Src/stm32f1xx_hal_i2c.c ****     hi2c->Lock = HAL_UNLOCKED;
  58              		.loc 1 478 16
  59 001e 7B68     		ldr	r3, [r7, #4]
  60 0020 0022     		movs	r2, #0
  61 0022 83F83C20 		strb	r2, [r3, #60]
 479:Drivers/STM32F1xx_HAL_Driver/Src/stm32f1xx_hal_i2c.c **** 
 480:Drivers/STM32F1xx_HAL_Driver/Src/stm32f1xx_hal_i2c.c **** #if (USE_HAL_I2C_REGISTER_CALLBACKS == 1)
 481:Drivers/STM32F1xx_HAL_Driver/Src/stm32f1xx_hal_i2c.c ****     /* Init the I2C Callback settings */
 482:Drivers/STM32F1xx_HAL_Driver/Src/stm32f1xx_hal_i2c.c ****     hi2c->MasterTxCpltCallback = HAL_I2C_MasterTxCpltCallback; /* Legacy weak MasterTxCpltCallback 
 483:Drivers/STM32F1xx_HAL_Driver/Src/stm32f1xx_hal_i2c.c ****     hi2c->MasterRxCpltCallback = HAL_I2C_MasterRxCpltCallback; /* Legacy weak MasterRxCpltCallback 
 484:Drivers/STM32F1xx_HAL_Driver/Src/stm32f1xx_hal_i2c.c ****     hi2c->SlaveTxCpltCallback  = HAL_I2C_SlaveTxCpltCallback;  /* Legacy weak SlaveTxCpltCallback  
 485:Drivers/STM32F1xx_HAL_Driver/Src/stm32f1xx_hal_i2c.c ****     hi2c->SlaveRxCpltCallback  = HAL_I2C_SlaveRxCpltCallback;  /* Legacy weak SlaveRxCpltCallback  
 486:Drivers/STM32F1xx_HAL_Driver/Src/stm32f1xx_hal_i2c.c ****     hi2c->ListenCpltCallback   = HAL_I2C_ListenCpltCallback;   /* Legacy weak ListenCpltCallback   
 487:Drivers/STM32F1xx_HAL_Driver/Src/stm32f1xx_hal_i2c.c ****     hi2c->MemTxCpltCallback    = HAL_I2C_MemTxCpltCallback;    /* Legacy weak MemTxCpltCallback    
 488:Drivers/STM32F1xx_HAL_Driver/Src/stm32f1xx_hal_i2c.c ****     hi2c->MemRxCpltCallback    = HAL_I2C_MemRxCpltCallback;    /* Legacy weak MemRxCpltCallback    
 489:Drivers/STM32F1xx_HAL_Driver/Src/stm32f1xx_hal_i2c.c ****     hi2c->ErrorCallback        = HAL_I2C_ErrorCallback;        /* Legacy weak ErrorCallback        
 490:Drivers/STM32F1xx_HAL_Driver/Src/stm32f1xx_hal_i2c.c ****     hi2c->AbortCpltCallback    = HAL_I2C_AbortCpltCallback;    /* Legacy weak AbortCpltCallback    
 491:Drivers/STM32F1xx_HAL_Driver/Src/stm32f1xx_hal_i2c.c ****     hi2c->AddrCallback         = HAL_I2C_AddrCallback;         /* Legacy weak AddrCallback         
 492:Drivers/STM32F1xx_HAL_Driver/Src/stm32f1xx_hal_i2c.c **** 
 493:Drivers/STM32F1xx_HAL_Driver/Src/stm32f1xx_hal_i2c.c ****     if (hi2c->MspInitCallback == NULL)
 494:Drivers/STM32F1xx_HAL_Driver/Src/stm32f1xx_hal_i2c.c ****     {
 495:Drivers/STM32F1xx_HAL_Driver/Src/stm32f1xx_hal_i2c.c ****       hi2c->MspInitCallback = HAL_I2C_MspInit; /* Legacy weak MspInit  */
 496:Drivers/STM32F1xx_HAL_Driver/Src/stm32f1xx_hal_i2c.c ****     }
 497:Drivers/STM32F1xx_HAL_Driver/Src/stm32f1xx_hal_i2c.c **** 
 498:Drivers/STM32F1xx_HAL_Driver/Src/stm32f1xx_hal_i2c.c ****     /* Init the low level hardware : GPIO, CLOCK, NVIC */
 499:Drivers/STM32F1xx_HAL_Driver/Src/stm32f1xx_hal_i2c.c ****     hi2c->MspInitCallback(hi2c);
 500:Drivers/STM32F1xx_HAL_Driver/Src/stm32f1xx_hal_i2c.c **** #else
 501:Drivers/STM32F1xx_HAL_Driver/Src/stm32f1xx_hal_i2c.c ****     /* Init the low level hardware : GPIO, CLOCK, NVIC */
 502:Drivers/STM32F1xx_HAL_Driver/Src/stm32f1xx_hal_i2c.c ****     HAL_I2C_MspInit(hi2c);
  62              		.loc 1 502 5
  63 0026 7868     		ldr	r0, [r7, #4]
  64 0028 FFF7FEFF 		bl	HAL_I2C_MspInit
  65              	.L4:
 503:Drivers/STM32F1xx_HAL_Driver/Src/stm32f1xx_hal_i2c.c **** #endif /* USE_HAL_I2C_REGISTER_CALLBACKS */
 504:Drivers/STM32F1xx_HAL_Driver/Src/stm32f1xx_hal_i2c.c ****   }
 505:Drivers/STM32F1xx_HAL_Driver/Src/stm32f1xx_hal_i2c.c **** 
 506:Drivers/STM32F1xx_HAL_Driver/Src/stm32f1xx_hal_i2c.c ****   hi2c->State = HAL_I2C_STATE_BUSY;
ARM GAS  /tmp/ccFqkhxP.s 			page 11


  66              		.loc 1 506 15
  67 002c 7B68     		ldr	r3, [r7, #4]
  68 002e 2422     		movs	r2, #36
  69 0030 83F83D20 		strb	r2, [r3, #61]
 507:Drivers/STM32F1xx_HAL_Driver/Src/stm32f1xx_hal_i2c.c **** 
 508:Drivers/STM32F1xx_HAL_Driver/Src/stm32f1xx_hal_i2c.c ****   /* Disable the selected I2C peripheral */
 509:Drivers/STM32F1xx_HAL_Driver/Src/stm32f1xx_hal_i2c.c ****   __HAL_I2C_DISABLE(hi2c);
  70              		.loc 1 509 3
  71 0034 7B68     		ldr	r3, [r7, #4]
  72 0036 1B68     		ldr	r3, [r3]
  73 0038 1A68     		ldr	r2, [r3]
  74 003a 7B68     		ldr	r3, [r7, #4]
  75 003c 1B68     		ldr	r3, [r3]
  76 003e 22F00102 		bic	r2, r2, #1
  77 0042 1A60     		str	r2, [r3]
 510:Drivers/STM32F1xx_HAL_Driver/Src/stm32f1xx_hal_i2c.c **** 
 511:Drivers/STM32F1xx_HAL_Driver/Src/stm32f1xx_hal_i2c.c ****   /*Reset I2C*/
 512:Drivers/STM32F1xx_HAL_Driver/Src/stm32f1xx_hal_i2c.c ****   hi2c->Instance->CR1 |= I2C_CR1_SWRST;
  78              		.loc 1 512 7
  79 0044 7B68     		ldr	r3, [r7, #4]
  80 0046 1B68     		ldr	r3, [r3]
  81              		.loc 1 512 23
  82 0048 1A68     		ldr	r2, [r3]
  83              		.loc 1 512 7
  84 004a 7B68     		ldr	r3, [r7, #4]
  85 004c 1B68     		ldr	r3, [r3]
  86              		.loc 1 512 23
  87 004e 42F40042 		orr	r2, r2, #32768
  88 0052 1A60     		str	r2, [r3]
 513:Drivers/STM32F1xx_HAL_Driver/Src/stm32f1xx_hal_i2c.c ****   hi2c->Instance->CR1 &= ~I2C_CR1_SWRST;
  89              		.loc 1 513 7
  90 0054 7B68     		ldr	r3, [r7, #4]
  91 0056 1B68     		ldr	r3, [r3]
  92              		.loc 1 513 23
  93 0058 1A68     		ldr	r2, [r3]
  94              		.loc 1 513 7
  95 005a 7B68     		ldr	r3, [r7, #4]
  96 005c 1B68     		ldr	r3, [r3]
  97              		.loc 1 513 23
  98 005e 22F40042 		bic	r2, r2, #32768
  99 0062 1A60     		str	r2, [r3]
 514:Drivers/STM32F1xx_HAL_Driver/Src/stm32f1xx_hal_i2c.c **** 
 515:Drivers/STM32F1xx_HAL_Driver/Src/stm32f1xx_hal_i2c.c ****   /* Get PCLK1 frequency */
 516:Drivers/STM32F1xx_HAL_Driver/Src/stm32f1xx_hal_i2c.c ****   pclk1 = HAL_RCC_GetPCLK1Freq();
 100              		.loc 1 516 11
 101 0064 FFF7FEFF 		bl	HAL_RCC_GetPCLK1Freq
 102 0068 F860     		str	r0, [r7, #12]
 517:Drivers/STM32F1xx_HAL_Driver/Src/stm32f1xx_hal_i2c.c **** 
 518:Drivers/STM32F1xx_HAL_Driver/Src/stm32f1xx_hal_i2c.c ****   /* Check the minimum allowed PCLK1 frequency */
 519:Drivers/STM32F1xx_HAL_Driver/Src/stm32f1xx_hal_i2c.c ****   if (I2C_MIN_PCLK_FREQ(pclk1, hi2c->Init.ClockSpeed) == 1U)
 103              		.loc 1 519 7
 104 006a 7B68     		ldr	r3, [r7, #4]
 105 006c 5B68     		ldr	r3, [r3, #4]
 106              		.loc 1 519 55
 107 006e 814A     		ldr	r2, .L20
 108 0070 9342     		cmp	r3, r2
 109 0072 07D8     		bhi	.L5
ARM GAS  /tmp/ccFqkhxP.s 			page 12


 110              		.loc 1 519 55 is_stmt 0 discriminator 1
 111 0074 FB68     		ldr	r3, [r7, #12]
 112 0076 804A     		ldr	r2, .L20+4
 113 0078 9342     		cmp	r3, r2
 114 007a 94BF     		ite	ls
 115 007c 0123     		movls	r3, #1
 116 007e 0023     		movhi	r3, #0
 117 0080 DBB2     		uxtb	r3, r3
 118 0082 06E0     		b	.L6
 119              	.L5:
 120              		.loc 1 519 55 discriminator 2
 121 0084 FB68     		ldr	r3, [r7, #12]
 122 0086 7D4A     		ldr	r2, .L20+8
 123 0088 9342     		cmp	r3, r2
 124 008a 94BF     		ite	ls
 125 008c 0123     		movls	r3, #1
 126 008e 0023     		movhi	r3, #0
 127 0090 DBB2     		uxtb	r3, r3
 128              	.L6:
 129              		.loc 1 519 6 is_stmt 1 discriminator 4
 130 0092 002B     		cmp	r3, #0
 131 0094 01D0     		beq	.L7
 520:Drivers/STM32F1xx_HAL_Driver/Src/stm32f1xx_hal_i2c.c ****   {
 521:Drivers/STM32F1xx_HAL_Driver/Src/stm32f1xx_hal_i2c.c ****     return HAL_ERROR;
 132              		.loc 1 521 12
 133 0096 0123     		movs	r3, #1
 134 0098 E7E0     		b	.L3
 135              	.L7:
 522:Drivers/STM32F1xx_HAL_Driver/Src/stm32f1xx_hal_i2c.c ****   }
 523:Drivers/STM32F1xx_HAL_Driver/Src/stm32f1xx_hal_i2c.c **** 
 524:Drivers/STM32F1xx_HAL_Driver/Src/stm32f1xx_hal_i2c.c ****   /* Calculate frequency range */
 525:Drivers/STM32F1xx_HAL_Driver/Src/stm32f1xx_hal_i2c.c ****   freqrange = I2C_FREQRANGE(pclk1);
 136              		.loc 1 525 13
 137 009a FB68     		ldr	r3, [r7, #12]
 138 009c 784A     		ldr	r2, .L20+12
 139 009e A2FB0323 		umull	r2, r3, r2, r3
 140 00a2 9B0C     		lsrs	r3, r3, #18
 141 00a4 BB60     		str	r3, [r7, #8]
 526:Drivers/STM32F1xx_HAL_Driver/Src/stm32f1xx_hal_i2c.c **** 
 527:Drivers/STM32F1xx_HAL_Driver/Src/stm32f1xx_hal_i2c.c ****   /*---------------------------- I2Cx CR2 Configuration ----------------------*/
 528:Drivers/STM32F1xx_HAL_Driver/Src/stm32f1xx_hal_i2c.c ****   /* Configure I2Cx: Frequency range */
 529:Drivers/STM32F1xx_HAL_Driver/Src/stm32f1xx_hal_i2c.c ****   MODIFY_REG(hi2c->Instance->CR2, I2C_CR2_FREQ, freqrange);
 142              		.loc 1 529 3
 143 00a6 7B68     		ldr	r3, [r7, #4]
 144 00a8 1B68     		ldr	r3, [r3]
 145 00aa 5B68     		ldr	r3, [r3, #4]
 146 00ac 23F03F01 		bic	r1, r3, #63
 147 00b0 7B68     		ldr	r3, [r7, #4]
 148 00b2 1B68     		ldr	r3, [r3]
 149 00b4 BA68     		ldr	r2, [r7, #8]
 150 00b6 0A43     		orrs	r2, r2, r1
 151 00b8 5A60     		str	r2, [r3, #4]
 530:Drivers/STM32F1xx_HAL_Driver/Src/stm32f1xx_hal_i2c.c **** 
 531:Drivers/STM32F1xx_HAL_Driver/Src/stm32f1xx_hal_i2c.c ****   /*---------------------------- I2Cx TRISE Configuration --------------------*/
 532:Drivers/STM32F1xx_HAL_Driver/Src/stm32f1xx_hal_i2c.c ****   /* Configure I2Cx: Rise Time */
 533:Drivers/STM32F1xx_HAL_Driver/Src/stm32f1xx_hal_i2c.c ****   MODIFY_REG(hi2c->Instance->TRISE, I2C_TRISE_TRISE, I2C_RISE_TIME(freqrange, hi2c->Init.ClockSpeed
 152              		.loc 1 533 3
ARM GAS  /tmp/ccFqkhxP.s 			page 13


 153 00ba 7B68     		ldr	r3, [r7, #4]
 154 00bc 1B68     		ldr	r3, [r3]
 155 00be 1B6A     		ldr	r3, [r3, #32]
 156 00c0 23F03F01 		bic	r1, r3, #63
 157 00c4 7B68     		ldr	r3, [r7, #4]
 158 00c6 5B68     		ldr	r3, [r3, #4]
 159 00c8 6A4A     		ldr	r2, .L20
 160 00ca 9342     		cmp	r3, r2
 161 00cc 02D8     		bhi	.L8
 162              		.loc 1 533 3 is_stmt 0 discriminator 1
 163 00ce BB68     		ldr	r3, [r7, #8]
 164 00d0 0133     		adds	r3, r3, #1
 165 00d2 09E0     		b	.L9
 166              	.L8:
 167              		.loc 1 533 3 discriminator 2
 168 00d4 BB68     		ldr	r3, [r7, #8]
 169 00d6 4FF49672 		mov	r2, #300
 170 00da 02FB03F3 		mul	r3, r2, r3
 171 00de 694A     		ldr	r2, .L20+16
 172 00e0 A2FB0323 		umull	r2, r3, r2, r3
 173 00e4 9B09     		lsrs	r3, r3, #6
 174 00e6 0133     		adds	r3, r3, #1
 175              	.L9:
 176              		.loc 1 533 3 discriminator 4
 177 00e8 7A68     		ldr	r2, [r7, #4]
 178 00ea 1268     		ldr	r2, [r2]
 179 00ec 0B43     		orrs	r3, r3, r1
 180 00ee 1362     		str	r3, [r2, #32]
 534:Drivers/STM32F1xx_HAL_Driver/Src/stm32f1xx_hal_i2c.c **** 
 535:Drivers/STM32F1xx_HAL_Driver/Src/stm32f1xx_hal_i2c.c ****   /*---------------------------- I2Cx CCR Configuration ----------------------*/
 536:Drivers/STM32F1xx_HAL_Driver/Src/stm32f1xx_hal_i2c.c ****   /* Configure I2Cx: Speed */
 537:Drivers/STM32F1xx_HAL_Driver/Src/stm32f1xx_hal_i2c.c ****   MODIFY_REG(hi2c->Instance->CCR, (I2C_CCR_FS | I2C_CCR_DUTY | I2C_CCR_CCR), I2C_SPEED(pclk1, hi2c-
 181              		.loc 1 537 3 is_stmt 1 discriminator 4
 182 00f0 7B68     		ldr	r3, [r7, #4]
 183 00f2 1B68     		ldr	r3, [r3]
 184 00f4 DB69     		ldr	r3, [r3, #28]
 185 00f6 23F44F42 		bic	r2, r3, #52992
 186 00fa 22F0FF02 		bic	r2, r2, #255
 187 00fe 7B68     		ldr	r3, [r7, #4]
 188 0100 5B68     		ldr	r3, [r3, #4]
 189 0102 5C49     		ldr	r1, .L20
 190 0104 8B42     		cmp	r3, r1
 191 0106 19D8     		bhi	.L10
 192              		.loc 1 537 3 is_stmt 0 discriminator 1
 193 0108 FB68     		ldr	r3, [r7, #12]
 194 010a 591E     		subs	r1, r3, #1
 195 010c 7B68     		ldr	r3, [r7, #4]
 196 010e 5B68     		ldr	r3, [r3, #4]
 197 0110 5B00     		lsls	r3, r3, #1
 198 0112 B1FBF3F3 		udiv	r3, r1, r3
 199 0116 591C     		adds	r1, r3, #1
 200 0118 40F6FC73 		movw	r3, #4092
 201 011c 0B40     		ands	r3, r3, r1
 202 011e 002B     		cmp	r3, #0
 203 0120 0AD0     		beq	.L11
 204              		.loc 1 537 3 discriminator 3
 205 0122 FB68     		ldr	r3, [r7, #12]
ARM GAS  /tmp/ccFqkhxP.s 			page 14


 206 0124 591E     		subs	r1, r3, #1
 207 0126 7B68     		ldr	r3, [r7, #4]
 208 0128 5B68     		ldr	r3, [r3, #4]
 209 012a 5B00     		lsls	r3, r3, #1
 210 012c B1FBF3F3 		udiv	r3, r1, r3
 211 0130 0133     		adds	r3, r3, #1
 212 0132 C3F30B03 		ubfx	r3, r3, #0, #12
 213 0136 51E0     		b	.L13
 214              	.L11:
 215              		.loc 1 537 3 discriminator 4
 216 0138 0423     		movs	r3, #4
 217 013a 4FE0     		b	.L13
 218              	.L10:
 219              		.loc 1 537 3 discriminator 2
 220 013c 7B68     		ldr	r3, [r7, #4]
 221 013e 9B68     		ldr	r3, [r3, #8]
 222 0140 002B     		cmp	r3, #0
 223 0142 11D1     		bne	.L14
 224              		.loc 1 537 3 discriminator 8
 225 0144 FB68     		ldr	r3, [r7, #12]
 226 0146 581E     		subs	r0, r3, #1
 227 0148 7B68     		ldr	r3, [r7, #4]
 228 014a 5968     		ldr	r1, [r3, #4]
 229 014c 0B46     		mov	r3, r1
 230 014e 5B00     		lsls	r3, r3, #1
 231 0150 0B44     		add	r3, r3, r1
 232 0152 B0FBF3F3 		udiv	r3, r0, r3
 233 0156 0133     		adds	r3, r3, #1
 234 0158 C3F30B03 		ubfx	r3, r3, #0, #12
 235 015c 002B     		cmp	r3, #0
 236 015e 0CBF     		ite	eq
 237 0160 0123     		moveq	r3, #1
 238 0162 0023     		movne	r3, #0
 239 0164 DBB2     		uxtb	r3, r3
 240 0166 12E0     		b	.L15
 241              	.L14:
 242              		.loc 1 537 3 discriminator 9
 243 0168 FB68     		ldr	r3, [r7, #12]
 244 016a 581E     		subs	r0, r3, #1
 245 016c 7B68     		ldr	r3, [r7, #4]
 246 016e 5968     		ldr	r1, [r3, #4]
 247 0170 0B46     		mov	r3, r1
 248 0172 9B00     		lsls	r3, r3, #2
 249 0174 0B44     		add	r3, r3, r1
 250 0176 9900     		lsls	r1, r3, #2
 251 0178 0B44     		add	r3, r3, r1
 252 017a B0FBF3F3 		udiv	r3, r0, r3
 253 017e 0133     		adds	r3, r3, #1
 254 0180 C3F30B03 		ubfx	r3, r3, #0, #12
 255 0184 002B     		cmp	r3, #0
 256 0186 0CBF     		ite	eq
 257 0188 0123     		moveq	r3, #1
 258 018a 0023     		movne	r3, #0
 259 018c DBB2     		uxtb	r3, r3
 260              	.L15:
 261              		.loc 1 537 3 discriminator 11
 262 018e 002B     		cmp	r3, #0
ARM GAS  /tmp/ccFqkhxP.s 			page 15


 263 0190 01D0     		beq	.L16
 264              		.loc 1 537 3 discriminator 12
 265 0192 0123     		movs	r3, #1
 266 0194 22E0     		b	.L13
 267              	.L16:
 268              		.loc 1 537 3 discriminator 13
 269 0196 7B68     		ldr	r3, [r7, #4]
 270 0198 9B68     		ldr	r3, [r3, #8]
 271 019a 002B     		cmp	r3, #0
 272 019c 0ED1     		bne	.L18
 273              		.loc 1 537 3 discriminator 15
 274 019e FB68     		ldr	r3, [r7, #12]
 275 01a0 581E     		subs	r0, r3, #1
 276 01a2 7B68     		ldr	r3, [r7, #4]
 277 01a4 5968     		ldr	r1, [r3, #4]
 278 01a6 0B46     		mov	r3, r1
 279 01a8 5B00     		lsls	r3, r3, #1
 280 01aa 0B44     		add	r3, r3, r1
 281 01ac B0FBF3F3 		udiv	r3, r0, r3
 282 01b0 0133     		adds	r3, r3, #1
 283 01b2 C3F30B03 		ubfx	r3, r3, #0, #12
 284 01b6 43F40043 		orr	r3, r3, #32768
 285 01ba 0FE0     		b	.L13
 286              	.L18:
 287              		.loc 1 537 3 discriminator 16
 288 01bc FB68     		ldr	r3, [r7, #12]
 289 01be 581E     		subs	r0, r3, #1
 290 01c0 7B68     		ldr	r3, [r7, #4]
 291 01c2 5968     		ldr	r1, [r3, #4]
 292 01c4 0B46     		mov	r3, r1
 293 01c6 9B00     		lsls	r3, r3, #2
 294 01c8 0B44     		add	r3, r3, r1
 295 01ca 9900     		lsls	r1, r3, #2
 296 01cc 0B44     		add	r3, r3, r1
 297 01ce B0FBF3F3 		udiv	r3, r0, r3
 298 01d2 0133     		adds	r3, r3, #1
 299 01d4 C3F30B03 		ubfx	r3, r3, #0, #12
 300 01d8 43F44043 		orr	r3, r3, #49152
 301              	.L13:
 302              		.loc 1 537 3 discriminator 20
 303 01dc 7968     		ldr	r1, [r7, #4]
 304 01de 0968     		ldr	r1, [r1]
 305 01e0 1343     		orrs	r3, r3, r2
 306 01e2 CB61     		str	r3, [r1, #28]
 538:Drivers/STM32F1xx_HAL_Driver/Src/stm32f1xx_hal_i2c.c **** 
 539:Drivers/STM32F1xx_HAL_Driver/Src/stm32f1xx_hal_i2c.c ****   /*---------------------------- I2Cx CR1 Configuration ----------------------*/
 540:Drivers/STM32F1xx_HAL_Driver/Src/stm32f1xx_hal_i2c.c ****   /* Configure I2Cx: Generalcall and NoStretch mode */
 541:Drivers/STM32F1xx_HAL_Driver/Src/stm32f1xx_hal_i2c.c ****   MODIFY_REG(hi2c->Instance->CR1, (I2C_CR1_ENGC | I2C_CR1_NOSTRETCH), (hi2c->Init.GeneralCallMode |
 307              		.loc 1 541 3 is_stmt 1 discriminator 20
 308 01e4 7B68     		ldr	r3, [r7, #4]
 309 01e6 1B68     		ldr	r3, [r3]
 310 01e8 1B68     		ldr	r3, [r3]
 311 01ea 23F0C001 		bic	r1, r3, #192
 312 01ee 7B68     		ldr	r3, [r7, #4]
 313 01f0 DA69     		ldr	r2, [r3, #28]
 314 01f2 7B68     		ldr	r3, [r7, #4]
 315 01f4 1B6A     		ldr	r3, [r3, #32]
ARM GAS  /tmp/ccFqkhxP.s 			page 16


 316 01f6 1A43     		orrs	r2, r2, r3
 317 01f8 7B68     		ldr	r3, [r7, #4]
 318 01fa 1B68     		ldr	r3, [r3]
 319 01fc 0A43     		orrs	r2, r2, r1
 320 01fe 1A60     		str	r2, [r3]
 542:Drivers/STM32F1xx_HAL_Driver/Src/stm32f1xx_hal_i2c.c **** 
 543:Drivers/STM32F1xx_HAL_Driver/Src/stm32f1xx_hal_i2c.c ****   /*---------------------------- I2Cx OAR1 Configuration ---------------------*/
 544:Drivers/STM32F1xx_HAL_Driver/Src/stm32f1xx_hal_i2c.c ****   /* Configure I2Cx: Own Address1 and addressing mode */
 545:Drivers/STM32F1xx_HAL_Driver/Src/stm32f1xx_hal_i2c.c ****   MODIFY_REG(hi2c->Instance->OAR1, (I2C_OAR1_ADDMODE | I2C_OAR1_ADD8_9 | I2C_OAR1_ADD1_7 | I2C_OAR1
 321              		.loc 1 545 3 discriminator 20
 322 0200 7B68     		ldr	r3, [r7, #4]
 323 0202 1B68     		ldr	r3, [r3]
 324 0204 9B68     		ldr	r3, [r3, #8]
 325 0206 23F40343 		bic	r3, r3, #33536
 326 020a 23F0FF03 		bic	r3, r3, #255
 327 020e 7A68     		ldr	r2, [r7, #4]
 328 0210 1169     		ldr	r1, [r2, #16]
 329 0212 7A68     		ldr	r2, [r7, #4]
 330 0214 D268     		ldr	r2, [r2, #12]
 331 0216 1143     		orrs	r1, r1, r2
 332 0218 7A68     		ldr	r2, [r7, #4]
 333 021a 1268     		ldr	r2, [r2]
 334 021c 0B43     		orrs	r3, r3, r1
 335 021e 9360     		str	r3, [r2, #8]
 546:Drivers/STM32F1xx_HAL_Driver/Src/stm32f1xx_hal_i2c.c **** 
 547:Drivers/STM32F1xx_HAL_Driver/Src/stm32f1xx_hal_i2c.c ****   /*---------------------------- I2Cx OAR2 Configuration ---------------------*/
 548:Drivers/STM32F1xx_HAL_Driver/Src/stm32f1xx_hal_i2c.c ****   /* Configure I2Cx: Dual mode and Own Address2 */
 549:Drivers/STM32F1xx_HAL_Driver/Src/stm32f1xx_hal_i2c.c ****   MODIFY_REG(hi2c->Instance->OAR2, (I2C_OAR2_ENDUAL | I2C_OAR2_ADD2), (hi2c->Init.DualAddressMode |
 336              		.loc 1 549 3 discriminator 20
 337 0220 7B68     		ldr	r3, [r7, #4]
 338 0222 1B68     		ldr	r3, [r3]
 339 0224 DB68     		ldr	r3, [r3, #12]
 340 0226 23F0FF01 		bic	r1, r3, #255
 341 022a 7B68     		ldr	r3, [r7, #4]
 342 022c 5A69     		ldr	r2, [r3, #20]
 343 022e 7B68     		ldr	r3, [r7, #4]
 344 0230 9B69     		ldr	r3, [r3, #24]
 345 0232 1A43     		orrs	r2, r2, r3
 346 0234 7B68     		ldr	r3, [r7, #4]
 347 0236 1B68     		ldr	r3, [r3]
 348 0238 0A43     		orrs	r2, r2, r1
 349 023a DA60     		str	r2, [r3, #12]
 550:Drivers/STM32F1xx_HAL_Driver/Src/stm32f1xx_hal_i2c.c **** 
 551:Drivers/STM32F1xx_HAL_Driver/Src/stm32f1xx_hal_i2c.c ****   /* Enable the selected I2C peripheral */
 552:Drivers/STM32F1xx_HAL_Driver/Src/stm32f1xx_hal_i2c.c ****   __HAL_I2C_ENABLE(hi2c);
 350              		.loc 1 552 3 discriminator 20
 351 023c 7B68     		ldr	r3, [r7, #4]
 352 023e 1B68     		ldr	r3, [r3]
 353 0240 1A68     		ldr	r2, [r3]
 354 0242 7B68     		ldr	r3, [r7, #4]
 355 0244 1B68     		ldr	r3, [r3]
 356 0246 42F00102 		orr	r2, r2, #1
 357 024a 1A60     		str	r2, [r3]
 553:Drivers/STM32F1xx_HAL_Driver/Src/stm32f1xx_hal_i2c.c **** 
 554:Drivers/STM32F1xx_HAL_Driver/Src/stm32f1xx_hal_i2c.c ****   hi2c->ErrorCode = HAL_I2C_ERROR_NONE;
 358              		.loc 1 554 19 discriminator 20
 359 024c 7B68     		ldr	r3, [r7, #4]
ARM GAS  /tmp/ccFqkhxP.s 			page 17


 360 024e 0022     		movs	r2, #0
 361 0250 1A64     		str	r2, [r3, #64]
 555:Drivers/STM32F1xx_HAL_Driver/Src/stm32f1xx_hal_i2c.c ****   hi2c->State = HAL_I2C_STATE_READY;
 362              		.loc 1 555 15 discriminator 20
 363 0252 7B68     		ldr	r3, [r7, #4]
 364 0254 2022     		movs	r2, #32
 365 0256 83F83D20 		strb	r2, [r3, #61]
 556:Drivers/STM32F1xx_HAL_Driver/Src/stm32f1xx_hal_i2c.c ****   hi2c->PreviousState = I2C_STATE_NONE;
 366              		.loc 1 556 23 discriminator 20
 367 025a 7B68     		ldr	r3, [r7, #4]
 368 025c 0022     		movs	r2, #0
 369 025e 1A63     		str	r2, [r3, #48]
 557:Drivers/STM32F1xx_HAL_Driver/Src/stm32f1xx_hal_i2c.c ****   hi2c->Mode = HAL_I2C_MODE_NONE;
 370              		.loc 1 557 14 discriminator 20
 371 0260 7B68     		ldr	r3, [r7, #4]
 372 0262 0022     		movs	r2, #0
 373 0264 83F83E20 		strb	r2, [r3, #62]
 558:Drivers/STM32F1xx_HAL_Driver/Src/stm32f1xx_hal_i2c.c **** 
 559:Drivers/STM32F1xx_HAL_Driver/Src/stm32f1xx_hal_i2c.c ****   return HAL_OK;
 374              		.loc 1 559 10 discriminator 20
 375 0268 0023     		movs	r3, #0
 376              	.L3:
 560:Drivers/STM32F1xx_HAL_Driver/Src/stm32f1xx_hal_i2c.c **** }
 377              		.loc 1 560 1
 378 026a 1846     		mov	r0, r3
 379 026c 1037     		adds	r7, r7, #16
 380              	.LCFI3:
 381              		.cfi_def_cfa_offset 8
 382 026e BD46     		mov	sp, r7
 383              	.LCFI4:
 384              		.cfi_def_cfa_register 13
 385              		@ sp needed
 386 0270 80BD     		pop	{r7, pc}
 387              	.L21:
 388 0272 00BF     		.align	2
 389              	.L20:
 390 0274 A0860100 		.word	100000
 391 0278 7F841E00 		.word	1999999
 392 027c FF083D00 		.word	3999999
 393 0280 83DE1B43 		.word	1125899907
 394 0284 D34D6210 		.word	274877907
 395              		.cfi_endproc
 396              	.LFE65:
 398              		.section	.text.HAL_I2C_DeInit,"ax",%progbits
 399              		.align	1
 400              		.global	HAL_I2C_DeInit
 401              		.syntax unified
 402              		.thumb
 403              		.thumb_func
 405              	HAL_I2C_DeInit:
 406              	.LFB66:
 561:Drivers/STM32F1xx_HAL_Driver/Src/stm32f1xx_hal_i2c.c **** 
 562:Drivers/STM32F1xx_HAL_Driver/Src/stm32f1xx_hal_i2c.c **** /**
 563:Drivers/STM32F1xx_HAL_Driver/Src/stm32f1xx_hal_i2c.c ****   * @brief  DeInitialize the I2C peripheral.
 564:Drivers/STM32F1xx_HAL_Driver/Src/stm32f1xx_hal_i2c.c ****   * @param  hi2c Pointer to a I2C_HandleTypeDef structure that contains
 565:Drivers/STM32F1xx_HAL_Driver/Src/stm32f1xx_hal_i2c.c ****   *         the configuration information for the specified I2C.
 566:Drivers/STM32F1xx_HAL_Driver/Src/stm32f1xx_hal_i2c.c ****   * @retval HAL status
ARM GAS  /tmp/ccFqkhxP.s 			page 18


 567:Drivers/STM32F1xx_HAL_Driver/Src/stm32f1xx_hal_i2c.c ****   */
 568:Drivers/STM32F1xx_HAL_Driver/Src/stm32f1xx_hal_i2c.c **** HAL_StatusTypeDef HAL_I2C_DeInit(I2C_HandleTypeDef *hi2c)
 569:Drivers/STM32F1xx_HAL_Driver/Src/stm32f1xx_hal_i2c.c **** {
 407              		.loc 1 569 1
 408              		.cfi_startproc
 409              		@ args = 0, pretend = 0, frame = 8
 410              		@ frame_needed = 1, uses_anonymous_args = 0
 411 0000 80B5     		push	{r7, lr}
 412              	.LCFI5:
 413              		.cfi_def_cfa_offset 8
 414              		.cfi_offset 7, -8
 415              		.cfi_offset 14, -4
 416 0002 82B0     		sub	sp, sp, #8
 417              	.LCFI6:
 418              		.cfi_def_cfa_offset 16
 419 0004 00AF     		add	r7, sp, #0
 420              	.LCFI7:
 421              		.cfi_def_cfa_register 7
 422 0006 7860     		str	r0, [r7, #4]
 570:Drivers/STM32F1xx_HAL_Driver/Src/stm32f1xx_hal_i2c.c ****   /* Check the I2C handle allocation */
 571:Drivers/STM32F1xx_HAL_Driver/Src/stm32f1xx_hal_i2c.c ****   if (hi2c == NULL)
 423              		.loc 1 571 6
 424 0008 7B68     		ldr	r3, [r7, #4]
 425 000a 002B     		cmp	r3, #0
 426 000c 01D1     		bne	.L23
 572:Drivers/STM32F1xx_HAL_Driver/Src/stm32f1xx_hal_i2c.c ****   {
 573:Drivers/STM32F1xx_HAL_Driver/Src/stm32f1xx_hal_i2c.c ****     return HAL_ERROR;
 427              		.loc 1 573 12
 428 000e 0123     		movs	r3, #1
 429 0010 21E0     		b	.L24
 430              	.L23:
 574:Drivers/STM32F1xx_HAL_Driver/Src/stm32f1xx_hal_i2c.c ****   }
 575:Drivers/STM32F1xx_HAL_Driver/Src/stm32f1xx_hal_i2c.c **** 
 576:Drivers/STM32F1xx_HAL_Driver/Src/stm32f1xx_hal_i2c.c ****   /* Check the parameters */
 577:Drivers/STM32F1xx_HAL_Driver/Src/stm32f1xx_hal_i2c.c ****   assert_param(IS_I2C_ALL_INSTANCE(hi2c->Instance));
 578:Drivers/STM32F1xx_HAL_Driver/Src/stm32f1xx_hal_i2c.c **** 
 579:Drivers/STM32F1xx_HAL_Driver/Src/stm32f1xx_hal_i2c.c ****   hi2c->State = HAL_I2C_STATE_BUSY;
 431              		.loc 1 579 15
 432 0012 7B68     		ldr	r3, [r7, #4]
 433 0014 2422     		movs	r2, #36
 434 0016 83F83D20 		strb	r2, [r3, #61]
 580:Drivers/STM32F1xx_HAL_Driver/Src/stm32f1xx_hal_i2c.c **** 
 581:Drivers/STM32F1xx_HAL_Driver/Src/stm32f1xx_hal_i2c.c ****   /* Disable the I2C Peripheral Clock */
 582:Drivers/STM32F1xx_HAL_Driver/Src/stm32f1xx_hal_i2c.c ****   __HAL_I2C_DISABLE(hi2c);
 435              		.loc 1 582 3
 436 001a 7B68     		ldr	r3, [r7, #4]
 437 001c 1B68     		ldr	r3, [r3]
 438 001e 1A68     		ldr	r2, [r3]
 439 0020 7B68     		ldr	r3, [r7, #4]
 440 0022 1B68     		ldr	r3, [r3]
 441 0024 22F00102 		bic	r2, r2, #1
 442 0028 1A60     		str	r2, [r3]
 583:Drivers/STM32F1xx_HAL_Driver/Src/stm32f1xx_hal_i2c.c **** 
 584:Drivers/STM32F1xx_HAL_Driver/Src/stm32f1xx_hal_i2c.c **** #if (USE_HAL_I2C_REGISTER_CALLBACKS == 1)
 585:Drivers/STM32F1xx_HAL_Driver/Src/stm32f1xx_hal_i2c.c ****   if (hi2c->MspDeInitCallback == NULL)
 586:Drivers/STM32F1xx_HAL_Driver/Src/stm32f1xx_hal_i2c.c ****   {
 587:Drivers/STM32F1xx_HAL_Driver/Src/stm32f1xx_hal_i2c.c ****     hi2c->MspDeInitCallback = HAL_I2C_MspDeInit; /* Legacy weak MspDeInit  */
ARM GAS  /tmp/ccFqkhxP.s 			page 19


 588:Drivers/STM32F1xx_HAL_Driver/Src/stm32f1xx_hal_i2c.c ****   }
 589:Drivers/STM32F1xx_HAL_Driver/Src/stm32f1xx_hal_i2c.c **** 
 590:Drivers/STM32F1xx_HAL_Driver/Src/stm32f1xx_hal_i2c.c ****   /* DeInit the low level hardware: GPIO, CLOCK, NVIC */
 591:Drivers/STM32F1xx_HAL_Driver/Src/stm32f1xx_hal_i2c.c ****   hi2c->MspDeInitCallback(hi2c);
 592:Drivers/STM32F1xx_HAL_Driver/Src/stm32f1xx_hal_i2c.c **** #else
 593:Drivers/STM32F1xx_HAL_Driver/Src/stm32f1xx_hal_i2c.c ****   /* DeInit the low level hardware: GPIO, CLOCK, NVIC */
 594:Drivers/STM32F1xx_HAL_Driver/Src/stm32f1xx_hal_i2c.c ****   HAL_I2C_MspDeInit(hi2c);
 443              		.loc 1 594 3
 444 002a 7868     		ldr	r0, [r7, #4]
 445 002c FFF7FEFF 		bl	HAL_I2C_MspDeInit
 595:Drivers/STM32F1xx_HAL_Driver/Src/stm32f1xx_hal_i2c.c **** #endif /* USE_HAL_I2C_REGISTER_CALLBACKS */
 596:Drivers/STM32F1xx_HAL_Driver/Src/stm32f1xx_hal_i2c.c **** 
 597:Drivers/STM32F1xx_HAL_Driver/Src/stm32f1xx_hal_i2c.c ****   hi2c->ErrorCode     = HAL_I2C_ERROR_NONE;
 446              		.loc 1 597 23
 447 0030 7B68     		ldr	r3, [r7, #4]
 448 0032 0022     		movs	r2, #0
 449 0034 1A64     		str	r2, [r3, #64]
 598:Drivers/STM32F1xx_HAL_Driver/Src/stm32f1xx_hal_i2c.c ****   hi2c->State         = HAL_I2C_STATE_RESET;
 450              		.loc 1 598 23
 451 0036 7B68     		ldr	r3, [r7, #4]
 452 0038 0022     		movs	r2, #0
 453 003a 83F83D20 		strb	r2, [r3, #61]
 599:Drivers/STM32F1xx_HAL_Driver/Src/stm32f1xx_hal_i2c.c ****   hi2c->PreviousState = I2C_STATE_NONE;
 454              		.loc 1 599 23
 455 003e 7B68     		ldr	r3, [r7, #4]
 456 0040 0022     		movs	r2, #0
 457 0042 1A63     		str	r2, [r3, #48]
 600:Drivers/STM32F1xx_HAL_Driver/Src/stm32f1xx_hal_i2c.c ****   hi2c->Mode          = HAL_I2C_MODE_NONE;
 458              		.loc 1 600 23
 459 0044 7B68     		ldr	r3, [r7, #4]
 460 0046 0022     		movs	r2, #0
 461 0048 83F83E20 		strb	r2, [r3, #62]
 601:Drivers/STM32F1xx_HAL_Driver/Src/stm32f1xx_hal_i2c.c **** 
 602:Drivers/STM32F1xx_HAL_Driver/Src/stm32f1xx_hal_i2c.c ****   /* Release Lock */
 603:Drivers/STM32F1xx_HAL_Driver/Src/stm32f1xx_hal_i2c.c ****   __HAL_UNLOCK(hi2c);
 462              		.loc 1 603 3
 463 004c 7B68     		ldr	r3, [r7, #4]
 464 004e 0022     		movs	r2, #0
 465 0050 83F83C20 		strb	r2, [r3, #60]
 604:Drivers/STM32F1xx_HAL_Driver/Src/stm32f1xx_hal_i2c.c **** 
 605:Drivers/STM32F1xx_HAL_Driver/Src/stm32f1xx_hal_i2c.c ****   return HAL_OK;
 466              		.loc 1 605 10
 467 0054 0023     		movs	r3, #0
 468              	.L24:
 606:Drivers/STM32F1xx_HAL_Driver/Src/stm32f1xx_hal_i2c.c **** }
 469              		.loc 1 606 1
 470 0056 1846     		mov	r0, r3
 471 0058 0837     		adds	r7, r7, #8
 472              	.LCFI8:
 473              		.cfi_def_cfa_offset 8
 474 005a BD46     		mov	sp, r7
 475              	.LCFI9:
 476              		.cfi_def_cfa_register 13
 477              		@ sp needed
 478 005c 80BD     		pop	{r7, pc}
 479              		.cfi_endproc
 480              	.LFE66:
ARM GAS  /tmp/ccFqkhxP.s 			page 20


 482              		.section	.text.HAL_I2C_MspInit,"ax",%progbits
 483              		.align	1
 484              		.weak	HAL_I2C_MspInit
 485              		.syntax unified
 486              		.thumb
 487              		.thumb_func
 489              	HAL_I2C_MspInit:
 490              	.LFB67:
 607:Drivers/STM32F1xx_HAL_Driver/Src/stm32f1xx_hal_i2c.c **** 
 608:Drivers/STM32F1xx_HAL_Driver/Src/stm32f1xx_hal_i2c.c **** /**
 609:Drivers/STM32F1xx_HAL_Driver/Src/stm32f1xx_hal_i2c.c ****   * @brief  Initialize the I2C MSP.
 610:Drivers/STM32F1xx_HAL_Driver/Src/stm32f1xx_hal_i2c.c ****   * @param  hi2c Pointer to a I2C_HandleTypeDef structure that contains
 611:Drivers/STM32F1xx_HAL_Driver/Src/stm32f1xx_hal_i2c.c ****   *         the configuration information for the specified I2C.
 612:Drivers/STM32F1xx_HAL_Driver/Src/stm32f1xx_hal_i2c.c ****   * @retval None
 613:Drivers/STM32F1xx_HAL_Driver/Src/stm32f1xx_hal_i2c.c ****   */
 614:Drivers/STM32F1xx_HAL_Driver/Src/stm32f1xx_hal_i2c.c **** __weak void HAL_I2C_MspInit(I2C_HandleTypeDef *hi2c)
 615:Drivers/STM32F1xx_HAL_Driver/Src/stm32f1xx_hal_i2c.c **** {
 491              		.loc 1 615 1
 492              		.cfi_startproc
 493              		@ args = 0, pretend = 0, frame = 8
 494              		@ frame_needed = 1, uses_anonymous_args = 0
 495              		@ link register save eliminated.
 496 0000 80B4     		push	{r7}
 497              	.LCFI10:
 498              		.cfi_def_cfa_offset 4
 499              		.cfi_offset 7, -4
 500 0002 83B0     		sub	sp, sp, #12
 501              	.LCFI11:
 502              		.cfi_def_cfa_offset 16
 503 0004 00AF     		add	r7, sp, #0
 504              	.LCFI12:
 505              		.cfi_def_cfa_register 7
 506 0006 7860     		str	r0, [r7, #4]
 616:Drivers/STM32F1xx_HAL_Driver/Src/stm32f1xx_hal_i2c.c ****   /* Prevent unused argument(s) compilation warning */
 617:Drivers/STM32F1xx_HAL_Driver/Src/stm32f1xx_hal_i2c.c ****   UNUSED(hi2c);
 618:Drivers/STM32F1xx_HAL_Driver/Src/stm32f1xx_hal_i2c.c **** 
 619:Drivers/STM32F1xx_HAL_Driver/Src/stm32f1xx_hal_i2c.c ****   /* NOTE : This function should not be modified, when the callback is needed,
 620:Drivers/STM32F1xx_HAL_Driver/Src/stm32f1xx_hal_i2c.c ****             the HAL_I2C_MspInit could be implemented in the user file
 621:Drivers/STM32F1xx_HAL_Driver/Src/stm32f1xx_hal_i2c.c ****    */
 622:Drivers/STM32F1xx_HAL_Driver/Src/stm32f1xx_hal_i2c.c **** }
 507              		.loc 1 622 1
 508 0008 00BF     		nop
 509 000a 0C37     		adds	r7, r7, #12
 510              	.LCFI13:
 511              		.cfi_def_cfa_offset 4
 512 000c BD46     		mov	sp, r7
 513              	.LCFI14:
 514              		.cfi_def_cfa_register 13
 515              		@ sp needed
 516 000e 80BC     		pop	{r7}
 517              	.LCFI15:
 518              		.cfi_restore 7
 519              		.cfi_def_cfa_offset 0
 520 0010 7047     		bx	lr
 521              		.cfi_endproc
 522              	.LFE67:
 524              		.section	.text.HAL_I2C_MspDeInit,"ax",%progbits
ARM GAS  /tmp/ccFqkhxP.s 			page 21


 525              		.align	1
 526              		.weak	HAL_I2C_MspDeInit
 527              		.syntax unified
 528              		.thumb
 529              		.thumb_func
 531              	HAL_I2C_MspDeInit:
 532              	.LFB68:
 623:Drivers/STM32F1xx_HAL_Driver/Src/stm32f1xx_hal_i2c.c **** 
 624:Drivers/STM32F1xx_HAL_Driver/Src/stm32f1xx_hal_i2c.c **** /**
 625:Drivers/STM32F1xx_HAL_Driver/Src/stm32f1xx_hal_i2c.c ****   * @brief  DeInitialize the I2C MSP.
 626:Drivers/STM32F1xx_HAL_Driver/Src/stm32f1xx_hal_i2c.c ****   * @param  hi2c Pointer to a I2C_HandleTypeDef structure that contains
 627:Drivers/STM32F1xx_HAL_Driver/Src/stm32f1xx_hal_i2c.c ****   *         the configuration information for the specified I2C.
 628:Drivers/STM32F1xx_HAL_Driver/Src/stm32f1xx_hal_i2c.c ****   * @retval None
 629:Drivers/STM32F1xx_HAL_Driver/Src/stm32f1xx_hal_i2c.c ****   */
 630:Drivers/STM32F1xx_HAL_Driver/Src/stm32f1xx_hal_i2c.c **** __weak void HAL_I2C_MspDeInit(I2C_HandleTypeDef *hi2c)
 631:Drivers/STM32F1xx_HAL_Driver/Src/stm32f1xx_hal_i2c.c **** {
 533              		.loc 1 631 1
 534              		.cfi_startproc
 535              		@ args = 0, pretend = 0, frame = 8
 536              		@ frame_needed = 1, uses_anonymous_args = 0
 537              		@ link register save eliminated.
 538 0000 80B4     		push	{r7}
 539              	.LCFI16:
 540              		.cfi_def_cfa_offset 4
 541              		.cfi_offset 7, -4
 542 0002 83B0     		sub	sp, sp, #12
 543              	.LCFI17:
 544              		.cfi_def_cfa_offset 16
 545 0004 00AF     		add	r7, sp, #0
 546              	.LCFI18:
 547              		.cfi_def_cfa_register 7
 548 0006 7860     		str	r0, [r7, #4]
 632:Drivers/STM32F1xx_HAL_Driver/Src/stm32f1xx_hal_i2c.c ****   /* Prevent unused argument(s) compilation warning */
 633:Drivers/STM32F1xx_HAL_Driver/Src/stm32f1xx_hal_i2c.c ****   UNUSED(hi2c);
 634:Drivers/STM32F1xx_HAL_Driver/Src/stm32f1xx_hal_i2c.c **** 
 635:Drivers/STM32F1xx_HAL_Driver/Src/stm32f1xx_hal_i2c.c ****   /* NOTE : This function should not be modified, when the callback is needed,
 636:Drivers/STM32F1xx_HAL_Driver/Src/stm32f1xx_hal_i2c.c ****             the HAL_I2C_MspDeInit could be implemented in the user file
 637:Drivers/STM32F1xx_HAL_Driver/Src/stm32f1xx_hal_i2c.c ****    */
 638:Drivers/STM32F1xx_HAL_Driver/Src/stm32f1xx_hal_i2c.c **** }
 549              		.loc 1 638 1
 550 0008 00BF     		nop
 551 000a 0C37     		adds	r7, r7, #12
 552              	.LCFI19:
 553              		.cfi_def_cfa_offset 4
 554 000c BD46     		mov	sp, r7
 555              	.LCFI20:
 556              		.cfi_def_cfa_register 13
 557              		@ sp needed
 558 000e 80BC     		pop	{r7}
 559              	.LCFI21:
 560              		.cfi_restore 7
 561              		.cfi_def_cfa_offset 0
 562 0010 7047     		bx	lr
 563              		.cfi_endproc
 564              	.LFE68:
 566              		.section	.text.HAL_I2C_Master_Transmit,"ax",%progbits
 567              		.align	1
ARM GAS  /tmp/ccFqkhxP.s 			page 22


 568              		.global	HAL_I2C_Master_Transmit
 569              		.syntax unified
 570              		.thumb
 571              		.thumb_func
 573              	HAL_I2C_Master_Transmit:
 574              	.LFB69:
 639:Drivers/STM32F1xx_HAL_Driver/Src/stm32f1xx_hal_i2c.c **** 
 640:Drivers/STM32F1xx_HAL_Driver/Src/stm32f1xx_hal_i2c.c **** #if (USE_HAL_I2C_REGISTER_CALLBACKS == 1)
 641:Drivers/STM32F1xx_HAL_Driver/Src/stm32f1xx_hal_i2c.c **** /**
 642:Drivers/STM32F1xx_HAL_Driver/Src/stm32f1xx_hal_i2c.c ****   * @brief  Register a User I2C Callback
 643:Drivers/STM32F1xx_HAL_Driver/Src/stm32f1xx_hal_i2c.c ****   *         To be used instead of the weak predefined callback
 644:Drivers/STM32F1xx_HAL_Driver/Src/stm32f1xx_hal_i2c.c ****   * @param  hi2c Pointer to a I2C_HandleTypeDef structure that contains
 645:Drivers/STM32F1xx_HAL_Driver/Src/stm32f1xx_hal_i2c.c ****   *                the configuration information for the specified I2C.
 646:Drivers/STM32F1xx_HAL_Driver/Src/stm32f1xx_hal_i2c.c ****   * @param  CallbackID ID of the callback to be registered
 647:Drivers/STM32F1xx_HAL_Driver/Src/stm32f1xx_hal_i2c.c ****   *         This parameter can be one of the following values:
 648:Drivers/STM32F1xx_HAL_Driver/Src/stm32f1xx_hal_i2c.c ****   *          @arg @ref HAL_I2C_MASTER_TX_COMPLETE_CB_ID Master Tx Transfer completed callback ID
 649:Drivers/STM32F1xx_HAL_Driver/Src/stm32f1xx_hal_i2c.c ****   *          @arg @ref HAL_I2C_MASTER_RX_COMPLETE_CB_ID Master Rx Transfer completed callback ID
 650:Drivers/STM32F1xx_HAL_Driver/Src/stm32f1xx_hal_i2c.c ****   *          @arg @ref HAL_I2C_SLAVE_TX_COMPLETE_CB_ID Slave Tx Transfer completed callback ID
 651:Drivers/STM32F1xx_HAL_Driver/Src/stm32f1xx_hal_i2c.c ****   *          @arg @ref HAL_I2C_SLAVE_RX_COMPLETE_CB_ID Slave Rx Transfer completed callback ID
 652:Drivers/STM32F1xx_HAL_Driver/Src/stm32f1xx_hal_i2c.c ****   *          @arg @ref HAL_I2C_LISTEN_COMPLETE_CB_ID Listen Complete callback ID
 653:Drivers/STM32F1xx_HAL_Driver/Src/stm32f1xx_hal_i2c.c ****   *          @arg @ref HAL_I2C_MEM_TX_COMPLETE_CB_ID Memory Tx Transfer callback ID
 654:Drivers/STM32F1xx_HAL_Driver/Src/stm32f1xx_hal_i2c.c ****   *          @arg @ref HAL_I2C_MEM_RX_COMPLETE_CB_ID Memory Rx Transfer completed callback ID
 655:Drivers/STM32F1xx_HAL_Driver/Src/stm32f1xx_hal_i2c.c ****   *          @arg @ref HAL_I2C_ERROR_CB_ID Error callback ID
 656:Drivers/STM32F1xx_HAL_Driver/Src/stm32f1xx_hal_i2c.c ****   *          @arg @ref HAL_I2C_ABORT_CB_ID Abort callback ID
 657:Drivers/STM32F1xx_HAL_Driver/Src/stm32f1xx_hal_i2c.c ****   *          @arg @ref HAL_I2C_MSPINIT_CB_ID MspInit callback ID
 658:Drivers/STM32F1xx_HAL_Driver/Src/stm32f1xx_hal_i2c.c ****   *          @arg @ref HAL_I2C_MSPDEINIT_CB_ID MspDeInit callback ID
 659:Drivers/STM32F1xx_HAL_Driver/Src/stm32f1xx_hal_i2c.c ****   * @param  pCallback pointer to the Callback function
 660:Drivers/STM32F1xx_HAL_Driver/Src/stm32f1xx_hal_i2c.c ****   * @retval HAL status
 661:Drivers/STM32F1xx_HAL_Driver/Src/stm32f1xx_hal_i2c.c ****   */
 662:Drivers/STM32F1xx_HAL_Driver/Src/stm32f1xx_hal_i2c.c **** HAL_StatusTypeDef HAL_I2C_RegisterCallback(I2C_HandleTypeDef *hi2c, HAL_I2C_CallbackIDTypeDef Callb
 663:Drivers/STM32F1xx_HAL_Driver/Src/stm32f1xx_hal_i2c.c **** {
 664:Drivers/STM32F1xx_HAL_Driver/Src/stm32f1xx_hal_i2c.c ****   HAL_StatusTypeDef status = HAL_OK;
 665:Drivers/STM32F1xx_HAL_Driver/Src/stm32f1xx_hal_i2c.c **** 
 666:Drivers/STM32F1xx_HAL_Driver/Src/stm32f1xx_hal_i2c.c ****   if (pCallback == NULL)
 667:Drivers/STM32F1xx_HAL_Driver/Src/stm32f1xx_hal_i2c.c ****   {
 668:Drivers/STM32F1xx_HAL_Driver/Src/stm32f1xx_hal_i2c.c ****     /* Update the error code */
 669:Drivers/STM32F1xx_HAL_Driver/Src/stm32f1xx_hal_i2c.c ****     hi2c->ErrorCode |= HAL_I2C_ERROR_INVALID_CALLBACK;
 670:Drivers/STM32F1xx_HAL_Driver/Src/stm32f1xx_hal_i2c.c **** 
 671:Drivers/STM32F1xx_HAL_Driver/Src/stm32f1xx_hal_i2c.c ****     return HAL_ERROR;
 672:Drivers/STM32F1xx_HAL_Driver/Src/stm32f1xx_hal_i2c.c ****   }
 673:Drivers/STM32F1xx_HAL_Driver/Src/stm32f1xx_hal_i2c.c ****   /* Process locked */
 674:Drivers/STM32F1xx_HAL_Driver/Src/stm32f1xx_hal_i2c.c ****   __HAL_LOCK(hi2c);
 675:Drivers/STM32F1xx_HAL_Driver/Src/stm32f1xx_hal_i2c.c **** 
 676:Drivers/STM32F1xx_HAL_Driver/Src/stm32f1xx_hal_i2c.c ****   if (HAL_I2C_STATE_READY == hi2c->State)
 677:Drivers/STM32F1xx_HAL_Driver/Src/stm32f1xx_hal_i2c.c ****   {
 678:Drivers/STM32F1xx_HAL_Driver/Src/stm32f1xx_hal_i2c.c ****     switch (CallbackID)
 679:Drivers/STM32F1xx_HAL_Driver/Src/stm32f1xx_hal_i2c.c ****     {
 680:Drivers/STM32F1xx_HAL_Driver/Src/stm32f1xx_hal_i2c.c ****       case HAL_I2C_MASTER_TX_COMPLETE_CB_ID :
 681:Drivers/STM32F1xx_HAL_Driver/Src/stm32f1xx_hal_i2c.c ****         hi2c->MasterTxCpltCallback = pCallback;
 682:Drivers/STM32F1xx_HAL_Driver/Src/stm32f1xx_hal_i2c.c ****         break;
 683:Drivers/STM32F1xx_HAL_Driver/Src/stm32f1xx_hal_i2c.c **** 
 684:Drivers/STM32F1xx_HAL_Driver/Src/stm32f1xx_hal_i2c.c ****       case HAL_I2C_MASTER_RX_COMPLETE_CB_ID :
 685:Drivers/STM32F1xx_HAL_Driver/Src/stm32f1xx_hal_i2c.c ****         hi2c->MasterRxCpltCallback = pCallback;
 686:Drivers/STM32F1xx_HAL_Driver/Src/stm32f1xx_hal_i2c.c ****         break;
 687:Drivers/STM32F1xx_HAL_Driver/Src/stm32f1xx_hal_i2c.c **** 
 688:Drivers/STM32F1xx_HAL_Driver/Src/stm32f1xx_hal_i2c.c ****       case HAL_I2C_SLAVE_TX_COMPLETE_CB_ID :
 689:Drivers/STM32F1xx_HAL_Driver/Src/stm32f1xx_hal_i2c.c ****         hi2c->SlaveTxCpltCallback = pCallback;
ARM GAS  /tmp/ccFqkhxP.s 			page 23


 690:Drivers/STM32F1xx_HAL_Driver/Src/stm32f1xx_hal_i2c.c ****         break;
 691:Drivers/STM32F1xx_HAL_Driver/Src/stm32f1xx_hal_i2c.c **** 
 692:Drivers/STM32F1xx_HAL_Driver/Src/stm32f1xx_hal_i2c.c ****       case HAL_I2C_SLAVE_RX_COMPLETE_CB_ID :
 693:Drivers/STM32F1xx_HAL_Driver/Src/stm32f1xx_hal_i2c.c ****         hi2c->SlaveRxCpltCallback = pCallback;
 694:Drivers/STM32F1xx_HAL_Driver/Src/stm32f1xx_hal_i2c.c ****         break;
 695:Drivers/STM32F1xx_HAL_Driver/Src/stm32f1xx_hal_i2c.c **** 
 696:Drivers/STM32F1xx_HAL_Driver/Src/stm32f1xx_hal_i2c.c ****       case HAL_I2C_LISTEN_COMPLETE_CB_ID :
 697:Drivers/STM32F1xx_HAL_Driver/Src/stm32f1xx_hal_i2c.c ****         hi2c->ListenCpltCallback = pCallback;
 698:Drivers/STM32F1xx_HAL_Driver/Src/stm32f1xx_hal_i2c.c ****         break;
 699:Drivers/STM32F1xx_HAL_Driver/Src/stm32f1xx_hal_i2c.c **** 
 700:Drivers/STM32F1xx_HAL_Driver/Src/stm32f1xx_hal_i2c.c ****       case HAL_I2C_MEM_TX_COMPLETE_CB_ID :
 701:Drivers/STM32F1xx_HAL_Driver/Src/stm32f1xx_hal_i2c.c ****         hi2c->MemTxCpltCallback = pCallback;
 702:Drivers/STM32F1xx_HAL_Driver/Src/stm32f1xx_hal_i2c.c ****         break;
 703:Drivers/STM32F1xx_HAL_Driver/Src/stm32f1xx_hal_i2c.c **** 
 704:Drivers/STM32F1xx_HAL_Driver/Src/stm32f1xx_hal_i2c.c ****       case HAL_I2C_MEM_RX_COMPLETE_CB_ID :
 705:Drivers/STM32F1xx_HAL_Driver/Src/stm32f1xx_hal_i2c.c ****         hi2c->MemRxCpltCallback = pCallback;
 706:Drivers/STM32F1xx_HAL_Driver/Src/stm32f1xx_hal_i2c.c ****         break;
 707:Drivers/STM32F1xx_HAL_Driver/Src/stm32f1xx_hal_i2c.c **** 
 708:Drivers/STM32F1xx_HAL_Driver/Src/stm32f1xx_hal_i2c.c ****       case HAL_I2C_ERROR_CB_ID :
 709:Drivers/STM32F1xx_HAL_Driver/Src/stm32f1xx_hal_i2c.c ****         hi2c->ErrorCallback = pCallback;
 710:Drivers/STM32F1xx_HAL_Driver/Src/stm32f1xx_hal_i2c.c ****         break;
 711:Drivers/STM32F1xx_HAL_Driver/Src/stm32f1xx_hal_i2c.c **** 
 712:Drivers/STM32F1xx_HAL_Driver/Src/stm32f1xx_hal_i2c.c ****       case HAL_I2C_ABORT_CB_ID :
 713:Drivers/STM32F1xx_HAL_Driver/Src/stm32f1xx_hal_i2c.c ****         hi2c->AbortCpltCallback = pCallback;
 714:Drivers/STM32F1xx_HAL_Driver/Src/stm32f1xx_hal_i2c.c ****         break;
 715:Drivers/STM32F1xx_HAL_Driver/Src/stm32f1xx_hal_i2c.c **** 
 716:Drivers/STM32F1xx_HAL_Driver/Src/stm32f1xx_hal_i2c.c ****       case HAL_I2C_MSPINIT_CB_ID :
 717:Drivers/STM32F1xx_HAL_Driver/Src/stm32f1xx_hal_i2c.c ****         hi2c->MspInitCallback = pCallback;
 718:Drivers/STM32F1xx_HAL_Driver/Src/stm32f1xx_hal_i2c.c ****         break;
 719:Drivers/STM32F1xx_HAL_Driver/Src/stm32f1xx_hal_i2c.c **** 
 720:Drivers/STM32F1xx_HAL_Driver/Src/stm32f1xx_hal_i2c.c ****       case HAL_I2C_MSPDEINIT_CB_ID :
 721:Drivers/STM32F1xx_HAL_Driver/Src/stm32f1xx_hal_i2c.c ****         hi2c->MspDeInitCallback = pCallback;
 722:Drivers/STM32F1xx_HAL_Driver/Src/stm32f1xx_hal_i2c.c ****         break;
 723:Drivers/STM32F1xx_HAL_Driver/Src/stm32f1xx_hal_i2c.c **** 
 724:Drivers/STM32F1xx_HAL_Driver/Src/stm32f1xx_hal_i2c.c ****       default :
 725:Drivers/STM32F1xx_HAL_Driver/Src/stm32f1xx_hal_i2c.c ****         /* Update the error code */
 726:Drivers/STM32F1xx_HAL_Driver/Src/stm32f1xx_hal_i2c.c ****         hi2c->ErrorCode |= HAL_I2C_ERROR_INVALID_CALLBACK;
 727:Drivers/STM32F1xx_HAL_Driver/Src/stm32f1xx_hal_i2c.c **** 
 728:Drivers/STM32F1xx_HAL_Driver/Src/stm32f1xx_hal_i2c.c ****         /* Return error status */
 729:Drivers/STM32F1xx_HAL_Driver/Src/stm32f1xx_hal_i2c.c ****         status =  HAL_ERROR;
 730:Drivers/STM32F1xx_HAL_Driver/Src/stm32f1xx_hal_i2c.c ****         break;
 731:Drivers/STM32F1xx_HAL_Driver/Src/stm32f1xx_hal_i2c.c ****     }
 732:Drivers/STM32F1xx_HAL_Driver/Src/stm32f1xx_hal_i2c.c ****   }
 733:Drivers/STM32F1xx_HAL_Driver/Src/stm32f1xx_hal_i2c.c ****   else if (HAL_I2C_STATE_RESET == hi2c->State)
 734:Drivers/STM32F1xx_HAL_Driver/Src/stm32f1xx_hal_i2c.c ****   {
 735:Drivers/STM32F1xx_HAL_Driver/Src/stm32f1xx_hal_i2c.c ****     switch (CallbackID)
 736:Drivers/STM32F1xx_HAL_Driver/Src/stm32f1xx_hal_i2c.c ****     {
 737:Drivers/STM32F1xx_HAL_Driver/Src/stm32f1xx_hal_i2c.c ****       case HAL_I2C_MSPINIT_CB_ID :
 738:Drivers/STM32F1xx_HAL_Driver/Src/stm32f1xx_hal_i2c.c ****         hi2c->MspInitCallback = pCallback;
 739:Drivers/STM32F1xx_HAL_Driver/Src/stm32f1xx_hal_i2c.c ****         break;
 740:Drivers/STM32F1xx_HAL_Driver/Src/stm32f1xx_hal_i2c.c **** 
 741:Drivers/STM32F1xx_HAL_Driver/Src/stm32f1xx_hal_i2c.c ****       case HAL_I2C_MSPDEINIT_CB_ID :
 742:Drivers/STM32F1xx_HAL_Driver/Src/stm32f1xx_hal_i2c.c ****         hi2c->MspDeInitCallback = pCallback;
 743:Drivers/STM32F1xx_HAL_Driver/Src/stm32f1xx_hal_i2c.c ****         break;
 744:Drivers/STM32F1xx_HAL_Driver/Src/stm32f1xx_hal_i2c.c **** 
 745:Drivers/STM32F1xx_HAL_Driver/Src/stm32f1xx_hal_i2c.c ****       default :
 746:Drivers/STM32F1xx_HAL_Driver/Src/stm32f1xx_hal_i2c.c ****         /* Update the error code */
ARM GAS  /tmp/ccFqkhxP.s 			page 24


 747:Drivers/STM32F1xx_HAL_Driver/Src/stm32f1xx_hal_i2c.c ****         hi2c->ErrorCode |= HAL_I2C_ERROR_INVALID_CALLBACK;
 748:Drivers/STM32F1xx_HAL_Driver/Src/stm32f1xx_hal_i2c.c **** 
 749:Drivers/STM32F1xx_HAL_Driver/Src/stm32f1xx_hal_i2c.c ****         /* Return error status */
 750:Drivers/STM32F1xx_HAL_Driver/Src/stm32f1xx_hal_i2c.c ****         status =  HAL_ERROR;
 751:Drivers/STM32F1xx_HAL_Driver/Src/stm32f1xx_hal_i2c.c ****         break;
 752:Drivers/STM32F1xx_HAL_Driver/Src/stm32f1xx_hal_i2c.c ****     }
 753:Drivers/STM32F1xx_HAL_Driver/Src/stm32f1xx_hal_i2c.c ****   }
 754:Drivers/STM32F1xx_HAL_Driver/Src/stm32f1xx_hal_i2c.c ****   else
 755:Drivers/STM32F1xx_HAL_Driver/Src/stm32f1xx_hal_i2c.c ****   {
 756:Drivers/STM32F1xx_HAL_Driver/Src/stm32f1xx_hal_i2c.c ****     /* Update the error code */
 757:Drivers/STM32F1xx_HAL_Driver/Src/stm32f1xx_hal_i2c.c ****     hi2c->ErrorCode |= HAL_I2C_ERROR_INVALID_CALLBACK;
 758:Drivers/STM32F1xx_HAL_Driver/Src/stm32f1xx_hal_i2c.c **** 
 759:Drivers/STM32F1xx_HAL_Driver/Src/stm32f1xx_hal_i2c.c ****     /* Return error status */
 760:Drivers/STM32F1xx_HAL_Driver/Src/stm32f1xx_hal_i2c.c ****     status =  HAL_ERROR;
 761:Drivers/STM32F1xx_HAL_Driver/Src/stm32f1xx_hal_i2c.c ****   }
 762:Drivers/STM32F1xx_HAL_Driver/Src/stm32f1xx_hal_i2c.c **** 
 763:Drivers/STM32F1xx_HAL_Driver/Src/stm32f1xx_hal_i2c.c ****   /* Release Lock */
 764:Drivers/STM32F1xx_HAL_Driver/Src/stm32f1xx_hal_i2c.c ****   __HAL_UNLOCK(hi2c);
 765:Drivers/STM32F1xx_HAL_Driver/Src/stm32f1xx_hal_i2c.c ****   return status;
 766:Drivers/STM32F1xx_HAL_Driver/Src/stm32f1xx_hal_i2c.c **** }
 767:Drivers/STM32F1xx_HAL_Driver/Src/stm32f1xx_hal_i2c.c **** 
 768:Drivers/STM32F1xx_HAL_Driver/Src/stm32f1xx_hal_i2c.c **** /**
 769:Drivers/STM32F1xx_HAL_Driver/Src/stm32f1xx_hal_i2c.c ****   * @brief  Unregister an I2C Callback
 770:Drivers/STM32F1xx_HAL_Driver/Src/stm32f1xx_hal_i2c.c ****   *         I2C callback is redirected to the weak predefined callback
 771:Drivers/STM32F1xx_HAL_Driver/Src/stm32f1xx_hal_i2c.c ****   * @param  hi2c Pointer to a I2C_HandleTypeDef structure that contains
 772:Drivers/STM32F1xx_HAL_Driver/Src/stm32f1xx_hal_i2c.c ****   *                the configuration information for the specified I2C.
 773:Drivers/STM32F1xx_HAL_Driver/Src/stm32f1xx_hal_i2c.c ****   * @param  CallbackID ID of the callback to be unregistered
 774:Drivers/STM32F1xx_HAL_Driver/Src/stm32f1xx_hal_i2c.c ****   *         This parameter can be one of the following values:
 775:Drivers/STM32F1xx_HAL_Driver/Src/stm32f1xx_hal_i2c.c ****   *         This parameter can be one of the following values:
 776:Drivers/STM32F1xx_HAL_Driver/Src/stm32f1xx_hal_i2c.c ****   *          @arg @ref HAL_I2C_MASTER_TX_COMPLETE_CB_ID Master Tx Transfer completed callback ID
 777:Drivers/STM32F1xx_HAL_Driver/Src/stm32f1xx_hal_i2c.c ****   *          @arg @ref HAL_I2C_MASTER_RX_COMPLETE_CB_ID Master Rx Transfer completed callback ID
 778:Drivers/STM32F1xx_HAL_Driver/Src/stm32f1xx_hal_i2c.c ****   *          @arg @ref HAL_I2C_SLAVE_TX_COMPLETE_CB_ID Slave Tx Transfer completed callback ID
 779:Drivers/STM32F1xx_HAL_Driver/Src/stm32f1xx_hal_i2c.c ****   *          @arg @ref HAL_I2C_SLAVE_RX_COMPLETE_CB_ID Slave Rx Transfer completed callback ID
 780:Drivers/STM32F1xx_HAL_Driver/Src/stm32f1xx_hal_i2c.c ****   *          @arg @ref HAL_I2C_LISTEN_COMPLETE_CB_ID Listen Complete callback ID
 781:Drivers/STM32F1xx_HAL_Driver/Src/stm32f1xx_hal_i2c.c ****   *          @arg @ref HAL_I2C_MEM_TX_COMPLETE_CB_ID Memory Tx Transfer callback ID
 782:Drivers/STM32F1xx_HAL_Driver/Src/stm32f1xx_hal_i2c.c ****   *          @arg @ref HAL_I2C_MEM_RX_COMPLETE_CB_ID Memory Rx Transfer completed callback ID
 783:Drivers/STM32F1xx_HAL_Driver/Src/stm32f1xx_hal_i2c.c ****   *          @arg @ref HAL_I2C_ERROR_CB_ID Error callback ID
 784:Drivers/STM32F1xx_HAL_Driver/Src/stm32f1xx_hal_i2c.c ****   *          @arg @ref HAL_I2C_ABORT_CB_ID Abort callback ID
 785:Drivers/STM32F1xx_HAL_Driver/Src/stm32f1xx_hal_i2c.c ****   *          @arg @ref HAL_I2C_MSPINIT_CB_ID MspInit callback ID
 786:Drivers/STM32F1xx_HAL_Driver/Src/stm32f1xx_hal_i2c.c ****   *          @arg @ref HAL_I2C_MSPDEINIT_CB_ID MspDeInit callback ID
 787:Drivers/STM32F1xx_HAL_Driver/Src/stm32f1xx_hal_i2c.c ****   * @retval HAL status
 788:Drivers/STM32F1xx_HAL_Driver/Src/stm32f1xx_hal_i2c.c ****   */
 789:Drivers/STM32F1xx_HAL_Driver/Src/stm32f1xx_hal_i2c.c **** HAL_StatusTypeDef HAL_I2C_UnRegisterCallback(I2C_HandleTypeDef *hi2c, HAL_I2C_CallbackIDTypeDef Cal
 790:Drivers/STM32F1xx_HAL_Driver/Src/stm32f1xx_hal_i2c.c **** {
 791:Drivers/STM32F1xx_HAL_Driver/Src/stm32f1xx_hal_i2c.c ****   HAL_StatusTypeDef status = HAL_OK;
 792:Drivers/STM32F1xx_HAL_Driver/Src/stm32f1xx_hal_i2c.c **** 
 793:Drivers/STM32F1xx_HAL_Driver/Src/stm32f1xx_hal_i2c.c ****   /* Process locked */
 794:Drivers/STM32F1xx_HAL_Driver/Src/stm32f1xx_hal_i2c.c ****   __HAL_LOCK(hi2c);
 795:Drivers/STM32F1xx_HAL_Driver/Src/stm32f1xx_hal_i2c.c **** 
 796:Drivers/STM32F1xx_HAL_Driver/Src/stm32f1xx_hal_i2c.c ****   if (HAL_I2C_STATE_READY == hi2c->State)
 797:Drivers/STM32F1xx_HAL_Driver/Src/stm32f1xx_hal_i2c.c ****   {
 798:Drivers/STM32F1xx_HAL_Driver/Src/stm32f1xx_hal_i2c.c ****     switch (CallbackID)
 799:Drivers/STM32F1xx_HAL_Driver/Src/stm32f1xx_hal_i2c.c ****     {
 800:Drivers/STM32F1xx_HAL_Driver/Src/stm32f1xx_hal_i2c.c ****       case HAL_I2C_MASTER_TX_COMPLETE_CB_ID :
 801:Drivers/STM32F1xx_HAL_Driver/Src/stm32f1xx_hal_i2c.c ****         hi2c->MasterTxCpltCallback = HAL_I2C_MasterTxCpltCallback; /* Legacy weak MasterTxCpltCallb
 802:Drivers/STM32F1xx_HAL_Driver/Src/stm32f1xx_hal_i2c.c ****         break;
 803:Drivers/STM32F1xx_HAL_Driver/Src/stm32f1xx_hal_i2c.c **** 
ARM GAS  /tmp/ccFqkhxP.s 			page 25


 804:Drivers/STM32F1xx_HAL_Driver/Src/stm32f1xx_hal_i2c.c ****       case HAL_I2C_MASTER_RX_COMPLETE_CB_ID :
 805:Drivers/STM32F1xx_HAL_Driver/Src/stm32f1xx_hal_i2c.c ****         hi2c->MasterRxCpltCallback = HAL_I2C_MasterRxCpltCallback; /* Legacy weak MasterRxCpltCallb
 806:Drivers/STM32F1xx_HAL_Driver/Src/stm32f1xx_hal_i2c.c ****         break;
 807:Drivers/STM32F1xx_HAL_Driver/Src/stm32f1xx_hal_i2c.c **** 
 808:Drivers/STM32F1xx_HAL_Driver/Src/stm32f1xx_hal_i2c.c ****       case HAL_I2C_SLAVE_TX_COMPLETE_CB_ID :
 809:Drivers/STM32F1xx_HAL_Driver/Src/stm32f1xx_hal_i2c.c ****         hi2c->SlaveTxCpltCallback = HAL_I2C_SlaveTxCpltCallback;   /* Legacy weak SlaveTxCpltCallba
 810:Drivers/STM32F1xx_HAL_Driver/Src/stm32f1xx_hal_i2c.c ****         break;
 811:Drivers/STM32F1xx_HAL_Driver/Src/stm32f1xx_hal_i2c.c **** 
 812:Drivers/STM32F1xx_HAL_Driver/Src/stm32f1xx_hal_i2c.c ****       case HAL_I2C_SLAVE_RX_COMPLETE_CB_ID :
 813:Drivers/STM32F1xx_HAL_Driver/Src/stm32f1xx_hal_i2c.c ****         hi2c->SlaveRxCpltCallback = HAL_I2C_SlaveRxCpltCallback;   /* Legacy weak SlaveRxCpltCallba
 814:Drivers/STM32F1xx_HAL_Driver/Src/stm32f1xx_hal_i2c.c ****         break;
 815:Drivers/STM32F1xx_HAL_Driver/Src/stm32f1xx_hal_i2c.c **** 
 816:Drivers/STM32F1xx_HAL_Driver/Src/stm32f1xx_hal_i2c.c ****       case HAL_I2C_LISTEN_COMPLETE_CB_ID :
 817:Drivers/STM32F1xx_HAL_Driver/Src/stm32f1xx_hal_i2c.c ****         hi2c->ListenCpltCallback = HAL_I2C_ListenCpltCallback;     /* Legacy weak ListenCpltCallbac
 818:Drivers/STM32F1xx_HAL_Driver/Src/stm32f1xx_hal_i2c.c ****         break;
 819:Drivers/STM32F1xx_HAL_Driver/Src/stm32f1xx_hal_i2c.c **** 
 820:Drivers/STM32F1xx_HAL_Driver/Src/stm32f1xx_hal_i2c.c ****       case HAL_I2C_MEM_TX_COMPLETE_CB_ID :
 821:Drivers/STM32F1xx_HAL_Driver/Src/stm32f1xx_hal_i2c.c ****         hi2c->MemTxCpltCallback = HAL_I2C_MemTxCpltCallback;       /* Legacy weak MemTxCpltCallback
 822:Drivers/STM32F1xx_HAL_Driver/Src/stm32f1xx_hal_i2c.c ****         break;
 823:Drivers/STM32F1xx_HAL_Driver/Src/stm32f1xx_hal_i2c.c **** 
 824:Drivers/STM32F1xx_HAL_Driver/Src/stm32f1xx_hal_i2c.c ****       case HAL_I2C_MEM_RX_COMPLETE_CB_ID :
 825:Drivers/STM32F1xx_HAL_Driver/Src/stm32f1xx_hal_i2c.c ****         hi2c->MemRxCpltCallback = HAL_I2C_MemRxCpltCallback;       /* Legacy weak MemRxCpltCallback
 826:Drivers/STM32F1xx_HAL_Driver/Src/stm32f1xx_hal_i2c.c ****         break;
 827:Drivers/STM32F1xx_HAL_Driver/Src/stm32f1xx_hal_i2c.c **** 
 828:Drivers/STM32F1xx_HAL_Driver/Src/stm32f1xx_hal_i2c.c ****       case HAL_I2C_ERROR_CB_ID :
 829:Drivers/STM32F1xx_HAL_Driver/Src/stm32f1xx_hal_i2c.c ****         hi2c->ErrorCallback = HAL_I2C_ErrorCallback;               /* Legacy weak ErrorCallback    
 830:Drivers/STM32F1xx_HAL_Driver/Src/stm32f1xx_hal_i2c.c ****         break;
 831:Drivers/STM32F1xx_HAL_Driver/Src/stm32f1xx_hal_i2c.c **** 
 832:Drivers/STM32F1xx_HAL_Driver/Src/stm32f1xx_hal_i2c.c ****       case HAL_I2C_ABORT_CB_ID :
 833:Drivers/STM32F1xx_HAL_Driver/Src/stm32f1xx_hal_i2c.c ****         hi2c->AbortCpltCallback = HAL_I2C_AbortCpltCallback;       /* Legacy weak AbortCpltCallback
 834:Drivers/STM32F1xx_HAL_Driver/Src/stm32f1xx_hal_i2c.c ****         break;
 835:Drivers/STM32F1xx_HAL_Driver/Src/stm32f1xx_hal_i2c.c **** 
 836:Drivers/STM32F1xx_HAL_Driver/Src/stm32f1xx_hal_i2c.c ****       case HAL_I2C_MSPINIT_CB_ID :
 837:Drivers/STM32F1xx_HAL_Driver/Src/stm32f1xx_hal_i2c.c ****         hi2c->MspInitCallback = HAL_I2C_MspInit;                   /* Legacy weak MspInit          
 838:Drivers/STM32F1xx_HAL_Driver/Src/stm32f1xx_hal_i2c.c ****         break;
 839:Drivers/STM32F1xx_HAL_Driver/Src/stm32f1xx_hal_i2c.c **** 
 840:Drivers/STM32F1xx_HAL_Driver/Src/stm32f1xx_hal_i2c.c ****       case HAL_I2C_MSPDEINIT_CB_ID :
 841:Drivers/STM32F1xx_HAL_Driver/Src/stm32f1xx_hal_i2c.c ****         hi2c->MspDeInitCallback = HAL_I2C_MspDeInit;               /* Legacy weak MspDeInit        
 842:Drivers/STM32F1xx_HAL_Driver/Src/stm32f1xx_hal_i2c.c ****         break;
 843:Drivers/STM32F1xx_HAL_Driver/Src/stm32f1xx_hal_i2c.c **** 
 844:Drivers/STM32F1xx_HAL_Driver/Src/stm32f1xx_hal_i2c.c ****       default :
 845:Drivers/STM32F1xx_HAL_Driver/Src/stm32f1xx_hal_i2c.c ****         /* Update the error code */
 846:Drivers/STM32F1xx_HAL_Driver/Src/stm32f1xx_hal_i2c.c ****         hi2c->ErrorCode |= HAL_I2C_ERROR_INVALID_CALLBACK;
 847:Drivers/STM32F1xx_HAL_Driver/Src/stm32f1xx_hal_i2c.c **** 
 848:Drivers/STM32F1xx_HAL_Driver/Src/stm32f1xx_hal_i2c.c ****         /* Return error status */
 849:Drivers/STM32F1xx_HAL_Driver/Src/stm32f1xx_hal_i2c.c ****         status =  HAL_ERROR;
 850:Drivers/STM32F1xx_HAL_Driver/Src/stm32f1xx_hal_i2c.c ****         break;
 851:Drivers/STM32F1xx_HAL_Driver/Src/stm32f1xx_hal_i2c.c ****     }
 852:Drivers/STM32F1xx_HAL_Driver/Src/stm32f1xx_hal_i2c.c ****   }
 853:Drivers/STM32F1xx_HAL_Driver/Src/stm32f1xx_hal_i2c.c ****   else if (HAL_I2C_STATE_RESET == hi2c->State)
 854:Drivers/STM32F1xx_HAL_Driver/Src/stm32f1xx_hal_i2c.c ****   {
 855:Drivers/STM32F1xx_HAL_Driver/Src/stm32f1xx_hal_i2c.c ****     switch (CallbackID)
 856:Drivers/STM32F1xx_HAL_Driver/Src/stm32f1xx_hal_i2c.c ****     {
 857:Drivers/STM32F1xx_HAL_Driver/Src/stm32f1xx_hal_i2c.c ****       case HAL_I2C_MSPINIT_CB_ID :
 858:Drivers/STM32F1xx_HAL_Driver/Src/stm32f1xx_hal_i2c.c ****         hi2c->MspInitCallback = HAL_I2C_MspInit;                   /* Legacy weak MspInit          
 859:Drivers/STM32F1xx_HAL_Driver/Src/stm32f1xx_hal_i2c.c ****         break;
 860:Drivers/STM32F1xx_HAL_Driver/Src/stm32f1xx_hal_i2c.c **** 
ARM GAS  /tmp/ccFqkhxP.s 			page 26


 861:Drivers/STM32F1xx_HAL_Driver/Src/stm32f1xx_hal_i2c.c ****       case HAL_I2C_MSPDEINIT_CB_ID :
 862:Drivers/STM32F1xx_HAL_Driver/Src/stm32f1xx_hal_i2c.c ****         hi2c->MspDeInitCallback = HAL_I2C_MspDeInit;               /* Legacy weak MspDeInit        
 863:Drivers/STM32F1xx_HAL_Driver/Src/stm32f1xx_hal_i2c.c ****         break;
 864:Drivers/STM32F1xx_HAL_Driver/Src/stm32f1xx_hal_i2c.c **** 
 865:Drivers/STM32F1xx_HAL_Driver/Src/stm32f1xx_hal_i2c.c ****       default :
 866:Drivers/STM32F1xx_HAL_Driver/Src/stm32f1xx_hal_i2c.c ****         /* Update the error code */
 867:Drivers/STM32F1xx_HAL_Driver/Src/stm32f1xx_hal_i2c.c ****         hi2c->ErrorCode |= HAL_I2C_ERROR_INVALID_CALLBACK;
 868:Drivers/STM32F1xx_HAL_Driver/Src/stm32f1xx_hal_i2c.c **** 
 869:Drivers/STM32F1xx_HAL_Driver/Src/stm32f1xx_hal_i2c.c ****         /* Return error status */
 870:Drivers/STM32F1xx_HAL_Driver/Src/stm32f1xx_hal_i2c.c ****         status =  HAL_ERROR;
 871:Drivers/STM32F1xx_HAL_Driver/Src/stm32f1xx_hal_i2c.c ****         break;
 872:Drivers/STM32F1xx_HAL_Driver/Src/stm32f1xx_hal_i2c.c ****     }
 873:Drivers/STM32F1xx_HAL_Driver/Src/stm32f1xx_hal_i2c.c ****   }
 874:Drivers/STM32F1xx_HAL_Driver/Src/stm32f1xx_hal_i2c.c ****   else
 875:Drivers/STM32F1xx_HAL_Driver/Src/stm32f1xx_hal_i2c.c ****   {
 876:Drivers/STM32F1xx_HAL_Driver/Src/stm32f1xx_hal_i2c.c ****     /* Update the error code */
 877:Drivers/STM32F1xx_HAL_Driver/Src/stm32f1xx_hal_i2c.c ****     hi2c->ErrorCode |= HAL_I2C_ERROR_INVALID_CALLBACK;
 878:Drivers/STM32F1xx_HAL_Driver/Src/stm32f1xx_hal_i2c.c **** 
 879:Drivers/STM32F1xx_HAL_Driver/Src/stm32f1xx_hal_i2c.c ****     /* Return error status */
 880:Drivers/STM32F1xx_HAL_Driver/Src/stm32f1xx_hal_i2c.c ****     status =  HAL_ERROR;
 881:Drivers/STM32F1xx_HAL_Driver/Src/stm32f1xx_hal_i2c.c ****   }
 882:Drivers/STM32F1xx_HAL_Driver/Src/stm32f1xx_hal_i2c.c **** 
 883:Drivers/STM32F1xx_HAL_Driver/Src/stm32f1xx_hal_i2c.c ****   /* Release Lock */
 884:Drivers/STM32F1xx_HAL_Driver/Src/stm32f1xx_hal_i2c.c ****   __HAL_UNLOCK(hi2c);
 885:Drivers/STM32F1xx_HAL_Driver/Src/stm32f1xx_hal_i2c.c ****   return status;
 886:Drivers/STM32F1xx_HAL_Driver/Src/stm32f1xx_hal_i2c.c **** }
 887:Drivers/STM32F1xx_HAL_Driver/Src/stm32f1xx_hal_i2c.c **** 
 888:Drivers/STM32F1xx_HAL_Driver/Src/stm32f1xx_hal_i2c.c **** /**
 889:Drivers/STM32F1xx_HAL_Driver/Src/stm32f1xx_hal_i2c.c ****   * @brief  Register the Slave Address Match I2C Callback
 890:Drivers/STM32F1xx_HAL_Driver/Src/stm32f1xx_hal_i2c.c ****   *         To be used instead of the weak HAL_I2C_AddrCallback() predefined callback
 891:Drivers/STM32F1xx_HAL_Driver/Src/stm32f1xx_hal_i2c.c ****   * @param  hi2c Pointer to a I2C_HandleTypeDef structure that contains
 892:Drivers/STM32F1xx_HAL_Driver/Src/stm32f1xx_hal_i2c.c ****   *                the configuration information for the specified I2C.
 893:Drivers/STM32F1xx_HAL_Driver/Src/stm32f1xx_hal_i2c.c ****   * @param  pCallback pointer to the Address Match Callback function
 894:Drivers/STM32F1xx_HAL_Driver/Src/stm32f1xx_hal_i2c.c ****   * @retval HAL status
 895:Drivers/STM32F1xx_HAL_Driver/Src/stm32f1xx_hal_i2c.c ****   */
 896:Drivers/STM32F1xx_HAL_Driver/Src/stm32f1xx_hal_i2c.c **** HAL_StatusTypeDef HAL_I2C_RegisterAddrCallback(I2C_HandleTypeDef *hi2c, pI2C_AddrCallbackTypeDef pC
 897:Drivers/STM32F1xx_HAL_Driver/Src/stm32f1xx_hal_i2c.c **** {
 898:Drivers/STM32F1xx_HAL_Driver/Src/stm32f1xx_hal_i2c.c ****   HAL_StatusTypeDef status = HAL_OK;
 899:Drivers/STM32F1xx_HAL_Driver/Src/stm32f1xx_hal_i2c.c **** 
 900:Drivers/STM32F1xx_HAL_Driver/Src/stm32f1xx_hal_i2c.c ****   if (pCallback == NULL)
 901:Drivers/STM32F1xx_HAL_Driver/Src/stm32f1xx_hal_i2c.c ****   {
 902:Drivers/STM32F1xx_HAL_Driver/Src/stm32f1xx_hal_i2c.c ****     /* Update the error code */
 903:Drivers/STM32F1xx_HAL_Driver/Src/stm32f1xx_hal_i2c.c ****     hi2c->ErrorCode |= HAL_I2C_ERROR_INVALID_CALLBACK;
 904:Drivers/STM32F1xx_HAL_Driver/Src/stm32f1xx_hal_i2c.c **** 
 905:Drivers/STM32F1xx_HAL_Driver/Src/stm32f1xx_hal_i2c.c ****     return HAL_ERROR;
 906:Drivers/STM32F1xx_HAL_Driver/Src/stm32f1xx_hal_i2c.c ****   }
 907:Drivers/STM32F1xx_HAL_Driver/Src/stm32f1xx_hal_i2c.c ****   /* Process locked */
 908:Drivers/STM32F1xx_HAL_Driver/Src/stm32f1xx_hal_i2c.c ****   __HAL_LOCK(hi2c);
 909:Drivers/STM32F1xx_HAL_Driver/Src/stm32f1xx_hal_i2c.c **** 
 910:Drivers/STM32F1xx_HAL_Driver/Src/stm32f1xx_hal_i2c.c ****   if (HAL_I2C_STATE_READY == hi2c->State)
 911:Drivers/STM32F1xx_HAL_Driver/Src/stm32f1xx_hal_i2c.c ****   {
 912:Drivers/STM32F1xx_HAL_Driver/Src/stm32f1xx_hal_i2c.c ****     hi2c->AddrCallback = pCallback;
 913:Drivers/STM32F1xx_HAL_Driver/Src/stm32f1xx_hal_i2c.c ****   }
 914:Drivers/STM32F1xx_HAL_Driver/Src/stm32f1xx_hal_i2c.c ****   else
 915:Drivers/STM32F1xx_HAL_Driver/Src/stm32f1xx_hal_i2c.c ****   {
 916:Drivers/STM32F1xx_HAL_Driver/Src/stm32f1xx_hal_i2c.c ****     /* Update the error code */
 917:Drivers/STM32F1xx_HAL_Driver/Src/stm32f1xx_hal_i2c.c ****     hi2c->ErrorCode |= HAL_I2C_ERROR_INVALID_CALLBACK;
ARM GAS  /tmp/ccFqkhxP.s 			page 27


 918:Drivers/STM32F1xx_HAL_Driver/Src/stm32f1xx_hal_i2c.c **** 
 919:Drivers/STM32F1xx_HAL_Driver/Src/stm32f1xx_hal_i2c.c ****     /* Return error status */
 920:Drivers/STM32F1xx_HAL_Driver/Src/stm32f1xx_hal_i2c.c ****     status =  HAL_ERROR;
 921:Drivers/STM32F1xx_HAL_Driver/Src/stm32f1xx_hal_i2c.c ****   }
 922:Drivers/STM32F1xx_HAL_Driver/Src/stm32f1xx_hal_i2c.c **** 
 923:Drivers/STM32F1xx_HAL_Driver/Src/stm32f1xx_hal_i2c.c ****   /* Release Lock */
 924:Drivers/STM32F1xx_HAL_Driver/Src/stm32f1xx_hal_i2c.c ****   __HAL_UNLOCK(hi2c);
 925:Drivers/STM32F1xx_HAL_Driver/Src/stm32f1xx_hal_i2c.c ****   return status;
 926:Drivers/STM32F1xx_HAL_Driver/Src/stm32f1xx_hal_i2c.c **** }
 927:Drivers/STM32F1xx_HAL_Driver/Src/stm32f1xx_hal_i2c.c **** 
 928:Drivers/STM32F1xx_HAL_Driver/Src/stm32f1xx_hal_i2c.c **** /**
 929:Drivers/STM32F1xx_HAL_Driver/Src/stm32f1xx_hal_i2c.c ****   * @brief  UnRegister the Slave Address Match I2C Callback
 930:Drivers/STM32F1xx_HAL_Driver/Src/stm32f1xx_hal_i2c.c ****   *         Info Ready I2C Callback is redirected to the weak HAL_I2C_AddrCallback() predefined cal
 931:Drivers/STM32F1xx_HAL_Driver/Src/stm32f1xx_hal_i2c.c ****   * @param  hi2c Pointer to a I2C_HandleTypeDef structure that contains
 932:Drivers/STM32F1xx_HAL_Driver/Src/stm32f1xx_hal_i2c.c ****   *                the configuration information for the specified I2C.
 933:Drivers/STM32F1xx_HAL_Driver/Src/stm32f1xx_hal_i2c.c ****   * @retval HAL status
 934:Drivers/STM32F1xx_HAL_Driver/Src/stm32f1xx_hal_i2c.c ****   */
 935:Drivers/STM32F1xx_HAL_Driver/Src/stm32f1xx_hal_i2c.c **** HAL_StatusTypeDef HAL_I2C_UnRegisterAddrCallback(I2C_HandleTypeDef *hi2c)
 936:Drivers/STM32F1xx_HAL_Driver/Src/stm32f1xx_hal_i2c.c **** {
 937:Drivers/STM32F1xx_HAL_Driver/Src/stm32f1xx_hal_i2c.c ****   HAL_StatusTypeDef status = HAL_OK;
 938:Drivers/STM32F1xx_HAL_Driver/Src/stm32f1xx_hal_i2c.c **** 
 939:Drivers/STM32F1xx_HAL_Driver/Src/stm32f1xx_hal_i2c.c ****   /* Process locked */
 940:Drivers/STM32F1xx_HAL_Driver/Src/stm32f1xx_hal_i2c.c ****   __HAL_LOCK(hi2c);
 941:Drivers/STM32F1xx_HAL_Driver/Src/stm32f1xx_hal_i2c.c **** 
 942:Drivers/STM32F1xx_HAL_Driver/Src/stm32f1xx_hal_i2c.c ****   if (HAL_I2C_STATE_READY == hi2c->State)
 943:Drivers/STM32F1xx_HAL_Driver/Src/stm32f1xx_hal_i2c.c ****   {
 944:Drivers/STM32F1xx_HAL_Driver/Src/stm32f1xx_hal_i2c.c ****     hi2c->AddrCallback = HAL_I2C_AddrCallback; /* Legacy weak AddrCallback  */
 945:Drivers/STM32F1xx_HAL_Driver/Src/stm32f1xx_hal_i2c.c ****   }
 946:Drivers/STM32F1xx_HAL_Driver/Src/stm32f1xx_hal_i2c.c ****   else
 947:Drivers/STM32F1xx_HAL_Driver/Src/stm32f1xx_hal_i2c.c ****   {
 948:Drivers/STM32F1xx_HAL_Driver/Src/stm32f1xx_hal_i2c.c ****     /* Update the error code */
 949:Drivers/STM32F1xx_HAL_Driver/Src/stm32f1xx_hal_i2c.c ****     hi2c->ErrorCode |= HAL_I2C_ERROR_INVALID_CALLBACK;
 950:Drivers/STM32F1xx_HAL_Driver/Src/stm32f1xx_hal_i2c.c **** 
 951:Drivers/STM32F1xx_HAL_Driver/Src/stm32f1xx_hal_i2c.c ****     /* Return error status */
 952:Drivers/STM32F1xx_HAL_Driver/Src/stm32f1xx_hal_i2c.c ****     status =  HAL_ERROR;
 953:Drivers/STM32F1xx_HAL_Driver/Src/stm32f1xx_hal_i2c.c ****   }
 954:Drivers/STM32F1xx_HAL_Driver/Src/stm32f1xx_hal_i2c.c **** 
 955:Drivers/STM32F1xx_HAL_Driver/Src/stm32f1xx_hal_i2c.c ****   /* Release Lock */
 956:Drivers/STM32F1xx_HAL_Driver/Src/stm32f1xx_hal_i2c.c ****   __HAL_UNLOCK(hi2c);
 957:Drivers/STM32F1xx_HAL_Driver/Src/stm32f1xx_hal_i2c.c ****   return status;
 958:Drivers/STM32F1xx_HAL_Driver/Src/stm32f1xx_hal_i2c.c **** }
 959:Drivers/STM32F1xx_HAL_Driver/Src/stm32f1xx_hal_i2c.c **** 
 960:Drivers/STM32F1xx_HAL_Driver/Src/stm32f1xx_hal_i2c.c **** #endif /* USE_HAL_I2C_REGISTER_CALLBACKS */
 961:Drivers/STM32F1xx_HAL_Driver/Src/stm32f1xx_hal_i2c.c **** 
 962:Drivers/STM32F1xx_HAL_Driver/Src/stm32f1xx_hal_i2c.c **** /**
 963:Drivers/STM32F1xx_HAL_Driver/Src/stm32f1xx_hal_i2c.c ****   * @}
 964:Drivers/STM32F1xx_HAL_Driver/Src/stm32f1xx_hal_i2c.c ****   */
 965:Drivers/STM32F1xx_HAL_Driver/Src/stm32f1xx_hal_i2c.c **** 
 966:Drivers/STM32F1xx_HAL_Driver/Src/stm32f1xx_hal_i2c.c **** /** @defgroup I2C_Exported_Functions_Group2 Input and Output operation functions
 967:Drivers/STM32F1xx_HAL_Driver/Src/stm32f1xx_hal_i2c.c ****  *  @brief   Data transfers functions
 968:Drivers/STM32F1xx_HAL_Driver/Src/stm32f1xx_hal_i2c.c ****  *
 969:Drivers/STM32F1xx_HAL_Driver/Src/stm32f1xx_hal_i2c.c **** @verbatim
 970:Drivers/STM32F1xx_HAL_Driver/Src/stm32f1xx_hal_i2c.c ****  ===============================================================================
 971:Drivers/STM32F1xx_HAL_Driver/Src/stm32f1xx_hal_i2c.c ****                       ##### IO operation functions #####
 972:Drivers/STM32F1xx_HAL_Driver/Src/stm32f1xx_hal_i2c.c ****  ===============================================================================
 973:Drivers/STM32F1xx_HAL_Driver/Src/stm32f1xx_hal_i2c.c ****     [..]
 974:Drivers/STM32F1xx_HAL_Driver/Src/stm32f1xx_hal_i2c.c ****     This subsection provides a set of functions allowing to manage the I2C data
ARM GAS  /tmp/ccFqkhxP.s 			page 28


 975:Drivers/STM32F1xx_HAL_Driver/Src/stm32f1xx_hal_i2c.c ****     transfers.
 976:Drivers/STM32F1xx_HAL_Driver/Src/stm32f1xx_hal_i2c.c **** 
 977:Drivers/STM32F1xx_HAL_Driver/Src/stm32f1xx_hal_i2c.c ****     (#) There are two modes of transfer:
 978:Drivers/STM32F1xx_HAL_Driver/Src/stm32f1xx_hal_i2c.c ****        (++) Blocking mode : The communication is performed in the polling mode.
 979:Drivers/STM32F1xx_HAL_Driver/Src/stm32f1xx_hal_i2c.c ****             The status of all data processing is returned by the same function
 980:Drivers/STM32F1xx_HAL_Driver/Src/stm32f1xx_hal_i2c.c ****             after finishing transfer.
 981:Drivers/STM32F1xx_HAL_Driver/Src/stm32f1xx_hal_i2c.c ****        (++) No-Blocking mode : The communication is performed using Interrupts
 982:Drivers/STM32F1xx_HAL_Driver/Src/stm32f1xx_hal_i2c.c ****             or DMA. These functions return the status of the transfer startup.
 983:Drivers/STM32F1xx_HAL_Driver/Src/stm32f1xx_hal_i2c.c ****             The end of the data processing will be indicated through the
 984:Drivers/STM32F1xx_HAL_Driver/Src/stm32f1xx_hal_i2c.c ****             dedicated I2C IRQ when using Interrupt mode or the DMA IRQ when
 985:Drivers/STM32F1xx_HAL_Driver/Src/stm32f1xx_hal_i2c.c ****             using DMA mode.
 986:Drivers/STM32F1xx_HAL_Driver/Src/stm32f1xx_hal_i2c.c **** 
 987:Drivers/STM32F1xx_HAL_Driver/Src/stm32f1xx_hal_i2c.c ****     (#) Blocking mode functions are :
 988:Drivers/STM32F1xx_HAL_Driver/Src/stm32f1xx_hal_i2c.c ****         (++) HAL_I2C_Master_Transmit()
 989:Drivers/STM32F1xx_HAL_Driver/Src/stm32f1xx_hal_i2c.c ****         (++) HAL_I2C_Master_Receive()
 990:Drivers/STM32F1xx_HAL_Driver/Src/stm32f1xx_hal_i2c.c ****         (++) HAL_I2C_Slave_Transmit()
 991:Drivers/STM32F1xx_HAL_Driver/Src/stm32f1xx_hal_i2c.c ****         (++) HAL_I2C_Slave_Receive()
 992:Drivers/STM32F1xx_HAL_Driver/Src/stm32f1xx_hal_i2c.c ****         (++) HAL_I2C_Mem_Write()
 993:Drivers/STM32F1xx_HAL_Driver/Src/stm32f1xx_hal_i2c.c ****         (++) HAL_I2C_Mem_Read()
 994:Drivers/STM32F1xx_HAL_Driver/Src/stm32f1xx_hal_i2c.c ****         (++) HAL_I2C_IsDeviceReady()
 995:Drivers/STM32F1xx_HAL_Driver/Src/stm32f1xx_hal_i2c.c **** 
 996:Drivers/STM32F1xx_HAL_Driver/Src/stm32f1xx_hal_i2c.c ****     (#) No-Blocking mode functions with Interrupt are :
 997:Drivers/STM32F1xx_HAL_Driver/Src/stm32f1xx_hal_i2c.c ****         (++) HAL_I2C_Master_Transmit_IT()
 998:Drivers/STM32F1xx_HAL_Driver/Src/stm32f1xx_hal_i2c.c ****         (++) HAL_I2C_Master_Receive_IT()
 999:Drivers/STM32F1xx_HAL_Driver/Src/stm32f1xx_hal_i2c.c ****         (++) HAL_I2C_Slave_Transmit_IT()
1000:Drivers/STM32F1xx_HAL_Driver/Src/stm32f1xx_hal_i2c.c ****         (++) HAL_I2C_Slave_Receive_IT()
1001:Drivers/STM32F1xx_HAL_Driver/Src/stm32f1xx_hal_i2c.c ****         (++) HAL_I2C_Mem_Write_IT()
1002:Drivers/STM32F1xx_HAL_Driver/Src/stm32f1xx_hal_i2c.c ****         (++) HAL_I2C_Mem_Read_IT()
1003:Drivers/STM32F1xx_HAL_Driver/Src/stm32f1xx_hal_i2c.c ****         (++) HAL_I2C_Master_Seq_Transmit_IT()
1004:Drivers/STM32F1xx_HAL_Driver/Src/stm32f1xx_hal_i2c.c ****         (++) HAL_I2C_Master_Seq_Receive_IT()
1005:Drivers/STM32F1xx_HAL_Driver/Src/stm32f1xx_hal_i2c.c ****         (++) HAL_I2C_Slave_Seq_Transmit_IT()
1006:Drivers/STM32F1xx_HAL_Driver/Src/stm32f1xx_hal_i2c.c ****         (++) HAL_I2C_Slave_Seq_Receive_IT()
1007:Drivers/STM32F1xx_HAL_Driver/Src/stm32f1xx_hal_i2c.c ****         (++) HAL_I2C_EnableListen_IT()
1008:Drivers/STM32F1xx_HAL_Driver/Src/stm32f1xx_hal_i2c.c ****         (++) HAL_I2C_DisableListen_IT()
1009:Drivers/STM32F1xx_HAL_Driver/Src/stm32f1xx_hal_i2c.c ****         (++) HAL_I2C_Master_Abort_IT()
1010:Drivers/STM32F1xx_HAL_Driver/Src/stm32f1xx_hal_i2c.c **** 
1011:Drivers/STM32F1xx_HAL_Driver/Src/stm32f1xx_hal_i2c.c ****     (#) No-Blocking mode functions with DMA are :
1012:Drivers/STM32F1xx_HAL_Driver/Src/stm32f1xx_hal_i2c.c ****         (++) HAL_I2C_Master_Transmit_DMA()
1013:Drivers/STM32F1xx_HAL_Driver/Src/stm32f1xx_hal_i2c.c ****         (++) HAL_I2C_Master_Receive_DMA()
1014:Drivers/STM32F1xx_HAL_Driver/Src/stm32f1xx_hal_i2c.c ****         (++) HAL_I2C_Slave_Transmit_DMA()
1015:Drivers/STM32F1xx_HAL_Driver/Src/stm32f1xx_hal_i2c.c ****         (++) HAL_I2C_Slave_Receive_DMA()
1016:Drivers/STM32F1xx_HAL_Driver/Src/stm32f1xx_hal_i2c.c ****         (++) HAL_I2C_Mem_Write_DMA()
1017:Drivers/STM32F1xx_HAL_Driver/Src/stm32f1xx_hal_i2c.c ****         (++) HAL_I2C_Mem_Read_DMA()
1018:Drivers/STM32F1xx_HAL_Driver/Src/stm32f1xx_hal_i2c.c ****         (++) HAL_I2C_Master_Seq_Transmit_DMA()
1019:Drivers/STM32F1xx_HAL_Driver/Src/stm32f1xx_hal_i2c.c ****         (++) HAL_I2C_Master_Seq_Receive_DMA()
1020:Drivers/STM32F1xx_HAL_Driver/Src/stm32f1xx_hal_i2c.c ****         (++) HAL_I2C_Slave_Seq_Transmit_DMA()
1021:Drivers/STM32F1xx_HAL_Driver/Src/stm32f1xx_hal_i2c.c ****         (++) HAL_I2C_Slave_Seq_Receive_DMA()
1022:Drivers/STM32F1xx_HAL_Driver/Src/stm32f1xx_hal_i2c.c **** 
1023:Drivers/STM32F1xx_HAL_Driver/Src/stm32f1xx_hal_i2c.c ****     (#) A set of Transfer Complete Callbacks are provided in non Blocking mode:
1024:Drivers/STM32F1xx_HAL_Driver/Src/stm32f1xx_hal_i2c.c ****         (++) HAL_I2C_MasterTxCpltCallback()
1025:Drivers/STM32F1xx_HAL_Driver/Src/stm32f1xx_hal_i2c.c ****         (++) HAL_I2C_MasterRxCpltCallback()
1026:Drivers/STM32F1xx_HAL_Driver/Src/stm32f1xx_hal_i2c.c ****         (++) HAL_I2C_SlaveTxCpltCallback()
1027:Drivers/STM32F1xx_HAL_Driver/Src/stm32f1xx_hal_i2c.c ****         (++) HAL_I2C_SlaveRxCpltCallback()
1028:Drivers/STM32F1xx_HAL_Driver/Src/stm32f1xx_hal_i2c.c ****         (++) HAL_I2C_MemTxCpltCallback()
1029:Drivers/STM32F1xx_HAL_Driver/Src/stm32f1xx_hal_i2c.c ****         (++) HAL_I2C_MemRxCpltCallback()
1030:Drivers/STM32F1xx_HAL_Driver/Src/stm32f1xx_hal_i2c.c ****         (++) HAL_I2C_AddrCallback()
1031:Drivers/STM32F1xx_HAL_Driver/Src/stm32f1xx_hal_i2c.c ****         (++) HAL_I2C_ListenCpltCallback()
ARM GAS  /tmp/ccFqkhxP.s 			page 29


1032:Drivers/STM32F1xx_HAL_Driver/Src/stm32f1xx_hal_i2c.c ****         (++) HAL_I2C_ErrorCallback()
1033:Drivers/STM32F1xx_HAL_Driver/Src/stm32f1xx_hal_i2c.c ****         (++) HAL_I2C_AbortCpltCallback()
1034:Drivers/STM32F1xx_HAL_Driver/Src/stm32f1xx_hal_i2c.c **** 
1035:Drivers/STM32F1xx_HAL_Driver/Src/stm32f1xx_hal_i2c.c **** @endverbatim
1036:Drivers/STM32F1xx_HAL_Driver/Src/stm32f1xx_hal_i2c.c ****   * @{
1037:Drivers/STM32F1xx_HAL_Driver/Src/stm32f1xx_hal_i2c.c ****   */
1038:Drivers/STM32F1xx_HAL_Driver/Src/stm32f1xx_hal_i2c.c **** 
1039:Drivers/STM32F1xx_HAL_Driver/Src/stm32f1xx_hal_i2c.c **** /**
1040:Drivers/STM32F1xx_HAL_Driver/Src/stm32f1xx_hal_i2c.c ****   * @brief  Transmits in master mode an amount of data in blocking mode.
1041:Drivers/STM32F1xx_HAL_Driver/Src/stm32f1xx_hal_i2c.c ****   * @param  hi2c Pointer to a I2C_HandleTypeDef structure that contains
1042:Drivers/STM32F1xx_HAL_Driver/Src/stm32f1xx_hal_i2c.c ****   *                the configuration information for the specified I2C.
1043:Drivers/STM32F1xx_HAL_Driver/Src/stm32f1xx_hal_i2c.c ****   * @param  DevAddress Target device address: The device 7 bits address value
1044:Drivers/STM32F1xx_HAL_Driver/Src/stm32f1xx_hal_i2c.c ****   *         in datasheet must be shifted to the left before calling the interface
1045:Drivers/STM32F1xx_HAL_Driver/Src/stm32f1xx_hal_i2c.c ****   * @param  pData Pointer to data buffer
1046:Drivers/STM32F1xx_HAL_Driver/Src/stm32f1xx_hal_i2c.c ****   * @param  Size Amount of data to be sent
1047:Drivers/STM32F1xx_HAL_Driver/Src/stm32f1xx_hal_i2c.c ****   * @param  Timeout Timeout duration
1048:Drivers/STM32F1xx_HAL_Driver/Src/stm32f1xx_hal_i2c.c ****   * @retval HAL status
1049:Drivers/STM32F1xx_HAL_Driver/Src/stm32f1xx_hal_i2c.c ****   */
1050:Drivers/STM32F1xx_HAL_Driver/Src/stm32f1xx_hal_i2c.c **** HAL_StatusTypeDef HAL_I2C_Master_Transmit(I2C_HandleTypeDef *hi2c, uint16_t DevAddress, uint8_t *pD
1051:Drivers/STM32F1xx_HAL_Driver/Src/stm32f1xx_hal_i2c.c **** {
 575              		.loc 1 1051 1
 576              		.cfi_startproc
 577              		@ args = 4, pretend = 0, frame = 24
 578              		@ frame_needed = 1, uses_anonymous_args = 0
 579 0000 80B5     		push	{r7, lr}
 580              	.LCFI22:
 581              		.cfi_def_cfa_offset 8
 582              		.cfi_offset 7, -8
 583              		.cfi_offset 14, -4
 584 0002 88B0     		sub	sp, sp, #32
 585              	.LCFI23:
 586              		.cfi_def_cfa_offset 40
 587 0004 02AF     		add	r7, sp, #8
 588              	.LCFI24:
 589              		.cfi_def_cfa 7, 32
 590 0006 F860     		str	r0, [r7, #12]
 591 0008 7A60     		str	r2, [r7, #4]
 592 000a 1A46     		mov	r2, r3
 593 000c 0B46     		mov	r3, r1	@ movhi
 594 000e 7B81     		strh	r3, [r7, #10]	@ movhi
 595 0010 1346     		mov	r3, r2	@ movhi
 596 0012 3B81     		strh	r3, [r7, #8]	@ movhi
1052:Drivers/STM32F1xx_HAL_Driver/Src/stm32f1xx_hal_i2c.c ****   /* Init tickstart for timeout management*/
1053:Drivers/STM32F1xx_HAL_Driver/Src/stm32f1xx_hal_i2c.c ****   uint32_t tickstart = HAL_GetTick();
 597              		.loc 1 1053 24
 598 0014 FFF7FEFF 		bl	HAL_GetTick
 599 0018 7861     		str	r0, [r7, #20]
1054:Drivers/STM32F1xx_HAL_Driver/Src/stm32f1xx_hal_i2c.c **** 
1055:Drivers/STM32F1xx_HAL_Driver/Src/stm32f1xx_hal_i2c.c ****   if (hi2c->State == HAL_I2C_STATE_READY)
 600              		.loc 1 1055 11
 601 001a FB68     		ldr	r3, [r7, #12]
 602 001c 93F83D30 		ldrb	r3, [r3, #61]
 603 0020 DBB2     		uxtb	r3, r3
 604              		.loc 1 1055 6
 605 0022 202B     		cmp	r3, #32
 606 0024 40F0E080 		bne	.L28
1056:Drivers/STM32F1xx_HAL_Driver/Src/stm32f1xx_hal_i2c.c ****   {
ARM GAS  /tmp/ccFqkhxP.s 			page 30


1057:Drivers/STM32F1xx_HAL_Driver/Src/stm32f1xx_hal_i2c.c ****     /* Wait until BUSY flag is reset */
1058:Drivers/STM32F1xx_HAL_Driver/Src/stm32f1xx_hal_i2c.c ****     if (I2C_WaitOnFlagUntilTimeout(hi2c, I2C_FLAG_BUSY, SET, I2C_TIMEOUT_BUSY_FLAG, tickstart) != H
 607              		.loc 1 1058 9
 608 0028 7B69     		ldr	r3, [r7, #20]
 609 002a 0093     		str	r3, [sp]
 610 002c 1923     		movs	r3, #25
 611 002e 0122     		movs	r2, #1
 612 0030 7049     		ldr	r1, .L40
 613 0032 F868     		ldr	r0, [r7, #12]
 614 0034 FFF7FEFF 		bl	I2C_WaitOnFlagUntilTimeout
 615 0038 0346     		mov	r3, r0
 616              		.loc 1 1058 8
 617 003a 002B     		cmp	r3, #0
 618 003c 01D0     		beq	.L29
1059:Drivers/STM32F1xx_HAL_Driver/Src/stm32f1xx_hal_i2c.c ****     {
1060:Drivers/STM32F1xx_HAL_Driver/Src/stm32f1xx_hal_i2c.c ****       return HAL_BUSY;
 619              		.loc 1 1060 14
 620 003e 0223     		movs	r3, #2
 621 0040 D3E0     		b	.L30
 622              	.L29:
1061:Drivers/STM32F1xx_HAL_Driver/Src/stm32f1xx_hal_i2c.c ****     }
1062:Drivers/STM32F1xx_HAL_Driver/Src/stm32f1xx_hal_i2c.c **** 
1063:Drivers/STM32F1xx_HAL_Driver/Src/stm32f1xx_hal_i2c.c ****     /* Process Locked */
1064:Drivers/STM32F1xx_HAL_Driver/Src/stm32f1xx_hal_i2c.c ****     __HAL_LOCK(hi2c);
 623              		.loc 1 1064 5
 624 0042 FB68     		ldr	r3, [r7, #12]
 625 0044 93F83C30 		ldrb	r3, [r3, #60]	@ zero_extendqisi2
 626 0048 012B     		cmp	r3, #1
 627 004a 01D1     		bne	.L31
 628              		.loc 1 1064 5 is_stmt 0 discriminator 1
 629 004c 0223     		movs	r3, #2
 630 004e CCE0     		b	.L30
 631              	.L31:
 632              		.loc 1 1064 5 discriminator 2
 633 0050 FB68     		ldr	r3, [r7, #12]
 634 0052 0122     		movs	r2, #1
 635 0054 83F83C20 		strb	r2, [r3, #60]
1065:Drivers/STM32F1xx_HAL_Driver/Src/stm32f1xx_hal_i2c.c **** 
1066:Drivers/STM32F1xx_HAL_Driver/Src/stm32f1xx_hal_i2c.c ****     /* Check if the I2C is already enabled */
1067:Drivers/STM32F1xx_HAL_Driver/Src/stm32f1xx_hal_i2c.c ****     if ((hi2c->Instance->CR1 & I2C_CR1_PE) != I2C_CR1_PE)
 636              		.loc 1 1067 14 is_stmt 1 discriminator 2
 637 0058 FB68     		ldr	r3, [r7, #12]
 638 005a 1B68     		ldr	r3, [r3]
 639              		.loc 1 1067 24 discriminator 2
 640 005c 1B68     		ldr	r3, [r3]
 641              		.loc 1 1067 30 discriminator 2
 642 005e 03F00103 		and	r3, r3, #1
 643              		.loc 1 1067 8 discriminator 2
 644 0062 012B     		cmp	r3, #1
 645 0064 07D0     		beq	.L32
1068:Drivers/STM32F1xx_HAL_Driver/Src/stm32f1xx_hal_i2c.c ****     {
1069:Drivers/STM32F1xx_HAL_Driver/Src/stm32f1xx_hal_i2c.c ****       /* Enable I2C peripheral */
1070:Drivers/STM32F1xx_HAL_Driver/Src/stm32f1xx_hal_i2c.c ****       __HAL_I2C_ENABLE(hi2c);
 646              		.loc 1 1070 7
 647 0066 FB68     		ldr	r3, [r7, #12]
 648 0068 1B68     		ldr	r3, [r3]
 649 006a 1A68     		ldr	r2, [r3]
ARM GAS  /tmp/ccFqkhxP.s 			page 31


 650 006c FB68     		ldr	r3, [r7, #12]
 651 006e 1B68     		ldr	r3, [r3]
 652 0070 42F00102 		orr	r2, r2, #1
 653 0074 1A60     		str	r2, [r3]
 654              	.L32:
1071:Drivers/STM32F1xx_HAL_Driver/Src/stm32f1xx_hal_i2c.c ****     }
1072:Drivers/STM32F1xx_HAL_Driver/Src/stm32f1xx_hal_i2c.c **** 
1073:Drivers/STM32F1xx_HAL_Driver/Src/stm32f1xx_hal_i2c.c ****     /* Disable Pos */
1074:Drivers/STM32F1xx_HAL_Driver/Src/stm32f1xx_hal_i2c.c ****     CLEAR_BIT(hi2c->Instance->CR1, I2C_CR1_POS);
 655              		.loc 1 1074 5
 656 0076 FB68     		ldr	r3, [r7, #12]
 657 0078 1B68     		ldr	r3, [r3]
 658 007a 1A68     		ldr	r2, [r3]
 659 007c FB68     		ldr	r3, [r7, #12]
 660 007e 1B68     		ldr	r3, [r3]
 661 0080 22F40062 		bic	r2, r2, #2048
 662 0084 1A60     		str	r2, [r3]
1075:Drivers/STM32F1xx_HAL_Driver/Src/stm32f1xx_hal_i2c.c **** 
1076:Drivers/STM32F1xx_HAL_Driver/Src/stm32f1xx_hal_i2c.c ****     hi2c->State       = HAL_I2C_STATE_BUSY_TX;
 663              		.loc 1 1076 23
 664 0086 FB68     		ldr	r3, [r7, #12]
 665 0088 2122     		movs	r2, #33
 666 008a 83F83D20 		strb	r2, [r3, #61]
1077:Drivers/STM32F1xx_HAL_Driver/Src/stm32f1xx_hal_i2c.c ****     hi2c->Mode        = HAL_I2C_MODE_MASTER;
 667              		.loc 1 1077 23
 668 008e FB68     		ldr	r3, [r7, #12]
 669 0090 1022     		movs	r2, #16
 670 0092 83F83E20 		strb	r2, [r3, #62]
1078:Drivers/STM32F1xx_HAL_Driver/Src/stm32f1xx_hal_i2c.c ****     hi2c->ErrorCode   = HAL_I2C_ERROR_NONE;
 671              		.loc 1 1078 23
 672 0096 FB68     		ldr	r3, [r7, #12]
 673 0098 0022     		movs	r2, #0
 674 009a 1A64     		str	r2, [r3, #64]
1079:Drivers/STM32F1xx_HAL_Driver/Src/stm32f1xx_hal_i2c.c **** 
1080:Drivers/STM32F1xx_HAL_Driver/Src/stm32f1xx_hal_i2c.c ****     /* Prepare transfer parameters */
1081:Drivers/STM32F1xx_HAL_Driver/Src/stm32f1xx_hal_i2c.c ****     hi2c->pBuffPtr    = pData;
 675              		.loc 1 1081 23
 676 009c FB68     		ldr	r3, [r7, #12]
 677 009e 7A68     		ldr	r2, [r7, #4]
 678 00a0 5A62     		str	r2, [r3, #36]
1082:Drivers/STM32F1xx_HAL_Driver/Src/stm32f1xx_hal_i2c.c ****     hi2c->XferCount   = Size;
 679              		.loc 1 1082 23
 680 00a2 FB68     		ldr	r3, [r7, #12]
 681 00a4 3A89     		ldrh	r2, [r7, #8]	@ movhi
 682 00a6 5A85     		strh	r2, [r3, #42]	@ movhi
1083:Drivers/STM32F1xx_HAL_Driver/Src/stm32f1xx_hal_i2c.c ****     hi2c->XferSize    = hi2c->XferCount;
 683              		.loc 1 1083 29
 684 00a8 FB68     		ldr	r3, [r7, #12]
 685 00aa 5B8D     		ldrh	r3, [r3, #42]	@ movhi
 686 00ac 9AB2     		uxth	r2, r3
 687              		.loc 1 1083 23
 688 00ae FB68     		ldr	r3, [r7, #12]
 689 00b0 1A85     		strh	r2, [r3, #40]	@ movhi
1084:Drivers/STM32F1xx_HAL_Driver/Src/stm32f1xx_hal_i2c.c ****     hi2c->XferOptions = I2C_NO_OPTION_FRAME;
 690              		.loc 1 1084 23
 691 00b2 FB68     		ldr	r3, [r7, #12]
 692 00b4 504A     		ldr	r2, .L40+4
ARM GAS  /tmp/ccFqkhxP.s 			page 32


 693 00b6 DA62     		str	r2, [r3, #44]
1085:Drivers/STM32F1xx_HAL_Driver/Src/stm32f1xx_hal_i2c.c **** 
1086:Drivers/STM32F1xx_HAL_Driver/Src/stm32f1xx_hal_i2c.c ****     /* Send Slave Address */
1087:Drivers/STM32F1xx_HAL_Driver/Src/stm32f1xx_hal_i2c.c ****     if (I2C_MasterRequestWrite(hi2c, DevAddress, Timeout, tickstart) != HAL_OK)
 694              		.loc 1 1087 9
 695 00b8 7989     		ldrh	r1, [r7, #10]
 696 00ba 7B69     		ldr	r3, [r7, #20]
 697 00bc 3A6A     		ldr	r2, [r7, #32]
 698 00be F868     		ldr	r0, [r7, #12]
 699 00c0 FFF7FEFF 		bl	I2C_MasterRequestWrite
 700 00c4 0346     		mov	r3, r0
 701              		.loc 1 1087 8
 702 00c6 002B     		cmp	r3, #0
 703 00c8 01D0     		beq	.L33
1088:Drivers/STM32F1xx_HAL_Driver/Src/stm32f1xx_hal_i2c.c ****     {
1089:Drivers/STM32F1xx_HAL_Driver/Src/stm32f1xx_hal_i2c.c ****       return HAL_ERROR;
 704              		.loc 1 1089 14
 705 00ca 0123     		movs	r3, #1
 706 00cc 8DE0     		b	.L30
 707              	.L33:
 708              	.LBB46:
1090:Drivers/STM32F1xx_HAL_Driver/Src/stm32f1xx_hal_i2c.c ****     }
1091:Drivers/STM32F1xx_HAL_Driver/Src/stm32f1xx_hal_i2c.c **** 
1092:Drivers/STM32F1xx_HAL_Driver/Src/stm32f1xx_hal_i2c.c ****     /* Clear ADDR flag */
1093:Drivers/STM32F1xx_HAL_Driver/Src/stm32f1xx_hal_i2c.c ****     __HAL_I2C_CLEAR_ADDRFLAG(hi2c);
 709              		.loc 1 1093 5
 710 00ce 0023     		movs	r3, #0
 711 00d0 3B61     		str	r3, [r7, #16]
 712 00d2 FB68     		ldr	r3, [r7, #12]
 713 00d4 1B68     		ldr	r3, [r3]
 714 00d6 5B69     		ldr	r3, [r3, #20]
 715 00d8 3B61     		str	r3, [r7, #16]
 716 00da FB68     		ldr	r3, [r7, #12]
 717 00dc 1B68     		ldr	r3, [r3]
 718 00de 9B69     		ldr	r3, [r3, #24]
 719 00e0 3B61     		str	r3, [r7, #16]
 720 00e2 3B69     		ldr	r3, [r7, #16]
 721              	.LBE46:
1094:Drivers/STM32F1xx_HAL_Driver/Src/stm32f1xx_hal_i2c.c **** 
1095:Drivers/STM32F1xx_HAL_Driver/Src/stm32f1xx_hal_i2c.c ****     while (hi2c->XferSize > 0U)
 722              		.loc 1 1095 11
 723 00e4 66E0     		b	.L34
 724              	.L39:
1096:Drivers/STM32F1xx_HAL_Driver/Src/stm32f1xx_hal_i2c.c ****     {
1097:Drivers/STM32F1xx_HAL_Driver/Src/stm32f1xx_hal_i2c.c ****       /* Wait until TXE flag is set */
1098:Drivers/STM32F1xx_HAL_Driver/Src/stm32f1xx_hal_i2c.c ****       if (I2C_WaitOnTXEFlagUntilTimeout(hi2c, Timeout, tickstart) != HAL_OK)
 725              		.loc 1 1098 11
 726 00e6 7A69     		ldr	r2, [r7, #20]
 727 00e8 396A     		ldr	r1, [r7, #32]
 728 00ea F868     		ldr	r0, [r7, #12]
 729 00ec FFF7FEFF 		bl	I2C_WaitOnTXEFlagUntilTimeout
 730 00f0 0346     		mov	r3, r0
 731              		.loc 1 1098 10
 732 00f2 002B     		cmp	r3, #0
 733 00f4 0DD0     		beq	.L35
1099:Drivers/STM32F1xx_HAL_Driver/Src/stm32f1xx_hal_i2c.c ****       {
1100:Drivers/STM32F1xx_HAL_Driver/Src/stm32f1xx_hal_i2c.c ****         if (hi2c->ErrorCode == HAL_I2C_ERROR_AF)
ARM GAS  /tmp/ccFqkhxP.s 			page 33


 734              		.loc 1 1100 17
 735 00f6 FB68     		ldr	r3, [r7, #12]
 736 00f8 1B6C     		ldr	r3, [r3, #64]
 737              		.loc 1 1100 12
 738 00fa 042B     		cmp	r3, #4
 739 00fc 07D1     		bne	.L36
1101:Drivers/STM32F1xx_HAL_Driver/Src/stm32f1xx_hal_i2c.c ****         {
1102:Drivers/STM32F1xx_HAL_Driver/Src/stm32f1xx_hal_i2c.c ****           /* Generate Stop */
1103:Drivers/STM32F1xx_HAL_Driver/Src/stm32f1xx_hal_i2c.c ****           SET_BIT(hi2c->Instance->CR1, I2C_CR1_STOP);
 740              		.loc 1 1103 11
 741 00fe FB68     		ldr	r3, [r7, #12]
 742 0100 1B68     		ldr	r3, [r3]
 743 0102 1A68     		ldr	r2, [r3]
 744 0104 FB68     		ldr	r3, [r7, #12]
 745 0106 1B68     		ldr	r3, [r3]
 746 0108 42F40072 		orr	r2, r2, #512
 747 010c 1A60     		str	r2, [r3]
 748              	.L36:
1104:Drivers/STM32F1xx_HAL_Driver/Src/stm32f1xx_hal_i2c.c ****         }
1105:Drivers/STM32F1xx_HAL_Driver/Src/stm32f1xx_hal_i2c.c ****         return HAL_ERROR;
 749              		.loc 1 1105 16
 750 010e 0123     		movs	r3, #1
 751 0110 6BE0     		b	.L30
 752              	.L35:
1106:Drivers/STM32F1xx_HAL_Driver/Src/stm32f1xx_hal_i2c.c ****       }
1107:Drivers/STM32F1xx_HAL_Driver/Src/stm32f1xx_hal_i2c.c **** 
1108:Drivers/STM32F1xx_HAL_Driver/Src/stm32f1xx_hal_i2c.c ****       /* Write data to DR */
1109:Drivers/STM32F1xx_HAL_Driver/Src/stm32f1xx_hal_i2c.c ****       hi2c->Instance->DR = *hi2c->pBuffPtr;
 753              		.loc 1 1109 33
 754 0112 FB68     		ldr	r3, [r7, #12]
 755 0114 5B6A     		ldr	r3, [r3, #36]
 756              		.loc 1 1109 28
 757 0116 1A78     		ldrb	r2, [r3]	@ zero_extendqisi2
 758              		.loc 1 1109 11
 759 0118 FB68     		ldr	r3, [r7, #12]
 760 011a 1B68     		ldr	r3, [r3]
 761              		.loc 1 1109 26
 762 011c 1A61     		str	r2, [r3, #16]
1110:Drivers/STM32F1xx_HAL_Driver/Src/stm32f1xx_hal_i2c.c **** 
1111:Drivers/STM32F1xx_HAL_Driver/Src/stm32f1xx_hal_i2c.c ****       /* Increment Buffer pointer */
1112:Drivers/STM32F1xx_HAL_Driver/Src/stm32f1xx_hal_i2c.c ****       hi2c->pBuffPtr++;
 763              		.loc 1 1112 11
 764 011e FB68     		ldr	r3, [r7, #12]
 765 0120 5B6A     		ldr	r3, [r3, #36]
 766              		.loc 1 1112 21
 767 0122 5A1C     		adds	r2, r3, #1
 768 0124 FB68     		ldr	r3, [r7, #12]
 769 0126 5A62     		str	r2, [r3, #36]
1113:Drivers/STM32F1xx_HAL_Driver/Src/stm32f1xx_hal_i2c.c **** 
1114:Drivers/STM32F1xx_HAL_Driver/Src/stm32f1xx_hal_i2c.c ****       /* Update counter */
1115:Drivers/STM32F1xx_HAL_Driver/Src/stm32f1xx_hal_i2c.c ****       hi2c->XferCount--;
 770              		.loc 1 1115 11
 771 0128 FB68     		ldr	r3, [r7, #12]
 772 012a 5B8D     		ldrh	r3, [r3, #42]	@ movhi
 773 012c 9BB2     		uxth	r3, r3
 774              		.loc 1 1115 22
 775 012e 013B     		subs	r3, r3, #1
ARM GAS  /tmp/ccFqkhxP.s 			page 34


 776 0130 9AB2     		uxth	r2, r3
 777 0132 FB68     		ldr	r3, [r7, #12]
 778 0134 5A85     		strh	r2, [r3, #42]	@ movhi
1116:Drivers/STM32F1xx_HAL_Driver/Src/stm32f1xx_hal_i2c.c ****       hi2c->XferSize--;
 779              		.loc 1 1116 11
 780 0136 FB68     		ldr	r3, [r7, #12]
 781 0138 1B8D     		ldrh	r3, [r3, #40]
 782              		.loc 1 1116 21
 783 013a 013B     		subs	r3, r3, #1
 784 013c 9AB2     		uxth	r2, r3
 785 013e FB68     		ldr	r3, [r7, #12]
 786 0140 1A85     		strh	r2, [r3, #40]	@ movhi
1117:Drivers/STM32F1xx_HAL_Driver/Src/stm32f1xx_hal_i2c.c **** 
1118:Drivers/STM32F1xx_HAL_Driver/Src/stm32f1xx_hal_i2c.c ****       if ((__HAL_I2C_GET_FLAG(hi2c, I2C_FLAG_BTF) == SET) && (hi2c->XferSize != 0U))
 787              		.loc 1 1118 12
 788 0142 FB68     		ldr	r3, [r7, #12]
 789 0144 1B68     		ldr	r3, [r3]
 790 0146 5B69     		ldr	r3, [r3, #20]
 791 0148 03F00403 		and	r3, r3, #4
 792              		.loc 1 1118 10
 793 014c 042B     		cmp	r3, #4
 794 014e 1BD1     		bne	.L37
 795              		.loc 1 1118 67 discriminator 1
 796 0150 FB68     		ldr	r3, [r7, #12]
 797 0152 1B8D     		ldrh	r3, [r3, #40]
 798              		.loc 1 1118 59 discriminator 1
 799 0154 002B     		cmp	r3, #0
 800 0156 17D0     		beq	.L37
1119:Drivers/STM32F1xx_HAL_Driver/Src/stm32f1xx_hal_i2c.c ****       {
1120:Drivers/STM32F1xx_HAL_Driver/Src/stm32f1xx_hal_i2c.c ****         /* Write data to DR */
1121:Drivers/STM32F1xx_HAL_Driver/Src/stm32f1xx_hal_i2c.c ****         hi2c->Instance->DR = *hi2c->pBuffPtr;
 801              		.loc 1 1121 35
 802 0158 FB68     		ldr	r3, [r7, #12]
 803 015a 5B6A     		ldr	r3, [r3, #36]
 804              		.loc 1 1121 30
 805 015c 1A78     		ldrb	r2, [r3]	@ zero_extendqisi2
 806              		.loc 1 1121 13
 807 015e FB68     		ldr	r3, [r7, #12]
 808 0160 1B68     		ldr	r3, [r3]
 809              		.loc 1 1121 28
 810 0162 1A61     		str	r2, [r3, #16]
1122:Drivers/STM32F1xx_HAL_Driver/Src/stm32f1xx_hal_i2c.c **** 
1123:Drivers/STM32F1xx_HAL_Driver/Src/stm32f1xx_hal_i2c.c ****         /* Increment Buffer pointer */
1124:Drivers/STM32F1xx_HAL_Driver/Src/stm32f1xx_hal_i2c.c ****         hi2c->pBuffPtr++;
 811              		.loc 1 1124 13
 812 0164 FB68     		ldr	r3, [r7, #12]
 813 0166 5B6A     		ldr	r3, [r3, #36]
 814              		.loc 1 1124 23
 815 0168 5A1C     		adds	r2, r3, #1
 816 016a FB68     		ldr	r3, [r7, #12]
 817 016c 5A62     		str	r2, [r3, #36]
1125:Drivers/STM32F1xx_HAL_Driver/Src/stm32f1xx_hal_i2c.c **** 
1126:Drivers/STM32F1xx_HAL_Driver/Src/stm32f1xx_hal_i2c.c ****         /* Update counter */
1127:Drivers/STM32F1xx_HAL_Driver/Src/stm32f1xx_hal_i2c.c ****         hi2c->XferCount--;
 818              		.loc 1 1127 13
 819 016e FB68     		ldr	r3, [r7, #12]
 820 0170 5B8D     		ldrh	r3, [r3, #42]	@ movhi
ARM GAS  /tmp/ccFqkhxP.s 			page 35


 821 0172 9BB2     		uxth	r3, r3
 822              		.loc 1 1127 24
 823 0174 013B     		subs	r3, r3, #1
 824 0176 9AB2     		uxth	r2, r3
 825 0178 FB68     		ldr	r3, [r7, #12]
 826 017a 5A85     		strh	r2, [r3, #42]	@ movhi
1128:Drivers/STM32F1xx_HAL_Driver/Src/stm32f1xx_hal_i2c.c ****         hi2c->XferSize--;
 827              		.loc 1 1128 13
 828 017c FB68     		ldr	r3, [r7, #12]
 829 017e 1B8D     		ldrh	r3, [r3, #40]
 830              		.loc 1 1128 23
 831 0180 013B     		subs	r3, r3, #1
 832 0182 9AB2     		uxth	r2, r3
 833 0184 FB68     		ldr	r3, [r7, #12]
 834 0186 1A85     		strh	r2, [r3, #40]	@ movhi
 835              	.L37:
1129:Drivers/STM32F1xx_HAL_Driver/Src/stm32f1xx_hal_i2c.c ****       }
1130:Drivers/STM32F1xx_HAL_Driver/Src/stm32f1xx_hal_i2c.c **** 
1131:Drivers/STM32F1xx_HAL_Driver/Src/stm32f1xx_hal_i2c.c ****       /* Wait until BTF flag is set */
1132:Drivers/STM32F1xx_HAL_Driver/Src/stm32f1xx_hal_i2c.c ****       if (I2C_WaitOnBTFFlagUntilTimeout(hi2c, Timeout, tickstart) != HAL_OK)
 836              		.loc 1 1132 11
 837 0188 7A69     		ldr	r2, [r7, #20]
 838 018a 396A     		ldr	r1, [r7, #32]
 839 018c F868     		ldr	r0, [r7, #12]
 840 018e FFF7FEFF 		bl	I2C_WaitOnBTFFlagUntilTimeout
 841 0192 0346     		mov	r3, r0
 842              		.loc 1 1132 10
 843 0194 002B     		cmp	r3, #0
 844 0196 0DD0     		beq	.L34
1133:Drivers/STM32F1xx_HAL_Driver/Src/stm32f1xx_hal_i2c.c ****       {
1134:Drivers/STM32F1xx_HAL_Driver/Src/stm32f1xx_hal_i2c.c ****         if (hi2c->ErrorCode == HAL_I2C_ERROR_AF)
 845              		.loc 1 1134 17
 846 0198 FB68     		ldr	r3, [r7, #12]
 847 019a 1B6C     		ldr	r3, [r3, #64]
 848              		.loc 1 1134 12
 849 019c 042B     		cmp	r3, #4
 850 019e 07D1     		bne	.L38
1135:Drivers/STM32F1xx_HAL_Driver/Src/stm32f1xx_hal_i2c.c ****         {
1136:Drivers/STM32F1xx_HAL_Driver/Src/stm32f1xx_hal_i2c.c ****           /* Generate Stop */
1137:Drivers/STM32F1xx_HAL_Driver/Src/stm32f1xx_hal_i2c.c ****           SET_BIT(hi2c->Instance->CR1, I2C_CR1_STOP);
 851              		.loc 1 1137 11
 852 01a0 FB68     		ldr	r3, [r7, #12]
 853 01a2 1B68     		ldr	r3, [r3]
 854 01a4 1A68     		ldr	r2, [r3]
 855 01a6 FB68     		ldr	r3, [r7, #12]
 856 01a8 1B68     		ldr	r3, [r3]
 857 01aa 42F40072 		orr	r2, r2, #512
 858 01ae 1A60     		str	r2, [r3]
 859              	.L38:
1138:Drivers/STM32F1xx_HAL_Driver/Src/stm32f1xx_hal_i2c.c ****         }
1139:Drivers/STM32F1xx_HAL_Driver/Src/stm32f1xx_hal_i2c.c ****         return HAL_ERROR;
 860              		.loc 1 1139 16
 861 01b0 0123     		movs	r3, #1
 862 01b2 1AE0     		b	.L30
 863              	.L34:
1095:Drivers/STM32F1xx_HAL_Driver/Src/stm32f1xx_hal_i2c.c ****     {
 864              		.loc 1 1095 16
ARM GAS  /tmp/ccFqkhxP.s 			page 36


 865 01b4 FB68     		ldr	r3, [r7, #12]
 866 01b6 1B8D     		ldrh	r3, [r3, #40]
1095:Drivers/STM32F1xx_HAL_Driver/Src/stm32f1xx_hal_i2c.c ****     {
 867              		.loc 1 1095 11
 868 01b8 002B     		cmp	r3, #0
 869 01ba 94D1     		bne	.L39
1140:Drivers/STM32F1xx_HAL_Driver/Src/stm32f1xx_hal_i2c.c ****       }
1141:Drivers/STM32F1xx_HAL_Driver/Src/stm32f1xx_hal_i2c.c ****     }
1142:Drivers/STM32F1xx_HAL_Driver/Src/stm32f1xx_hal_i2c.c **** 
1143:Drivers/STM32F1xx_HAL_Driver/Src/stm32f1xx_hal_i2c.c ****     /* Generate Stop */
1144:Drivers/STM32F1xx_HAL_Driver/Src/stm32f1xx_hal_i2c.c ****     SET_BIT(hi2c->Instance->CR1, I2C_CR1_STOP);
 870              		.loc 1 1144 5
 871 01bc FB68     		ldr	r3, [r7, #12]
 872 01be 1B68     		ldr	r3, [r3]
 873 01c0 1A68     		ldr	r2, [r3]
 874 01c2 FB68     		ldr	r3, [r7, #12]
 875 01c4 1B68     		ldr	r3, [r3]
 876 01c6 42F40072 		orr	r2, r2, #512
 877 01ca 1A60     		str	r2, [r3]
1145:Drivers/STM32F1xx_HAL_Driver/Src/stm32f1xx_hal_i2c.c **** 
1146:Drivers/STM32F1xx_HAL_Driver/Src/stm32f1xx_hal_i2c.c ****     hi2c->State = HAL_I2C_STATE_READY;
 878              		.loc 1 1146 17
 879 01cc FB68     		ldr	r3, [r7, #12]
 880 01ce 2022     		movs	r2, #32
 881 01d0 83F83D20 		strb	r2, [r3, #61]
1147:Drivers/STM32F1xx_HAL_Driver/Src/stm32f1xx_hal_i2c.c ****     hi2c->Mode = HAL_I2C_MODE_NONE;
 882              		.loc 1 1147 16
 883 01d4 FB68     		ldr	r3, [r7, #12]
 884 01d6 0022     		movs	r2, #0
 885 01d8 83F83E20 		strb	r2, [r3, #62]
1148:Drivers/STM32F1xx_HAL_Driver/Src/stm32f1xx_hal_i2c.c **** 
1149:Drivers/STM32F1xx_HAL_Driver/Src/stm32f1xx_hal_i2c.c ****     /* Process Unlocked */
1150:Drivers/STM32F1xx_HAL_Driver/Src/stm32f1xx_hal_i2c.c ****     __HAL_UNLOCK(hi2c);
 886              		.loc 1 1150 5
 887 01dc FB68     		ldr	r3, [r7, #12]
 888 01de 0022     		movs	r2, #0
 889 01e0 83F83C20 		strb	r2, [r3, #60]
1151:Drivers/STM32F1xx_HAL_Driver/Src/stm32f1xx_hal_i2c.c **** 
1152:Drivers/STM32F1xx_HAL_Driver/Src/stm32f1xx_hal_i2c.c ****     return HAL_OK;
 890              		.loc 1 1152 12
 891 01e4 0023     		movs	r3, #0
 892 01e6 00E0     		b	.L30
 893              	.L28:
1153:Drivers/STM32F1xx_HAL_Driver/Src/stm32f1xx_hal_i2c.c ****   }
1154:Drivers/STM32F1xx_HAL_Driver/Src/stm32f1xx_hal_i2c.c ****   else
1155:Drivers/STM32F1xx_HAL_Driver/Src/stm32f1xx_hal_i2c.c ****   {
1156:Drivers/STM32F1xx_HAL_Driver/Src/stm32f1xx_hal_i2c.c ****     return HAL_BUSY;
 894              		.loc 1 1156 12
 895 01e8 0223     		movs	r3, #2
 896              	.L30:
1157:Drivers/STM32F1xx_HAL_Driver/Src/stm32f1xx_hal_i2c.c ****   }
1158:Drivers/STM32F1xx_HAL_Driver/Src/stm32f1xx_hal_i2c.c **** }
 897              		.loc 1 1158 1
 898 01ea 1846     		mov	r0, r3
 899 01ec 1837     		adds	r7, r7, #24
 900              	.LCFI25:
 901              		.cfi_def_cfa_offset 8
ARM GAS  /tmp/ccFqkhxP.s 			page 37


 902 01ee BD46     		mov	sp, r7
 903              	.LCFI26:
 904              		.cfi_def_cfa_register 13
 905              		@ sp needed
 906 01f0 80BD     		pop	{r7, pc}
 907              	.L41:
 908 01f2 00BF     		.align	2
 909              	.L40:
 910 01f4 02001000 		.word	1048578
 911 01f8 0000FFFF 		.word	-65536
 912              		.cfi_endproc
 913              	.LFE69:
 915              		.section	.text.HAL_I2C_Master_Receive,"ax",%progbits
 916              		.align	1
 917              		.global	HAL_I2C_Master_Receive
 918              		.syntax unified
 919              		.thumb
 920              		.thumb_func
 922              	HAL_I2C_Master_Receive:
 923              	.LFB70:
1159:Drivers/STM32F1xx_HAL_Driver/Src/stm32f1xx_hal_i2c.c **** 
1160:Drivers/STM32F1xx_HAL_Driver/Src/stm32f1xx_hal_i2c.c **** /**
1161:Drivers/STM32F1xx_HAL_Driver/Src/stm32f1xx_hal_i2c.c ****   * @brief  Receives in master mode an amount of data in blocking mode.
1162:Drivers/STM32F1xx_HAL_Driver/Src/stm32f1xx_hal_i2c.c ****   * @param  hi2c Pointer to a I2C_HandleTypeDef structure that contains
1163:Drivers/STM32F1xx_HAL_Driver/Src/stm32f1xx_hal_i2c.c ****   *                the configuration information for the specified I2C.
1164:Drivers/STM32F1xx_HAL_Driver/Src/stm32f1xx_hal_i2c.c ****   * @param  DevAddress Target device address: The device 7 bits address value
1165:Drivers/STM32F1xx_HAL_Driver/Src/stm32f1xx_hal_i2c.c ****   *         in datasheet must be shifted to the left before calling the interface
1166:Drivers/STM32F1xx_HAL_Driver/Src/stm32f1xx_hal_i2c.c ****   * @param  pData Pointer to data buffer
1167:Drivers/STM32F1xx_HAL_Driver/Src/stm32f1xx_hal_i2c.c ****   * @param  Size Amount of data to be sent
1168:Drivers/STM32F1xx_HAL_Driver/Src/stm32f1xx_hal_i2c.c ****   * @param  Timeout Timeout duration
1169:Drivers/STM32F1xx_HAL_Driver/Src/stm32f1xx_hal_i2c.c ****   * @retval HAL status
1170:Drivers/STM32F1xx_HAL_Driver/Src/stm32f1xx_hal_i2c.c ****   */
1171:Drivers/STM32F1xx_HAL_Driver/Src/stm32f1xx_hal_i2c.c **** HAL_StatusTypeDef HAL_I2C_Master_Receive(I2C_HandleTypeDef *hi2c, uint16_t DevAddress, uint8_t *pDa
1172:Drivers/STM32F1xx_HAL_Driver/Src/stm32f1xx_hal_i2c.c **** {
 924              		.loc 1 1172 1
 925              		.cfi_startproc
 926              		@ args = 4, pretend = 0, frame = 40
 927              		@ frame_needed = 1, uses_anonymous_args = 0
 928 0000 80B5     		push	{r7, lr}
 929              	.LCFI27:
 930              		.cfi_def_cfa_offset 8
 931              		.cfi_offset 7, -8
 932              		.cfi_offset 14, -4
 933 0002 8CB0     		sub	sp, sp, #48
 934              	.LCFI28:
 935              		.cfi_def_cfa_offset 56
 936 0004 02AF     		add	r7, sp, #8
 937              	.LCFI29:
 938              		.cfi_def_cfa 7, 48
 939 0006 F860     		str	r0, [r7, #12]
 940 0008 7A60     		str	r2, [r7, #4]
 941 000a 1A46     		mov	r2, r3
 942 000c 0B46     		mov	r3, r1	@ movhi
 943 000e 7B81     		strh	r3, [r7, #10]	@ movhi
 944 0010 1346     		mov	r3, r2	@ movhi
 945 0012 3B81     		strh	r3, [r7, #8]	@ movhi
1173:Drivers/STM32F1xx_HAL_Driver/Src/stm32f1xx_hal_i2c.c ****   __IO uint32_t count = 0U;
ARM GAS  /tmp/ccFqkhxP.s 			page 38


 946              		.loc 1 1173 17
 947 0014 0023     		movs	r3, #0
 948 0016 3B62     		str	r3, [r7, #32]
1174:Drivers/STM32F1xx_HAL_Driver/Src/stm32f1xx_hal_i2c.c **** 
1175:Drivers/STM32F1xx_HAL_Driver/Src/stm32f1xx_hal_i2c.c ****   /* Init tickstart for timeout management*/
1176:Drivers/STM32F1xx_HAL_Driver/Src/stm32f1xx_hal_i2c.c ****   uint32_t tickstart = HAL_GetTick();
 949              		.loc 1 1176 24
 950 0018 FFF7FEFF 		bl	HAL_GetTick
 951 001c 7862     		str	r0, [r7, #36]
1177:Drivers/STM32F1xx_HAL_Driver/Src/stm32f1xx_hal_i2c.c **** 
1178:Drivers/STM32F1xx_HAL_Driver/Src/stm32f1xx_hal_i2c.c ****   if (hi2c->State == HAL_I2C_STATE_READY)
 952              		.loc 1 1178 11
 953 001e FB68     		ldr	r3, [r7, #12]
 954 0020 93F83D30 		ldrb	r3, [r3, #61]
 955 0024 DBB2     		uxtb	r3, r3
 956              		.loc 1 1178 6
 957 0026 202B     		cmp	r3, #32
 958 0028 40F03F82 		bne	.L43
1179:Drivers/STM32F1xx_HAL_Driver/Src/stm32f1xx_hal_i2c.c ****   {
1180:Drivers/STM32F1xx_HAL_Driver/Src/stm32f1xx_hal_i2c.c ****     /* Wait until BUSY flag is reset */
1181:Drivers/STM32F1xx_HAL_Driver/Src/stm32f1xx_hal_i2c.c ****     if (I2C_WaitOnFlagUntilTimeout(hi2c, I2C_FLAG_BUSY, SET, I2C_TIMEOUT_BUSY_FLAG, tickstart) != H
 959              		.loc 1 1181 9
 960 002c 7B6A     		ldr	r3, [r7, #36]
 961 002e 0093     		str	r3, [sp]
 962 0030 1923     		movs	r3, #25
 963 0032 0122     		movs	r2, #1
 964 0034 7F49     		ldr	r1, .L64
 965 0036 F868     		ldr	r0, [r7, #12]
 966 0038 FFF7FEFF 		bl	I2C_WaitOnFlagUntilTimeout
 967 003c 0346     		mov	r3, r0
 968              		.loc 1 1181 8
 969 003e 002B     		cmp	r3, #0
 970 0040 01D0     		beq	.L44
1182:Drivers/STM32F1xx_HAL_Driver/Src/stm32f1xx_hal_i2c.c ****     {
1183:Drivers/STM32F1xx_HAL_Driver/Src/stm32f1xx_hal_i2c.c ****       return HAL_BUSY;
 971              		.loc 1 1183 14
 972 0042 0223     		movs	r3, #2
 973 0044 32E2     		b	.L45
 974              	.L44:
1184:Drivers/STM32F1xx_HAL_Driver/Src/stm32f1xx_hal_i2c.c ****     }
1185:Drivers/STM32F1xx_HAL_Driver/Src/stm32f1xx_hal_i2c.c **** 
1186:Drivers/STM32F1xx_HAL_Driver/Src/stm32f1xx_hal_i2c.c ****     /* Process Locked */
1187:Drivers/STM32F1xx_HAL_Driver/Src/stm32f1xx_hal_i2c.c ****     __HAL_LOCK(hi2c);
 975              		.loc 1 1187 5
 976 0046 FB68     		ldr	r3, [r7, #12]
 977 0048 93F83C30 		ldrb	r3, [r3, #60]	@ zero_extendqisi2
 978 004c 012B     		cmp	r3, #1
 979 004e 01D1     		bne	.L46
 980              		.loc 1 1187 5 is_stmt 0 discriminator 1
 981 0050 0223     		movs	r3, #2
 982 0052 2BE2     		b	.L45
 983              	.L46:
 984              		.loc 1 1187 5 discriminator 2
 985 0054 FB68     		ldr	r3, [r7, #12]
 986 0056 0122     		movs	r2, #1
 987 0058 83F83C20 		strb	r2, [r3, #60]
1188:Drivers/STM32F1xx_HAL_Driver/Src/stm32f1xx_hal_i2c.c **** 
ARM GAS  /tmp/ccFqkhxP.s 			page 39


1189:Drivers/STM32F1xx_HAL_Driver/Src/stm32f1xx_hal_i2c.c ****     /* Check if the I2C is already enabled */
1190:Drivers/STM32F1xx_HAL_Driver/Src/stm32f1xx_hal_i2c.c ****     if ((hi2c->Instance->CR1 & I2C_CR1_PE) != I2C_CR1_PE)
 988              		.loc 1 1190 14 is_stmt 1 discriminator 2
 989 005c FB68     		ldr	r3, [r7, #12]
 990 005e 1B68     		ldr	r3, [r3]
 991              		.loc 1 1190 24 discriminator 2
 992 0060 1B68     		ldr	r3, [r3]
 993              		.loc 1 1190 30 discriminator 2
 994 0062 03F00103 		and	r3, r3, #1
 995              		.loc 1 1190 8 discriminator 2
 996 0066 012B     		cmp	r3, #1
 997 0068 07D0     		beq	.L47
1191:Drivers/STM32F1xx_HAL_Driver/Src/stm32f1xx_hal_i2c.c ****     {
1192:Drivers/STM32F1xx_HAL_Driver/Src/stm32f1xx_hal_i2c.c ****       /* Enable I2C peripheral */
1193:Drivers/STM32F1xx_HAL_Driver/Src/stm32f1xx_hal_i2c.c ****       __HAL_I2C_ENABLE(hi2c);
 998              		.loc 1 1193 7
 999 006a FB68     		ldr	r3, [r7, #12]
 1000 006c 1B68     		ldr	r3, [r3]
 1001 006e 1A68     		ldr	r2, [r3]
 1002 0070 FB68     		ldr	r3, [r7, #12]
 1003 0072 1B68     		ldr	r3, [r3]
 1004 0074 42F00102 		orr	r2, r2, #1
 1005 0078 1A60     		str	r2, [r3]
 1006              	.L47:
1194:Drivers/STM32F1xx_HAL_Driver/Src/stm32f1xx_hal_i2c.c ****     }
1195:Drivers/STM32F1xx_HAL_Driver/Src/stm32f1xx_hal_i2c.c **** 
1196:Drivers/STM32F1xx_HAL_Driver/Src/stm32f1xx_hal_i2c.c ****     /* Disable Pos */
1197:Drivers/STM32F1xx_HAL_Driver/Src/stm32f1xx_hal_i2c.c ****     CLEAR_BIT(hi2c->Instance->CR1, I2C_CR1_POS);
 1007              		.loc 1 1197 5
 1008 007a FB68     		ldr	r3, [r7, #12]
 1009 007c 1B68     		ldr	r3, [r3]
 1010 007e 1A68     		ldr	r2, [r3]
 1011 0080 FB68     		ldr	r3, [r7, #12]
 1012 0082 1B68     		ldr	r3, [r3]
 1013 0084 22F40062 		bic	r2, r2, #2048
 1014 0088 1A60     		str	r2, [r3]
1198:Drivers/STM32F1xx_HAL_Driver/Src/stm32f1xx_hal_i2c.c **** 
1199:Drivers/STM32F1xx_HAL_Driver/Src/stm32f1xx_hal_i2c.c ****     hi2c->State       = HAL_I2C_STATE_BUSY_RX;
 1015              		.loc 1 1199 23
 1016 008a FB68     		ldr	r3, [r7, #12]
 1017 008c 2222     		movs	r2, #34
 1018 008e 83F83D20 		strb	r2, [r3, #61]
1200:Drivers/STM32F1xx_HAL_Driver/Src/stm32f1xx_hal_i2c.c ****     hi2c->Mode        = HAL_I2C_MODE_MASTER;
 1019              		.loc 1 1200 23
 1020 0092 FB68     		ldr	r3, [r7, #12]
 1021 0094 1022     		movs	r2, #16
 1022 0096 83F83E20 		strb	r2, [r3, #62]
1201:Drivers/STM32F1xx_HAL_Driver/Src/stm32f1xx_hal_i2c.c ****     hi2c->ErrorCode   = HAL_I2C_ERROR_NONE;
 1023              		.loc 1 1201 23
 1024 009a FB68     		ldr	r3, [r7, #12]
 1025 009c 0022     		movs	r2, #0
 1026 009e 1A64     		str	r2, [r3, #64]
1202:Drivers/STM32F1xx_HAL_Driver/Src/stm32f1xx_hal_i2c.c **** 
1203:Drivers/STM32F1xx_HAL_Driver/Src/stm32f1xx_hal_i2c.c ****     /* Prepare transfer parameters */
1204:Drivers/STM32F1xx_HAL_Driver/Src/stm32f1xx_hal_i2c.c ****     hi2c->pBuffPtr    = pData;
 1027              		.loc 1 1204 23
 1028 00a0 FB68     		ldr	r3, [r7, #12]
ARM GAS  /tmp/ccFqkhxP.s 			page 40


 1029 00a2 7A68     		ldr	r2, [r7, #4]
 1030 00a4 5A62     		str	r2, [r3, #36]
1205:Drivers/STM32F1xx_HAL_Driver/Src/stm32f1xx_hal_i2c.c ****     hi2c->XferCount   = Size;
 1031              		.loc 1 1205 23
 1032 00a6 FB68     		ldr	r3, [r7, #12]
 1033 00a8 3A89     		ldrh	r2, [r7, #8]	@ movhi
 1034 00aa 5A85     		strh	r2, [r3, #42]	@ movhi
1206:Drivers/STM32F1xx_HAL_Driver/Src/stm32f1xx_hal_i2c.c ****     hi2c->XferSize    = hi2c->XferCount;
 1035              		.loc 1 1206 29
 1036 00ac FB68     		ldr	r3, [r7, #12]
 1037 00ae 5B8D     		ldrh	r3, [r3, #42]	@ movhi
 1038 00b0 9AB2     		uxth	r2, r3
 1039              		.loc 1 1206 23
 1040 00b2 FB68     		ldr	r3, [r7, #12]
 1041 00b4 1A85     		strh	r2, [r3, #40]	@ movhi
1207:Drivers/STM32F1xx_HAL_Driver/Src/stm32f1xx_hal_i2c.c ****     hi2c->XferOptions = I2C_NO_OPTION_FRAME;
 1042              		.loc 1 1207 23
 1043 00b6 FB68     		ldr	r3, [r7, #12]
 1044 00b8 5F4A     		ldr	r2, .L64+4
 1045 00ba DA62     		str	r2, [r3, #44]
1208:Drivers/STM32F1xx_HAL_Driver/Src/stm32f1xx_hal_i2c.c **** 
1209:Drivers/STM32F1xx_HAL_Driver/Src/stm32f1xx_hal_i2c.c ****     /* Send Slave Address */
1210:Drivers/STM32F1xx_HAL_Driver/Src/stm32f1xx_hal_i2c.c ****     if (I2C_MasterRequestRead(hi2c, DevAddress, Timeout, tickstart) != HAL_OK)
 1046              		.loc 1 1210 9
 1047 00bc 7989     		ldrh	r1, [r7, #10]
 1048 00be 7B6A     		ldr	r3, [r7, #36]
 1049 00c0 3A6B     		ldr	r2, [r7, #48]
 1050 00c2 F868     		ldr	r0, [r7, #12]
 1051 00c4 FFF7FEFF 		bl	I2C_MasterRequestRead
 1052 00c8 0346     		mov	r3, r0
 1053              		.loc 1 1210 8
 1054 00ca 002B     		cmp	r3, #0
 1055 00cc 01D0     		beq	.L48
1211:Drivers/STM32F1xx_HAL_Driver/Src/stm32f1xx_hal_i2c.c ****     {
1212:Drivers/STM32F1xx_HAL_Driver/Src/stm32f1xx_hal_i2c.c ****       return HAL_ERROR;
 1056              		.loc 1 1212 14
 1057 00ce 0123     		movs	r3, #1
 1058 00d0 ECE1     		b	.L45
 1059              	.L48:
1213:Drivers/STM32F1xx_HAL_Driver/Src/stm32f1xx_hal_i2c.c ****     }
1214:Drivers/STM32F1xx_HAL_Driver/Src/stm32f1xx_hal_i2c.c **** 
1215:Drivers/STM32F1xx_HAL_Driver/Src/stm32f1xx_hal_i2c.c ****     if (hi2c->XferSize == 0U)
 1060              		.loc 1 1215 13
 1061 00d2 FB68     		ldr	r3, [r7, #12]
 1062 00d4 1B8D     		ldrh	r3, [r3, #40]
 1063              		.loc 1 1215 8
 1064 00d6 002B     		cmp	r3, #0
 1065 00d8 13D1     		bne	.L49
 1066              	.LBB47:
1216:Drivers/STM32F1xx_HAL_Driver/Src/stm32f1xx_hal_i2c.c ****     {
1217:Drivers/STM32F1xx_HAL_Driver/Src/stm32f1xx_hal_i2c.c ****       /* Clear ADDR flag */
1218:Drivers/STM32F1xx_HAL_Driver/Src/stm32f1xx_hal_i2c.c ****       __HAL_I2C_CLEAR_ADDRFLAG(hi2c);
 1067              		.loc 1 1218 7
 1068 00da 0023     		movs	r3, #0
 1069 00dc FB61     		str	r3, [r7, #28]
 1070 00de FB68     		ldr	r3, [r7, #12]
 1071 00e0 1B68     		ldr	r3, [r3]
ARM GAS  /tmp/ccFqkhxP.s 			page 41


 1072 00e2 5B69     		ldr	r3, [r3, #20]
 1073 00e4 FB61     		str	r3, [r7, #28]
 1074 00e6 FB68     		ldr	r3, [r7, #12]
 1075 00e8 1B68     		ldr	r3, [r3]
 1076 00ea 9B69     		ldr	r3, [r3, #24]
 1077 00ec FB61     		str	r3, [r7, #28]
 1078 00ee FB69     		ldr	r3, [r7, #28]
 1079              	.LBE47:
1219:Drivers/STM32F1xx_HAL_Driver/Src/stm32f1xx_hal_i2c.c **** 
1220:Drivers/STM32F1xx_HAL_Driver/Src/stm32f1xx_hal_i2c.c ****       /* Generate Stop */
1221:Drivers/STM32F1xx_HAL_Driver/Src/stm32f1xx_hal_i2c.c ****       SET_BIT(hi2c->Instance->CR1, I2C_CR1_STOP);
 1080              		.loc 1 1221 7
 1081 00f0 FB68     		ldr	r3, [r7, #12]
 1082 00f2 1B68     		ldr	r3, [r3]
 1083 00f4 1A68     		ldr	r2, [r3]
 1084 00f6 FB68     		ldr	r3, [r7, #12]
 1085 00f8 1B68     		ldr	r3, [r3]
 1086 00fa 42F40072 		orr	r2, r2, #512
 1087 00fe 1A60     		str	r2, [r3]
 1088 0100 C0E1     		b	.L53
 1089              	.L49:
1222:Drivers/STM32F1xx_HAL_Driver/Src/stm32f1xx_hal_i2c.c ****     }
1223:Drivers/STM32F1xx_HAL_Driver/Src/stm32f1xx_hal_i2c.c ****     else if (hi2c->XferSize == 1U)
 1090              		.loc 1 1223 18
 1091 0102 FB68     		ldr	r3, [r7, #12]
 1092 0104 1B8D     		ldrh	r3, [r3, #40]
 1093              		.loc 1 1223 13
 1094 0106 012B     		cmp	r3, #1
 1095 0108 1ED1     		bne	.L51
1224:Drivers/STM32F1xx_HAL_Driver/Src/stm32f1xx_hal_i2c.c ****     {
1225:Drivers/STM32F1xx_HAL_Driver/Src/stm32f1xx_hal_i2c.c ****       /* Disable Acknowledge */
1226:Drivers/STM32F1xx_HAL_Driver/Src/stm32f1xx_hal_i2c.c ****       CLEAR_BIT(hi2c->Instance->CR1, I2C_CR1_ACK);
 1096              		.loc 1 1226 7
 1097 010a FB68     		ldr	r3, [r7, #12]
 1098 010c 1B68     		ldr	r3, [r3]
 1099 010e 1A68     		ldr	r2, [r3]
 1100 0110 FB68     		ldr	r3, [r7, #12]
 1101 0112 1B68     		ldr	r3, [r3]
 1102 0114 22F48062 		bic	r2, r2, #1024
 1103 0118 1A60     		str	r2, [r3]
 1104              	.LBB48:
 1105              	.LBB49:
 1106              		.file 2 "Drivers/CMSIS/Include/cmsis_gcc.h"
   1:Drivers/CMSIS/Include/cmsis_gcc.h **** /**************************************************************************//**
   2:Drivers/CMSIS/Include/cmsis_gcc.h ****  * @file     cmsis_gcc.h
   3:Drivers/CMSIS/Include/cmsis_gcc.h ****  * @brief    CMSIS compiler GCC header file
   4:Drivers/CMSIS/Include/cmsis_gcc.h ****  * @version  V5.0.4
   5:Drivers/CMSIS/Include/cmsis_gcc.h ****  * @date     09. April 2018
   6:Drivers/CMSIS/Include/cmsis_gcc.h ****  ******************************************************************************/
   7:Drivers/CMSIS/Include/cmsis_gcc.h **** /*
   8:Drivers/CMSIS/Include/cmsis_gcc.h ****  * Copyright (c) 2009-2018 Arm Limited. All rights reserved.
   9:Drivers/CMSIS/Include/cmsis_gcc.h ****  *
  10:Drivers/CMSIS/Include/cmsis_gcc.h ****  * SPDX-License-Identifier: Apache-2.0
  11:Drivers/CMSIS/Include/cmsis_gcc.h ****  *
  12:Drivers/CMSIS/Include/cmsis_gcc.h ****  * Licensed under the Apache License, Version 2.0 (the License); you may
  13:Drivers/CMSIS/Include/cmsis_gcc.h ****  * not use this file except in compliance with the License.
  14:Drivers/CMSIS/Include/cmsis_gcc.h ****  * You may obtain a copy of the License at
ARM GAS  /tmp/ccFqkhxP.s 			page 42


  15:Drivers/CMSIS/Include/cmsis_gcc.h ****  *
  16:Drivers/CMSIS/Include/cmsis_gcc.h ****  * www.apache.org/licenses/LICENSE-2.0
  17:Drivers/CMSIS/Include/cmsis_gcc.h ****  *
  18:Drivers/CMSIS/Include/cmsis_gcc.h ****  * Unless required by applicable law or agreed to in writing, software
  19:Drivers/CMSIS/Include/cmsis_gcc.h ****  * distributed under the License is distributed on an AS IS BASIS, WITHOUT
  20:Drivers/CMSIS/Include/cmsis_gcc.h ****  * WARRANTIES OR CONDITIONS OF ANY KIND, either express or implied.
  21:Drivers/CMSIS/Include/cmsis_gcc.h ****  * See the License for the specific language governing permissions and
  22:Drivers/CMSIS/Include/cmsis_gcc.h ****  * limitations under the License.
  23:Drivers/CMSIS/Include/cmsis_gcc.h ****  */
  24:Drivers/CMSIS/Include/cmsis_gcc.h **** 
  25:Drivers/CMSIS/Include/cmsis_gcc.h **** #ifndef __CMSIS_GCC_H
  26:Drivers/CMSIS/Include/cmsis_gcc.h **** #define __CMSIS_GCC_H
  27:Drivers/CMSIS/Include/cmsis_gcc.h **** 
  28:Drivers/CMSIS/Include/cmsis_gcc.h **** /* ignore some GCC warnings */
  29:Drivers/CMSIS/Include/cmsis_gcc.h **** #pragma GCC diagnostic push
  30:Drivers/CMSIS/Include/cmsis_gcc.h **** #pragma GCC diagnostic ignored "-Wsign-conversion"
  31:Drivers/CMSIS/Include/cmsis_gcc.h **** #pragma GCC diagnostic ignored "-Wconversion"
  32:Drivers/CMSIS/Include/cmsis_gcc.h **** #pragma GCC diagnostic ignored "-Wunused-parameter"
  33:Drivers/CMSIS/Include/cmsis_gcc.h **** 
  34:Drivers/CMSIS/Include/cmsis_gcc.h **** /* Fallback for __has_builtin */
  35:Drivers/CMSIS/Include/cmsis_gcc.h **** #ifndef __has_builtin
  36:Drivers/CMSIS/Include/cmsis_gcc.h ****   #define __has_builtin(x) (0)
  37:Drivers/CMSIS/Include/cmsis_gcc.h **** #endif
  38:Drivers/CMSIS/Include/cmsis_gcc.h **** 
  39:Drivers/CMSIS/Include/cmsis_gcc.h **** /* CMSIS compiler specific defines */
  40:Drivers/CMSIS/Include/cmsis_gcc.h **** #ifndef   __ASM
  41:Drivers/CMSIS/Include/cmsis_gcc.h ****   #define __ASM                                  __asm
  42:Drivers/CMSIS/Include/cmsis_gcc.h **** #endif
  43:Drivers/CMSIS/Include/cmsis_gcc.h **** #ifndef   __INLINE
  44:Drivers/CMSIS/Include/cmsis_gcc.h ****   #define __INLINE                               inline
  45:Drivers/CMSIS/Include/cmsis_gcc.h **** #endif
  46:Drivers/CMSIS/Include/cmsis_gcc.h **** #ifndef   __STATIC_INLINE
  47:Drivers/CMSIS/Include/cmsis_gcc.h ****   #define __STATIC_INLINE                        static inline
  48:Drivers/CMSIS/Include/cmsis_gcc.h **** #endif
  49:Drivers/CMSIS/Include/cmsis_gcc.h **** #ifndef   __STATIC_FORCEINLINE                 
  50:Drivers/CMSIS/Include/cmsis_gcc.h ****   #define __STATIC_FORCEINLINE                   __attribute__((always_inline)) static inline
  51:Drivers/CMSIS/Include/cmsis_gcc.h **** #endif                                           
  52:Drivers/CMSIS/Include/cmsis_gcc.h **** #ifndef   __NO_RETURN
  53:Drivers/CMSIS/Include/cmsis_gcc.h ****   #define __NO_RETURN                            __attribute__((__noreturn__))
  54:Drivers/CMSIS/Include/cmsis_gcc.h **** #endif
  55:Drivers/CMSIS/Include/cmsis_gcc.h **** #ifndef   __USED
  56:Drivers/CMSIS/Include/cmsis_gcc.h ****   #define __USED                                 __attribute__((used))
  57:Drivers/CMSIS/Include/cmsis_gcc.h **** #endif
  58:Drivers/CMSIS/Include/cmsis_gcc.h **** #ifndef   __WEAK
  59:Drivers/CMSIS/Include/cmsis_gcc.h ****   #define __WEAK                                 __attribute__((weak))
  60:Drivers/CMSIS/Include/cmsis_gcc.h **** #endif
  61:Drivers/CMSIS/Include/cmsis_gcc.h **** #ifndef   __PACKED
  62:Drivers/CMSIS/Include/cmsis_gcc.h ****   #define __PACKED                               __attribute__((packed, aligned(1)))
  63:Drivers/CMSIS/Include/cmsis_gcc.h **** #endif
  64:Drivers/CMSIS/Include/cmsis_gcc.h **** #ifndef   __PACKED_STRUCT
  65:Drivers/CMSIS/Include/cmsis_gcc.h ****   #define __PACKED_STRUCT                        struct __attribute__((packed, aligned(1)))
  66:Drivers/CMSIS/Include/cmsis_gcc.h **** #endif
  67:Drivers/CMSIS/Include/cmsis_gcc.h **** #ifndef   __PACKED_UNION
  68:Drivers/CMSIS/Include/cmsis_gcc.h ****   #define __PACKED_UNION                         union __attribute__((packed, aligned(1)))
  69:Drivers/CMSIS/Include/cmsis_gcc.h **** #endif
  70:Drivers/CMSIS/Include/cmsis_gcc.h **** #ifndef   __UNALIGNED_UINT32        /* deprecated */
  71:Drivers/CMSIS/Include/cmsis_gcc.h ****   #pragma GCC diagnostic push
ARM GAS  /tmp/ccFqkhxP.s 			page 43


  72:Drivers/CMSIS/Include/cmsis_gcc.h ****   #pragma GCC diagnostic ignored "-Wpacked"
  73:Drivers/CMSIS/Include/cmsis_gcc.h ****   #pragma GCC diagnostic ignored "-Wattributes"
  74:Drivers/CMSIS/Include/cmsis_gcc.h ****   struct __attribute__((packed)) T_UINT32 { uint32_t v; };
  75:Drivers/CMSIS/Include/cmsis_gcc.h ****   #pragma GCC diagnostic pop
  76:Drivers/CMSIS/Include/cmsis_gcc.h ****   #define __UNALIGNED_UINT32(x)                  (((struct T_UINT32 *)(x))->v)
  77:Drivers/CMSIS/Include/cmsis_gcc.h **** #endif
  78:Drivers/CMSIS/Include/cmsis_gcc.h **** #ifndef   __UNALIGNED_UINT16_WRITE
  79:Drivers/CMSIS/Include/cmsis_gcc.h ****   #pragma GCC diagnostic push
  80:Drivers/CMSIS/Include/cmsis_gcc.h ****   #pragma GCC diagnostic ignored "-Wpacked"
  81:Drivers/CMSIS/Include/cmsis_gcc.h ****   #pragma GCC diagnostic ignored "-Wattributes"
  82:Drivers/CMSIS/Include/cmsis_gcc.h ****   __PACKED_STRUCT T_UINT16_WRITE { uint16_t v; };
  83:Drivers/CMSIS/Include/cmsis_gcc.h ****   #pragma GCC diagnostic pop
  84:Drivers/CMSIS/Include/cmsis_gcc.h ****   #define __UNALIGNED_UINT16_WRITE(addr, val)    (void)((((struct T_UINT16_WRITE *)(void *)(addr))-
  85:Drivers/CMSIS/Include/cmsis_gcc.h **** #endif
  86:Drivers/CMSIS/Include/cmsis_gcc.h **** #ifndef   __UNALIGNED_UINT16_READ
  87:Drivers/CMSIS/Include/cmsis_gcc.h ****   #pragma GCC diagnostic push
  88:Drivers/CMSIS/Include/cmsis_gcc.h ****   #pragma GCC diagnostic ignored "-Wpacked"
  89:Drivers/CMSIS/Include/cmsis_gcc.h ****   #pragma GCC diagnostic ignored "-Wattributes"
  90:Drivers/CMSIS/Include/cmsis_gcc.h ****   __PACKED_STRUCT T_UINT16_READ { uint16_t v; };
  91:Drivers/CMSIS/Include/cmsis_gcc.h ****   #pragma GCC diagnostic pop
  92:Drivers/CMSIS/Include/cmsis_gcc.h ****   #define __UNALIGNED_UINT16_READ(addr)          (((const struct T_UINT16_READ *)(const void *)(add
  93:Drivers/CMSIS/Include/cmsis_gcc.h **** #endif
  94:Drivers/CMSIS/Include/cmsis_gcc.h **** #ifndef   __UNALIGNED_UINT32_WRITE
  95:Drivers/CMSIS/Include/cmsis_gcc.h ****   #pragma GCC diagnostic push
  96:Drivers/CMSIS/Include/cmsis_gcc.h ****   #pragma GCC diagnostic ignored "-Wpacked"
  97:Drivers/CMSIS/Include/cmsis_gcc.h ****   #pragma GCC diagnostic ignored "-Wattributes"
  98:Drivers/CMSIS/Include/cmsis_gcc.h ****   __PACKED_STRUCT T_UINT32_WRITE { uint32_t v; };
  99:Drivers/CMSIS/Include/cmsis_gcc.h ****   #pragma GCC diagnostic pop
 100:Drivers/CMSIS/Include/cmsis_gcc.h ****   #define __UNALIGNED_UINT32_WRITE(addr, val)    (void)((((struct T_UINT32_WRITE *)(void *)(addr))-
 101:Drivers/CMSIS/Include/cmsis_gcc.h **** #endif
 102:Drivers/CMSIS/Include/cmsis_gcc.h **** #ifndef   __UNALIGNED_UINT32_READ
 103:Drivers/CMSIS/Include/cmsis_gcc.h ****   #pragma GCC diagnostic push
 104:Drivers/CMSIS/Include/cmsis_gcc.h ****   #pragma GCC diagnostic ignored "-Wpacked"
 105:Drivers/CMSIS/Include/cmsis_gcc.h ****   #pragma GCC diagnostic ignored "-Wattributes"
 106:Drivers/CMSIS/Include/cmsis_gcc.h ****   __PACKED_STRUCT T_UINT32_READ { uint32_t v; };
 107:Drivers/CMSIS/Include/cmsis_gcc.h ****   #pragma GCC diagnostic pop
 108:Drivers/CMSIS/Include/cmsis_gcc.h ****   #define __UNALIGNED_UINT32_READ(addr)          (((const struct T_UINT32_READ *)(const void *)(add
 109:Drivers/CMSIS/Include/cmsis_gcc.h **** #endif
 110:Drivers/CMSIS/Include/cmsis_gcc.h **** #ifndef   __ALIGNED
 111:Drivers/CMSIS/Include/cmsis_gcc.h ****   #define __ALIGNED(x)                           __attribute__((aligned(x)))
 112:Drivers/CMSIS/Include/cmsis_gcc.h **** #endif
 113:Drivers/CMSIS/Include/cmsis_gcc.h **** #ifndef   __RESTRICT
 114:Drivers/CMSIS/Include/cmsis_gcc.h ****   #define __RESTRICT                             __restrict
 115:Drivers/CMSIS/Include/cmsis_gcc.h **** #endif
 116:Drivers/CMSIS/Include/cmsis_gcc.h **** 
 117:Drivers/CMSIS/Include/cmsis_gcc.h **** 
 118:Drivers/CMSIS/Include/cmsis_gcc.h **** /* ###########################  Core Function Access  ########################### */
 119:Drivers/CMSIS/Include/cmsis_gcc.h **** /** \ingroup  CMSIS_Core_FunctionInterface
 120:Drivers/CMSIS/Include/cmsis_gcc.h ****     \defgroup CMSIS_Core_RegAccFunctions CMSIS Core Register Access Functions
 121:Drivers/CMSIS/Include/cmsis_gcc.h ****   @{
 122:Drivers/CMSIS/Include/cmsis_gcc.h ****  */
 123:Drivers/CMSIS/Include/cmsis_gcc.h **** 
 124:Drivers/CMSIS/Include/cmsis_gcc.h **** /**
 125:Drivers/CMSIS/Include/cmsis_gcc.h ****   \brief   Enable IRQ Interrupts
 126:Drivers/CMSIS/Include/cmsis_gcc.h ****   \details Enables IRQ interrupts by clearing the I-bit in the CPSR.
 127:Drivers/CMSIS/Include/cmsis_gcc.h ****            Can only be executed in Privileged modes.
 128:Drivers/CMSIS/Include/cmsis_gcc.h ****  */
ARM GAS  /tmp/ccFqkhxP.s 			page 44


 129:Drivers/CMSIS/Include/cmsis_gcc.h **** __STATIC_FORCEINLINE void __enable_irq(void)
 130:Drivers/CMSIS/Include/cmsis_gcc.h **** {
 131:Drivers/CMSIS/Include/cmsis_gcc.h ****   __ASM volatile ("cpsie i" : : : "memory");
 132:Drivers/CMSIS/Include/cmsis_gcc.h **** }
 133:Drivers/CMSIS/Include/cmsis_gcc.h **** 
 134:Drivers/CMSIS/Include/cmsis_gcc.h **** 
 135:Drivers/CMSIS/Include/cmsis_gcc.h **** /**
 136:Drivers/CMSIS/Include/cmsis_gcc.h ****   \brief   Disable IRQ Interrupts
 137:Drivers/CMSIS/Include/cmsis_gcc.h ****   \details Disables IRQ interrupts by setting the I-bit in the CPSR.
 138:Drivers/CMSIS/Include/cmsis_gcc.h ****            Can only be executed in Privileged modes.
 139:Drivers/CMSIS/Include/cmsis_gcc.h ****  */
 140:Drivers/CMSIS/Include/cmsis_gcc.h **** __STATIC_FORCEINLINE void __disable_irq(void)
 141:Drivers/CMSIS/Include/cmsis_gcc.h **** {
 142:Drivers/CMSIS/Include/cmsis_gcc.h ****   __ASM volatile ("cpsid i" : : : "memory");
 1107              		.loc 2 142 3
 1108              		.syntax unified
 1109              	@ 142 "Drivers/CMSIS/Include/cmsis_gcc.h" 1
 1110 011a 72B6     		cpsid i
 1111              	@ 0 "" 2
 143:Drivers/CMSIS/Include/cmsis_gcc.h **** }
 1112              		.loc 2 143 1
 1113              		.thumb
 1114              		.syntax unified
 1115 011c 00BF     		nop
 1116              	.LBE49:
 1117              	.LBE48:
 1118              	.LBB50:
1227:Drivers/STM32F1xx_HAL_Driver/Src/stm32f1xx_hal_i2c.c **** 
1228:Drivers/STM32F1xx_HAL_Driver/Src/stm32f1xx_hal_i2c.c ****       /* Disable all active IRQs around ADDR clearing and STOP programming because the EV6_3
1229:Drivers/STM32F1xx_HAL_Driver/Src/stm32f1xx_hal_i2c.c ****       software sequence must complete before the current byte end of transfer */
1230:Drivers/STM32F1xx_HAL_Driver/Src/stm32f1xx_hal_i2c.c ****       __disable_irq();
1231:Drivers/STM32F1xx_HAL_Driver/Src/stm32f1xx_hal_i2c.c **** 
1232:Drivers/STM32F1xx_HAL_Driver/Src/stm32f1xx_hal_i2c.c ****       /* Clear ADDR flag */
1233:Drivers/STM32F1xx_HAL_Driver/Src/stm32f1xx_hal_i2c.c ****       __HAL_I2C_CLEAR_ADDRFLAG(hi2c);
 1119              		.loc 1 1233 7
 1120 011e 0023     		movs	r3, #0
 1121 0120 BB61     		str	r3, [r7, #24]
 1122 0122 FB68     		ldr	r3, [r7, #12]
 1123 0124 1B68     		ldr	r3, [r3]
 1124 0126 5B69     		ldr	r3, [r3, #20]
 1125 0128 BB61     		str	r3, [r7, #24]
 1126 012a FB68     		ldr	r3, [r7, #12]
 1127 012c 1B68     		ldr	r3, [r3]
 1128 012e 9B69     		ldr	r3, [r3, #24]
 1129 0130 BB61     		str	r3, [r7, #24]
 1130 0132 BB69     		ldr	r3, [r7, #24]
 1131              	.LBE50:
1234:Drivers/STM32F1xx_HAL_Driver/Src/stm32f1xx_hal_i2c.c **** 
1235:Drivers/STM32F1xx_HAL_Driver/Src/stm32f1xx_hal_i2c.c ****       /* Generate Stop */
1236:Drivers/STM32F1xx_HAL_Driver/Src/stm32f1xx_hal_i2c.c ****       SET_BIT(hi2c->Instance->CR1, I2C_CR1_STOP);
 1132              		.loc 1 1236 7
 1133 0134 FB68     		ldr	r3, [r7, #12]
 1134 0136 1B68     		ldr	r3, [r3]
 1135 0138 1A68     		ldr	r2, [r3]
 1136 013a FB68     		ldr	r3, [r7, #12]
 1137 013c 1B68     		ldr	r3, [r3]
 1138 013e 42F40072 		orr	r2, r2, #512
ARM GAS  /tmp/ccFqkhxP.s 			page 45


 1139 0142 1A60     		str	r2, [r3]
 1140              	.LBB51:
 1141              	.LBB52:
 131:Drivers/CMSIS/Include/cmsis_gcc.h **** }
 1142              		.loc 2 131 3
 1143              		.syntax unified
 1144              	@ 131 "Drivers/CMSIS/Include/cmsis_gcc.h" 1
 1145 0144 62B6     		cpsie i
 1146              	@ 0 "" 2
 132:Drivers/CMSIS/Include/cmsis_gcc.h **** 
 1147              		.loc 2 132 1
 1148              		.thumb
 1149              		.syntax unified
 1150 0146 35E0     		b	.L50
 1151              	.L51:
 1152              	.LBE52:
 1153              	.LBE51:
1237:Drivers/STM32F1xx_HAL_Driver/Src/stm32f1xx_hal_i2c.c **** 
1238:Drivers/STM32F1xx_HAL_Driver/Src/stm32f1xx_hal_i2c.c ****       /* Re-enable IRQs */
1239:Drivers/STM32F1xx_HAL_Driver/Src/stm32f1xx_hal_i2c.c ****       __enable_irq();
1240:Drivers/STM32F1xx_HAL_Driver/Src/stm32f1xx_hal_i2c.c ****     }
1241:Drivers/STM32F1xx_HAL_Driver/Src/stm32f1xx_hal_i2c.c ****     else if (hi2c->XferSize == 2U)
 1154              		.loc 1 1241 18
 1155 0148 FB68     		ldr	r3, [r7, #12]
 1156 014a 1B8D     		ldrh	r3, [r3, #40]
 1157              		.loc 1 1241 13
 1158 014c 022B     		cmp	r3, #2
 1159 014e 1ED1     		bne	.L52
1242:Drivers/STM32F1xx_HAL_Driver/Src/stm32f1xx_hal_i2c.c ****     {
1243:Drivers/STM32F1xx_HAL_Driver/Src/stm32f1xx_hal_i2c.c ****       /* Enable Pos */
1244:Drivers/STM32F1xx_HAL_Driver/Src/stm32f1xx_hal_i2c.c ****       SET_BIT(hi2c->Instance->CR1, I2C_CR1_POS);
 1160              		.loc 1 1244 7
 1161 0150 FB68     		ldr	r3, [r7, #12]
 1162 0152 1B68     		ldr	r3, [r3]
 1163 0154 1A68     		ldr	r2, [r3]
 1164 0156 FB68     		ldr	r3, [r7, #12]
 1165 0158 1B68     		ldr	r3, [r3]
 1166 015a 42F40062 		orr	r2, r2, #2048
 1167 015e 1A60     		str	r2, [r3]
 1168              	.LBB53:
 1169              	.LBB54:
 142:Drivers/CMSIS/Include/cmsis_gcc.h **** }
 1170              		.loc 2 142 3
 1171              		.syntax unified
 1172              	@ 142 "Drivers/CMSIS/Include/cmsis_gcc.h" 1
 1173 0160 72B6     		cpsid i
 1174              	@ 0 "" 2
 1175              		.loc 2 143 1
 1176              		.thumb
 1177              		.syntax unified
 1178 0162 00BF     		nop
 1179              	.LBE54:
 1180              	.LBE53:
 1181              	.LBB55:
1245:Drivers/STM32F1xx_HAL_Driver/Src/stm32f1xx_hal_i2c.c **** 
1246:Drivers/STM32F1xx_HAL_Driver/Src/stm32f1xx_hal_i2c.c ****       /* Disable all active IRQs around ADDR clearing and STOP programming because the EV6_3
1247:Drivers/STM32F1xx_HAL_Driver/Src/stm32f1xx_hal_i2c.c ****       software sequence must complete before the current byte end of transfer */
ARM GAS  /tmp/ccFqkhxP.s 			page 46


1248:Drivers/STM32F1xx_HAL_Driver/Src/stm32f1xx_hal_i2c.c ****       __disable_irq();
1249:Drivers/STM32F1xx_HAL_Driver/Src/stm32f1xx_hal_i2c.c **** 
1250:Drivers/STM32F1xx_HAL_Driver/Src/stm32f1xx_hal_i2c.c ****       /* Clear ADDR flag */
1251:Drivers/STM32F1xx_HAL_Driver/Src/stm32f1xx_hal_i2c.c ****       __HAL_I2C_CLEAR_ADDRFLAG(hi2c);
 1182              		.loc 1 1251 7
 1183 0164 0023     		movs	r3, #0
 1184 0166 7B61     		str	r3, [r7, #20]
 1185 0168 FB68     		ldr	r3, [r7, #12]
 1186 016a 1B68     		ldr	r3, [r3]
 1187 016c 5B69     		ldr	r3, [r3, #20]
 1188 016e 7B61     		str	r3, [r7, #20]
 1189 0170 FB68     		ldr	r3, [r7, #12]
 1190 0172 1B68     		ldr	r3, [r3]
 1191 0174 9B69     		ldr	r3, [r3, #24]
 1192 0176 7B61     		str	r3, [r7, #20]
 1193 0178 7B69     		ldr	r3, [r7, #20]
 1194              	.LBE55:
1252:Drivers/STM32F1xx_HAL_Driver/Src/stm32f1xx_hal_i2c.c **** 
1253:Drivers/STM32F1xx_HAL_Driver/Src/stm32f1xx_hal_i2c.c ****       /* Disable Acknowledge */
1254:Drivers/STM32F1xx_HAL_Driver/Src/stm32f1xx_hal_i2c.c ****       CLEAR_BIT(hi2c->Instance->CR1, I2C_CR1_ACK);
 1195              		.loc 1 1254 7
 1196 017a FB68     		ldr	r3, [r7, #12]
 1197 017c 1B68     		ldr	r3, [r3]
 1198 017e 1A68     		ldr	r2, [r3]
 1199 0180 FB68     		ldr	r3, [r7, #12]
 1200 0182 1B68     		ldr	r3, [r3]
 1201 0184 22F48062 		bic	r2, r2, #1024
 1202 0188 1A60     		str	r2, [r3]
 1203              	.LBB56:
 1204              	.LBB57:
 131:Drivers/CMSIS/Include/cmsis_gcc.h **** }
 1205              		.loc 2 131 3
 1206              		.syntax unified
 1207              	@ 131 "Drivers/CMSIS/Include/cmsis_gcc.h" 1
 1208 018a 62B6     		cpsie i
 1209              	@ 0 "" 2
 132:Drivers/CMSIS/Include/cmsis_gcc.h **** 
 1210              		.loc 2 132 1
 1211              		.thumb
 1212              		.syntax unified
 1213 018c 12E0     		b	.L50
 1214              	.L52:
 1215              	.LBE57:
 1216              	.LBE56:
1255:Drivers/STM32F1xx_HAL_Driver/Src/stm32f1xx_hal_i2c.c **** 
1256:Drivers/STM32F1xx_HAL_Driver/Src/stm32f1xx_hal_i2c.c ****       /* Re-enable IRQs */
1257:Drivers/STM32F1xx_HAL_Driver/Src/stm32f1xx_hal_i2c.c ****       __enable_irq();
1258:Drivers/STM32F1xx_HAL_Driver/Src/stm32f1xx_hal_i2c.c ****     }
1259:Drivers/STM32F1xx_HAL_Driver/Src/stm32f1xx_hal_i2c.c ****     else
1260:Drivers/STM32F1xx_HAL_Driver/Src/stm32f1xx_hal_i2c.c ****     {
1261:Drivers/STM32F1xx_HAL_Driver/Src/stm32f1xx_hal_i2c.c ****       /* Enable Acknowledge */
1262:Drivers/STM32F1xx_HAL_Driver/Src/stm32f1xx_hal_i2c.c ****       SET_BIT(hi2c->Instance->CR1, I2C_CR1_ACK);
 1217              		.loc 1 1262 7
 1218 018e FB68     		ldr	r3, [r7, #12]
 1219 0190 1B68     		ldr	r3, [r3]
 1220 0192 1A68     		ldr	r2, [r3]
 1221 0194 FB68     		ldr	r3, [r7, #12]
ARM GAS  /tmp/ccFqkhxP.s 			page 47


 1222 0196 1B68     		ldr	r3, [r3]
 1223 0198 42F48062 		orr	r2, r2, #1024
 1224 019c 1A60     		str	r2, [r3]
 1225              	.LBB58:
1263:Drivers/STM32F1xx_HAL_Driver/Src/stm32f1xx_hal_i2c.c **** 
1264:Drivers/STM32F1xx_HAL_Driver/Src/stm32f1xx_hal_i2c.c ****       /* Clear ADDR flag */
1265:Drivers/STM32F1xx_HAL_Driver/Src/stm32f1xx_hal_i2c.c ****       __HAL_I2C_CLEAR_ADDRFLAG(hi2c);
 1226              		.loc 1 1265 7
 1227 019e 0023     		movs	r3, #0
 1228 01a0 3B61     		str	r3, [r7, #16]
 1229 01a2 FB68     		ldr	r3, [r7, #12]
 1230 01a4 1B68     		ldr	r3, [r3]
 1231 01a6 5B69     		ldr	r3, [r3, #20]
 1232 01a8 3B61     		str	r3, [r7, #16]
 1233 01aa FB68     		ldr	r3, [r7, #12]
 1234 01ac 1B68     		ldr	r3, [r3]
 1235 01ae 9B69     		ldr	r3, [r3, #24]
 1236 01b0 3B61     		str	r3, [r7, #16]
 1237 01b2 3B69     		ldr	r3, [r7, #16]
 1238              	.L50:
 1239              	.LBE58:
1266:Drivers/STM32F1xx_HAL_Driver/Src/stm32f1xx_hal_i2c.c ****     }
1267:Drivers/STM32F1xx_HAL_Driver/Src/stm32f1xx_hal_i2c.c **** 
1268:Drivers/STM32F1xx_HAL_Driver/Src/stm32f1xx_hal_i2c.c ****     while (hi2c->XferSize > 0U)
 1240              		.loc 1 1268 11
 1241 01b4 66E1     		b	.L53
 1242              	.L63:
1269:Drivers/STM32F1xx_HAL_Driver/Src/stm32f1xx_hal_i2c.c ****     {
1270:Drivers/STM32F1xx_HAL_Driver/Src/stm32f1xx_hal_i2c.c ****       if (hi2c->XferSize <= 3U)
 1243              		.loc 1 1270 15
 1244 01b6 FB68     		ldr	r3, [r7, #12]
 1245 01b8 1B8D     		ldrh	r3, [r3, #40]
 1246              		.loc 1 1270 10
 1247 01ba 032B     		cmp	r3, #3
 1248 01bc 00F21F81 		bhi	.L54
1271:Drivers/STM32F1xx_HAL_Driver/Src/stm32f1xx_hal_i2c.c ****       {
1272:Drivers/STM32F1xx_HAL_Driver/Src/stm32f1xx_hal_i2c.c ****         /* One byte */
1273:Drivers/STM32F1xx_HAL_Driver/Src/stm32f1xx_hal_i2c.c ****         if (hi2c->XferSize == 1U)
 1249              		.loc 1 1273 17
 1250 01c0 FB68     		ldr	r3, [r7, #12]
 1251 01c2 1B8D     		ldrh	r3, [r3, #40]
 1252              		.loc 1 1273 12
 1253 01c4 012B     		cmp	r3, #1
 1254 01c6 23D1     		bne	.L55
1274:Drivers/STM32F1xx_HAL_Driver/Src/stm32f1xx_hal_i2c.c ****         {
1275:Drivers/STM32F1xx_HAL_Driver/Src/stm32f1xx_hal_i2c.c ****           /* Wait until RXNE flag is set */
1276:Drivers/STM32F1xx_HAL_Driver/Src/stm32f1xx_hal_i2c.c ****           if (I2C_WaitOnRXNEFlagUntilTimeout(hi2c, Timeout, tickstart) != HAL_OK)
 1255              		.loc 1 1276 15
 1256 01c8 7A6A     		ldr	r2, [r7, #36]
 1257 01ca 396B     		ldr	r1, [r7, #48]
 1258 01cc F868     		ldr	r0, [r7, #12]
 1259 01ce FFF7FEFF 		bl	I2C_WaitOnRXNEFlagUntilTimeout
 1260 01d2 0346     		mov	r3, r0
 1261              		.loc 1 1276 14
 1262 01d4 002B     		cmp	r3, #0
 1263 01d6 01D0     		beq	.L56
1277:Drivers/STM32F1xx_HAL_Driver/Src/stm32f1xx_hal_i2c.c ****           {
ARM GAS  /tmp/ccFqkhxP.s 			page 48


1278:Drivers/STM32F1xx_HAL_Driver/Src/stm32f1xx_hal_i2c.c ****             return HAL_ERROR;
 1264              		.loc 1 1278 20
 1265 01d8 0123     		movs	r3, #1
 1266 01da 67E1     		b	.L45
 1267              	.L56:
1279:Drivers/STM32F1xx_HAL_Driver/Src/stm32f1xx_hal_i2c.c ****           }
1280:Drivers/STM32F1xx_HAL_Driver/Src/stm32f1xx_hal_i2c.c **** 
1281:Drivers/STM32F1xx_HAL_Driver/Src/stm32f1xx_hal_i2c.c ****           /* Read data from DR */
1282:Drivers/STM32F1xx_HAL_Driver/Src/stm32f1xx_hal_i2c.c ****           *hi2c->pBuffPtr = (uint8_t)hi2c->Instance->DR;
 1268              		.loc 1 1282 42
 1269 01dc FB68     		ldr	r3, [r7, #12]
 1270 01de 1B68     		ldr	r3, [r3]
 1271              		.loc 1 1282 52
 1272 01e0 1A69     		ldr	r2, [r3, #16]
 1273              		.loc 1 1282 16
 1274 01e2 FB68     		ldr	r3, [r7, #12]
 1275 01e4 5B6A     		ldr	r3, [r3, #36]
 1276              		.loc 1 1282 29
 1277 01e6 D2B2     		uxtb	r2, r2
 1278              		.loc 1 1282 27
 1279 01e8 1A70     		strb	r2, [r3]
1283:Drivers/STM32F1xx_HAL_Driver/Src/stm32f1xx_hal_i2c.c **** 
1284:Drivers/STM32F1xx_HAL_Driver/Src/stm32f1xx_hal_i2c.c ****           /* Increment Buffer pointer */
1285:Drivers/STM32F1xx_HAL_Driver/Src/stm32f1xx_hal_i2c.c ****           hi2c->pBuffPtr++;
 1280              		.loc 1 1285 15
 1281 01ea FB68     		ldr	r3, [r7, #12]
 1282 01ec 5B6A     		ldr	r3, [r3, #36]
 1283              		.loc 1 1285 25
 1284 01ee 5A1C     		adds	r2, r3, #1
 1285 01f0 FB68     		ldr	r3, [r7, #12]
 1286 01f2 5A62     		str	r2, [r3, #36]
1286:Drivers/STM32F1xx_HAL_Driver/Src/stm32f1xx_hal_i2c.c **** 
1287:Drivers/STM32F1xx_HAL_Driver/Src/stm32f1xx_hal_i2c.c ****           /* Update counter */
1288:Drivers/STM32F1xx_HAL_Driver/Src/stm32f1xx_hal_i2c.c ****           hi2c->XferSize--;
 1287              		.loc 1 1288 15
 1288 01f4 FB68     		ldr	r3, [r7, #12]
 1289 01f6 1B8D     		ldrh	r3, [r3, #40]
 1290              		.loc 1 1288 25
 1291 01f8 013B     		subs	r3, r3, #1
 1292 01fa 9AB2     		uxth	r2, r3
 1293 01fc FB68     		ldr	r3, [r7, #12]
 1294 01fe 1A85     		strh	r2, [r3, #40]	@ movhi
1289:Drivers/STM32F1xx_HAL_Driver/Src/stm32f1xx_hal_i2c.c ****           hi2c->XferCount--;
 1295              		.loc 1 1289 15
 1296 0200 FB68     		ldr	r3, [r7, #12]
 1297 0202 5B8D     		ldrh	r3, [r3, #42]	@ movhi
 1298 0204 9BB2     		uxth	r3, r3
 1299              		.loc 1 1289 26
 1300 0206 013B     		subs	r3, r3, #1
 1301 0208 9AB2     		uxth	r2, r3
 1302 020a FB68     		ldr	r3, [r7, #12]
 1303 020c 5A85     		strh	r2, [r3, #42]	@ movhi
 1304 020e 39E1     		b	.L53
 1305              	.L55:
1290:Drivers/STM32F1xx_HAL_Driver/Src/stm32f1xx_hal_i2c.c ****         }
1291:Drivers/STM32F1xx_HAL_Driver/Src/stm32f1xx_hal_i2c.c ****         /* Two bytes */
1292:Drivers/STM32F1xx_HAL_Driver/Src/stm32f1xx_hal_i2c.c ****         else if (hi2c->XferSize == 2U)
ARM GAS  /tmp/ccFqkhxP.s 			page 49


 1306              		.loc 1 1292 22
 1307 0210 FB68     		ldr	r3, [r7, #12]
 1308 0212 1B8D     		ldrh	r3, [r3, #40]
 1309              		.loc 1 1292 17
 1310 0214 022B     		cmp	r3, #2
 1311 0216 52D1     		bne	.L57
1293:Drivers/STM32F1xx_HAL_Driver/Src/stm32f1xx_hal_i2c.c ****         {
1294:Drivers/STM32F1xx_HAL_Driver/Src/stm32f1xx_hal_i2c.c ****           /* Wait until BTF flag is set */
1295:Drivers/STM32F1xx_HAL_Driver/Src/stm32f1xx_hal_i2c.c ****           if (I2C_WaitOnFlagUntilTimeout(hi2c, I2C_FLAG_BTF, RESET, Timeout, tickstart) != HAL_OK)
 1312              		.loc 1 1295 15
 1313 0218 7B6A     		ldr	r3, [r7, #36]
 1314 021a 0093     		str	r3, [sp]
 1315 021c 3B6B     		ldr	r3, [r7, #48]
 1316 021e 0022     		movs	r2, #0
 1317 0220 0649     		ldr	r1, .L64+8
 1318 0222 F868     		ldr	r0, [r7, #12]
 1319 0224 FFF7FEFF 		bl	I2C_WaitOnFlagUntilTimeout
 1320 0228 0346     		mov	r3, r0
 1321              		.loc 1 1295 14
 1322 022a 002B     		cmp	r3, #0
 1323 022c 08D0     		beq	.L58
1296:Drivers/STM32F1xx_HAL_Driver/Src/stm32f1xx_hal_i2c.c ****           {
1297:Drivers/STM32F1xx_HAL_Driver/Src/stm32f1xx_hal_i2c.c ****             return HAL_ERROR;
 1324              		.loc 1 1297 20
 1325 022e 0123     		movs	r3, #1
 1326 0230 3CE1     		b	.L45
 1327              	.L65:
 1328 0232 00BF     		.align	2
 1329              	.L64:
 1330 0234 02001000 		.word	1048578
 1331 0238 0000FFFF 		.word	-65536
 1332 023c 04000100 		.word	65540
 1333              	.L58:
 1334              	.LBB59:
 1335              	.LBB60:
 142:Drivers/CMSIS/Include/cmsis_gcc.h **** }
 1336              		.loc 2 142 3
 1337              		.syntax unified
 1338              	@ 142 "Drivers/CMSIS/Include/cmsis_gcc.h" 1
 1339 0240 72B6     		cpsid i
 1340              	@ 0 "" 2
 1341              		.loc 2 143 1
 1342              		.thumb
 1343              		.syntax unified
 1344 0242 00BF     		nop
 1345              	.LBE60:
 1346              	.LBE59:
1298:Drivers/STM32F1xx_HAL_Driver/Src/stm32f1xx_hal_i2c.c ****           }
1299:Drivers/STM32F1xx_HAL_Driver/Src/stm32f1xx_hal_i2c.c **** 
1300:Drivers/STM32F1xx_HAL_Driver/Src/stm32f1xx_hal_i2c.c ****           /* Disable all active IRQs around ADDR clearing and STOP programming because the EV6_3
1301:Drivers/STM32F1xx_HAL_Driver/Src/stm32f1xx_hal_i2c.c ****              software sequence must complete before the current byte end of transfer */
1302:Drivers/STM32F1xx_HAL_Driver/Src/stm32f1xx_hal_i2c.c ****           __disable_irq();
1303:Drivers/STM32F1xx_HAL_Driver/Src/stm32f1xx_hal_i2c.c **** 
1304:Drivers/STM32F1xx_HAL_Driver/Src/stm32f1xx_hal_i2c.c ****           /* Generate Stop */
1305:Drivers/STM32F1xx_HAL_Driver/Src/stm32f1xx_hal_i2c.c ****           SET_BIT(hi2c->Instance->CR1, I2C_CR1_STOP);
 1347              		.loc 1 1305 11
 1348 0244 FB68     		ldr	r3, [r7, #12]
ARM GAS  /tmp/ccFqkhxP.s 			page 50


 1349 0246 1B68     		ldr	r3, [r3]
 1350 0248 1A68     		ldr	r2, [r3]
 1351 024a FB68     		ldr	r3, [r7, #12]
 1352 024c 1B68     		ldr	r3, [r3]
 1353 024e 42F40072 		orr	r2, r2, #512
 1354 0252 1A60     		str	r2, [r3]
1306:Drivers/STM32F1xx_HAL_Driver/Src/stm32f1xx_hal_i2c.c **** 
1307:Drivers/STM32F1xx_HAL_Driver/Src/stm32f1xx_hal_i2c.c ****           /* Read data from DR */
1308:Drivers/STM32F1xx_HAL_Driver/Src/stm32f1xx_hal_i2c.c ****           *hi2c->pBuffPtr = (uint8_t)hi2c->Instance->DR;
 1355              		.loc 1 1308 42
 1356 0254 FB68     		ldr	r3, [r7, #12]
 1357 0256 1B68     		ldr	r3, [r3]
 1358              		.loc 1 1308 52
 1359 0258 1A69     		ldr	r2, [r3, #16]
 1360              		.loc 1 1308 16
 1361 025a FB68     		ldr	r3, [r7, #12]
 1362 025c 5B6A     		ldr	r3, [r3, #36]
 1363              		.loc 1 1308 29
 1364 025e D2B2     		uxtb	r2, r2
 1365              		.loc 1 1308 27
 1366 0260 1A70     		strb	r2, [r3]
1309:Drivers/STM32F1xx_HAL_Driver/Src/stm32f1xx_hal_i2c.c **** 
1310:Drivers/STM32F1xx_HAL_Driver/Src/stm32f1xx_hal_i2c.c ****           /* Increment Buffer pointer */
1311:Drivers/STM32F1xx_HAL_Driver/Src/stm32f1xx_hal_i2c.c ****           hi2c->pBuffPtr++;
 1367              		.loc 1 1311 15
 1368 0262 FB68     		ldr	r3, [r7, #12]
 1369 0264 5B6A     		ldr	r3, [r3, #36]
 1370              		.loc 1 1311 25
 1371 0266 5A1C     		adds	r2, r3, #1
 1372 0268 FB68     		ldr	r3, [r7, #12]
 1373 026a 5A62     		str	r2, [r3, #36]
1312:Drivers/STM32F1xx_HAL_Driver/Src/stm32f1xx_hal_i2c.c **** 
1313:Drivers/STM32F1xx_HAL_Driver/Src/stm32f1xx_hal_i2c.c ****           /* Update counter */
1314:Drivers/STM32F1xx_HAL_Driver/Src/stm32f1xx_hal_i2c.c ****           hi2c->XferSize--;
 1374              		.loc 1 1314 15
 1375 026c FB68     		ldr	r3, [r7, #12]
 1376 026e 1B8D     		ldrh	r3, [r3, #40]
 1377              		.loc 1 1314 25
 1378 0270 013B     		subs	r3, r3, #1
 1379 0272 9AB2     		uxth	r2, r3
 1380 0274 FB68     		ldr	r3, [r7, #12]
 1381 0276 1A85     		strh	r2, [r3, #40]	@ movhi
1315:Drivers/STM32F1xx_HAL_Driver/Src/stm32f1xx_hal_i2c.c ****           hi2c->XferCount--;
 1382              		.loc 1 1315 15
 1383 0278 FB68     		ldr	r3, [r7, #12]
 1384 027a 5B8D     		ldrh	r3, [r3, #42]	@ movhi
 1385 027c 9BB2     		uxth	r3, r3
 1386              		.loc 1 1315 26
 1387 027e 013B     		subs	r3, r3, #1
 1388 0280 9AB2     		uxth	r2, r3
 1389 0282 FB68     		ldr	r3, [r7, #12]
 1390 0284 5A85     		strh	r2, [r3, #42]	@ movhi
 1391              	.LBB61:
 1392              	.LBB62:
 131:Drivers/CMSIS/Include/cmsis_gcc.h **** }
 1393              		.loc 2 131 3
 1394              		.syntax unified
ARM GAS  /tmp/ccFqkhxP.s 			page 51


 1395              	@ 131 "Drivers/CMSIS/Include/cmsis_gcc.h" 1
 1396 0286 62B6     		cpsie i
 1397              	@ 0 "" 2
 132:Drivers/CMSIS/Include/cmsis_gcc.h **** 
 1398              		.loc 2 132 1
 1399              		.thumb
 1400              		.syntax unified
 1401 0288 00BF     		nop
 1402              	.LBE62:
 1403              	.LBE61:
1316:Drivers/STM32F1xx_HAL_Driver/Src/stm32f1xx_hal_i2c.c **** 
1317:Drivers/STM32F1xx_HAL_Driver/Src/stm32f1xx_hal_i2c.c ****           /* Re-enable IRQs */
1318:Drivers/STM32F1xx_HAL_Driver/Src/stm32f1xx_hal_i2c.c ****           __enable_irq();
1319:Drivers/STM32F1xx_HAL_Driver/Src/stm32f1xx_hal_i2c.c **** 
1320:Drivers/STM32F1xx_HAL_Driver/Src/stm32f1xx_hal_i2c.c ****           /* Read data from DR */
1321:Drivers/STM32F1xx_HAL_Driver/Src/stm32f1xx_hal_i2c.c ****           *hi2c->pBuffPtr = (uint8_t)hi2c->Instance->DR;
 1404              		.loc 1 1321 42
 1405 028a FB68     		ldr	r3, [r7, #12]
 1406 028c 1B68     		ldr	r3, [r3]
 1407              		.loc 1 1321 52
 1408 028e 1A69     		ldr	r2, [r3, #16]
 1409              		.loc 1 1321 16
 1410 0290 FB68     		ldr	r3, [r7, #12]
 1411 0292 5B6A     		ldr	r3, [r3, #36]
 1412              		.loc 1 1321 29
 1413 0294 D2B2     		uxtb	r2, r2
 1414              		.loc 1 1321 27
 1415 0296 1A70     		strb	r2, [r3]
1322:Drivers/STM32F1xx_HAL_Driver/Src/stm32f1xx_hal_i2c.c **** 
1323:Drivers/STM32F1xx_HAL_Driver/Src/stm32f1xx_hal_i2c.c ****           /* Increment Buffer pointer */
1324:Drivers/STM32F1xx_HAL_Driver/Src/stm32f1xx_hal_i2c.c ****           hi2c->pBuffPtr++;
 1416              		.loc 1 1324 15
 1417 0298 FB68     		ldr	r3, [r7, #12]
 1418 029a 5B6A     		ldr	r3, [r3, #36]
 1419              		.loc 1 1324 25
 1420 029c 5A1C     		adds	r2, r3, #1
 1421 029e FB68     		ldr	r3, [r7, #12]
 1422 02a0 5A62     		str	r2, [r3, #36]
1325:Drivers/STM32F1xx_HAL_Driver/Src/stm32f1xx_hal_i2c.c **** 
1326:Drivers/STM32F1xx_HAL_Driver/Src/stm32f1xx_hal_i2c.c ****           /* Update counter */
1327:Drivers/STM32F1xx_HAL_Driver/Src/stm32f1xx_hal_i2c.c ****           hi2c->XferSize--;
 1423              		.loc 1 1327 15
 1424 02a2 FB68     		ldr	r3, [r7, #12]
 1425 02a4 1B8D     		ldrh	r3, [r3, #40]
 1426              		.loc 1 1327 25
 1427 02a6 013B     		subs	r3, r3, #1
 1428 02a8 9AB2     		uxth	r2, r3
 1429 02aa FB68     		ldr	r3, [r7, #12]
 1430 02ac 1A85     		strh	r2, [r3, #40]	@ movhi
1328:Drivers/STM32F1xx_HAL_Driver/Src/stm32f1xx_hal_i2c.c ****           hi2c->XferCount--;
 1431              		.loc 1 1328 15
 1432 02ae FB68     		ldr	r3, [r7, #12]
 1433 02b0 5B8D     		ldrh	r3, [r3, #42]	@ movhi
 1434 02b2 9BB2     		uxth	r3, r3
 1435              		.loc 1 1328 26
 1436 02b4 013B     		subs	r3, r3, #1
 1437 02b6 9AB2     		uxth	r2, r3
ARM GAS  /tmp/ccFqkhxP.s 			page 52


 1438 02b8 FB68     		ldr	r3, [r7, #12]
 1439 02ba 5A85     		strh	r2, [r3, #42]	@ movhi
 1440 02bc E2E0     		b	.L53
 1441              	.L57:
1329:Drivers/STM32F1xx_HAL_Driver/Src/stm32f1xx_hal_i2c.c ****         }
1330:Drivers/STM32F1xx_HAL_Driver/Src/stm32f1xx_hal_i2c.c ****         /* 3 Last bytes */
1331:Drivers/STM32F1xx_HAL_Driver/Src/stm32f1xx_hal_i2c.c ****         else
1332:Drivers/STM32F1xx_HAL_Driver/Src/stm32f1xx_hal_i2c.c ****         {
1333:Drivers/STM32F1xx_HAL_Driver/Src/stm32f1xx_hal_i2c.c ****           /* Wait until BTF flag is set */
1334:Drivers/STM32F1xx_HAL_Driver/Src/stm32f1xx_hal_i2c.c ****           if (I2C_WaitOnFlagUntilTimeout(hi2c, I2C_FLAG_BTF, RESET, Timeout, tickstart) != HAL_OK)
 1442              		.loc 1 1334 15
 1443 02be 7B6A     		ldr	r3, [r7, #36]
 1444 02c0 0093     		str	r3, [sp]
 1445 02c2 3B6B     		ldr	r3, [r7, #48]
 1446 02c4 0022     		movs	r2, #0
 1447 02c6 7B49     		ldr	r1, .L66
 1448 02c8 F868     		ldr	r0, [r7, #12]
 1449 02ca FFF7FEFF 		bl	I2C_WaitOnFlagUntilTimeout
 1450 02ce 0346     		mov	r3, r0
 1451              		.loc 1 1334 14
 1452 02d0 002B     		cmp	r3, #0
 1453 02d2 01D0     		beq	.L59
1335:Drivers/STM32F1xx_HAL_Driver/Src/stm32f1xx_hal_i2c.c ****           {
1336:Drivers/STM32F1xx_HAL_Driver/Src/stm32f1xx_hal_i2c.c ****             return HAL_ERROR;
 1454              		.loc 1 1336 20
 1455 02d4 0123     		movs	r3, #1
 1456 02d6 E9E0     		b	.L45
 1457              	.L59:
1337:Drivers/STM32F1xx_HAL_Driver/Src/stm32f1xx_hal_i2c.c ****           }
1338:Drivers/STM32F1xx_HAL_Driver/Src/stm32f1xx_hal_i2c.c **** 
1339:Drivers/STM32F1xx_HAL_Driver/Src/stm32f1xx_hal_i2c.c ****           /* Disable Acknowledge */
1340:Drivers/STM32F1xx_HAL_Driver/Src/stm32f1xx_hal_i2c.c ****           CLEAR_BIT(hi2c->Instance->CR1, I2C_CR1_ACK);
 1458              		.loc 1 1340 11
 1459 02d8 FB68     		ldr	r3, [r7, #12]
 1460 02da 1B68     		ldr	r3, [r3]
 1461 02dc 1A68     		ldr	r2, [r3]
 1462 02de FB68     		ldr	r3, [r7, #12]
 1463 02e0 1B68     		ldr	r3, [r3]
 1464 02e2 22F48062 		bic	r2, r2, #1024
 1465 02e6 1A60     		str	r2, [r3]
 1466              	.LBB63:
 1467              	.LBB64:
 142:Drivers/CMSIS/Include/cmsis_gcc.h **** }
 1468              		.loc 2 142 3
 1469              		.syntax unified
 1470              	@ 142 "Drivers/CMSIS/Include/cmsis_gcc.h" 1
 1471 02e8 72B6     		cpsid i
 1472              	@ 0 "" 2
 1473              		.loc 2 143 1
 1474              		.thumb
 1475              		.syntax unified
 1476 02ea 00BF     		nop
 1477              	.LBE64:
 1478              	.LBE63:
1341:Drivers/STM32F1xx_HAL_Driver/Src/stm32f1xx_hal_i2c.c **** 
1342:Drivers/STM32F1xx_HAL_Driver/Src/stm32f1xx_hal_i2c.c ****           /* Disable all active IRQs around ADDR clearing and STOP programming because the EV6_3
1343:Drivers/STM32F1xx_HAL_Driver/Src/stm32f1xx_hal_i2c.c ****              software sequence must complete before the current byte end of transfer */
ARM GAS  /tmp/ccFqkhxP.s 			page 53


1344:Drivers/STM32F1xx_HAL_Driver/Src/stm32f1xx_hal_i2c.c ****           __disable_irq();
1345:Drivers/STM32F1xx_HAL_Driver/Src/stm32f1xx_hal_i2c.c **** 
1346:Drivers/STM32F1xx_HAL_Driver/Src/stm32f1xx_hal_i2c.c ****           /* Read data from DR */
1347:Drivers/STM32F1xx_HAL_Driver/Src/stm32f1xx_hal_i2c.c ****           *hi2c->pBuffPtr = (uint8_t)hi2c->Instance->DR;
 1479              		.loc 1 1347 42
 1480 02ec FB68     		ldr	r3, [r7, #12]
 1481 02ee 1B68     		ldr	r3, [r3]
 1482              		.loc 1 1347 52
 1483 02f0 1A69     		ldr	r2, [r3, #16]
 1484              		.loc 1 1347 16
 1485 02f2 FB68     		ldr	r3, [r7, #12]
 1486 02f4 5B6A     		ldr	r3, [r3, #36]
 1487              		.loc 1 1347 29
 1488 02f6 D2B2     		uxtb	r2, r2
 1489              		.loc 1 1347 27
 1490 02f8 1A70     		strb	r2, [r3]
1348:Drivers/STM32F1xx_HAL_Driver/Src/stm32f1xx_hal_i2c.c **** 
1349:Drivers/STM32F1xx_HAL_Driver/Src/stm32f1xx_hal_i2c.c ****           /* Increment Buffer pointer */
1350:Drivers/STM32F1xx_HAL_Driver/Src/stm32f1xx_hal_i2c.c ****           hi2c->pBuffPtr++;
 1491              		.loc 1 1350 15
 1492 02fa FB68     		ldr	r3, [r7, #12]
 1493 02fc 5B6A     		ldr	r3, [r3, #36]
 1494              		.loc 1 1350 25
 1495 02fe 5A1C     		adds	r2, r3, #1
 1496 0300 FB68     		ldr	r3, [r7, #12]
 1497 0302 5A62     		str	r2, [r3, #36]
1351:Drivers/STM32F1xx_HAL_Driver/Src/stm32f1xx_hal_i2c.c **** 
1352:Drivers/STM32F1xx_HAL_Driver/Src/stm32f1xx_hal_i2c.c ****           /* Update counter */
1353:Drivers/STM32F1xx_HAL_Driver/Src/stm32f1xx_hal_i2c.c ****           hi2c->XferSize--;
 1498              		.loc 1 1353 15
 1499 0304 FB68     		ldr	r3, [r7, #12]
 1500 0306 1B8D     		ldrh	r3, [r3, #40]
 1501              		.loc 1 1353 25
 1502 0308 013B     		subs	r3, r3, #1
 1503 030a 9AB2     		uxth	r2, r3
 1504 030c FB68     		ldr	r3, [r7, #12]
 1505 030e 1A85     		strh	r2, [r3, #40]	@ movhi
1354:Drivers/STM32F1xx_HAL_Driver/Src/stm32f1xx_hal_i2c.c ****           hi2c->XferCount--;
 1506              		.loc 1 1354 15
 1507 0310 FB68     		ldr	r3, [r7, #12]
 1508 0312 5B8D     		ldrh	r3, [r3, #42]	@ movhi
 1509 0314 9BB2     		uxth	r3, r3
 1510              		.loc 1 1354 26
 1511 0316 013B     		subs	r3, r3, #1
 1512 0318 9AB2     		uxth	r2, r3
 1513 031a FB68     		ldr	r3, [r7, #12]
 1514 031c 5A85     		strh	r2, [r3, #42]	@ movhi
1355:Drivers/STM32F1xx_HAL_Driver/Src/stm32f1xx_hal_i2c.c **** 
1356:Drivers/STM32F1xx_HAL_Driver/Src/stm32f1xx_hal_i2c.c ****           /* Wait until BTF flag is set */
1357:Drivers/STM32F1xx_HAL_Driver/Src/stm32f1xx_hal_i2c.c ****           count = I2C_TIMEOUT_FLAG * (SystemCoreClock / 25U / 1000U);
 1515              		.loc 1 1357 61
 1516 031e 664B     		ldr	r3, .L66+4
 1517 0320 1B68     		ldr	r3, [r3]
 1518 0322 DB08     		lsrs	r3, r3, #3
 1519 0324 654A     		ldr	r2, .L66+8
 1520 0326 A2FB0323 		umull	r2, r3, r2, r3
 1521 032a 1A0A     		lsrs	r2, r3, #8
ARM GAS  /tmp/ccFqkhxP.s 			page 54


 1522              		.loc 1 1357 36
 1523 032c 1346     		mov	r3, r2
 1524 032e 9B00     		lsls	r3, r3, #2
 1525 0330 1344     		add	r3, r3, r2
 1526 0332 DA00     		lsls	r2, r3, #3
 1527 0334 D31A     		subs	r3, r2, r3
 1528              		.loc 1 1357 17
 1529 0336 3B62     		str	r3, [r7, #32]
 1530              	.L61:
1358:Drivers/STM32F1xx_HAL_Driver/Src/stm32f1xx_hal_i2c.c ****           do
1359:Drivers/STM32F1xx_HAL_Driver/Src/stm32f1xx_hal_i2c.c ****           {
1360:Drivers/STM32F1xx_HAL_Driver/Src/stm32f1xx_hal_i2c.c ****             count--;
 1531              		.loc 1 1360 18
 1532 0338 3B6A     		ldr	r3, [r7, #32]
 1533 033a 013B     		subs	r3, r3, #1
 1534 033c 3B62     		str	r3, [r7, #32]
1361:Drivers/STM32F1xx_HAL_Driver/Src/stm32f1xx_hal_i2c.c ****             if (count == 0U)
 1535              		.loc 1 1361 23
 1536 033e 3B6A     		ldr	r3, [r7, #32]
 1537              		.loc 1 1361 16
 1538 0340 002B     		cmp	r3, #0
 1539 0342 18D1     		bne	.L60
1362:Drivers/STM32F1xx_HAL_Driver/Src/stm32f1xx_hal_i2c.c ****             {
1363:Drivers/STM32F1xx_HAL_Driver/Src/stm32f1xx_hal_i2c.c ****               hi2c->PreviousState       = I2C_STATE_NONE;
 1540              		.loc 1 1363 41
 1541 0344 FB68     		ldr	r3, [r7, #12]
 1542 0346 0022     		movs	r2, #0
 1543 0348 1A63     		str	r2, [r3, #48]
1364:Drivers/STM32F1xx_HAL_Driver/Src/stm32f1xx_hal_i2c.c ****               hi2c->State               = HAL_I2C_STATE_READY;
 1544              		.loc 1 1364 41
 1545 034a FB68     		ldr	r3, [r7, #12]
 1546 034c 2022     		movs	r2, #32
 1547 034e 83F83D20 		strb	r2, [r3, #61]
1365:Drivers/STM32F1xx_HAL_Driver/Src/stm32f1xx_hal_i2c.c ****               hi2c->Mode                = HAL_I2C_MODE_NONE;
 1548              		.loc 1 1365 41
 1549 0352 FB68     		ldr	r3, [r7, #12]
 1550 0354 0022     		movs	r2, #0
 1551 0356 83F83E20 		strb	r2, [r3, #62]
1366:Drivers/STM32F1xx_HAL_Driver/Src/stm32f1xx_hal_i2c.c ****               hi2c->ErrorCode           |= HAL_I2C_ERROR_TIMEOUT;
 1552              		.loc 1 1366 41
 1553 035a FB68     		ldr	r3, [r7, #12]
 1554 035c 1B6C     		ldr	r3, [r3, #64]
 1555 035e 43F02002 		orr	r2, r3, #32
 1556 0362 FB68     		ldr	r3, [r7, #12]
 1557 0364 1A64     		str	r2, [r3, #64]
 1558              	.LBB65:
 1559              	.LBB66:
 131:Drivers/CMSIS/Include/cmsis_gcc.h **** }
 1560              		.loc 2 131 3
 1561              		.syntax unified
 1562              	@ 131 "Drivers/CMSIS/Include/cmsis_gcc.h" 1
 1563 0366 62B6     		cpsie i
 1564              	@ 0 "" 2
 132:Drivers/CMSIS/Include/cmsis_gcc.h **** 
 1565              		.loc 2 132 1
 1566              		.thumb
 1567              		.syntax unified
ARM GAS  /tmp/ccFqkhxP.s 			page 55


 1568 0368 00BF     		nop
 1569              	.LBE66:
 1570              	.LBE65:
1367:Drivers/STM32F1xx_HAL_Driver/Src/stm32f1xx_hal_i2c.c **** 
1368:Drivers/STM32F1xx_HAL_Driver/Src/stm32f1xx_hal_i2c.c ****               /* Re-enable IRQs */
1369:Drivers/STM32F1xx_HAL_Driver/Src/stm32f1xx_hal_i2c.c ****               __enable_irq();
1370:Drivers/STM32F1xx_HAL_Driver/Src/stm32f1xx_hal_i2c.c **** 
1371:Drivers/STM32F1xx_HAL_Driver/Src/stm32f1xx_hal_i2c.c ****               /* Process Unlocked */
1372:Drivers/STM32F1xx_HAL_Driver/Src/stm32f1xx_hal_i2c.c ****               __HAL_UNLOCK(hi2c);
 1571              		.loc 1 1372 15
 1572 036a FB68     		ldr	r3, [r7, #12]
 1573 036c 0022     		movs	r2, #0
 1574 036e 83F83C20 		strb	r2, [r3, #60]
1373:Drivers/STM32F1xx_HAL_Driver/Src/stm32f1xx_hal_i2c.c **** 
1374:Drivers/STM32F1xx_HAL_Driver/Src/stm32f1xx_hal_i2c.c ****               return HAL_ERROR;
 1575              		.loc 1 1374 22
 1576 0372 0123     		movs	r3, #1
 1577 0374 9AE0     		b	.L45
 1578              	.L60:
1375:Drivers/STM32F1xx_HAL_Driver/Src/stm32f1xx_hal_i2c.c ****             }
1376:Drivers/STM32F1xx_HAL_Driver/Src/stm32f1xx_hal_i2c.c ****           }
1377:Drivers/STM32F1xx_HAL_Driver/Src/stm32f1xx_hal_i2c.c ****           while (__HAL_I2C_GET_FLAG(hi2c, I2C_FLAG_BTF) == RESET);
 1579              		.loc 1 1377 18
 1580 0376 FB68     		ldr	r3, [r7, #12]
 1581 0378 1B68     		ldr	r3, [r3]
 1582 037a 5B69     		ldr	r3, [r3, #20]
 1583 037c 03F00403 		and	r3, r3, #4
 1584              		.loc 1 1377 11
 1585 0380 042B     		cmp	r3, #4
 1586 0382 D9D1     		bne	.L61
1378:Drivers/STM32F1xx_HAL_Driver/Src/stm32f1xx_hal_i2c.c **** 
1379:Drivers/STM32F1xx_HAL_Driver/Src/stm32f1xx_hal_i2c.c ****           /* Generate Stop */
1380:Drivers/STM32F1xx_HAL_Driver/Src/stm32f1xx_hal_i2c.c ****           SET_BIT(hi2c->Instance->CR1, I2C_CR1_STOP);
 1587              		.loc 1 1380 11
 1588 0384 FB68     		ldr	r3, [r7, #12]
 1589 0386 1B68     		ldr	r3, [r3]
 1590 0388 1A68     		ldr	r2, [r3]
 1591 038a FB68     		ldr	r3, [r7, #12]
 1592 038c 1B68     		ldr	r3, [r3]
 1593 038e 42F40072 		orr	r2, r2, #512
 1594 0392 1A60     		str	r2, [r3]
1381:Drivers/STM32F1xx_HAL_Driver/Src/stm32f1xx_hal_i2c.c **** 
1382:Drivers/STM32F1xx_HAL_Driver/Src/stm32f1xx_hal_i2c.c ****           /* Read data from DR */
1383:Drivers/STM32F1xx_HAL_Driver/Src/stm32f1xx_hal_i2c.c ****           *hi2c->pBuffPtr = (uint8_t)hi2c->Instance->DR;
 1595              		.loc 1 1383 42
 1596 0394 FB68     		ldr	r3, [r7, #12]
 1597 0396 1B68     		ldr	r3, [r3]
 1598              		.loc 1 1383 52
 1599 0398 1A69     		ldr	r2, [r3, #16]
 1600              		.loc 1 1383 16
 1601 039a FB68     		ldr	r3, [r7, #12]
 1602 039c 5B6A     		ldr	r3, [r3, #36]
 1603              		.loc 1 1383 29
 1604 039e D2B2     		uxtb	r2, r2
 1605              		.loc 1 1383 27
 1606 03a0 1A70     		strb	r2, [r3]
1384:Drivers/STM32F1xx_HAL_Driver/Src/stm32f1xx_hal_i2c.c **** 
ARM GAS  /tmp/ccFqkhxP.s 			page 56


1385:Drivers/STM32F1xx_HAL_Driver/Src/stm32f1xx_hal_i2c.c ****           /* Increment Buffer pointer */
1386:Drivers/STM32F1xx_HAL_Driver/Src/stm32f1xx_hal_i2c.c ****           hi2c->pBuffPtr++;
 1607              		.loc 1 1386 15
 1608 03a2 FB68     		ldr	r3, [r7, #12]
 1609 03a4 5B6A     		ldr	r3, [r3, #36]
 1610              		.loc 1 1386 25
 1611 03a6 5A1C     		adds	r2, r3, #1
 1612 03a8 FB68     		ldr	r3, [r7, #12]
 1613 03aa 5A62     		str	r2, [r3, #36]
1387:Drivers/STM32F1xx_HAL_Driver/Src/stm32f1xx_hal_i2c.c **** 
1388:Drivers/STM32F1xx_HAL_Driver/Src/stm32f1xx_hal_i2c.c ****           /* Update counter */
1389:Drivers/STM32F1xx_HAL_Driver/Src/stm32f1xx_hal_i2c.c ****           hi2c->XferSize--;
 1614              		.loc 1 1389 15
 1615 03ac FB68     		ldr	r3, [r7, #12]
 1616 03ae 1B8D     		ldrh	r3, [r3, #40]
 1617              		.loc 1 1389 25
 1618 03b0 013B     		subs	r3, r3, #1
 1619 03b2 9AB2     		uxth	r2, r3
 1620 03b4 FB68     		ldr	r3, [r7, #12]
 1621 03b6 1A85     		strh	r2, [r3, #40]	@ movhi
1390:Drivers/STM32F1xx_HAL_Driver/Src/stm32f1xx_hal_i2c.c ****           hi2c->XferCount--;
 1622              		.loc 1 1390 15
 1623 03b8 FB68     		ldr	r3, [r7, #12]
 1624 03ba 5B8D     		ldrh	r3, [r3, #42]	@ movhi
 1625 03bc 9BB2     		uxth	r3, r3
 1626              		.loc 1 1390 26
 1627 03be 013B     		subs	r3, r3, #1
 1628 03c0 9AB2     		uxth	r2, r3
 1629 03c2 FB68     		ldr	r3, [r7, #12]
 1630 03c4 5A85     		strh	r2, [r3, #42]	@ movhi
 1631              	.LBB67:
 1632              	.LBB68:
 131:Drivers/CMSIS/Include/cmsis_gcc.h **** }
 1633              		.loc 2 131 3
 1634              		.syntax unified
 1635              	@ 131 "Drivers/CMSIS/Include/cmsis_gcc.h" 1
 1636 03c6 62B6     		cpsie i
 1637              	@ 0 "" 2
 132:Drivers/CMSIS/Include/cmsis_gcc.h **** 
 1638              		.loc 2 132 1
 1639              		.thumb
 1640              		.syntax unified
 1641 03c8 00BF     		nop
 1642              	.LBE68:
 1643              	.LBE67:
1391:Drivers/STM32F1xx_HAL_Driver/Src/stm32f1xx_hal_i2c.c **** 
1392:Drivers/STM32F1xx_HAL_Driver/Src/stm32f1xx_hal_i2c.c ****           /* Re-enable IRQs */
1393:Drivers/STM32F1xx_HAL_Driver/Src/stm32f1xx_hal_i2c.c ****           __enable_irq();
1394:Drivers/STM32F1xx_HAL_Driver/Src/stm32f1xx_hal_i2c.c **** 
1395:Drivers/STM32F1xx_HAL_Driver/Src/stm32f1xx_hal_i2c.c ****           /* Read data from DR */
1396:Drivers/STM32F1xx_HAL_Driver/Src/stm32f1xx_hal_i2c.c ****           *hi2c->pBuffPtr = (uint8_t)hi2c->Instance->DR;
 1644              		.loc 1 1396 42
 1645 03ca FB68     		ldr	r3, [r7, #12]
 1646 03cc 1B68     		ldr	r3, [r3]
 1647              		.loc 1 1396 52
 1648 03ce 1A69     		ldr	r2, [r3, #16]
 1649              		.loc 1 1396 16
ARM GAS  /tmp/ccFqkhxP.s 			page 57


 1650 03d0 FB68     		ldr	r3, [r7, #12]
 1651 03d2 5B6A     		ldr	r3, [r3, #36]
 1652              		.loc 1 1396 29
 1653 03d4 D2B2     		uxtb	r2, r2
 1654              		.loc 1 1396 27
 1655 03d6 1A70     		strb	r2, [r3]
1397:Drivers/STM32F1xx_HAL_Driver/Src/stm32f1xx_hal_i2c.c **** 
1398:Drivers/STM32F1xx_HAL_Driver/Src/stm32f1xx_hal_i2c.c ****           /* Increment Buffer pointer */
1399:Drivers/STM32F1xx_HAL_Driver/Src/stm32f1xx_hal_i2c.c ****           hi2c->pBuffPtr++;
 1656              		.loc 1 1399 15
 1657 03d8 FB68     		ldr	r3, [r7, #12]
 1658 03da 5B6A     		ldr	r3, [r3, #36]
 1659              		.loc 1 1399 25
 1660 03dc 5A1C     		adds	r2, r3, #1
 1661 03de FB68     		ldr	r3, [r7, #12]
 1662 03e0 5A62     		str	r2, [r3, #36]
1400:Drivers/STM32F1xx_HAL_Driver/Src/stm32f1xx_hal_i2c.c **** 
1401:Drivers/STM32F1xx_HAL_Driver/Src/stm32f1xx_hal_i2c.c ****           /* Update counter */
1402:Drivers/STM32F1xx_HAL_Driver/Src/stm32f1xx_hal_i2c.c ****           hi2c->XferSize--;
 1663              		.loc 1 1402 15
 1664 03e2 FB68     		ldr	r3, [r7, #12]
 1665 03e4 1B8D     		ldrh	r3, [r3, #40]
 1666              		.loc 1 1402 25
 1667 03e6 013B     		subs	r3, r3, #1
 1668 03e8 9AB2     		uxth	r2, r3
 1669 03ea FB68     		ldr	r3, [r7, #12]
 1670 03ec 1A85     		strh	r2, [r3, #40]	@ movhi
1403:Drivers/STM32F1xx_HAL_Driver/Src/stm32f1xx_hal_i2c.c ****           hi2c->XferCount--;
 1671              		.loc 1 1403 15
 1672 03ee FB68     		ldr	r3, [r7, #12]
 1673 03f0 5B8D     		ldrh	r3, [r3, #42]	@ movhi
 1674 03f2 9BB2     		uxth	r3, r3
 1675              		.loc 1 1403 26
 1676 03f4 013B     		subs	r3, r3, #1
 1677 03f6 9AB2     		uxth	r2, r3
 1678 03f8 FB68     		ldr	r3, [r7, #12]
 1679 03fa 5A85     		strh	r2, [r3, #42]	@ movhi
 1680 03fc 42E0     		b	.L53
 1681              	.L54:
1404:Drivers/STM32F1xx_HAL_Driver/Src/stm32f1xx_hal_i2c.c ****         }
1405:Drivers/STM32F1xx_HAL_Driver/Src/stm32f1xx_hal_i2c.c ****       }
1406:Drivers/STM32F1xx_HAL_Driver/Src/stm32f1xx_hal_i2c.c ****       else
1407:Drivers/STM32F1xx_HAL_Driver/Src/stm32f1xx_hal_i2c.c ****       {
1408:Drivers/STM32F1xx_HAL_Driver/Src/stm32f1xx_hal_i2c.c ****         /* Wait until RXNE flag is set */
1409:Drivers/STM32F1xx_HAL_Driver/Src/stm32f1xx_hal_i2c.c ****         if (I2C_WaitOnRXNEFlagUntilTimeout(hi2c, Timeout, tickstart) != HAL_OK)
 1682              		.loc 1 1409 13
 1683 03fe 7A6A     		ldr	r2, [r7, #36]
 1684 0400 396B     		ldr	r1, [r7, #48]
 1685 0402 F868     		ldr	r0, [r7, #12]
 1686 0404 FFF7FEFF 		bl	I2C_WaitOnRXNEFlagUntilTimeout
 1687 0408 0346     		mov	r3, r0
 1688              		.loc 1 1409 12
 1689 040a 002B     		cmp	r3, #0
 1690 040c 01D0     		beq	.L62
1410:Drivers/STM32F1xx_HAL_Driver/Src/stm32f1xx_hal_i2c.c ****         {
1411:Drivers/STM32F1xx_HAL_Driver/Src/stm32f1xx_hal_i2c.c ****           return HAL_ERROR;
 1691              		.loc 1 1411 18
ARM GAS  /tmp/ccFqkhxP.s 			page 58


 1692 040e 0123     		movs	r3, #1
 1693 0410 4CE0     		b	.L45
 1694              	.L62:
1412:Drivers/STM32F1xx_HAL_Driver/Src/stm32f1xx_hal_i2c.c ****         }
1413:Drivers/STM32F1xx_HAL_Driver/Src/stm32f1xx_hal_i2c.c **** 
1414:Drivers/STM32F1xx_HAL_Driver/Src/stm32f1xx_hal_i2c.c ****         /* Read data from DR */
1415:Drivers/STM32F1xx_HAL_Driver/Src/stm32f1xx_hal_i2c.c ****         *hi2c->pBuffPtr = (uint8_t)hi2c->Instance->DR;
 1695              		.loc 1 1415 40
 1696 0412 FB68     		ldr	r3, [r7, #12]
 1697 0414 1B68     		ldr	r3, [r3]
 1698              		.loc 1 1415 50
 1699 0416 1A69     		ldr	r2, [r3, #16]
 1700              		.loc 1 1415 14
 1701 0418 FB68     		ldr	r3, [r7, #12]
 1702 041a 5B6A     		ldr	r3, [r3, #36]
 1703              		.loc 1 1415 27
 1704 041c D2B2     		uxtb	r2, r2
 1705              		.loc 1 1415 25
 1706 041e 1A70     		strb	r2, [r3]
1416:Drivers/STM32F1xx_HAL_Driver/Src/stm32f1xx_hal_i2c.c **** 
1417:Drivers/STM32F1xx_HAL_Driver/Src/stm32f1xx_hal_i2c.c ****         /* Increment Buffer pointer */
1418:Drivers/STM32F1xx_HAL_Driver/Src/stm32f1xx_hal_i2c.c ****         hi2c->pBuffPtr++;
 1707              		.loc 1 1418 13
 1708 0420 FB68     		ldr	r3, [r7, #12]
 1709 0422 5B6A     		ldr	r3, [r3, #36]
 1710              		.loc 1 1418 23
 1711 0424 5A1C     		adds	r2, r3, #1
 1712 0426 FB68     		ldr	r3, [r7, #12]
 1713 0428 5A62     		str	r2, [r3, #36]
1419:Drivers/STM32F1xx_HAL_Driver/Src/stm32f1xx_hal_i2c.c **** 
1420:Drivers/STM32F1xx_HAL_Driver/Src/stm32f1xx_hal_i2c.c ****         /* Update counter */
1421:Drivers/STM32F1xx_HAL_Driver/Src/stm32f1xx_hal_i2c.c ****         hi2c->XferSize--;
 1714              		.loc 1 1421 13
 1715 042a FB68     		ldr	r3, [r7, #12]
 1716 042c 1B8D     		ldrh	r3, [r3, #40]
 1717              		.loc 1 1421 23
 1718 042e 013B     		subs	r3, r3, #1
 1719 0430 9AB2     		uxth	r2, r3
 1720 0432 FB68     		ldr	r3, [r7, #12]
 1721 0434 1A85     		strh	r2, [r3, #40]	@ movhi
1422:Drivers/STM32F1xx_HAL_Driver/Src/stm32f1xx_hal_i2c.c ****         hi2c->XferCount--;
 1722              		.loc 1 1422 13
 1723 0436 FB68     		ldr	r3, [r7, #12]
 1724 0438 5B8D     		ldrh	r3, [r3, #42]	@ movhi
 1725 043a 9BB2     		uxth	r3, r3
 1726              		.loc 1 1422 24
 1727 043c 013B     		subs	r3, r3, #1
 1728 043e 9AB2     		uxth	r2, r3
 1729 0440 FB68     		ldr	r3, [r7, #12]
 1730 0442 5A85     		strh	r2, [r3, #42]	@ movhi
1423:Drivers/STM32F1xx_HAL_Driver/Src/stm32f1xx_hal_i2c.c **** 
1424:Drivers/STM32F1xx_HAL_Driver/Src/stm32f1xx_hal_i2c.c ****         if (__HAL_I2C_GET_FLAG(hi2c, I2C_FLAG_BTF) == SET)
 1731              		.loc 1 1424 13
 1732 0444 FB68     		ldr	r3, [r7, #12]
 1733 0446 1B68     		ldr	r3, [r3]
 1734 0448 5B69     		ldr	r3, [r3, #20]
 1735 044a 03F00403 		and	r3, r3, #4
ARM GAS  /tmp/ccFqkhxP.s 			page 59


 1736              		.loc 1 1424 12
 1737 044e 042B     		cmp	r3, #4
 1738 0450 18D1     		bne	.L53
1425:Drivers/STM32F1xx_HAL_Driver/Src/stm32f1xx_hal_i2c.c ****         {
1426:Drivers/STM32F1xx_HAL_Driver/Src/stm32f1xx_hal_i2c.c ****           /* Read data from DR */
1427:Drivers/STM32F1xx_HAL_Driver/Src/stm32f1xx_hal_i2c.c ****           *hi2c->pBuffPtr = (uint8_t)hi2c->Instance->DR;
 1739              		.loc 1 1427 42
 1740 0452 FB68     		ldr	r3, [r7, #12]
 1741 0454 1B68     		ldr	r3, [r3]
 1742              		.loc 1 1427 52
 1743 0456 1A69     		ldr	r2, [r3, #16]
 1744              		.loc 1 1427 16
 1745 0458 FB68     		ldr	r3, [r7, #12]
 1746 045a 5B6A     		ldr	r3, [r3, #36]
 1747              		.loc 1 1427 29
 1748 045c D2B2     		uxtb	r2, r2
 1749              		.loc 1 1427 27
 1750 045e 1A70     		strb	r2, [r3]
1428:Drivers/STM32F1xx_HAL_Driver/Src/stm32f1xx_hal_i2c.c **** 
1429:Drivers/STM32F1xx_HAL_Driver/Src/stm32f1xx_hal_i2c.c ****           /* Increment Buffer pointer */
1430:Drivers/STM32F1xx_HAL_Driver/Src/stm32f1xx_hal_i2c.c ****           hi2c->pBuffPtr++;
 1751              		.loc 1 1430 15
 1752 0460 FB68     		ldr	r3, [r7, #12]
 1753 0462 5B6A     		ldr	r3, [r3, #36]
 1754              		.loc 1 1430 25
 1755 0464 5A1C     		adds	r2, r3, #1
 1756 0466 FB68     		ldr	r3, [r7, #12]
 1757 0468 5A62     		str	r2, [r3, #36]
1431:Drivers/STM32F1xx_HAL_Driver/Src/stm32f1xx_hal_i2c.c **** 
1432:Drivers/STM32F1xx_HAL_Driver/Src/stm32f1xx_hal_i2c.c ****           /* Update counter */
1433:Drivers/STM32F1xx_HAL_Driver/Src/stm32f1xx_hal_i2c.c ****           hi2c->XferSize--;
 1758              		.loc 1 1433 15
 1759 046a FB68     		ldr	r3, [r7, #12]
 1760 046c 1B8D     		ldrh	r3, [r3, #40]
 1761              		.loc 1 1433 25
 1762 046e 013B     		subs	r3, r3, #1
 1763 0470 9AB2     		uxth	r2, r3
 1764 0472 FB68     		ldr	r3, [r7, #12]
 1765 0474 1A85     		strh	r2, [r3, #40]	@ movhi
1434:Drivers/STM32F1xx_HAL_Driver/Src/stm32f1xx_hal_i2c.c ****           hi2c->XferCount--;
 1766              		.loc 1 1434 15
 1767 0476 FB68     		ldr	r3, [r7, #12]
 1768 0478 5B8D     		ldrh	r3, [r3, #42]	@ movhi
 1769 047a 9BB2     		uxth	r3, r3
 1770              		.loc 1 1434 26
 1771 047c 013B     		subs	r3, r3, #1
 1772 047e 9AB2     		uxth	r2, r3
 1773 0480 FB68     		ldr	r3, [r7, #12]
 1774 0482 5A85     		strh	r2, [r3, #42]	@ movhi
 1775              	.L53:
1268:Drivers/STM32F1xx_HAL_Driver/Src/stm32f1xx_hal_i2c.c ****     {
 1776              		.loc 1 1268 16
 1777 0484 FB68     		ldr	r3, [r7, #12]
 1778 0486 1B8D     		ldrh	r3, [r3, #40]
1268:Drivers/STM32F1xx_HAL_Driver/Src/stm32f1xx_hal_i2c.c ****     {
 1779              		.loc 1 1268 11
 1780 0488 002B     		cmp	r3, #0
ARM GAS  /tmp/ccFqkhxP.s 			page 60


 1781 048a 7FF494AE 		bne	.L63
1435:Drivers/STM32F1xx_HAL_Driver/Src/stm32f1xx_hal_i2c.c ****         }
1436:Drivers/STM32F1xx_HAL_Driver/Src/stm32f1xx_hal_i2c.c ****       }
1437:Drivers/STM32F1xx_HAL_Driver/Src/stm32f1xx_hal_i2c.c ****     }
1438:Drivers/STM32F1xx_HAL_Driver/Src/stm32f1xx_hal_i2c.c **** 
1439:Drivers/STM32F1xx_HAL_Driver/Src/stm32f1xx_hal_i2c.c ****     hi2c->State = HAL_I2C_STATE_READY;
 1782              		.loc 1 1439 17
 1783 048e FB68     		ldr	r3, [r7, #12]
 1784 0490 2022     		movs	r2, #32
 1785 0492 83F83D20 		strb	r2, [r3, #61]
1440:Drivers/STM32F1xx_HAL_Driver/Src/stm32f1xx_hal_i2c.c ****     hi2c->Mode = HAL_I2C_MODE_NONE;
 1786              		.loc 1 1440 16
 1787 0496 FB68     		ldr	r3, [r7, #12]
 1788 0498 0022     		movs	r2, #0
 1789 049a 83F83E20 		strb	r2, [r3, #62]
1441:Drivers/STM32F1xx_HAL_Driver/Src/stm32f1xx_hal_i2c.c **** 
1442:Drivers/STM32F1xx_HAL_Driver/Src/stm32f1xx_hal_i2c.c ****     /* Process Unlocked */
1443:Drivers/STM32F1xx_HAL_Driver/Src/stm32f1xx_hal_i2c.c ****     __HAL_UNLOCK(hi2c);
 1790              		.loc 1 1443 5
 1791 049e FB68     		ldr	r3, [r7, #12]
 1792 04a0 0022     		movs	r2, #0
 1793 04a2 83F83C20 		strb	r2, [r3, #60]
1444:Drivers/STM32F1xx_HAL_Driver/Src/stm32f1xx_hal_i2c.c **** 
1445:Drivers/STM32F1xx_HAL_Driver/Src/stm32f1xx_hal_i2c.c ****     return HAL_OK;
 1794              		.loc 1 1445 12
 1795 04a6 0023     		movs	r3, #0
 1796 04a8 00E0     		b	.L45
 1797              	.L43:
1446:Drivers/STM32F1xx_HAL_Driver/Src/stm32f1xx_hal_i2c.c ****   }
1447:Drivers/STM32F1xx_HAL_Driver/Src/stm32f1xx_hal_i2c.c ****   else
1448:Drivers/STM32F1xx_HAL_Driver/Src/stm32f1xx_hal_i2c.c ****   {
1449:Drivers/STM32F1xx_HAL_Driver/Src/stm32f1xx_hal_i2c.c ****     return HAL_BUSY;
 1798              		.loc 1 1449 12
 1799 04aa 0223     		movs	r3, #2
 1800              	.L45:
1450:Drivers/STM32F1xx_HAL_Driver/Src/stm32f1xx_hal_i2c.c ****   }
1451:Drivers/STM32F1xx_HAL_Driver/Src/stm32f1xx_hal_i2c.c **** }
 1801              		.loc 1 1451 1
 1802 04ac 1846     		mov	r0, r3
 1803 04ae 2837     		adds	r7, r7, #40
 1804              	.LCFI30:
 1805              		.cfi_def_cfa_offset 8
 1806 04b0 BD46     		mov	sp, r7
 1807              	.LCFI31:
 1808              		.cfi_def_cfa_register 13
 1809              		@ sp needed
 1810 04b2 80BD     		pop	{r7, pc}
 1811              	.L67:
 1812              		.align	2
 1813              	.L66:
 1814 04b4 04000100 		.word	65540
 1815 04b8 00000000 		.word	SystemCoreClock
 1816 04bc 89B5F814 		.word	351843721
 1817              		.cfi_endproc
 1818              	.LFE70:
 1820              		.section	.text.HAL_I2C_Slave_Transmit,"ax",%progbits
 1821              		.align	1
ARM GAS  /tmp/ccFqkhxP.s 			page 61


 1822              		.global	HAL_I2C_Slave_Transmit
 1823              		.syntax unified
 1824              		.thumb
 1825              		.thumb_func
 1827              	HAL_I2C_Slave_Transmit:
 1828              	.LFB71:
1452:Drivers/STM32F1xx_HAL_Driver/Src/stm32f1xx_hal_i2c.c **** 
1453:Drivers/STM32F1xx_HAL_Driver/Src/stm32f1xx_hal_i2c.c **** /**
1454:Drivers/STM32F1xx_HAL_Driver/Src/stm32f1xx_hal_i2c.c ****   * @brief  Transmits in slave mode an amount of data in blocking mode.
1455:Drivers/STM32F1xx_HAL_Driver/Src/stm32f1xx_hal_i2c.c ****   * @param  hi2c Pointer to a I2C_HandleTypeDef structure that contains
1456:Drivers/STM32F1xx_HAL_Driver/Src/stm32f1xx_hal_i2c.c ****   *                the configuration information for the specified I2C.
1457:Drivers/STM32F1xx_HAL_Driver/Src/stm32f1xx_hal_i2c.c ****   * @param  pData Pointer to data buffer
1458:Drivers/STM32F1xx_HAL_Driver/Src/stm32f1xx_hal_i2c.c ****   * @param  Size Amount of data to be sent
1459:Drivers/STM32F1xx_HAL_Driver/Src/stm32f1xx_hal_i2c.c ****   * @param  Timeout Timeout duration
1460:Drivers/STM32F1xx_HAL_Driver/Src/stm32f1xx_hal_i2c.c ****   * @retval HAL status
1461:Drivers/STM32F1xx_HAL_Driver/Src/stm32f1xx_hal_i2c.c ****   */
1462:Drivers/STM32F1xx_HAL_Driver/Src/stm32f1xx_hal_i2c.c **** HAL_StatusTypeDef HAL_I2C_Slave_Transmit(I2C_HandleTypeDef *hi2c, uint8_t *pData, uint16_t Size, ui
1463:Drivers/STM32F1xx_HAL_Driver/Src/stm32f1xx_hal_i2c.c **** {
 1829              		.loc 1 1463 1
 1830              		.cfi_startproc
 1831              		@ args = 0, pretend = 0, frame = 32
 1832              		@ frame_needed = 1, uses_anonymous_args = 0
 1833 0000 80B5     		push	{r7, lr}
 1834              	.LCFI32:
 1835              		.cfi_def_cfa_offset 8
 1836              		.cfi_offset 7, -8
 1837              		.cfi_offset 14, -4
 1838 0002 8AB0     		sub	sp, sp, #40
 1839              	.LCFI33:
 1840              		.cfi_def_cfa_offset 48
 1841 0004 02AF     		add	r7, sp, #8
 1842              	.LCFI34:
 1843              		.cfi_def_cfa 7, 40
 1844 0006 F860     		str	r0, [r7, #12]
 1845 0008 B960     		str	r1, [r7, #8]
 1846 000a 3B60     		str	r3, [r7]
 1847 000c 1346     		mov	r3, r2	@ movhi
 1848 000e FB80     		strh	r3, [r7, #6]	@ movhi
1464:Drivers/STM32F1xx_HAL_Driver/Src/stm32f1xx_hal_i2c.c ****   /* Init tickstart for timeout management*/
1465:Drivers/STM32F1xx_HAL_Driver/Src/stm32f1xx_hal_i2c.c ****   uint32_t tickstart = HAL_GetTick();
 1849              		.loc 1 1465 24
 1850 0010 FFF7FEFF 		bl	HAL_GetTick
 1851 0014 F861     		str	r0, [r7, #28]
1466:Drivers/STM32F1xx_HAL_Driver/Src/stm32f1xx_hal_i2c.c **** 
1467:Drivers/STM32F1xx_HAL_Driver/Src/stm32f1xx_hal_i2c.c ****   if (hi2c->State == HAL_I2C_STATE_READY)
 1852              		.loc 1 1467 11
 1853 0016 FB68     		ldr	r3, [r7, #12]
 1854 0018 93F83D30 		ldrb	r3, [r3, #61]
 1855 001c DBB2     		uxtb	r3, r3
 1856              		.loc 1 1467 6
 1857 001e 202B     		cmp	r3, #32
 1858 0020 40F0FB80 		bne	.L69
1468:Drivers/STM32F1xx_HAL_Driver/Src/stm32f1xx_hal_i2c.c ****   {
1469:Drivers/STM32F1xx_HAL_Driver/Src/stm32f1xx_hal_i2c.c ****     if ((pData == NULL) || (Size == 0U))
 1859              		.loc 1 1469 8
 1860 0024 BB68     		ldr	r3, [r7, #8]
 1861 0026 002B     		cmp	r3, #0
ARM GAS  /tmp/ccFqkhxP.s 			page 62


 1862 0028 02D0     		beq	.L70
 1863              		.loc 1 1469 25 discriminator 1
 1864 002a FB88     		ldrh	r3, [r7, #6]
 1865 002c 002B     		cmp	r3, #0
 1866 002e 01D1     		bne	.L71
 1867              	.L70:
1470:Drivers/STM32F1xx_HAL_Driver/Src/stm32f1xx_hal_i2c.c ****     {
1471:Drivers/STM32F1xx_HAL_Driver/Src/stm32f1xx_hal_i2c.c ****       return  HAL_ERROR;
 1868              		.loc 1 1471 15
 1869 0030 0123     		movs	r3, #1
 1870 0032 F3E0     		b	.L72
 1871              	.L71:
1472:Drivers/STM32F1xx_HAL_Driver/Src/stm32f1xx_hal_i2c.c ****     }
1473:Drivers/STM32F1xx_HAL_Driver/Src/stm32f1xx_hal_i2c.c **** 
1474:Drivers/STM32F1xx_HAL_Driver/Src/stm32f1xx_hal_i2c.c ****     /* Process Locked */
1475:Drivers/STM32F1xx_HAL_Driver/Src/stm32f1xx_hal_i2c.c ****     __HAL_LOCK(hi2c);
 1872              		.loc 1 1475 5
 1873 0034 FB68     		ldr	r3, [r7, #12]
 1874 0036 93F83C30 		ldrb	r3, [r3, #60]	@ zero_extendqisi2
 1875 003a 012B     		cmp	r3, #1
 1876 003c 01D1     		bne	.L73
 1877              		.loc 1 1475 5 is_stmt 0 discriminator 1
 1878 003e 0223     		movs	r3, #2
 1879 0040 ECE0     		b	.L72
 1880              	.L73:
 1881              		.loc 1 1475 5 discriminator 2
 1882 0042 FB68     		ldr	r3, [r7, #12]
 1883 0044 0122     		movs	r2, #1
 1884 0046 83F83C20 		strb	r2, [r3, #60]
1476:Drivers/STM32F1xx_HAL_Driver/Src/stm32f1xx_hal_i2c.c **** 
1477:Drivers/STM32F1xx_HAL_Driver/Src/stm32f1xx_hal_i2c.c ****     /* Check if the I2C is already enabled */
1478:Drivers/STM32F1xx_HAL_Driver/Src/stm32f1xx_hal_i2c.c ****     if ((hi2c->Instance->CR1 & I2C_CR1_PE) != I2C_CR1_PE)
 1885              		.loc 1 1478 14 is_stmt 1 discriminator 2
 1886 004a FB68     		ldr	r3, [r7, #12]
 1887 004c 1B68     		ldr	r3, [r3]
 1888              		.loc 1 1478 24 discriminator 2
 1889 004e 1B68     		ldr	r3, [r3]
 1890              		.loc 1 1478 30 discriminator 2
 1891 0050 03F00103 		and	r3, r3, #1
 1892              		.loc 1 1478 8 discriminator 2
 1893 0054 012B     		cmp	r3, #1
 1894 0056 07D0     		beq	.L74
1479:Drivers/STM32F1xx_HAL_Driver/Src/stm32f1xx_hal_i2c.c ****     {
1480:Drivers/STM32F1xx_HAL_Driver/Src/stm32f1xx_hal_i2c.c ****       /* Enable I2C peripheral */
1481:Drivers/STM32F1xx_HAL_Driver/Src/stm32f1xx_hal_i2c.c ****       __HAL_I2C_ENABLE(hi2c);
 1895              		.loc 1 1481 7
 1896 0058 FB68     		ldr	r3, [r7, #12]
 1897 005a 1B68     		ldr	r3, [r3]
 1898 005c 1A68     		ldr	r2, [r3]
 1899 005e FB68     		ldr	r3, [r7, #12]
 1900 0060 1B68     		ldr	r3, [r3]
 1901 0062 42F00102 		orr	r2, r2, #1
 1902 0066 1A60     		str	r2, [r3]
 1903              	.L74:
1482:Drivers/STM32F1xx_HAL_Driver/Src/stm32f1xx_hal_i2c.c ****     }
1483:Drivers/STM32F1xx_HAL_Driver/Src/stm32f1xx_hal_i2c.c **** 
1484:Drivers/STM32F1xx_HAL_Driver/Src/stm32f1xx_hal_i2c.c ****     /* Disable Pos */
ARM GAS  /tmp/ccFqkhxP.s 			page 63


1485:Drivers/STM32F1xx_HAL_Driver/Src/stm32f1xx_hal_i2c.c ****     CLEAR_BIT(hi2c->Instance->CR1, I2C_CR1_POS);
 1904              		.loc 1 1485 5
 1905 0068 FB68     		ldr	r3, [r7, #12]
 1906 006a 1B68     		ldr	r3, [r3]
 1907 006c 1A68     		ldr	r2, [r3]
 1908 006e FB68     		ldr	r3, [r7, #12]
 1909 0070 1B68     		ldr	r3, [r3]
 1910 0072 22F40062 		bic	r2, r2, #2048
 1911 0076 1A60     		str	r2, [r3]
1486:Drivers/STM32F1xx_HAL_Driver/Src/stm32f1xx_hal_i2c.c **** 
1487:Drivers/STM32F1xx_HAL_Driver/Src/stm32f1xx_hal_i2c.c ****     hi2c->State       = HAL_I2C_STATE_BUSY_TX;
 1912              		.loc 1 1487 23
 1913 0078 FB68     		ldr	r3, [r7, #12]
 1914 007a 2122     		movs	r2, #33
 1915 007c 83F83D20 		strb	r2, [r3, #61]
1488:Drivers/STM32F1xx_HAL_Driver/Src/stm32f1xx_hal_i2c.c ****     hi2c->Mode        = HAL_I2C_MODE_SLAVE;
 1916              		.loc 1 1488 23
 1917 0080 FB68     		ldr	r3, [r7, #12]
 1918 0082 2022     		movs	r2, #32
 1919 0084 83F83E20 		strb	r2, [r3, #62]
1489:Drivers/STM32F1xx_HAL_Driver/Src/stm32f1xx_hal_i2c.c ****     hi2c->ErrorCode   = HAL_I2C_ERROR_NONE;
 1920              		.loc 1 1489 23
 1921 0088 FB68     		ldr	r3, [r7, #12]
 1922 008a 0022     		movs	r2, #0
 1923 008c 1A64     		str	r2, [r3, #64]
1490:Drivers/STM32F1xx_HAL_Driver/Src/stm32f1xx_hal_i2c.c **** 
1491:Drivers/STM32F1xx_HAL_Driver/Src/stm32f1xx_hal_i2c.c ****     /* Prepare transfer parameters */
1492:Drivers/STM32F1xx_HAL_Driver/Src/stm32f1xx_hal_i2c.c ****     hi2c->pBuffPtr    = pData;
 1924              		.loc 1 1492 23
 1925 008e FB68     		ldr	r3, [r7, #12]
 1926 0090 BA68     		ldr	r2, [r7, #8]
 1927 0092 5A62     		str	r2, [r3, #36]
1493:Drivers/STM32F1xx_HAL_Driver/Src/stm32f1xx_hal_i2c.c ****     hi2c->XferCount   = Size;
 1928              		.loc 1 1493 23
 1929 0094 FB68     		ldr	r3, [r7, #12]
 1930 0096 FA88     		ldrh	r2, [r7, #6]	@ movhi
 1931 0098 5A85     		strh	r2, [r3, #42]	@ movhi
1494:Drivers/STM32F1xx_HAL_Driver/Src/stm32f1xx_hal_i2c.c ****     hi2c->XferSize    = hi2c->XferCount;
 1932              		.loc 1 1494 29
 1933 009a FB68     		ldr	r3, [r7, #12]
 1934 009c 5B8D     		ldrh	r3, [r3, #42]	@ movhi
 1935 009e 9AB2     		uxth	r2, r3
 1936              		.loc 1 1494 23
 1937 00a0 FB68     		ldr	r3, [r7, #12]
 1938 00a2 1A85     		strh	r2, [r3, #40]	@ movhi
1495:Drivers/STM32F1xx_HAL_Driver/Src/stm32f1xx_hal_i2c.c ****     hi2c->XferOptions = I2C_NO_OPTION_FRAME;
 1939              		.loc 1 1495 23
 1940 00a4 FB68     		ldr	r3, [r7, #12]
 1941 00a6 5F4A     		ldr	r2, .L82
 1942 00a8 DA62     		str	r2, [r3, #44]
1496:Drivers/STM32F1xx_HAL_Driver/Src/stm32f1xx_hal_i2c.c **** 
1497:Drivers/STM32F1xx_HAL_Driver/Src/stm32f1xx_hal_i2c.c ****     /* Enable Address Acknowledge */
1498:Drivers/STM32F1xx_HAL_Driver/Src/stm32f1xx_hal_i2c.c ****     SET_BIT(hi2c->Instance->CR1, I2C_CR1_ACK);
 1943              		.loc 1 1498 5
 1944 00aa FB68     		ldr	r3, [r7, #12]
 1945 00ac 1B68     		ldr	r3, [r3]
 1946 00ae 1A68     		ldr	r2, [r3]
ARM GAS  /tmp/ccFqkhxP.s 			page 64


 1947 00b0 FB68     		ldr	r3, [r7, #12]
 1948 00b2 1B68     		ldr	r3, [r3]
 1949 00b4 42F48062 		orr	r2, r2, #1024
 1950 00b8 1A60     		str	r2, [r3]
1499:Drivers/STM32F1xx_HAL_Driver/Src/stm32f1xx_hal_i2c.c **** 
1500:Drivers/STM32F1xx_HAL_Driver/Src/stm32f1xx_hal_i2c.c ****     /* Wait until ADDR flag is set */
1501:Drivers/STM32F1xx_HAL_Driver/Src/stm32f1xx_hal_i2c.c ****     if (I2C_WaitOnFlagUntilTimeout(hi2c, I2C_FLAG_ADDR, RESET, Timeout, tickstart) != HAL_OK)
 1951              		.loc 1 1501 9
 1952 00ba FB69     		ldr	r3, [r7, #28]
 1953 00bc 0093     		str	r3, [sp]
 1954 00be 3B68     		ldr	r3, [r7]
 1955 00c0 0022     		movs	r2, #0
 1956 00c2 5949     		ldr	r1, .L82+4
 1957 00c4 F868     		ldr	r0, [r7, #12]
 1958 00c6 FFF7FEFF 		bl	I2C_WaitOnFlagUntilTimeout
 1959 00ca 0346     		mov	r3, r0
 1960              		.loc 1 1501 8
 1961 00cc 002B     		cmp	r3, #0
 1962 00ce 01D0     		beq	.L75
1502:Drivers/STM32F1xx_HAL_Driver/Src/stm32f1xx_hal_i2c.c ****     {
1503:Drivers/STM32F1xx_HAL_Driver/Src/stm32f1xx_hal_i2c.c ****       return HAL_ERROR;
 1963              		.loc 1 1503 14
 1964 00d0 0123     		movs	r3, #1
 1965 00d2 A3E0     		b	.L72
 1966              	.L75:
 1967              	.LBB69:
1504:Drivers/STM32F1xx_HAL_Driver/Src/stm32f1xx_hal_i2c.c ****     }
1505:Drivers/STM32F1xx_HAL_Driver/Src/stm32f1xx_hal_i2c.c **** 
1506:Drivers/STM32F1xx_HAL_Driver/Src/stm32f1xx_hal_i2c.c ****     /* Clear ADDR flag */
1507:Drivers/STM32F1xx_HAL_Driver/Src/stm32f1xx_hal_i2c.c ****     __HAL_I2C_CLEAR_ADDRFLAG(hi2c);
 1968              		.loc 1 1507 5
 1969 00d4 0023     		movs	r3, #0
 1970 00d6 BB61     		str	r3, [r7, #24]
 1971 00d8 FB68     		ldr	r3, [r7, #12]
 1972 00da 1B68     		ldr	r3, [r3]
 1973 00dc 5B69     		ldr	r3, [r3, #20]
 1974 00de BB61     		str	r3, [r7, #24]
 1975 00e0 FB68     		ldr	r3, [r7, #12]
 1976 00e2 1B68     		ldr	r3, [r3]
 1977 00e4 9B69     		ldr	r3, [r3, #24]
 1978 00e6 BB61     		str	r3, [r7, #24]
 1979 00e8 BB69     		ldr	r3, [r7, #24]
 1980              	.LBE69:
1508:Drivers/STM32F1xx_HAL_Driver/Src/stm32f1xx_hal_i2c.c **** 
1509:Drivers/STM32F1xx_HAL_Driver/Src/stm32f1xx_hal_i2c.c ****     /* If 10bit addressing mode is selected */
1510:Drivers/STM32F1xx_HAL_Driver/Src/stm32f1xx_hal_i2c.c ****     if (hi2c->Init.AddressingMode == I2C_ADDRESSINGMODE_10BIT)
 1981              		.loc 1 1510 19
 1982 00ea FB68     		ldr	r3, [r7, #12]
 1983 00ec 1B69     		ldr	r3, [r3, #16]
 1984              		.loc 1 1510 8
 1985 00ee B3F5404F 		cmp	r3, #49152
 1986 00f2 65D1     		bne	.L78
1511:Drivers/STM32F1xx_HAL_Driver/Src/stm32f1xx_hal_i2c.c ****     {
1512:Drivers/STM32F1xx_HAL_Driver/Src/stm32f1xx_hal_i2c.c ****       /* Wait until ADDR flag is set */
1513:Drivers/STM32F1xx_HAL_Driver/Src/stm32f1xx_hal_i2c.c ****       if (I2C_WaitOnFlagUntilTimeout(hi2c, I2C_FLAG_ADDR, RESET, Timeout, tickstart) != HAL_OK)
 1987              		.loc 1 1513 11
 1988 00f4 FB69     		ldr	r3, [r7, #28]
ARM GAS  /tmp/ccFqkhxP.s 			page 65


 1989 00f6 0093     		str	r3, [sp]
 1990 00f8 3B68     		ldr	r3, [r7]
 1991 00fa 0022     		movs	r2, #0
 1992 00fc 4A49     		ldr	r1, .L82+4
 1993 00fe F868     		ldr	r0, [r7, #12]
 1994 0100 FFF7FEFF 		bl	I2C_WaitOnFlagUntilTimeout
 1995 0104 0346     		mov	r3, r0
 1996              		.loc 1 1513 10
 1997 0106 002B     		cmp	r3, #0
 1998 0108 01D0     		beq	.L77
1514:Drivers/STM32F1xx_HAL_Driver/Src/stm32f1xx_hal_i2c.c ****       {
1515:Drivers/STM32F1xx_HAL_Driver/Src/stm32f1xx_hal_i2c.c ****         return HAL_ERROR;
 1999              		.loc 1 1515 16
 2000 010a 0123     		movs	r3, #1
 2001 010c 86E0     		b	.L72
 2002              	.L77:
 2003              	.LBB70:
1516:Drivers/STM32F1xx_HAL_Driver/Src/stm32f1xx_hal_i2c.c ****       }
1517:Drivers/STM32F1xx_HAL_Driver/Src/stm32f1xx_hal_i2c.c **** 
1518:Drivers/STM32F1xx_HAL_Driver/Src/stm32f1xx_hal_i2c.c ****       /* Clear ADDR flag */
1519:Drivers/STM32F1xx_HAL_Driver/Src/stm32f1xx_hal_i2c.c ****       __HAL_I2C_CLEAR_ADDRFLAG(hi2c);
 2004              		.loc 1 1519 7
 2005 010e 0023     		movs	r3, #0
 2006 0110 7B61     		str	r3, [r7, #20]
 2007 0112 FB68     		ldr	r3, [r7, #12]
 2008 0114 1B68     		ldr	r3, [r3]
 2009 0116 5B69     		ldr	r3, [r3, #20]
 2010 0118 7B61     		str	r3, [r7, #20]
 2011 011a FB68     		ldr	r3, [r7, #12]
 2012 011c 1B68     		ldr	r3, [r3]
 2013 011e 9B69     		ldr	r3, [r3, #24]
 2014 0120 7B61     		str	r3, [r7, #20]
 2015 0122 7B69     		ldr	r3, [r7, #20]
 2016              	.LBE70:
1520:Drivers/STM32F1xx_HAL_Driver/Src/stm32f1xx_hal_i2c.c ****     }
1521:Drivers/STM32F1xx_HAL_Driver/Src/stm32f1xx_hal_i2c.c **** 
1522:Drivers/STM32F1xx_HAL_Driver/Src/stm32f1xx_hal_i2c.c ****     while (hi2c->XferSize > 0U)
 2017              		.loc 1 1522 11
 2018 0124 4CE0     		b	.L78
 2019              	.L80:
1523:Drivers/STM32F1xx_HAL_Driver/Src/stm32f1xx_hal_i2c.c ****     {
1524:Drivers/STM32F1xx_HAL_Driver/Src/stm32f1xx_hal_i2c.c ****       /* Wait until TXE flag is set */
1525:Drivers/STM32F1xx_HAL_Driver/Src/stm32f1xx_hal_i2c.c ****       if (I2C_WaitOnTXEFlagUntilTimeout(hi2c, Timeout, tickstart) != HAL_OK)
 2020              		.loc 1 1525 11
 2021 0126 FA69     		ldr	r2, [r7, #28]
 2022 0128 3968     		ldr	r1, [r7]
 2023 012a F868     		ldr	r0, [r7, #12]
 2024 012c FFF7FEFF 		bl	I2C_WaitOnTXEFlagUntilTimeout
 2025 0130 0346     		mov	r3, r0
 2026              		.loc 1 1525 10
 2027 0132 002B     		cmp	r3, #0
 2028 0134 09D0     		beq	.L79
1526:Drivers/STM32F1xx_HAL_Driver/Src/stm32f1xx_hal_i2c.c ****       {
1527:Drivers/STM32F1xx_HAL_Driver/Src/stm32f1xx_hal_i2c.c ****         /* Disable Address Acknowledge */
1528:Drivers/STM32F1xx_HAL_Driver/Src/stm32f1xx_hal_i2c.c ****         CLEAR_BIT(hi2c->Instance->CR1, I2C_CR1_ACK);
 2029              		.loc 1 1528 9
 2030 0136 FB68     		ldr	r3, [r7, #12]
ARM GAS  /tmp/ccFqkhxP.s 			page 66


 2031 0138 1B68     		ldr	r3, [r3]
 2032 013a 1A68     		ldr	r2, [r3]
 2033 013c FB68     		ldr	r3, [r7, #12]
 2034 013e 1B68     		ldr	r3, [r3]
 2035 0140 22F48062 		bic	r2, r2, #1024
 2036 0144 1A60     		str	r2, [r3]
1529:Drivers/STM32F1xx_HAL_Driver/Src/stm32f1xx_hal_i2c.c **** 
1530:Drivers/STM32F1xx_HAL_Driver/Src/stm32f1xx_hal_i2c.c ****         return HAL_ERROR;
 2037              		.loc 1 1530 16
 2038 0146 0123     		movs	r3, #1
 2039 0148 68E0     		b	.L72
 2040              	.L79:
1531:Drivers/STM32F1xx_HAL_Driver/Src/stm32f1xx_hal_i2c.c ****       }
1532:Drivers/STM32F1xx_HAL_Driver/Src/stm32f1xx_hal_i2c.c **** 
1533:Drivers/STM32F1xx_HAL_Driver/Src/stm32f1xx_hal_i2c.c ****       /* Write data to DR */
1534:Drivers/STM32F1xx_HAL_Driver/Src/stm32f1xx_hal_i2c.c ****       hi2c->Instance->DR = *hi2c->pBuffPtr;
 2041              		.loc 1 1534 33
 2042 014a FB68     		ldr	r3, [r7, #12]
 2043 014c 5B6A     		ldr	r3, [r3, #36]
 2044              		.loc 1 1534 28
 2045 014e 1A78     		ldrb	r2, [r3]	@ zero_extendqisi2
 2046              		.loc 1 1534 11
 2047 0150 FB68     		ldr	r3, [r7, #12]
 2048 0152 1B68     		ldr	r3, [r3]
 2049              		.loc 1 1534 26
 2050 0154 1A61     		str	r2, [r3, #16]
1535:Drivers/STM32F1xx_HAL_Driver/Src/stm32f1xx_hal_i2c.c **** 
1536:Drivers/STM32F1xx_HAL_Driver/Src/stm32f1xx_hal_i2c.c ****       /* Increment Buffer pointer */
1537:Drivers/STM32F1xx_HAL_Driver/Src/stm32f1xx_hal_i2c.c ****       hi2c->pBuffPtr++;
 2051              		.loc 1 1537 11
 2052 0156 FB68     		ldr	r3, [r7, #12]
 2053 0158 5B6A     		ldr	r3, [r3, #36]
 2054              		.loc 1 1537 21
 2055 015a 5A1C     		adds	r2, r3, #1
 2056 015c FB68     		ldr	r3, [r7, #12]
 2057 015e 5A62     		str	r2, [r3, #36]
1538:Drivers/STM32F1xx_HAL_Driver/Src/stm32f1xx_hal_i2c.c **** 
1539:Drivers/STM32F1xx_HAL_Driver/Src/stm32f1xx_hal_i2c.c ****       /* Update counter */
1540:Drivers/STM32F1xx_HAL_Driver/Src/stm32f1xx_hal_i2c.c ****       hi2c->XferCount--;
 2058              		.loc 1 1540 11
 2059 0160 FB68     		ldr	r3, [r7, #12]
 2060 0162 5B8D     		ldrh	r3, [r3, #42]	@ movhi
 2061 0164 9BB2     		uxth	r3, r3
 2062              		.loc 1 1540 22
 2063 0166 013B     		subs	r3, r3, #1
 2064 0168 9AB2     		uxth	r2, r3
 2065 016a FB68     		ldr	r3, [r7, #12]
 2066 016c 5A85     		strh	r2, [r3, #42]	@ movhi
1541:Drivers/STM32F1xx_HAL_Driver/Src/stm32f1xx_hal_i2c.c ****       hi2c->XferSize--;
 2067              		.loc 1 1541 11
 2068 016e FB68     		ldr	r3, [r7, #12]
 2069 0170 1B8D     		ldrh	r3, [r3, #40]
 2070              		.loc 1 1541 21
 2071 0172 013B     		subs	r3, r3, #1
 2072 0174 9AB2     		uxth	r2, r3
 2073 0176 FB68     		ldr	r3, [r7, #12]
 2074 0178 1A85     		strh	r2, [r3, #40]	@ movhi
ARM GAS  /tmp/ccFqkhxP.s 			page 67


1542:Drivers/STM32F1xx_HAL_Driver/Src/stm32f1xx_hal_i2c.c **** 
1543:Drivers/STM32F1xx_HAL_Driver/Src/stm32f1xx_hal_i2c.c ****       if ((__HAL_I2C_GET_FLAG(hi2c, I2C_FLAG_BTF) == SET) && (hi2c->XferSize != 0U))
 2075              		.loc 1 1543 12
 2076 017a FB68     		ldr	r3, [r7, #12]
 2077 017c 1B68     		ldr	r3, [r3]
 2078 017e 5B69     		ldr	r3, [r3, #20]
 2079 0180 03F00403 		and	r3, r3, #4
 2080              		.loc 1 1543 10
 2081 0184 042B     		cmp	r3, #4
 2082 0186 1BD1     		bne	.L78
 2083              		.loc 1 1543 67 discriminator 1
 2084 0188 FB68     		ldr	r3, [r7, #12]
 2085 018a 1B8D     		ldrh	r3, [r3, #40]
 2086              		.loc 1 1543 59 discriminator 1
 2087 018c 002B     		cmp	r3, #0
 2088 018e 17D0     		beq	.L78
1544:Drivers/STM32F1xx_HAL_Driver/Src/stm32f1xx_hal_i2c.c ****       {
1545:Drivers/STM32F1xx_HAL_Driver/Src/stm32f1xx_hal_i2c.c ****         /* Write data to DR */
1546:Drivers/STM32F1xx_HAL_Driver/Src/stm32f1xx_hal_i2c.c ****         hi2c->Instance->DR = *hi2c->pBuffPtr;
 2089              		.loc 1 1546 35
 2090 0190 FB68     		ldr	r3, [r7, #12]
 2091 0192 5B6A     		ldr	r3, [r3, #36]
 2092              		.loc 1 1546 30
 2093 0194 1A78     		ldrb	r2, [r3]	@ zero_extendqisi2
 2094              		.loc 1 1546 13
 2095 0196 FB68     		ldr	r3, [r7, #12]
 2096 0198 1B68     		ldr	r3, [r3]
 2097              		.loc 1 1546 28
 2098 019a 1A61     		str	r2, [r3, #16]
1547:Drivers/STM32F1xx_HAL_Driver/Src/stm32f1xx_hal_i2c.c **** 
1548:Drivers/STM32F1xx_HAL_Driver/Src/stm32f1xx_hal_i2c.c ****         /* Increment Buffer pointer */
1549:Drivers/STM32F1xx_HAL_Driver/Src/stm32f1xx_hal_i2c.c ****         hi2c->pBuffPtr++;
 2099              		.loc 1 1549 13
 2100 019c FB68     		ldr	r3, [r7, #12]
 2101 019e 5B6A     		ldr	r3, [r3, #36]
 2102              		.loc 1 1549 23
 2103 01a0 5A1C     		adds	r2, r3, #1
 2104 01a2 FB68     		ldr	r3, [r7, #12]
