ARM GAS  /tmp/cct98kYD.s 			page 1


   1              		.cpu cortex-m3
   2              		.eabi_attribute 20, 1
   3              		.eabi_attribute 21, 1
   4              		.eabi_attribute 23, 3
   5              		.eabi_attribute 24, 1
   6              		.eabi_attribute 25, 1
   7              		.eabi_attribute 26, 1
   8              		.eabi_attribute 30, 6
   9              		.eabi_attribute 34, 1
  10              		.eabi_attribute 18, 4
  11              		.file	"stm32f1xx_it.c"
  12              		.text
  13              	.Ltext0:
  14              		.cfi_sections	.debug_frame
  15              		.section	.text.NMI_Handler,"ax",%progbits
  16              		.align	1
  17              		.global	NMI_Handler
  18              		.syntax unified
  19              		.thumb
  20              		.thumb_func
  21              		.fpu softvfp
  23              	NMI_Handler:
  24              	.LFB66:
  25              		.file 1 "Src/stm32f1xx_it.c"
   1:Src/stm32f1xx_it.c **** /* USER CODE BEGIN Header */
   2:Src/stm32f1xx_it.c **** /**
   3:Src/stm32f1xx_it.c ****   ******************************************************************************
   4:Src/stm32f1xx_it.c ****   * @file    stm32f1xx_it.c
   5:Src/stm32f1xx_it.c ****   * @brief   Interrupt Service Routines.
   6:Src/stm32f1xx_it.c ****   ******************************************************************************
   7:Src/stm32f1xx_it.c ****   * @attention
   8:Src/stm32f1xx_it.c ****   *
   9:Src/stm32f1xx_it.c ****   * <h2><center>&copy; Copyright (c) 2022 STMicroelectronics.
  10:Src/stm32f1xx_it.c ****   * All rights reserved.</center></h2>
  11:Src/stm32f1xx_it.c ****   *
  12:Src/stm32f1xx_it.c ****   * This software component is licensed by ST under BSD 3-Clause license,
  13:Src/stm32f1xx_it.c ****   * the "License"; You may not use this file except in compliance with the
  14:Src/stm32f1xx_it.c ****   * License. You may obtain a copy of the License at:
  15:Src/stm32f1xx_it.c ****   *                        opensource.org/licenses/BSD-3-Clause
  16:Src/stm32f1xx_it.c ****   *
  17:Src/stm32f1xx_it.c ****   ******************************************************************************
  18:Src/stm32f1xx_it.c ****   */
  19:Src/stm32f1xx_it.c **** /* USER CODE END Header */
  20:Src/stm32f1xx_it.c **** 
  21:Src/stm32f1xx_it.c **** /* Includes ------------------------------------------------------------------*/
  22:Src/stm32f1xx_it.c **** #include "main.h"
  23:Src/stm32f1xx_it.c **** #include "stm32f1xx_it.h"
  24:Src/stm32f1xx_it.c **** /* Private includes ----------------------------------------------------------*/
  25:Src/stm32f1xx_it.c **** /* USER CODE BEGIN Includes */
  26:Src/stm32f1xx_it.c **** #include "ec20.h"
  27:Src/stm32f1xx_it.c **** /* USER CODE END Includes */
  28:Src/stm32f1xx_it.c **** 
  29:Src/stm32f1xx_it.c **** /* Private typedef -----------------------------------------------------------*/
  30:Src/stm32f1xx_it.c **** /* USER CODE BEGIN TD */
  31:Src/stm32f1xx_it.c **** 
  32:Src/stm32f1xx_it.c **** /* USER CODE END TD */
  33:Src/stm32f1xx_it.c **** 
ARM GAS  /tmp/cct98kYD.s 			page 2


  34:Src/stm32f1xx_it.c **** /* Private define ------------------------------------------------------------*/
  35:Src/stm32f1xx_it.c **** /* USER CODE BEGIN PD */
  36:Src/stm32f1xx_it.c ****  
  37:Src/stm32f1xx_it.c **** /* USER CODE END PD */
  38:Src/stm32f1xx_it.c **** 
  39:Src/stm32f1xx_it.c **** /* Private macro -------------------------------------------------------------*/
  40:Src/stm32f1xx_it.c **** /* USER CODE BEGIN PM */
  41:Src/stm32f1xx_it.c **** 
  42:Src/stm32f1xx_it.c **** /* USER CODE END PM */
  43:Src/stm32f1xx_it.c **** 
  44:Src/stm32f1xx_it.c **** /* Private variables ---------------------------------------------------------*/
  45:Src/stm32f1xx_it.c **** /* USER CODE BEGIN PV */
  46:Src/stm32f1xx_it.c **** 
  47:Src/stm32f1xx_it.c **** /* USER CODE END PV */
  48:Src/stm32f1xx_it.c **** 
  49:Src/stm32f1xx_it.c **** /* Private function prototypes -----------------------------------------------*/
  50:Src/stm32f1xx_it.c **** /* USER CODE BEGIN PFP */
  51:Src/stm32f1xx_it.c **** 
  52:Src/stm32f1xx_it.c **** /* USER CODE END PFP */
  53:Src/stm32f1xx_it.c **** 
  54:Src/stm32f1xx_it.c **** /* Private user code ---------------------------------------------------------*/
  55:Src/stm32f1xx_it.c **** /* USER CODE BEGIN 0 */
  56:Src/stm32f1xx_it.c **** 
  57:Src/stm32f1xx_it.c **** /* USER CODE END 0 */
  58:Src/stm32f1xx_it.c **** 
  59:Src/stm32f1xx_it.c **** /* External variables --------------------------------------------------------*/
  60:Src/stm32f1xx_it.c **** extern DMA_HandleTypeDef hdma_usart1_rx;
  61:Src/stm32f1xx_it.c **** extern DMA_HandleTypeDef hdma_usart2_rx;
  62:Src/stm32f1xx_it.c **** extern DMA_HandleTypeDef hdma_usart3_rx;
  63:Src/stm32f1xx_it.c **** extern UART_HandleTypeDef huart1;
  64:Src/stm32f1xx_it.c **** extern UART_HandleTypeDef huart2;
  65:Src/stm32f1xx_it.c **** extern UART_HandleTypeDef huart3;
  66:Src/stm32f1xx_it.c **** /* USER CODE BEGIN EV */
  67:Src/stm32f1xx_it.c **** 
  68:Src/stm32f1xx_it.c **** /* USER CODE END EV */
  69:Src/stm32f1xx_it.c **** 
  70:Src/stm32f1xx_it.c **** /******************************************************************************/
  71:Src/stm32f1xx_it.c **** /*           Cortex-M3 Processor Interruption and Exception Handlers          */
  72:Src/stm32f1xx_it.c **** /******************************************************************************/
  73:Src/stm32f1xx_it.c **** /**
  74:Src/stm32f1xx_it.c ****   * @brief This function handles Non maskable interrupt.
  75:Src/stm32f1xx_it.c ****   */
  76:Src/stm32f1xx_it.c **** void NMI_Handler(void)
  77:Src/stm32f1xx_it.c **** {
  26              		.loc 1 77 0
  27              		.cfi_startproc
  28              		@ args = 0, pretend = 0, frame = 0
  29              		@ frame_needed = 1, uses_anonymous_args = 0
  30              		@ link register save eliminated.
  31 0000 80B4     		push	{r7}
  32              	.LCFI0:
  33              		.cfi_def_cfa_offset 4
  34              		.cfi_offset 7, -4
  35 0002 00AF     		add	r7, sp, #0
  36              	.LCFI1:
  37              		.cfi_def_cfa_register 7
  78:Src/stm32f1xx_it.c ****   /* USER CODE BEGIN NonMaskableInt_IRQn 0 */
ARM GAS  /tmp/cct98kYD.s 			page 3


  79:Src/stm32f1xx_it.c **** 
  80:Src/stm32f1xx_it.c ****   /* USER CODE END NonMaskableInt_IRQn 0 */
  81:Src/stm32f1xx_it.c ****   /* USER CODE BEGIN NonMaskableInt_IRQn 1 */
  82:Src/stm32f1xx_it.c **** 
  83:Src/stm32f1xx_it.c ****   /* USER CODE END NonMaskableInt_IRQn 1 */
  84:Src/stm32f1xx_it.c **** }
  38              		.loc 1 84 0
  39 0004 00BF     		nop
  40 0006 BD46     		mov	sp, r7
  41              	.LCFI2:
  42              		.cfi_def_cfa_register 13
  43              		@ sp needed
  44 0008 80BC     		pop	{r7}
  45              	.LCFI3:
  46              		.cfi_restore 7
  47              		.cfi_def_cfa_offset 0
  48 000a 7047     		bx	lr
  49              		.cfi_endproc
  50              	.LFE66:
  52              		.section	.text.HardFault_Handler,"ax",%progbits
  53              		.align	1
  54              		.global	HardFault_Handler
  55              		.syntax unified
  56              		.thumb
  57              		.thumb_func
  58              		.fpu softvfp
  60              	HardFault_Handler:
  61              	.LFB67:
  85:Src/stm32f1xx_it.c **** 
  86:Src/stm32f1xx_it.c **** /**
  87:Src/stm32f1xx_it.c ****   * @brief This function handles Hard fault interrupt.
  88:Src/stm32f1xx_it.c ****   */
  89:Src/stm32f1xx_it.c **** void HardFault_Handler(void)
  90:Src/stm32f1xx_it.c **** {
  62              		.loc 1 90 0
  63              		.cfi_startproc
  64              		@ args = 0, pretend = 0, frame = 0
  65              		@ frame_needed = 1, uses_anonymous_args = 0
  66              		@ link register save eliminated.
  67 0000 80B4     		push	{r7}
  68              	.LCFI4:
  69              		.cfi_def_cfa_offset 4
  70              		.cfi_offset 7, -4
  71 0002 00AF     		add	r7, sp, #0
  72              	.LCFI5:
  73              		.cfi_def_cfa_register 7
  74              	.L3:
  91:Src/stm32f1xx_it.c ****   /* USER CODE BEGIN HardFault_IRQn 0 */
  92:Src/stm32f1xx_it.c **** 
  93:Src/stm32f1xx_it.c ****   /* USER CODE END HardFault_IRQn 0 */
  94:Src/stm32f1xx_it.c ****   while (1)
  75              		.loc 1 94 0 discriminator 1
  76 0004 FEE7     		b	.L3
  77              		.cfi_endproc
  78              	.LFE67:
  80              		.section	.text.MemManage_Handler,"ax",%progbits
  81              		.align	1
ARM GAS  /tmp/cct98kYD.s 			page 4


  82              		.global	MemManage_Handler
  83              		.syntax unified
  84              		.thumb
  85              		.thumb_func
  86              		.fpu softvfp
  88              	MemManage_Handler:
  89              	.LFB68:
  95:Src/stm32f1xx_it.c ****   {
  96:Src/stm32f1xx_it.c ****     /* USER CODE BEGIN W1_HardFault_IRQn 0 */
  97:Src/stm32f1xx_it.c ****     /* USER CODE END W1_HardFault_IRQn 0 */
  98:Src/stm32f1xx_it.c ****   }
  99:Src/stm32f1xx_it.c **** }
 100:Src/stm32f1xx_it.c **** 
 101:Src/stm32f1xx_it.c **** /**
 102:Src/stm32f1xx_it.c ****   * @brief This function handles Memory management fault.
 103:Src/stm32f1xx_it.c ****   */
 104:Src/stm32f1xx_it.c **** void MemManage_Handler(void)
 105:Src/stm32f1xx_it.c **** {
  90              		.loc 1 105 0
  91              		.cfi_startproc
  92              		@ args = 0, pretend = 0, frame = 0
  93              		@ frame_needed = 1, uses_anonymous_args = 0
  94              		@ link register save eliminated.
  95 0000 80B4     		push	{r7}
  96              	.LCFI6:
  97              		.cfi_def_cfa_offset 4
  98              		.cfi_offset 7, -4
  99 0002 00AF     		add	r7, sp, #0
 100              	.LCFI7:
 101              		.cfi_def_cfa_register 7
 102              	.L5:
 106:Src/stm32f1xx_it.c ****   /* USER CODE BEGIN MemoryManagement_IRQn 0 */
 107:Src/stm32f1xx_it.c **** 
 108:Src/stm32f1xx_it.c ****   /* USER CODE END MemoryManagement_IRQn 0 */
 109:Src/stm32f1xx_it.c ****   while (1)
 103              		.loc 1 109 0 discriminator 1
 104 0004 FEE7     		b	.L5
 105              		.cfi_endproc
 106              	.LFE68:
 108              		.section	.text.BusFault_Handler,"ax",%progbits
 109              		.align	1
 110              		.global	BusFault_Handler
 111              		.syntax unified
 112              		.thumb
 113              		.thumb_func
 114              		.fpu softvfp
 116              	BusFault_Handler:
 117              	.LFB69:
 110:Src/stm32f1xx_it.c ****   {
 111:Src/stm32f1xx_it.c ****     /* USER CODE BEGIN W1_MemoryManagement_IRQn 0 */
 112:Src/stm32f1xx_it.c ****     /* USER CODE END W1_MemoryManagement_IRQn 0 */
 113:Src/stm32f1xx_it.c ****   }
 114:Src/stm32f1xx_it.c **** }
 115:Src/stm32f1xx_it.c **** 
 116:Src/stm32f1xx_it.c **** /**
 117:Src/stm32f1xx_it.c ****   * @brief This function handles Prefetch fault, memory access fault.
 118:Src/stm32f1xx_it.c ****   */
ARM GAS  /tmp/cct98kYD.s 			page 5


 119:Src/stm32f1xx_it.c **** void BusFault_Handler(void)
 120:Src/stm32f1xx_it.c **** {
 118              		.loc 1 120 0
 119              		.cfi_startproc
 120              		@ args = 0, pretend = 0, frame = 0
 121              		@ frame_needed = 1, uses_anonymous_args = 0
 122              		@ link register save eliminated.
 123 0000 80B4     		push	{r7}
 124              	.LCFI8:
 125              		.cfi_def_cfa_offset 4
 126              		.cfi_offset 7, -4
 127 0002 00AF     		add	r7, sp, #0
 128              	.LCFI9:
 129              		.cfi_def_cfa_register 7
 130              	.L7:
 121:Src/stm32f1xx_it.c ****   /* USER CODE BEGIN BusFault_IRQn 0 */
 122:Src/stm32f1xx_it.c **** 
 123:Src/stm32f1xx_it.c ****   /* USER CODE END BusFault_IRQn 0 */
 124:Src/stm32f1xx_it.c ****   while (1)
 131              		.loc 1 124 0 discriminator 1
 132 0004 FEE7     		b	.L7
 133              		.cfi_endproc
 134              	.LFE69:
 136              		.section	.text.UsageFault_Handler,"ax",%progbits
 137              		.align	1
 138              		.global	UsageFault_Handler
 139              		.syntax unified
 140              		.thumb
 141              		.thumb_func
 142              		.fpu softvfp
 144              	UsageFault_Handler:
 145              	.LFB70:
 125:Src/stm32f1xx_it.c ****   {
 126:Src/stm32f1xx_it.c ****     /* USER CODE BEGIN W1_BusFault_IRQn 0 */
 127:Src/stm32f1xx_it.c ****     /* USER CODE END W1_BusFault_IRQn 0 */
 128:Src/stm32f1xx_it.c ****   }
 129:Src/stm32f1xx_it.c **** }
 130:Src/stm32f1xx_it.c **** 
 131:Src/stm32f1xx_it.c **** /**
 132:Src/stm32f1xx_it.c ****   * @brief This function handles Undefined instruction or illegal state.
 133:Src/stm32f1xx_it.c ****   */
 134:Src/stm32f1xx_it.c **** void UsageFault_Handler(void)
 135:Src/stm32f1xx_it.c **** {
 146              		.loc 1 135 0
 147              		.cfi_startproc
 148              		@ args = 0, pretend = 0, frame = 0
 149              		@ frame_needed = 1, uses_anonymous_args = 0
 150              		@ link register save eliminated.
 151 0000 80B4     		push	{r7}
 152              	.LCFI10:
 153              		.cfi_def_cfa_offset 4
 154              		.cfi_offset 7, -4
 155 0002 00AF     		add	r7, sp, #0
 156              	.LCFI11:
 157              		.cfi_def_cfa_register 7
 158              	.L9:
 136:Src/stm32f1xx_it.c ****   /* USER CODE BEGIN UsageFault_IRQn 0 */
ARM GAS  /tmp/cct98kYD.s 			page 6


 137:Src/stm32f1xx_it.c **** 
 138:Src/stm32f1xx_it.c ****   /* USER CODE END UsageFault_IRQn 0 */
 139:Src/stm32f1xx_it.c ****   while (1)
 159              		.loc 1 139 0 discriminator 1
 160 0004 FEE7     		b	.L9
 161              		.cfi_endproc
 162              	.LFE70:
 164              		.section	.text.SVC_Handler,"ax",%progbits
 165              		.align	1
 166              		.global	SVC_Handler
 167              		.syntax unified
 168              		.thumb
 169              		.thumb_func
 170              		.fpu softvfp
 172              	SVC_Handler:
 173              	.LFB71:
 140:Src/stm32f1xx_it.c ****   {
 141:Src/stm32f1xx_it.c ****     /* USER CODE BEGIN W1_UsageFault_IRQn 0 */
 142:Src/stm32f1xx_it.c ****     /* USER CODE END W1_UsageFault_IRQn 0 */
 143:Src/stm32f1xx_it.c ****   }
 144:Src/stm32f1xx_it.c **** }
 145:Src/stm32f1xx_it.c **** 
 146:Src/stm32f1xx_it.c **** /**
 147:Src/stm32f1xx_it.c ****   * @brief This function handles System service call via SWI instruction.
 148:Src/stm32f1xx_it.c ****   */
 149:Src/stm32f1xx_it.c **** void SVC_Handler(void)
 150:Src/stm32f1xx_it.c **** {
 174              		.loc 1 150 0
 175              		.cfi_startproc
 176              		@ args = 0, pretend = 0, frame = 0
 177              		@ frame_needed = 1, uses_anonymous_args = 0
 178              		@ link register save eliminated.
 179 0000 80B4     		push	{r7}
 180              	.LCFI12:
 181              		.cfi_def_cfa_offset 4
 182              		.cfi_offset 7, -4
 183 0002 00AF     		add	r7, sp, #0
 184              	.LCFI13:
 185              		.cfi_def_cfa_register 7
 151:Src/stm32f1xx_it.c ****   /* USER CODE BEGIN SVCall_IRQn 0 */
 152:Src/stm32f1xx_it.c **** 
 153:Src/stm32f1xx_it.c ****   /* USER CODE END SVCall_IRQn 0 */
 154:Src/stm32f1xx_it.c ****   /* USER CODE BEGIN SVCall_IRQn 1 */
 155:Src/stm32f1xx_it.c **** 
 156:Src/stm32f1xx_it.c ****   /* USER CODE END SVCall_IRQn 1 */
 157:Src/stm32f1xx_it.c **** }
 186              		.loc 1 157 0
 187 0004 00BF     		nop
 188 0006 BD46     		mov	sp, r7
 189              	.LCFI14:
 190              		.cfi_def_cfa_register 13
 191              		@ sp needed
 192 0008 80BC     		pop	{r7}
 193              	.LCFI15:
 194              		.cfi_restore 7
 195              		.cfi_def_cfa_offset 0
 196 000a 7047     		bx	lr
ARM GAS  /tmp/cct98kYD.s 			page 7


 197              		.cfi_endproc
 198              	.LFE71:
 200              		.section	.text.DebugMon_Handler,"ax",%progbits
 201              		.align	1
 202              		.global	DebugMon_Handler
 203              		.syntax unified
 204              		.thumb
 205              		.thumb_func
 206              		.fpu softvfp
 208              	DebugMon_Handler:
 209              	.LFB72:
 158:Src/stm32f1xx_it.c **** 
 159:Src/stm32f1xx_it.c **** /**
 160:Src/stm32f1xx_it.c ****   * @brief This function handles Debug monitor.
 161:Src/stm32f1xx_it.c ****   */
 162:Src/stm32f1xx_it.c **** void DebugMon_Handler(void)
 163:Src/stm32f1xx_it.c **** {
 210              		.loc 1 163 0
 211              		.cfi_startproc
 212              		@ args = 0, pretend = 0, frame = 0
 213              		@ frame_needed = 1, uses_anonymous_args = 0
 214              		@ link register save eliminated.
 215 0000 80B4     		push	{r7}
 216              	.LCFI16:
 217              		.cfi_def_cfa_offset 4
 218              		.cfi_offset 7, -4
 219 0002 00AF     		add	r7, sp, #0
 220              	.LCFI17:
 221              		.cfi_def_cfa_register 7
 164:Src/stm32f1xx_it.c ****   /* USER CODE BEGIN DebugMonitor_IRQn 0 */
 165:Src/stm32f1xx_it.c **** 
 166:Src/stm32f1xx_it.c ****   /* USER CODE END DebugMonitor_IRQn 0 */
 167:Src/stm32f1xx_it.c ****   /* USER CODE BEGIN DebugMonitor_IRQn 1 */
 168:Src/stm32f1xx_it.c **** 
 169:Src/stm32f1xx_it.c ****   /* USER CODE END DebugMonitor_IRQn 1 */
 170:Src/stm32f1xx_it.c **** }
 222              		.loc 1 170 0
 223 0004 00BF     		nop
 224 0006 BD46     		mov	sp, r7
 225              	.LCFI18:
 226              		.cfi_def_cfa_register 13
 227              		@ sp needed
 228 0008 80BC     		pop	{r7}
 229              	.LCFI19:
 230              		.cfi_restore 7
 231              		.cfi_def_cfa_offset 0
 232 000a 7047     		bx	lr
 233              		.cfi_endproc
 234              	.LFE72:
 236              		.section	.text.PendSV_Handler,"ax",%progbits
 237              		.align	1
 238              		.global	PendSV_Handler
 239              		.syntax unified
 240              		.thumb
 241              		.thumb_func
 242              		.fpu softvfp
 244              	PendSV_Handler:
ARM GAS  /tmp/cct98kYD.s 			page 8


 245              	.LFB73:
 171:Src/stm32f1xx_it.c **** 
 172:Src/stm32f1xx_it.c **** /**
 173:Src/stm32f1xx_it.c ****   * @brief This function handles Pendable request for system service.
 174:Src/stm32f1xx_it.c ****   */
 175:Src/stm32f1xx_it.c **** void PendSV_Handler(void)
 176:Src/stm32f1xx_it.c **** {
 246              		.loc 1 176 0
 247              		.cfi_startproc
 248              		@ args = 0, pretend = 0, frame = 0
 249              		@ frame_needed = 1, uses_anonymous_args = 0
 250              		@ link register save eliminated.
 251 0000 80B4     		push	{r7}
 252              	.LCFI20:
 253              		.cfi_def_cfa_offset 4
 254              		.cfi_offset 7, -4
 255 0002 00AF     		add	r7, sp, #0
 256              	.LCFI21:
 257              		.cfi_def_cfa_register 7
 177:Src/stm32f1xx_it.c ****   /* USER CODE BEGIN PendSV_IRQn 0 */
 178:Src/stm32f1xx_it.c **** 
 179:Src/stm32f1xx_it.c ****   /* USER CODE END PendSV_IRQn 0 */
 180:Src/stm32f1xx_it.c ****   /* USER CODE BEGIN PendSV_IRQn 1 */
 181:Src/stm32f1xx_it.c **** 
 182:Src/stm32f1xx_it.c ****   /* USER CODE END PendSV_IRQn 1 */
 183:Src/stm32f1xx_it.c **** }
 258              		.loc 1 183 0
 259 0004 00BF     		nop
 260 0006 BD46     		mov	sp, r7
 261              	.LCFI22:
 262              		.cfi_def_cfa_register 13
 263              		@ sp needed
 264 0008 80BC     		pop	{r7}
 265              	.LCFI23:
 266              		.cfi_restore 7
 267              		.cfi_def_cfa_offset 0
 268 000a 7047     		bx	lr
 269              		.cfi_endproc
 270              	.LFE73:
 272              		.section	.text.SysTick_Handler,"ax",%progbits
 273              		.align	1
 274              		.global	SysTick_Handler
 275              		.syntax unified
 276              		.thumb
 277              		.thumb_func
 278              		.fpu softvfp
 280              	SysTick_Handler:
 281              	.LFB74:
 184:Src/stm32f1xx_it.c **** 
 185:Src/stm32f1xx_it.c **** /**
 186:Src/stm32f1xx_it.c ****   * @brief This function handles System tick timer.
 187:Src/stm32f1xx_it.c ****   */
 188:Src/stm32f1xx_it.c **** void SysTick_Handler(void)
 189:Src/stm32f1xx_it.c **** {
 282              		.loc 1 189 0
 283              		.cfi_startproc
 284              		@ args = 0, pretend = 0, frame = 0
ARM GAS  /tmp/cct98kYD.s 			page 9


 285              		@ frame_needed = 1, uses_anonymous_args = 0
 286 0000 80B5     		push	{r7, lr}
 287              	.LCFI24:
 288              		.cfi_def_cfa_offset 8
 289              		.cfi_offset 7, -8
 290              		.cfi_offset 14, -4
 291 0002 00AF     		add	r7, sp, #0
 292              	.LCFI25:
 293              		.cfi_def_cfa_register 7
 190:Src/stm32f1xx_it.c ****   /* USER CODE BEGIN SysTick_IRQn 0 */
 191:Src/stm32f1xx_it.c **** 
 192:Src/stm32f1xx_it.c ****   /* USER CODE END SysTick_IRQn 0 */
 193:Src/stm32f1xx_it.c ****   HAL_IncTick();
 294              		.loc 1 193 0
 295 0004 FFF7FEFF 		bl	HAL_IncTick
 194:Src/stm32f1xx_it.c ****   /* USER CODE BEGIN SysTick_IRQn 1 */
 195:Src/stm32f1xx_it.c ****   PollTimeCnt++;
 296              		.loc 1 195 0
 297 0008 244B     		ldr	r3, .L20
 298 000a 1B88     		ldrh	r3, [r3]
 299 000c 0133     		adds	r3, r3, #1
 300 000e 9AB2     		uxth	r2, r3
 301 0010 224B     		ldr	r3, .L20
 302 0012 1A80     		strh	r2, [r3]	@ movhi
 196:Src/stm32f1xx_it.c ****   ms10++;
 303              		.loc 1 196 0
 304 0014 224B     		ldr	r3, .L20+4
 305 0016 1B88     		ldrh	r3, [r3]
 306 0018 0133     		adds	r3, r3, #1
 307 001a 9AB2     		uxth	r2, r3
 308 001c 204B     		ldr	r3, .L20+4
 309 001e 1A80     		strh	r2, [r3]	@ movhi
 197:Src/stm32f1xx_it.c ****   msint++;
 310              		.loc 1 197 0
 311 0020 204B     		ldr	r3, .L20+8
 312 0022 1B68     		ldr	r3, [r3]
 313 0024 0133     		adds	r3, r3, #1
 314 0026 1F4A     		ldr	r2, .L20+8
 315 0028 1360     		str	r3, [r2]
 198:Src/stm32f1xx_it.c ****   simCnt++;
 316              		.loc 1 198 0
 317 002a 1F4B     		ldr	r3, .L20+12
 318 002c 1B68     		ldr	r3, [r3]
 319 002e 0133     		adds	r3, r3, #1
 320 0030 1D4A     		ldr	r2, .L20+12
 321 0032 1360     		str	r3, [r2]
 199:Src/stm32f1xx_it.c ****   if(CloudtriggerFlag==1)
 322              		.loc 1 199 0
 323 0034 1D4B     		ldr	r3, .L20+16
 324 0036 1B78     		ldrb	r3, [r3]	@ zero_extendqisi2
 325 0038 012B     		cmp	r3, #1
 326 003a 04D1     		bne	.L14
 200:Src/stm32f1xx_it.c ****   {
 201:Src/stm32f1xx_it.c ****     CloudtriggerTime++;
 327              		.loc 1 201 0
 328 003c 1C4B     		ldr	r3, .L20+20
 329 003e 1B68     		ldr	r3, [r3]
ARM GAS  /tmp/cct98kYD.s 			page 10


 330 0040 0133     		adds	r3, r3, #1
 331 0042 1B4A     		ldr	r2, .L20+20
 332 0044 1360     		str	r3, [r2]
 333              	.L14:
 202:Src/stm32f1xx_it.c ****   }
 203:Src/stm32f1xx_it.c ****   if(CloudtriggerTime>30000)//报警想了30秒
 334              		.loc 1 203 0
 335 0046 1A4B     		ldr	r3, .L20+20
 336 0048 1B68     		ldr	r3, [r3]
 337 004a 47F23052 		movw	r2, #30000
 338 004e 9342     		cmp	r3, r2
 339 0050 0BD9     		bls	.L15
 204:Src/stm32f1xx_it.c ****   {
 205:Src/stm32f1xx_it.c ****     CloudtriggerTime=0;
 340              		.loc 1 205 0
 341 0052 174B     		ldr	r3, .L20+20
 342 0054 0022     		movs	r2, #0
 343 0056 1A60     		str	r2, [r3]
 206:Src/stm32f1xx_it.c ****     CloudtriggerFlag=0;
 344              		.loc 1 206 0
 345 0058 144B     		ldr	r3, .L20+16
 346 005a 0022     		movs	r2, #0
 347 005c 1A70     		strb	r2, [r3]
 207:Src/stm32f1xx_it.c ****     WarmLow;
 348              		.loc 1 207 0
 349 005e 0122     		movs	r2, #1
 350 0060 4FF48051 		mov	r1, #4096
 351 0064 1348     		ldr	r0, .L20+24
 352 0066 FFF7FEFF 		bl	HAL_GPIO_WritePin
 353              	.L15:
 208:Src/stm32f1xx_it.c ****   }
 209:Src/stm32f1xx_it.c ****   if(waringtimeflag==1)
 354              		.loc 1 209 0
 355 006a 134B     		ldr	r3, .L20+28
 356 006c 1B78     		ldrb	r3, [r3]	@ zero_extendqisi2
 357 006e 012B     		cmp	r3, #1
 358 0070 04D1     		bne	.L16
 210:Src/stm32f1xx_it.c ****   {
 211:Src/stm32f1xx_it.c ****     waringtime++;
 359              		.loc 1 211 0
 360 0072 124B     		ldr	r3, .L20+32
 361 0074 1B68     		ldr	r3, [r3]
 362 0076 0133     		adds	r3, r3, #1
 363 0078 104A     		ldr	r2, .L20+32
 364 007a 1360     		str	r3, [r2]
 365              	.L16:
 212:Src/stm32f1xx_it.c ****   }
 213:Src/stm32f1xx_it.c ****   if(rsPackFlag==1)//收到过包开始计算时间
 366              		.loc 1 213 0
 367 007c 104B     		ldr	r3, .L20+36
 368 007e 1B78     		ldrb	r3, [r3]	@ zero_extendqisi2
 369 0080 012B     		cmp	r3, #1
 370 0082 05D1     		bne	.L17
 214:Src/stm32f1xx_it.c ****   {
 215:Src/stm32f1xx_it.c ****     rsRxTime++;
 371              		.loc 1 215 0
 372 0084 0F4B     		ldr	r3, .L20+40
ARM GAS  /tmp/cct98kYD.s 			page 11


 373 0086 1B68     		ldr	r3, [r3]
 374 0088 0133     		adds	r3, r3, #1
 375 008a 0E4A     		ldr	r2, .L20+40
 376 008c 1360     		str	r3, [r2]
 216:Src/stm32f1xx_it.c ****   }else
 217:Src/stm32f1xx_it.c ****   {
 218:Src/stm32f1xx_it.c ****     rsRxTime=0;
 219:Src/stm32f1xx_it.c ****   }
 220:Src/stm32f1xx_it.c ****   /* USER CODE END SysTick_IRQn 1 */
 221:Src/stm32f1xx_it.c **** }
 377              		.loc 1 221 0
 378 008e 02E0     		b	.L19
 379              	.L17:
 218:Src/stm32f1xx_it.c ****   }
 380              		.loc 1 218 0
 381 0090 0C4B     		ldr	r3, .L20+40
 382 0092 0022     		movs	r2, #0
 383 0094 1A60     		str	r2, [r3]
 384              	.L19:
 385              		.loc 1 221 0
 386 0096 00BF     		nop
 387 0098 80BD     		pop	{r7, pc}
 388              	.L21:
 389 009a 00BF     		.align	2
 390              	.L20:
 391 009c 00000000 		.word	PollTimeCnt
 392 00a0 00000000 		.word	ms10
 393 00a4 00000000 		.word	msint
 394 00a8 00000000 		.word	simCnt
 395 00ac 00000000 		.word	CloudtriggerFlag
 396 00b0 00000000 		.word	CloudtriggerTime
 397 00b4 000C0140 		.word	1073810432
 398 00b8 00000000 		.word	waringtimeflag
 399 00bc 00000000 		.word	waringtime
 400 00c0 00000000 		.word	rsPackFlag
 401 00c4 00000000 		.word	rsRxTime
 402              		.cfi_endproc
 403              	.LFE74:
 405              		.section	.text.DMA1_Channel3_IRQHandler,"ax",%progbits
 406              		.align	1
 407              		.global	DMA1_Channel3_IRQHandler
 408              		.syntax unified
 409              		.thumb
 410              		.thumb_func
 411              		.fpu softvfp
 413              	DMA1_Channel3_IRQHandler:
 414              	.LFB75:
 222:Src/stm32f1xx_it.c **** 
 223:Src/stm32f1xx_it.c **** /******************************************************************************/
 224:Src/stm32f1xx_it.c **** /* STM32F1xx Peripheral Interrupt Handlers                                    */
 225:Src/stm32f1xx_it.c **** /* Add here the Interrupt Handlers for the used peripherals.                  */
 226:Src/stm32f1xx_it.c **** /* For the available peripheral interrupt handler names,                      */
 227:Src/stm32f1xx_it.c **** /* please refer to the startup file (startup_stm32f1xx.s).                    */
 228:Src/stm32f1xx_it.c **** /******************************************************************************/
 229:Src/stm32f1xx_it.c **** 
 230:Src/stm32f1xx_it.c **** /**
 231:Src/stm32f1xx_it.c ****   * @brief This function handles DMA1 channel3 global interrupt.
ARM GAS  /tmp/cct98kYD.s 			page 12


 232:Src/stm32f1xx_it.c ****   */
 233:Src/stm32f1xx_it.c **** void DMA1_Channel3_IRQHandler(void)
 234:Src/stm32f1xx_it.c **** {
 415              		.loc 1 234 0
 416              		.cfi_startproc
 417              		@ args = 0, pretend = 0, frame = 0
 418              		@ frame_needed = 1, uses_anonymous_args = 0
 419 0000 80B5     		push	{r7, lr}
 420              	.LCFI26:
 421              		.cfi_def_cfa_offset 8
 422              		.cfi_offset 7, -8
 423              		.cfi_offset 14, -4
 424 0002 00AF     		add	r7, sp, #0
 425              	.LCFI27:
 426              		.cfi_def_cfa_register 7
 235:Src/stm32f1xx_it.c ****   /* USER CODE BEGIN DMA1_Channel3_IRQn 0 */
 236:Src/stm32f1xx_it.c **** 
 237:Src/stm32f1xx_it.c ****   /* USER CODE END DMA1_Channel3_IRQn 0 */
 238:Src/stm32f1xx_it.c ****   HAL_DMA_IRQHandler(&hdma_usart3_rx);
 427              		.loc 1 238 0
 428 0004 0248     		ldr	r0, .L23
 429 0006 FFF7FEFF 		bl	HAL_DMA_IRQHandler
 239:Src/stm32f1xx_it.c ****   /* USER CODE BEGIN DMA1_Channel3_IRQn 1 */
 240:Src/stm32f1xx_it.c **** 
 241:Src/stm32f1xx_it.c ****   /* USER CODE END DMA1_Channel3_IRQn 1 */
 242:Src/stm32f1xx_it.c **** }
 430              		.loc 1 242 0
 431 000a 00BF     		nop
 432 000c 80BD     		pop	{r7, pc}
 433              	.L24:
 434 000e 00BF     		.align	2
 435              	.L23:
 436 0010 00000000 		.word	hdma_usart3_rx
 437              		.cfi_endproc
 438              	.LFE75:
 440              		.section	.text.DMA1_Channel5_IRQHandler,"ax",%progbits
 441              		.align	1
 442              		.global	DMA1_Channel5_IRQHandler
 443              		.syntax unified
 444              		.thumb
 445              		.thumb_func
 446              		.fpu softvfp
 448              	DMA1_Channel5_IRQHandler:
 449              	.LFB76:
 243:Src/stm32f1xx_it.c **** 
 244:Src/stm32f1xx_it.c **** /**
 245:Src/stm32f1xx_it.c ****   * @brief This function handles DMA1 channel5 global interrupt.
 246:Src/stm32f1xx_it.c ****   */
 247:Src/stm32f1xx_it.c **** void DMA1_Channel5_IRQHandler(void)
 248:Src/stm32f1xx_it.c **** {
 450              		.loc 1 248 0
 451              		.cfi_startproc
 452              		@ args = 0, pretend = 0, frame = 0
 453              		@ frame_needed = 1, uses_anonymous_args = 0
 454 0000 80B5     		push	{r7, lr}
 455              	.LCFI28:
 456              		.cfi_def_cfa_offset 8
ARM GAS  /tmp/cct98kYD.s 			page 13


 457              		.cfi_offset 7, -8
 458              		.cfi_offset 14, -4
 459 0002 00AF     		add	r7, sp, #0
 460              	.LCFI29:
 461              		.cfi_def_cfa_register 7
 249:Src/stm32f1xx_it.c ****   /* USER CODE BEGIN DMA1_Channel5_IRQn 0 */
 250:Src/stm32f1xx_it.c **** 
 251:Src/stm32f1xx_it.c ****   /* USER CODE END DMA1_Channel5_IRQn 0 */
 252:Src/stm32f1xx_it.c ****   HAL_DMA_IRQHandler(&hdma_usart1_rx);
 462              		.loc 1 252 0
 463 0004 0248     		ldr	r0, .L26
 464 0006 FFF7FEFF 		bl	HAL_DMA_IRQHandler
 253:Src/stm32f1xx_it.c ****   /* USER CODE BEGIN DMA1_Channel5_IRQn 1 */
 254:Src/stm32f1xx_it.c **** 
 255:Src/stm32f1xx_it.c ****   /* USER CODE END DMA1_Channel5_IRQn 1 */
 256:Src/stm32f1xx_it.c **** }
 465              		.loc 1 256 0
 466 000a 00BF     		nop
 467 000c 80BD     		pop	{r7, pc}
 468              	.L27:
 469 000e 00BF     		.align	2
 470              	.L26:
 471 0010 00000000 		.word	hdma_usart1_rx
 472              		.cfi_endproc
 473              	.LFE76:
 475              		.section	.text.DMA1_Channel6_IRQHandler,"ax",%progbits
 476              		.align	1
 477              		.global	DMA1_Channel6_IRQHandler
 478              		.syntax unified
 479              		.thumb
 480              		.thumb_func
 481              		.fpu softvfp
 483              	DMA1_Channel6_IRQHandler:
 484              	.LFB77:
 257:Src/stm32f1xx_it.c **** 
 258:Src/stm32f1xx_it.c **** /**
 259:Src/stm32f1xx_it.c ****   * @brief This function handles DMA1 channel6 global interrupt.
 260:Src/stm32f1xx_it.c ****   */
 261:Src/stm32f1xx_it.c **** void DMA1_Channel6_IRQHandler(void)
 262:Src/stm32f1xx_it.c **** {
 485              		.loc 1 262 0
 486              		.cfi_startproc
 487              		@ args = 0, pretend = 0, frame = 0
 488              		@ frame_needed = 1, uses_anonymous_args = 0
 489 0000 80B5     		push	{r7, lr}
 490              	.LCFI30:
 491              		.cfi_def_cfa_offset 8
 492              		.cfi_offset 7, -8
 493              		.cfi_offset 14, -4
 494 0002 00AF     		add	r7, sp, #0
 495              	.LCFI31:
 496              		.cfi_def_cfa_register 7
 263:Src/stm32f1xx_it.c ****   /* USER CODE BEGIN DMA1_Channel6_IRQn 0 */
 264:Src/stm32f1xx_it.c **** 
 265:Src/stm32f1xx_it.c ****   /* USER CODE END DMA1_Channel6_IRQn 0 */
 266:Src/stm32f1xx_it.c ****   HAL_DMA_IRQHandler(&hdma_usart2_rx);
 497              		.loc 1 266 0
ARM GAS  /tmp/cct98kYD.s 			page 14


 498 0004 0248     		ldr	r0, .L29
 499 0006 FFF7FEFF 		bl	HAL_DMA_IRQHandler
 267:Src/stm32f1xx_it.c ****   /* USER CODE BEGIN DMA1_Channel6_IRQn 1 */
 268:Src/stm32f1xx_it.c **** 
 269:Src/stm32f1xx_it.c ****   /* USER CODE END DMA1_Channel6_IRQn 1 */
 270:Src/stm32f1xx_it.c **** }
 500              		.loc 1 270 0
 501 000a 00BF     		nop
 502 000c 80BD     		pop	{r7, pc}
 503              	.L30:
 504 000e 00BF     		.align	2
 505              	.L29:
 506 0010 00000000 		.word	hdma_usart2_rx
 507              		.cfi_endproc
 508              	.LFE77:
 510              		.section	.text.USART1_IRQHandler,"ax",%progbits
 511              		.align	1
 512              		.global	USART1_IRQHandler
 513              		.syntax unified
 514              		.thumb
 515              		.thumb_func
 516              		.fpu softvfp
 518              	USART1_IRQHandler:
 519              	.LFB78:
 271:Src/stm32f1xx_it.c **** 
 272:Src/stm32f1xx_it.c **** /**
 273:Src/stm32f1xx_it.c ****   * @brief This function handles USART1 global interrupt.
 274:Src/stm32f1xx_it.c ****   */
 275:Src/stm32f1xx_it.c **** void USART1_IRQHandler(void)
 276:Src/stm32f1xx_it.c **** {
 520              		.loc 1 276 0
 521              		.cfi_startproc
 522              		@ args = 0, pretend = 0, frame = 0
 523              		@ frame_needed = 1, uses_anonymous_args = 0
 524 0000 80B5     		push	{r7, lr}
 525              	.LCFI32:
 526              		.cfi_def_cfa_offset 8
 527              		.cfi_offset 7, -8
 528              		.cfi_offset 14, -4
 529 0002 00AF     		add	r7, sp, #0
 530              	.LCFI33:
 531              		.cfi_def_cfa_register 7
 277:Src/stm32f1xx_it.c ****   /* USER CODE BEGIN USART1_IRQn 0 */
 278:Src/stm32f1xx_it.c **** 
 279:Src/stm32f1xx_it.c ****   /* USER CODE END USART1_IRQn 0 */
 280:Src/stm32f1xx_it.c ****   HAL_UART_IRQHandler(&huart1);
 532              		.loc 1 280 0
 533 0004 0348     		ldr	r0, .L32
 534 0006 FFF7FEFF 		bl	HAL_UART_IRQHandler
 281:Src/stm32f1xx_it.c ****   /* USER CODE BEGIN USART1_IRQn 1 */
 282:Src/stm32f1xx_it.c ****   u1rxitProcess();
 535              		.loc 1 282 0
 536 000a FFF7FEFF 		bl	u1rxitProcess
 283:Src/stm32f1xx_it.c ****   /* USER CODE END USART1_IRQn 1 */
 284:Src/stm32f1xx_it.c **** }
 537              		.loc 1 284 0
 538 000e 00BF     		nop
ARM GAS  /tmp/cct98kYD.s 			page 15


 539 0010 80BD     		pop	{r7, pc}
 540              	.L33:
 541 0012 00BF     		.align	2
 542              	.L32:
 543 0014 00000000 		.word	huart1
 544              		.cfi_endproc
 545              	.LFE78:
 547              		.section	.text.USART2_IRQHandler,"ax",%progbits
 548              		.align	1
 549              		.global	USART2_IRQHandler
 550              		.syntax unified
 551              		.thumb
 552              		.thumb_func
 553              		.fpu softvfp
 555              	USART2_IRQHandler:
 556              	.LFB79:
 285:Src/stm32f1xx_it.c **** 
 286:Src/stm32f1xx_it.c **** /**
 287:Src/stm32f1xx_it.c ****   * @brief This function handles USART2 global interrupt.
 288:Src/stm32f1xx_it.c ****   */
 289:Src/stm32f1xx_it.c **** void USART2_IRQHandler(void)
 290:Src/stm32f1xx_it.c **** {
 557              		.loc 1 290 0
 558              		.cfi_startproc
 559              		@ args = 0, pretend = 0, frame = 0
 560              		@ frame_needed = 1, uses_anonymous_args = 0
 561 0000 80B5     		push	{r7, lr}
 562              	.LCFI34:
 563              		.cfi_def_cfa_offset 8
 564              		.cfi_offset 7, -8
 565              		.cfi_offset 14, -4
 566 0002 00AF     		add	r7, sp, #0
 567              	.LCFI35:
 568              		.cfi_def_cfa_register 7
 291:Src/stm32f1xx_it.c ****   /* USER CODE BEGIN USART2_IRQn 0 */
 292:Src/stm32f1xx_it.c **** 
 293:Src/stm32f1xx_it.c ****   /* USER CODE END USART2_IRQn 0 */
 294:Src/stm32f1xx_it.c ****   HAL_UART_IRQHandler(&huart2);
 569              		.loc 1 294 0
 570 0004 0348     		ldr	r0, .L35
 571 0006 FFF7FEFF 		bl	HAL_UART_IRQHandler
 295:Src/stm32f1xx_it.c ****   /* USER CODE BEGIN USART2_IRQn 1 */
 296:Src/stm32f1xx_it.c ****   u2rxitProcess();
 572              		.loc 1 296 0
 573 000a FFF7FEFF 		bl	u2rxitProcess
 297:Src/stm32f1xx_it.c ****   /* USER CODE END USART2_IRQn 1 */
 298:Src/stm32f1xx_it.c **** }
 574              		.loc 1 298 0
 575 000e 00BF     		nop
 576 0010 80BD     		pop	{r7, pc}
 577              	.L36:
 578 0012 00BF     		.align	2
 579              	.L35:
 580 0014 00000000 		.word	huart2
 581              		.cfi_endproc
 582              	.LFE79:
 584              		.section	.text.USART3_IRQHandler,"ax",%progbits
ARM GAS  /tmp/cct98kYD.s 			page 16


 585              		.align	1
 586              		.global	USART3_IRQHandler
 587              		.syntax unified
 588              		.thumb
 589              		.thumb_func
 590              		.fpu softvfp
 592              	USART3_IRQHandler:
 593              	.LFB80:
 299:Src/stm32f1xx_it.c **** 
 300:Src/stm32f1xx_it.c **** /**
 301:Src/stm32f1xx_it.c ****   * @brief This function handles USART3 global interrupt.
 302:Src/stm32f1xx_it.c ****   */
 303:Src/stm32f1xx_it.c **** void USART3_IRQHandler(void)
 304:Src/stm32f1xx_it.c **** {
 594              		.loc 1 304 0
 595              		.cfi_startproc
 596              		@ args = 0, pretend = 0, frame = 0
 597              		@ frame_needed = 1, uses_anonymous_args = 0
 598 0000 80B5     		push	{r7, lr}
 599              	.LCFI36:
 600              		.cfi_def_cfa_offset 8
 601              		.cfi_offset 7, -8
 602              		.cfi_offset 14, -4
 603 0002 00AF     		add	r7, sp, #0
 604              	.LCFI37:
 605              		.cfi_def_cfa_register 7
 305:Src/stm32f1xx_it.c ****   /* USER CODE BEGIN USART3_IRQn 0 */
 306:Src/stm32f1xx_it.c **** 
 307:Src/stm32f1xx_it.c ****   /* USER CODE END USART3_IRQn 0 */
 308:Src/stm32f1xx_it.c ****   HAL_UART_IRQHandler(&huart3);
 606              		.loc 1 308 0
 607 0004 0348     		ldr	r0, .L38
 608 0006 FFF7FEFF 		bl	HAL_UART_IRQHandler
 309:Src/stm32f1xx_it.c ****   /* USER CODE BEGIN USART3_IRQn 1 */
 310:Src/stm32f1xx_it.c ****    u3rxProcess();
 609              		.loc 1 310 0
 610 000a FFF7FEFF 		bl	u3rxProcess
 311:Src/stm32f1xx_it.c ****   /* USER CODE END USART3_IRQn 1 */
 312:Src/stm32f1xx_it.c **** }
 611              		.loc 1 312 0
 612 000e 00BF     		nop
 613 0010 80BD     		pop	{r7, pc}
 614              	.L39:
 615 0012 00BF     		.align	2
 616              	.L38:
 617 0014 00000000 		.word	huart3
 618              		.cfi_endproc
 619              	.LFE80:
 621              		.text
 622              	.Letext0:
 623              		.file 2 "/usr/include/newlib/machine/_default_types.h"
 624              		.file 3 "/usr/include/newlib/sys/_stdint.h"
 625              		.file 4 "Drivers/CMSIS/Include/core_cm3.h"
 626              		.file 5 "Drivers/CMSIS/Device/ST/STM32F1xx/Include/system_stm32f1xx.h"
 627              		.file 6 "Drivers/CMSIS/Device/ST/STM32F1xx/Include/stm32f103xb.h"
 628              		.file 7 "Drivers/STM32F1xx_HAL_Driver/Inc/stm32f1xx_hal_def.h"
 629              		.file 8 "Drivers/STM32F1xx_HAL_Driver/Inc/stm32f1xx_hal_gpio.h"
ARM GAS  /tmp/cct98kYD.s 			page 17


 630              		.file 9 "Drivers/STM32F1xx_HAL_Driver/Inc/stm32f1xx_hal_dma.h"
 631              		.file 10 "Drivers/STM32F1xx_HAL_Driver/Inc/stm32f1xx_hal_uart.h"
 632              		.file 11 "Drivers/STM32F1xx_HAL_Driver/Inc/stm32f1xx_hal.h"
 633              		.file 12 "/usr/include/newlib/sys/lock.h"
 634              		.file 13 "/usr/include/newlib/sys/_types.h"
 635              		.file 14 "/usr/lib/gcc/arm-none-eabi/6.3.1/include/stddef.h"
 636              		.file 15 "/usr/include/newlib/sys/reent.h"
 637              		.file 16 "Inc/ec20.h"
ARM GAS  /tmp/cct98kYD.s 			page 18

