ARM GAS  C:\Users\57298\AppData\Local\Temp\ccLkMYum.s 			page 1


   1              		.cpu cortex-m3
   2              		.arch armv7-m
   3              		.fpu softvfp
   4              		.eabi_attribute 20, 1
   5              		.eabi_attribute 21, 1
   6              		.eabi_attribute 23, 3
   7              		.eabi_attribute 24, 1
   8              		.eabi_attribute 25, 1
   9              		.eabi_attribute 26, 1
  10              		.eabi_attribute 30, 6
  11              		.eabi_attribute 34, 1
  12              		.eabi_attribute 18, 4
  13              		.file	"stm32f1xx_hal_msp.c"
  14              		.text
  15              	.Ltext0:
  16              		.cfi_sections	.debug_frame
  17              		.section	.text.HAL_MspInit,"ax",%progbits
  18              		.align	1
  19              		.global	HAL_MspInit
  20              		.syntax unified
  21              		.thumb
  22              		.thumb_func
  24              	HAL_MspInit:
  25              	.LFB65:
  26              		.file 1 "Src/stm32f1xx_hal_msp.c"
   1:Src/stm32f1xx_hal_msp.c **** /* USER CODE BEGIN Header */
   2:Src/stm32f1xx_hal_msp.c **** /**
   3:Src/stm32f1xx_hal_msp.c ****   ******************************************************************************
   4:Src/stm32f1xx_hal_msp.c ****   * File Name          : stm32f1xx_hal_msp.c
   5:Src/stm32f1xx_hal_msp.c ****   * Description        : This file provides code for the MSP Initialization 
   6:Src/stm32f1xx_hal_msp.c ****   *                      and de-Initialization codes.
   7:Src/stm32f1xx_hal_msp.c ****   ******************************************************************************
   8:Src/stm32f1xx_hal_msp.c ****   * @attention
   9:Src/stm32f1xx_hal_msp.c ****   *
  10:Src/stm32f1xx_hal_msp.c ****   * <h2><center>&copy; Copyright (c) 2022 STMicroelectronics.
  11:Src/stm32f1xx_hal_msp.c ****   * All rights reserved.</center></h2>
  12:Src/stm32f1xx_hal_msp.c ****   *
  13:Src/stm32f1xx_hal_msp.c ****   * This software component is licensed by ST under BSD 3-Clause license,
  14:Src/stm32f1xx_hal_msp.c ****   * the "License"; You may not use this file except in compliance with the
  15:Src/stm32f1xx_hal_msp.c ****   * License. You may obtain a copy of the License at:
  16:Src/stm32f1xx_hal_msp.c ****   *                        opensource.org/licenses/BSD-3-Clause
  17:Src/stm32f1xx_hal_msp.c ****   *
  18:Src/stm32f1xx_hal_msp.c ****   ******************************************************************************
  19:Src/stm32f1xx_hal_msp.c ****   */
  20:Src/stm32f1xx_hal_msp.c **** /* USER CODE END Header */
  21:Src/stm32f1xx_hal_msp.c **** 
  22:Src/stm32f1xx_hal_msp.c **** /* Includes ------------------------------------------------------------------*/
  23:Src/stm32f1xx_hal_msp.c **** #include "main.h"
  24:Src/stm32f1xx_hal_msp.c **** /* USER CODE BEGIN Includes */
  25:Src/stm32f1xx_hal_msp.c **** 
  26:Src/stm32f1xx_hal_msp.c **** /* USER CODE END Includes */
  27:Src/stm32f1xx_hal_msp.c **** extern DMA_HandleTypeDef hdma_usart1_rx;
  28:Src/stm32f1xx_hal_msp.c **** 
  29:Src/stm32f1xx_hal_msp.c **** extern DMA_HandleTypeDef hdma_usart2_rx;
  30:Src/stm32f1xx_hal_msp.c **** 
  31:Src/stm32f1xx_hal_msp.c **** extern DMA_HandleTypeDef hdma_usart3_rx;
  32:Src/stm32f1xx_hal_msp.c **** 
ARM GAS  C:\Users\57298\AppData\Local\Temp\ccLkMYum.s 			page 2


  33:Src/stm32f1xx_hal_msp.c **** /* Private typedef -----------------------------------------------------------*/
  34:Src/stm32f1xx_hal_msp.c **** /* USER CODE BEGIN TD */
  35:Src/stm32f1xx_hal_msp.c **** 
  36:Src/stm32f1xx_hal_msp.c **** /* USER CODE END TD */
  37:Src/stm32f1xx_hal_msp.c **** 
  38:Src/stm32f1xx_hal_msp.c **** /* Private define ------------------------------------------------------------*/
  39:Src/stm32f1xx_hal_msp.c **** /* USER CODE BEGIN Define */
  40:Src/stm32f1xx_hal_msp.c ****  
  41:Src/stm32f1xx_hal_msp.c **** /* USER CODE END Define */
  42:Src/stm32f1xx_hal_msp.c **** 
  43:Src/stm32f1xx_hal_msp.c **** /* Private macro -------------------------------------------------------------*/
  44:Src/stm32f1xx_hal_msp.c **** /* USER CODE BEGIN Macro */
  45:Src/stm32f1xx_hal_msp.c **** 
  46:Src/stm32f1xx_hal_msp.c **** /* USER CODE END Macro */
  47:Src/stm32f1xx_hal_msp.c **** 
  48:Src/stm32f1xx_hal_msp.c **** /* Private variables ---------------------------------------------------------*/
  49:Src/stm32f1xx_hal_msp.c **** /* USER CODE BEGIN PV */
  50:Src/stm32f1xx_hal_msp.c **** 
  51:Src/stm32f1xx_hal_msp.c **** /* USER CODE END PV */
  52:Src/stm32f1xx_hal_msp.c **** 
  53:Src/stm32f1xx_hal_msp.c **** /* Private function prototypes -----------------------------------------------*/
  54:Src/stm32f1xx_hal_msp.c **** /* USER CODE BEGIN PFP */
  55:Src/stm32f1xx_hal_msp.c **** 
  56:Src/stm32f1xx_hal_msp.c **** /* USER CODE END PFP */
  57:Src/stm32f1xx_hal_msp.c **** 
  58:Src/stm32f1xx_hal_msp.c **** /* External functions --------------------------------------------------------*/
  59:Src/stm32f1xx_hal_msp.c **** /* USER CODE BEGIN ExternalFunctions */
  60:Src/stm32f1xx_hal_msp.c **** 
  61:Src/stm32f1xx_hal_msp.c **** /* USER CODE END ExternalFunctions */
  62:Src/stm32f1xx_hal_msp.c **** 
  63:Src/stm32f1xx_hal_msp.c **** /* USER CODE BEGIN 0 */
  64:Src/stm32f1xx_hal_msp.c **** 
  65:Src/stm32f1xx_hal_msp.c **** /* USER CODE END 0 */
  66:Src/stm32f1xx_hal_msp.c **** /**
  67:Src/stm32f1xx_hal_msp.c ****   * Initializes the Global MSP.
  68:Src/stm32f1xx_hal_msp.c ****   */
  69:Src/stm32f1xx_hal_msp.c **** void HAL_MspInit(void)
  70:Src/stm32f1xx_hal_msp.c **** {
  27              		.loc 1 70 1
  28              		.cfi_startproc
  29              		@ args = 0, pretend = 0, frame = 16
  30              		@ frame_needed = 1, uses_anonymous_args = 0
  31              		@ link register save eliminated.
  32 0000 80B4     		push	{r7}
  33              	.LCFI0:
  34              		.cfi_def_cfa_offset 4
  35              		.cfi_offset 7, -4
  36 0002 85B0     		sub	sp, sp, #20
  37              	.LCFI1:
  38              		.cfi_def_cfa_offset 24
  39 0004 00AF     		add	r7, sp, #0
  40              	.LCFI2:
  41              		.cfi_def_cfa_register 7
  42              	.LBB2:
  71:Src/stm32f1xx_hal_msp.c ****   /* USER CODE BEGIN MspInit 0 */
  72:Src/stm32f1xx_hal_msp.c **** 
  73:Src/stm32f1xx_hal_msp.c ****   /* USER CODE END MspInit 0 */
ARM GAS  C:\Users\57298\AppData\Local\Temp\ccLkMYum.s 			page 3


  74:Src/stm32f1xx_hal_msp.c **** 
  75:Src/stm32f1xx_hal_msp.c ****   __HAL_RCC_AFIO_CLK_ENABLE();
  43              		.loc 1 75 3
  44 0006 154B     		ldr	r3, .L2
  45 0008 9B69     		ldr	r3, [r3, #24]
  46 000a 144A     		ldr	r2, .L2
  47 000c 43F00103 		orr	r3, r3, #1
  48 0010 9361     		str	r3, [r2, #24]
  49 0012 124B     		ldr	r3, .L2
  50 0014 9B69     		ldr	r3, [r3, #24]
  51 0016 03F00103 		and	r3, r3, #1
  52 001a BB60     		str	r3, [r7, #8]
  53 001c BB68     		ldr	r3, [r7, #8]
  54              	.LBE2:
  55              	.LBB3:
  76:Src/stm32f1xx_hal_msp.c ****   __HAL_RCC_PWR_CLK_ENABLE();
  56              		.loc 1 76 3
  57 001e 0F4B     		ldr	r3, .L2
  58 0020 DB69     		ldr	r3, [r3, #28]
  59 0022 0E4A     		ldr	r2, .L2
  60 0024 43F08053 		orr	r3, r3, #268435456
  61 0028 D361     		str	r3, [r2, #28]
  62 002a 0C4B     		ldr	r3, .L2
  63 002c DB69     		ldr	r3, [r3, #28]
  64 002e 03F08053 		and	r3, r3, #268435456
  65 0032 7B60     		str	r3, [r7, #4]
  66 0034 7B68     		ldr	r3, [r7, #4]
  67              	.LBE3:
  68              	.LBB4:
  77:Src/stm32f1xx_hal_msp.c **** 
  78:Src/stm32f1xx_hal_msp.c ****   /* System interrupt init*/
  79:Src/stm32f1xx_hal_msp.c **** 
  80:Src/stm32f1xx_hal_msp.c ****   /** NOJTAG: JTAG-DP Disabled and SW-DP Enabled
  81:Src/stm32f1xx_hal_msp.c ****   */
  82:Src/stm32f1xx_hal_msp.c ****   __HAL_AFIO_REMAP_SWJ_NOJTAG();
  69              		.loc 1 82 3
  70 0036 0A4B     		ldr	r3, .L2+4
  71 0038 5B68     		ldr	r3, [r3, #4]
  72 003a FB60     		str	r3, [r7, #12]
  73 003c FB68     		ldr	r3, [r7, #12]
  74 003e 23F0E063 		bic	r3, r3, #117440512
  75 0042 FB60     		str	r3, [r7, #12]
  76 0044 FB68     		ldr	r3, [r7, #12]
  77 0046 43F00073 		orr	r3, r3, #33554432
  78 004a FB60     		str	r3, [r7, #12]
  79 004c 044A     		ldr	r2, .L2+4
  80 004e FB68     		ldr	r3, [r7, #12]
  81 0050 5360     		str	r3, [r2, #4]
  82              	.LBE4:
  83:Src/stm32f1xx_hal_msp.c **** 
  84:Src/stm32f1xx_hal_msp.c ****   /* USER CODE BEGIN MspInit 1 */
  85:Src/stm32f1xx_hal_msp.c **** 
  86:Src/stm32f1xx_hal_msp.c ****   /* USER CODE END MspInit 1 */
  87:Src/stm32f1xx_hal_msp.c **** }
  83              		.loc 1 87 1
  84 0052 00BF     		nop
  85 0054 1437     		adds	r7, r7, #20
ARM GAS  C:\Users\57298\AppData\Local\Temp\ccLkMYum.s 			page 4


  86              	.LCFI3:
  87              		.cfi_def_cfa_offset 4
  88 0056 BD46     		mov	sp, r7
  89              	.LCFI4:
  90              		.cfi_def_cfa_register 13
  91              		@ sp needed
  92 0058 80BC     		pop	{r7}
  93              	.LCFI5:
  94              		.cfi_restore 7
  95              		.cfi_def_cfa_offset 0
  96 005a 7047     		bx	lr
  97              	.L3:
  98              		.align	2
  99              	.L2:
 100 005c 00100240 		.word	1073876992
 101 0060 00000140 		.word	1073807360
 102              		.cfi_endproc
 103              	.LFE65:
 105              		.section	.text.HAL_I2C_MspInit,"ax",%progbits
 106              		.align	1
 107              		.global	HAL_I2C_MspInit
 108              		.syntax unified
 109              		.thumb
 110              		.thumb_func
 112              	HAL_I2C_MspInit:
 113              	.LFB66:
  88:Src/stm32f1xx_hal_msp.c **** 
  89:Src/stm32f1xx_hal_msp.c **** /**
  90:Src/stm32f1xx_hal_msp.c **** * @brief I2C MSP Initialization
  91:Src/stm32f1xx_hal_msp.c **** * This function configures the hardware resources used in this example
  92:Src/stm32f1xx_hal_msp.c **** * @param hi2c: I2C handle pointer
  93:Src/stm32f1xx_hal_msp.c **** * @retval None
  94:Src/stm32f1xx_hal_msp.c **** */
  95:Src/stm32f1xx_hal_msp.c **** void HAL_I2C_MspInit(I2C_HandleTypeDef* hi2c)
  96:Src/stm32f1xx_hal_msp.c **** {
 114              		.loc 1 96 1
 115              		.cfi_startproc
 116              		@ args = 0, pretend = 0, frame = 32
 117              		@ frame_needed = 1, uses_anonymous_args = 0
 118 0000 80B5     		push	{r7, lr}
 119              	.LCFI6:
 120              		.cfi_def_cfa_offset 8
 121              		.cfi_offset 7, -8
 122              		.cfi_offset 14, -4
 123 0002 88B0     		sub	sp, sp, #32
 124              	.LCFI7:
 125              		.cfi_def_cfa_offset 40
 126 0004 00AF     		add	r7, sp, #0
 127              	.LCFI8:
 128              		.cfi_def_cfa_register 7
 129 0006 7860     		str	r0, [r7, #4]
  97:Src/stm32f1xx_hal_msp.c ****   GPIO_InitTypeDef GPIO_InitStruct = {0};
 130              		.loc 1 97 20
 131 0008 07F11003 		add	r3, r7, #16
 132 000c 0022     		movs	r2, #0
 133 000e 1A60     		str	r2, [r3]
 134 0010 5A60     		str	r2, [r3, #4]
ARM GAS  C:\Users\57298\AppData\Local\Temp\ccLkMYum.s 			page 5


 135 0012 9A60     		str	r2, [r3, #8]
 136 0014 DA60     		str	r2, [r3, #12]
  98:Src/stm32f1xx_hal_msp.c ****   if(hi2c->Instance==I2C1)
 137              		.loc 1 98 10
 138 0016 7B68     		ldr	r3, [r7, #4]
 139 0018 1B68     		ldr	r3, [r3]
 140              		.loc 1 98 5
 141 001a 154A     		ldr	r2, .L7
 142 001c 9342     		cmp	r3, r2
 143 001e 23D1     		bne	.L6
 144              	.LBB5:
  99:Src/stm32f1xx_hal_msp.c ****   {
 100:Src/stm32f1xx_hal_msp.c ****   /* USER CODE BEGIN I2C1_MspInit 0 */
 101:Src/stm32f1xx_hal_msp.c **** 
 102:Src/stm32f1xx_hal_msp.c ****   /* USER CODE END I2C1_MspInit 0 */
 103:Src/stm32f1xx_hal_msp.c **** 
 104:Src/stm32f1xx_hal_msp.c ****     __HAL_RCC_GPIOB_CLK_ENABLE();
 145              		.loc 1 104 5
 146 0020 144B     		ldr	r3, .L7+4
 147 0022 9B69     		ldr	r3, [r3, #24]
 148 0024 134A     		ldr	r2, .L7+4
 149 0026 43F00803 		orr	r3, r3, #8
 150 002a 9361     		str	r3, [r2, #24]
 151 002c 114B     		ldr	r3, .L7+4
 152 002e 9B69     		ldr	r3, [r3, #24]
 153 0030 03F00803 		and	r3, r3, #8
 154 0034 FB60     		str	r3, [r7, #12]
 155 0036 FB68     		ldr	r3, [r7, #12]
 156              	.LBE5:
 105:Src/stm32f1xx_hal_msp.c ****     /**I2C1 GPIO Configuration
 106:Src/stm32f1xx_hal_msp.c ****     PB6     ------> I2C1_SCL
 107:Src/stm32f1xx_hal_msp.c ****     PB7     ------> I2C1_SDA
 108:Src/stm32f1xx_hal_msp.c ****     */
 109:Src/stm32f1xx_hal_msp.c ****     GPIO_InitStruct.Pin = GPIO_PIN_6|GPIO_PIN_7;
 157              		.loc 1 109 25
 158 0038 C023     		movs	r3, #192
 159 003a 3B61     		str	r3, [r7, #16]
 110:Src/stm32f1xx_hal_msp.c ****     GPIO_InitStruct.Mode = GPIO_MODE_AF_OD;
 160              		.loc 1 110 26
 161 003c 1223     		movs	r3, #18
 162 003e 7B61     		str	r3, [r7, #20]
 111:Src/stm32f1xx_hal_msp.c ****     GPIO_InitStruct.Speed = GPIO_SPEED_FREQ_HIGH;
 163              		.loc 1 111 27
 164 0040 0323     		movs	r3, #3
 165 0042 FB61     		str	r3, [r7, #28]
 112:Src/stm32f1xx_hal_msp.c ****     HAL_GPIO_Init(GPIOB, &GPIO_InitStruct);
 166              		.loc 1 112 5
 167 0044 07F11003 		add	r3, r7, #16
 168 0048 1946     		mov	r1, r3
 169 004a 0B48     		ldr	r0, .L7+8
 170 004c FFF7FEFF 		bl	HAL_GPIO_Init
 171              	.LBB6:
 113:Src/stm32f1xx_hal_msp.c **** 
 114:Src/stm32f1xx_hal_msp.c ****     /* Peripheral clock enable */
 115:Src/stm32f1xx_hal_msp.c ****     __HAL_RCC_I2C1_CLK_ENABLE();
 172              		.loc 1 115 5
 173 0050 084B     		ldr	r3, .L7+4
ARM GAS  C:\Users\57298\AppData\Local\Temp\ccLkMYum.s 			page 6


 174 0052 DB69     		ldr	r3, [r3, #28]
 175 0054 074A     		ldr	r2, .L7+4
 176 0056 43F40013 		orr	r3, r3, #2097152
 177 005a D361     		str	r3, [r2, #28]
 178 005c 054B     		ldr	r3, .L7+4
 179 005e DB69     		ldr	r3, [r3, #28]
 180 0060 03F40013 		and	r3, r3, #2097152
 181 0064 BB60     		str	r3, [r7, #8]
 182 0066 BB68     		ldr	r3, [r7, #8]
 183              	.L6:
 184              	.LBE6:
 116:Src/stm32f1xx_hal_msp.c ****   /* USER CODE BEGIN I2C1_MspInit 1 */
 117:Src/stm32f1xx_hal_msp.c **** 
 118:Src/stm32f1xx_hal_msp.c ****   /* USER CODE END I2C1_MspInit 1 */
 119:Src/stm32f1xx_hal_msp.c ****   }
 120:Src/stm32f1xx_hal_msp.c **** 
 121:Src/stm32f1xx_hal_msp.c **** }
 185              		.loc 1 121 1
 186 0068 00BF     		nop
 187 006a 2037     		adds	r7, r7, #32
 188              	.LCFI9:
 189              		.cfi_def_cfa_offset 8
 190 006c BD46     		mov	sp, r7
 191              	.LCFI10:
 192              		.cfi_def_cfa_register 13
 193              		@ sp needed
 194 006e 80BD     		pop	{r7, pc}
 195              	.L8:
 196              		.align	2
 197              	.L7:
 198 0070 00540040 		.word	1073763328
 199 0074 00100240 		.word	1073876992
 200 0078 000C0140 		.word	1073810432
 201              		.cfi_endproc
 202              	.LFE66:
 204              		.section	.text.HAL_I2C_MspDeInit,"ax",%progbits
 205              		.align	1
 206              		.global	HAL_I2C_MspDeInit
 207              		.syntax unified
 208              		.thumb
 209              		.thumb_func
 211              	HAL_I2C_MspDeInit:
 212              	.LFB67:
 122:Src/stm32f1xx_hal_msp.c **** 
 123:Src/stm32f1xx_hal_msp.c **** /**
 124:Src/stm32f1xx_hal_msp.c **** * @brief I2C MSP De-Initialization
 125:Src/stm32f1xx_hal_msp.c **** * This function freeze the hardware resources used in this example
 126:Src/stm32f1xx_hal_msp.c **** * @param hi2c: I2C handle pointer
 127:Src/stm32f1xx_hal_msp.c **** * @retval None
 128:Src/stm32f1xx_hal_msp.c **** */
 129:Src/stm32f1xx_hal_msp.c **** void HAL_I2C_MspDeInit(I2C_HandleTypeDef* hi2c)
 130:Src/stm32f1xx_hal_msp.c **** {
 213              		.loc 1 130 1
 214              		.cfi_startproc
 215              		@ args = 0, pretend = 0, frame = 8
 216              		@ frame_needed = 1, uses_anonymous_args = 0
 217 0000 80B5     		push	{r7, lr}
ARM GAS  C:\Users\57298\AppData\Local\Temp\ccLkMYum.s 			page 7


 218              	.LCFI11:
 219              		.cfi_def_cfa_offset 8
 220              		.cfi_offset 7, -8
 221              		.cfi_offset 14, -4
 222 0002 82B0     		sub	sp, sp, #8
 223              	.LCFI12:
 224              		.cfi_def_cfa_offset 16
 225 0004 00AF     		add	r7, sp, #0
 226              	.LCFI13:
 227              		.cfi_def_cfa_register 7
 228 0006 7860     		str	r0, [r7, #4]
 131:Src/stm32f1xx_hal_msp.c ****   if(hi2c->Instance==I2C1)
 229              		.loc 1 131 10
 230 0008 7B68     		ldr	r3, [r7, #4]
 231 000a 1B68     		ldr	r3, [r3]
 232              		.loc 1 131 5
 233 000c 0A4A     		ldr	r2, .L12
 234 000e 9342     		cmp	r3, r2
 235 0010 0DD1     		bne	.L11
 132:Src/stm32f1xx_hal_msp.c ****   {
 133:Src/stm32f1xx_hal_msp.c ****   /* USER CODE BEGIN I2C1_MspDeInit 0 */
 134:Src/stm32f1xx_hal_msp.c **** 
 135:Src/stm32f1xx_hal_msp.c ****   /* USER CODE END I2C1_MspDeInit 0 */
 136:Src/stm32f1xx_hal_msp.c ****     /* Peripheral clock disable */
 137:Src/stm32f1xx_hal_msp.c ****     __HAL_RCC_I2C1_CLK_DISABLE();
 236              		.loc 1 137 5
 237 0012 0A4B     		ldr	r3, .L12+4
 238 0014 DB69     		ldr	r3, [r3, #28]
 239 0016 094A     		ldr	r2, .L12+4
 240 0018 23F40013 		bic	r3, r3, #2097152
 241 001c D361     		str	r3, [r2, #28]
 138:Src/stm32f1xx_hal_msp.c **** 
 139:Src/stm32f1xx_hal_msp.c ****     /**I2C1 GPIO Configuration
 140:Src/stm32f1xx_hal_msp.c ****     PB6     ------> I2C1_SCL
 141:Src/stm32f1xx_hal_msp.c ****     PB7     ------> I2C1_SDA
 142:Src/stm32f1xx_hal_msp.c ****     */
 143:Src/stm32f1xx_hal_msp.c ****     HAL_GPIO_DeInit(GPIOB, GPIO_PIN_6);
 242              		.loc 1 143 5
 243 001e 4021     		movs	r1, #64
 244 0020 0748     		ldr	r0, .L12+8
 245 0022 FFF7FEFF 		bl	HAL_GPIO_DeInit
 144:Src/stm32f1xx_hal_msp.c **** 
 145:Src/stm32f1xx_hal_msp.c ****     HAL_GPIO_DeInit(GPIOB, GPIO_PIN_7);
 246              		.loc 1 145 5
 247 0026 8021     		movs	r1, #128
 248 0028 0548     		ldr	r0, .L12+8
 249 002a FFF7FEFF 		bl	HAL_GPIO_DeInit
 250              	.L11:
 146:Src/stm32f1xx_hal_msp.c **** 
 147:Src/stm32f1xx_hal_msp.c ****   /* USER CODE BEGIN I2C1_MspDeInit 1 */
 148:Src/stm32f1xx_hal_msp.c **** 
 149:Src/stm32f1xx_hal_msp.c ****   /* USER CODE END I2C1_MspDeInit 1 */
 150:Src/stm32f1xx_hal_msp.c ****   }
 151:Src/stm32f1xx_hal_msp.c **** 
 152:Src/stm32f1xx_hal_msp.c **** }
 251              		.loc 1 152 1
 252 002e 00BF     		nop
ARM GAS  C:\Users\57298\AppData\Local\Temp\ccLkMYum.s 			page 8


 253 0030 0837     		adds	r7, r7, #8
 254              	.LCFI14:
 255              		.cfi_def_cfa_offset 8
 256 0032 BD46     		mov	sp, r7
 257              	.LCFI15:
 258              		.cfi_def_cfa_register 13
 259              		@ sp needed
 260 0034 80BD     		pop	{r7, pc}
 261              	.L13:
 262 0036 00BF     		.align	2
 263              	.L12:
 264 0038 00540040 		.word	1073763328
 265 003c 00100240 		.word	1073876992
 266 0040 000C0140 		.word	1073810432
 267              		.cfi_endproc
 268              	.LFE67:
 270              		.section	.text.HAL_UART_MspInit,"ax",%progbits
 271              		.align	1
 272              		.global	HAL_UART_MspInit
 273              		.syntax unified
 274              		.thumb
 275              		.thumb_func
 277              	HAL_UART_MspInit:
 278              	.LFB68:
 153:Src/stm32f1xx_hal_msp.c **** 
 154:Src/stm32f1xx_hal_msp.c **** /**
 155:Src/stm32f1xx_hal_msp.c **** * @brief UART MSP Initialization
 156:Src/stm32f1xx_hal_msp.c **** * This function configures the hardware resources used in this example
 157:Src/stm32f1xx_hal_msp.c **** * @param huart: UART handle pointer
 158:Src/stm32f1xx_hal_msp.c **** * @retval None
 159:Src/stm32f1xx_hal_msp.c **** */
 160:Src/stm32f1xx_hal_msp.c **** void HAL_UART_MspInit(UART_HandleTypeDef* huart)
 161:Src/stm32f1xx_hal_msp.c **** {
 279              		.loc 1 161 1
 280              		.cfi_startproc
 281              		@ args = 0, pretend = 0, frame = 48
 282              		@ frame_needed = 1, uses_anonymous_args = 0
 283 0000 80B5     		push	{r7, lr}
 284              	.LCFI16:
 285              		.cfi_def_cfa_offset 8
 286              		.cfi_offset 7, -8
 287              		.cfi_offset 14, -4
 288 0002 8CB0     		sub	sp, sp, #48
 289              	.LCFI17:
 290              		.cfi_def_cfa_offset 56
 291 0004 00AF     		add	r7, sp, #0
 292              	.LCFI18:
 293              		.cfi_def_cfa_register 7
 294 0006 7860     		str	r0, [r7, #4]
 162:Src/stm32f1xx_hal_msp.c ****   GPIO_InitTypeDef GPIO_InitStruct = {0};
 295              		.loc 1 162 20
 296 0008 07F12003 		add	r3, r7, #32
 297 000c 0022     		movs	r2, #0
 298 000e 1A60     		str	r2, [r3]
 299 0010 5A60     		str	r2, [r3, #4]
 300 0012 9A60     		str	r2, [r3, #8]
 301 0014 DA60     		str	r2, [r3, #12]
ARM GAS  C:\Users\57298\AppData\Local\Temp\ccLkMYum.s 			page 9


 163:Src/stm32f1xx_hal_msp.c ****   if(huart->Instance==USART1)
 302              		.loc 1 163 11
 303 0016 7B68     		ldr	r3, [r7, #4]
 304 0018 1B68     		ldr	r3, [r3]
 305              		.loc 1 163 5
 306 001a 984A     		ldr	r2, .L22
 307 001c 9342     		cmp	r3, r2
 308 001e 60D1     		bne	.L15
 309              	.LBB7:
 164:Src/stm32f1xx_hal_msp.c ****   {
 165:Src/stm32f1xx_hal_msp.c ****   /* USER CODE BEGIN USART1_MspInit 0 */
 166:Src/stm32f1xx_hal_msp.c **** 
 167:Src/stm32f1xx_hal_msp.c ****   /* USER CODE END USART1_MspInit 0 */
 168:Src/stm32f1xx_hal_msp.c ****     /* Peripheral clock enable */
 169:Src/stm32f1xx_hal_msp.c ****     __HAL_RCC_USART1_CLK_ENABLE();
 310              		.loc 1 169 5
 311 0020 974B     		ldr	r3, .L22+4
 312 0022 9B69     		ldr	r3, [r3, #24]
 313 0024 964A     		ldr	r2, .L22+4
 314 0026 43F48043 		orr	r3, r3, #16384
 315 002a 9361     		str	r3, [r2, #24]
 316 002c 944B     		ldr	r3, .L22+4
 317 002e 9B69     		ldr	r3, [r3, #24]
 318 0030 03F48043 		and	r3, r3, #16384
 319 0034 FB61     		str	r3, [r7, #28]
 320 0036 FB69     		ldr	r3, [r7, #28]
 321              	.LBE7:
 322              	.LBB8:
 170:Src/stm32f1xx_hal_msp.c **** 
 171:Src/stm32f1xx_hal_msp.c ****     __HAL_RCC_GPIOA_CLK_ENABLE();
 323              		.loc 1 171 5
 324 0038 914B     		ldr	r3, .L22+4
 325 003a 9B69     		ldr	r3, [r3, #24]
 326 003c 904A     		ldr	r2, .L22+4
 327 003e 43F00403 		orr	r3, r3, #4
 328 0042 9361     		str	r3, [r2, #24]
 329 0044 8E4B     		ldr	r3, .L22+4
 330 0046 9B69     		ldr	r3, [r3, #24]
 331 0048 03F00403 		and	r3, r3, #4
 332 004c BB61     		str	r3, [r7, #24]
 333 004e BB69     		ldr	r3, [r7, #24]
 334              	.LBE8:
 172:Src/stm32f1xx_hal_msp.c ****     /**USART1 GPIO Configuration
 173:Src/stm32f1xx_hal_msp.c ****     PA9     ------> USART1_TX
 174:Src/stm32f1xx_hal_msp.c ****     PA10     ------> USART1_RX
 175:Src/stm32f1xx_hal_msp.c ****     */
 176:Src/stm32f1xx_hal_msp.c ****     GPIO_InitStruct.Pin = GPIO_PIN_9;
 335              		.loc 1 176 25
 336 0050 4FF40073 		mov	r3, #512
 337 0054 3B62     		str	r3, [r7, #32]
 177:Src/stm32f1xx_hal_msp.c ****     GPIO_InitStruct.Mode = GPIO_MODE_AF_PP;
 338              		.loc 1 177 26
 339 0056 0223     		movs	r3, #2
 340 0058 7B62     		str	r3, [r7, #36]
 178:Src/stm32f1xx_hal_msp.c ****     GPIO_InitStruct.Speed = GPIO_SPEED_FREQ_HIGH;
 341              		.loc 1 178 27
 342 005a 0323     		movs	r3, #3
ARM GAS  C:\Users\57298\AppData\Local\Temp\ccLkMYum.s 			page 10


 343 005c FB62     		str	r3, [r7, #44]
 179:Src/stm32f1xx_hal_msp.c ****     HAL_GPIO_Init(GPIOA, &GPIO_InitStruct);
 344              		.loc 1 179 5
 345 005e 07F12003 		add	r3, r7, #32
 346 0062 1946     		mov	r1, r3
 347 0064 8748     		ldr	r0, .L22+8
 348 0066 FFF7FEFF 		bl	HAL_GPIO_Init
 180:Src/stm32f1xx_hal_msp.c **** 
 181:Src/stm32f1xx_hal_msp.c ****     GPIO_InitStruct.Pin = GPIO_PIN_10;
 349              		.loc 1 181 25
 350 006a 4FF48063 		mov	r3, #1024
 351 006e 3B62     		str	r3, [r7, #32]
 182:Src/stm32f1xx_hal_msp.c ****     GPIO_InitStruct.Mode = GPIO_MODE_INPUT;
 352              		.loc 1 182 26
 353 0070 0023     		movs	r3, #0
 354 0072 7B62     		str	r3, [r7, #36]
 183:Src/stm32f1xx_hal_msp.c ****     GPIO_InitStruct.Pull = GPIO_NOPULL;
 355              		.loc 1 183 26
 356 0074 0023     		movs	r3, #0
 357 0076 BB62     		str	r3, [r7, #40]
 184:Src/stm32f1xx_hal_msp.c ****     HAL_GPIO_Init(GPIOA, &GPIO_InitStruct);
 358              		.loc 1 184 5
 359 0078 07F12003 		add	r3, r7, #32
 360 007c 1946     		mov	r1, r3
 361 007e 8148     		ldr	r0, .L22+8
 362 0080 FFF7FEFF 		bl	HAL_GPIO_Init
 185:Src/stm32f1xx_hal_msp.c **** 
 186:Src/stm32f1xx_hal_msp.c ****     /* USART1 DMA Init */
 187:Src/stm32f1xx_hal_msp.c ****     /* USART1_RX Init */
 188:Src/stm32f1xx_hal_msp.c ****     hdma_usart1_rx.Instance = DMA1_Channel5;
 363              		.loc 1 188 29
 364 0084 804B     		ldr	r3, .L22+12
 365 0086 814A     		ldr	r2, .L22+16
 366 0088 1A60     		str	r2, [r3]
 189:Src/stm32f1xx_hal_msp.c ****     hdma_usart1_rx.Init.Direction = DMA_PERIPH_TO_MEMORY;
 367              		.loc 1 189 35
 368 008a 7F4B     		ldr	r3, .L22+12
 369 008c 0022     		movs	r2, #0
 370 008e 5A60     		str	r2, [r3, #4]
 190:Src/stm32f1xx_hal_msp.c ****     hdma_usart1_rx.Init.PeriphInc = DMA_PINC_DISABLE;
 371              		.loc 1 190 35
 372 0090 7D4B     		ldr	r3, .L22+12
 373 0092 0022     		movs	r2, #0
 374 0094 9A60     		str	r2, [r3, #8]
 191:Src/stm32f1xx_hal_msp.c ****     hdma_usart1_rx.Init.MemInc = DMA_MINC_ENABLE;
 375              		.loc 1 191 32
 376 0096 7C4B     		ldr	r3, .L22+12
 377 0098 8022     		movs	r2, #128
 378 009a DA60     		str	r2, [r3, #12]
 192:Src/stm32f1xx_hal_msp.c ****     hdma_usart1_rx.Init.PeriphDataAlignment = DMA_PDATAALIGN_BYTE;
 379              		.loc 1 192 45
 380 009c 7A4B     		ldr	r3, .L22+12
 381 009e 0022     		movs	r2, #0
 382 00a0 1A61     		str	r2, [r3, #16]
 193:Src/stm32f1xx_hal_msp.c ****     hdma_usart1_rx.Init.MemDataAlignment = DMA_MDATAALIGN_BYTE;
 383              		.loc 1 193 42
 384 00a2 794B     		ldr	r3, .L22+12
ARM GAS  C:\Users\57298\AppData\Local\Temp\ccLkMYum.s 			page 11


 385 00a4 0022     		movs	r2, #0
 386 00a6 5A61     		str	r2, [r3, #20]
 194:Src/stm32f1xx_hal_msp.c ****     hdma_usart1_rx.Init.Mode = DMA_NORMAL;
 387              		.loc 1 194 30
 388 00a8 774B     		ldr	r3, .L22+12
 389 00aa 0022     		movs	r2, #0
 390 00ac 9A61     		str	r2, [r3, #24]
 195:Src/stm32f1xx_hal_msp.c ****     hdma_usart1_rx.Init.Priority = DMA_PRIORITY_LOW;
 391              		.loc 1 195 34
 392 00ae 764B     		ldr	r3, .L22+12
 393 00b0 0022     		movs	r2, #0
 394 00b2 DA61     		str	r2, [r3, #28]
 196:Src/stm32f1xx_hal_msp.c ****     if (HAL_DMA_Init(&hdma_usart1_rx) != HAL_OK)
 395              		.loc 1 196 9
 396 00b4 7448     		ldr	r0, .L22+12
 397 00b6 FFF7FEFF 		bl	HAL_DMA_Init
 398 00ba 0346     		mov	r3, r0
 399              		.loc 1 196 8
 400 00bc 002B     		cmp	r3, #0
 401 00be 01D0     		beq	.L16
 197:Src/stm32f1xx_hal_msp.c ****     {
 198:Src/stm32f1xx_hal_msp.c ****       Error_Handler();
 402              		.loc 1 198 7
 403 00c0 FFF7FEFF 		bl	Error_Handler
 404              	.L16:
 199:Src/stm32f1xx_hal_msp.c ****     }
 200:Src/stm32f1xx_hal_msp.c **** 
 201:Src/stm32f1xx_hal_msp.c ****     __HAL_LINKDMA(huart,hdmarx,hdma_usart1_rx);
 405              		.loc 1 201 5
 406 00c4 7B68     		ldr	r3, [r7, #4]
 407 00c6 704A     		ldr	r2, .L22+12
 408 00c8 9A63     		str	r2, [r3, #56]
 409 00ca 6F4A     		ldr	r2, .L22+12
 410 00cc 7B68     		ldr	r3, [r7, #4]
 411 00ce 5362     		str	r3, [r2, #36]
 202:Src/stm32f1xx_hal_msp.c **** 
 203:Src/stm32f1xx_hal_msp.c ****     /* USART1 interrupt Init */
 204:Src/stm32f1xx_hal_msp.c ****     HAL_NVIC_SetPriority(USART1_IRQn, 0, 0);
 412              		.loc 1 204 5
 413 00d0 0022     		movs	r2, #0
 414 00d2 0021     		movs	r1, #0
 415 00d4 2520     		movs	r0, #37
 416 00d6 FFF7FEFF 		bl	HAL_NVIC_SetPriority
 205:Src/stm32f1xx_hal_msp.c ****     HAL_NVIC_EnableIRQ(USART1_IRQn);
 417              		.loc 1 205 5
 418 00da 2520     		movs	r0, #37
 419 00dc FFF7FEFF 		bl	HAL_NVIC_EnableIRQ
 206:Src/stm32f1xx_hal_msp.c ****   /* USER CODE BEGIN USART1_MspInit 1 */
 207:Src/stm32f1xx_hal_msp.c **** 
 208:Src/stm32f1xx_hal_msp.c ****   /* USER CODE END USART1_MspInit 1 */
 209:Src/stm32f1xx_hal_msp.c ****   }
 210:Src/stm32f1xx_hal_msp.c ****   else if(huart->Instance==USART2)
 211:Src/stm32f1xx_hal_msp.c ****   {
 212:Src/stm32f1xx_hal_msp.c ****   /* USER CODE BEGIN USART2_MspInit 0 */
 213:Src/stm32f1xx_hal_msp.c **** 
 214:Src/stm32f1xx_hal_msp.c ****   /* USER CODE END USART2_MspInit 0 */
 215:Src/stm32f1xx_hal_msp.c ****     /* Peripheral clock enable */
ARM GAS  C:\Users\57298\AppData\Local\Temp\ccLkMYum.s 			page 12


 216:Src/stm32f1xx_hal_msp.c ****     __HAL_RCC_USART2_CLK_ENABLE();
 217:Src/stm32f1xx_hal_msp.c **** 
 218:Src/stm32f1xx_hal_msp.c ****     __HAL_RCC_GPIOA_CLK_ENABLE();
 219:Src/stm32f1xx_hal_msp.c ****     /**USART2 GPIO Configuration
 220:Src/stm32f1xx_hal_msp.c ****     PA2     ------> USART2_TX
 221:Src/stm32f1xx_hal_msp.c ****     PA3     ------> USART2_RX
 222:Src/stm32f1xx_hal_msp.c ****     */
 223:Src/stm32f1xx_hal_msp.c ****     GPIO_InitStruct.Pin = GPIO_PIN_2;
 224:Src/stm32f1xx_hal_msp.c ****     GPIO_InitStruct.Mode = GPIO_MODE_AF_PP;
 225:Src/stm32f1xx_hal_msp.c ****     GPIO_InitStruct.Speed = GPIO_SPEED_FREQ_HIGH;
 226:Src/stm32f1xx_hal_msp.c ****     HAL_GPIO_Init(GPIOA, &GPIO_InitStruct);
 227:Src/stm32f1xx_hal_msp.c **** 
 228:Src/stm32f1xx_hal_msp.c ****     GPIO_InitStruct.Pin = GPIO_PIN_3;
 229:Src/stm32f1xx_hal_msp.c ****     GPIO_InitStruct.Mode = GPIO_MODE_INPUT;
 230:Src/stm32f1xx_hal_msp.c ****     GPIO_InitStruct.Pull = GPIO_NOPULL;
 231:Src/stm32f1xx_hal_msp.c ****     HAL_GPIO_Init(GPIOA, &GPIO_InitStruct);
 232:Src/stm32f1xx_hal_msp.c **** 
 233:Src/stm32f1xx_hal_msp.c ****     /* USART2 DMA Init */
 234:Src/stm32f1xx_hal_msp.c ****     /* USART2_RX Init */
 235:Src/stm32f1xx_hal_msp.c ****     hdma_usart2_rx.Instance = DMA1_Channel6;
 236:Src/stm32f1xx_hal_msp.c ****     hdma_usart2_rx.Init.Direction = DMA_PERIPH_TO_MEMORY;
 237:Src/stm32f1xx_hal_msp.c ****     hdma_usart2_rx.Init.PeriphInc = DMA_PINC_DISABLE;
 238:Src/stm32f1xx_hal_msp.c ****     hdma_usart2_rx.Init.MemInc = DMA_MINC_ENABLE;
 239:Src/stm32f1xx_hal_msp.c ****     hdma_usart2_rx.Init.PeriphDataAlignment = DMA_PDATAALIGN_BYTE;
 240:Src/stm32f1xx_hal_msp.c ****     hdma_usart2_rx.Init.MemDataAlignment = DMA_MDATAALIGN_BYTE;
 241:Src/stm32f1xx_hal_msp.c ****     hdma_usart2_rx.Init.Mode = DMA_NORMAL;
 242:Src/stm32f1xx_hal_msp.c ****     hdma_usart2_rx.Init.Priority = DMA_PRIORITY_LOW;
 243:Src/stm32f1xx_hal_msp.c ****     if (HAL_DMA_Init(&hdma_usart2_rx) != HAL_OK)
 244:Src/stm32f1xx_hal_msp.c ****     {
 245:Src/stm32f1xx_hal_msp.c ****       Error_Handler();
 246:Src/stm32f1xx_hal_msp.c ****     }
 247:Src/stm32f1xx_hal_msp.c **** 
 248:Src/stm32f1xx_hal_msp.c ****     __HAL_LINKDMA(huart,hdmarx,hdma_usart2_rx);
 249:Src/stm32f1xx_hal_msp.c **** 
 250:Src/stm32f1xx_hal_msp.c ****     /* USART2 interrupt Init */
 251:Src/stm32f1xx_hal_msp.c ****     HAL_NVIC_SetPriority(USART2_IRQn, 0, 0);
 252:Src/stm32f1xx_hal_msp.c ****     HAL_NVIC_EnableIRQ(USART2_IRQn);
 253:Src/stm32f1xx_hal_msp.c ****   /* USER CODE BEGIN USART2_MspInit 1 */
 254:Src/stm32f1xx_hal_msp.c **** 
 255:Src/stm32f1xx_hal_msp.c ****   /* USER CODE END USART2_MspInit 1 */
 256:Src/stm32f1xx_hal_msp.c ****   }
 257:Src/stm32f1xx_hal_msp.c ****   else if(huart->Instance==USART3)
 258:Src/stm32f1xx_hal_msp.c ****   {
 259:Src/stm32f1xx_hal_msp.c ****   /* USER CODE BEGIN USART3_MspInit 0 */
 260:Src/stm32f1xx_hal_msp.c **** 
 261:Src/stm32f1xx_hal_msp.c ****   /* USER CODE END USART3_MspInit 0 */
 262:Src/stm32f1xx_hal_msp.c ****     /* Peripheral clock enable */
 263:Src/stm32f1xx_hal_msp.c ****     __HAL_RCC_USART3_CLK_ENABLE();
 264:Src/stm32f1xx_hal_msp.c **** 
 265:Src/stm32f1xx_hal_msp.c ****     __HAL_RCC_GPIOB_CLK_ENABLE();
 266:Src/stm32f1xx_hal_msp.c ****     /**USART3 GPIO Configuration
 267:Src/stm32f1xx_hal_msp.c ****     PB10     ------> USART3_TX
 268:Src/stm32f1xx_hal_msp.c ****     PB11     ------> USART3_RX
 269:Src/stm32f1xx_hal_msp.c ****     */
 270:Src/stm32f1xx_hal_msp.c ****     GPIO_InitStruct.Pin = GPIO_PIN_10;
 271:Src/stm32f1xx_hal_msp.c ****     GPIO_InitStruct.Mode = GPIO_MODE_AF_PP;
 272:Src/stm32f1xx_hal_msp.c ****     GPIO_InitStruct.Speed = GPIO_SPEED_FREQ_HIGH;
ARM GAS  C:\Users\57298\AppData\Local\Temp\ccLkMYum.s 			page 13


 273:Src/stm32f1xx_hal_msp.c ****     HAL_GPIO_Init(GPIOB, &GPIO_InitStruct);
 274:Src/stm32f1xx_hal_msp.c **** 
 275:Src/stm32f1xx_hal_msp.c ****     GPIO_InitStruct.Pin = GPIO_PIN_11;
 276:Src/stm32f1xx_hal_msp.c ****     GPIO_InitStruct.Mode = GPIO_MODE_INPUT;
 277:Src/stm32f1xx_hal_msp.c ****     GPIO_InitStruct.Pull = GPIO_NOPULL;
 278:Src/stm32f1xx_hal_msp.c ****     HAL_GPIO_Init(GPIOB, &GPIO_InitStruct);
 279:Src/stm32f1xx_hal_msp.c **** 
 280:Src/stm32f1xx_hal_msp.c ****     /* USART3 DMA Init */
 281:Src/stm32f1xx_hal_msp.c ****     /* USART3_RX Init */
 282:Src/stm32f1xx_hal_msp.c ****     hdma_usart3_rx.Instance = DMA1_Channel3;
 283:Src/stm32f1xx_hal_msp.c ****     hdma_usart3_rx.Init.Direction = DMA_PERIPH_TO_MEMORY;
 284:Src/stm32f1xx_hal_msp.c ****     hdma_usart3_rx.Init.PeriphInc = DMA_PINC_DISABLE;
 285:Src/stm32f1xx_hal_msp.c ****     hdma_usart3_rx.Init.MemInc = DMA_MINC_ENABLE;
 286:Src/stm32f1xx_hal_msp.c ****     hdma_usart3_rx.Init.PeriphDataAlignment = DMA_PDATAALIGN_BYTE;
 287:Src/stm32f1xx_hal_msp.c ****     hdma_usart3_rx.Init.MemDataAlignment = DMA_MDATAALIGN_BYTE;
 288:Src/stm32f1xx_hal_msp.c ****     hdma_usart3_rx.Init.Mode = DMA_NORMAL;
 289:Src/stm32f1xx_hal_msp.c ****     hdma_usart3_rx.Init.Priority = DMA_PRIORITY_LOW;
 290:Src/stm32f1xx_hal_msp.c ****     if (HAL_DMA_Init(&hdma_usart3_rx) != HAL_OK)
 291:Src/stm32f1xx_hal_msp.c ****     {
 292:Src/stm32f1xx_hal_msp.c ****       Error_Handler();
 293:Src/stm32f1xx_hal_msp.c ****     }
 294:Src/stm32f1xx_hal_msp.c **** 
 295:Src/stm32f1xx_hal_msp.c ****     __HAL_LINKDMA(huart,hdmarx,hdma_usart3_rx);
 296:Src/stm32f1xx_hal_msp.c **** 
 297:Src/stm32f1xx_hal_msp.c ****     /* USART3 interrupt Init */
 298:Src/stm32f1xx_hal_msp.c ****     HAL_NVIC_SetPriority(USART3_IRQn, 0, 0);
 299:Src/stm32f1xx_hal_msp.c ****     HAL_NVIC_EnableIRQ(USART3_IRQn);
 300:Src/stm32f1xx_hal_msp.c ****   /* USER CODE BEGIN USART3_MspInit 1 */
 301:Src/stm32f1xx_hal_msp.c **** 
 302:Src/stm32f1xx_hal_msp.c ****   /* USER CODE END USART3_MspInit 1 */
 303:Src/stm32f1xx_hal_msp.c ****   }
 304:Src/stm32f1xx_hal_msp.c **** 
 305:Src/stm32f1xx_hal_msp.c **** }
 420              		.loc 1 305 1
 421 00e0 C8E0     		b	.L21
 422              	.L15:
 210:Src/stm32f1xx_hal_msp.c ****   {
 423              		.loc 1 210 16
 424 00e2 7B68     		ldr	r3, [r7, #4]
 425 00e4 1B68     		ldr	r3, [r3]
 210:Src/stm32f1xx_hal_msp.c ****   {
 426              		.loc 1 210 10
 427 00e6 6A4A     		ldr	r2, .L22+20
 428 00e8 9342     		cmp	r3, r2
 429 00ea 5ED1     		bne	.L18
 430              	.LBB9:
 216:Src/stm32f1xx_hal_msp.c **** 
 431              		.loc 1 216 5
 432 00ec 644B     		ldr	r3, .L22+4
 433 00ee DB69     		ldr	r3, [r3, #28]
 434 00f0 634A     		ldr	r2, .L22+4
 435 00f2 43F40033 		orr	r3, r3, #131072
 436 00f6 D361     		str	r3, [r2, #28]
 437 00f8 614B     		ldr	r3, .L22+4
 438 00fa DB69     		ldr	r3, [r3, #28]
 439 00fc 03F40033 		and	r3, r3, #131072
 440 0100 7B61     		str	r3, [r7, #20]
ARM GAS  C:\Users\57298\AppData\Local\Temp\ccLkMYum.s 			page 14


 441 0102 7B69     		ldr	r3, [r7, #20]
 442              	.LBE9:
 443              	.LBB10:
 218:Src/stm32f1xx_hal_msp.c ****     /**USART2 GPIO Configuration
 444              		.loc 1 218 5
 445 0104 5E4B     		ldr	r3, .L22+4
 446 0106 9B69     		ldr	r3, [r3, #24]
 447 0108 5D4A     		ldr	r2, .L22+4
 448 010a 43F00403 		orr	r3, r3, #4
 449 010e 9361     		str	r3, [r2, #24]
 450 0110 5B4B     		ldr	r3, .L22+4
 451 0112 9B69     		ldr	r3, [r3, #24]
 452 0114 03F00403 		and	r3, r3, #4
 453 0118 3B61     		str	r3, [r7, #16]
 454 011a 3B69     		ldr	r3, [r7, #16]
 455              	.LBE10:
 223:Src/stm32f1xx_hal_msp.c ****     GPIO_InitStruct.Mode = GPIO_MODE_AF_PP;
 456              		.loc 1 223 25
 457 011c 0423     		movs	r3, #4
 458 011e 3B62     		str	r3, [r7, #32]
 224:Src/stm32f1xx_hal_msp.c ****     GPIO_InitStruct.Speed = GPIO_SPEED_FREQ_HIGH;
 459              		.loc 1 224 26
 460 0120 0223     		movs	r3, #2
 461 0122 7B62     		str	r3, [r7, #36]
 225:Src/stm32f1xx_hal_msp.c ****     HAL_GPIO_Init(GPIOA, &GPIO_InitStruct);
 462              		.loc 1 225 27
 463 0124 0323     		movs	r3, #3
 464 0126 FB62     		str	r3, [r7, #44]
 226:Src/stm32f1xx_hal_msp.c **** 
 465              		.loc 1 226 5
 466 0128 07F12003 		add	r3, r7, #32
 467 012c 1946     		mov	r1, r3
 468 012e 5548     		ldr	r0, .L22+8
 469 0130 FFF7FEFF 		bl	HAL_GPIO_Init
 228:Src/stm32f1xx_hal_msp.c ****     GPIO_InitStruct.Mode = GPIO_MODE_INPUT;
 470              		.loc 1 228 25
 471 0134 0823     		movs	r3, #8
 472 0136 3B62     		str	r3, [r7, #32]
 229:Src/stm32f1xx_hal_msp.c ****     GPIO_InitStruct.Pull = GPIO_NOPULL;
 473              		.loc 1 229 26
 474 0138 0023     		movs	r3, #0
 475 013a 7B62     		str	r3, [r7, #36]
 230:Src/stm32f1xx_hal_msp.c ****     HAL_GPIO_Init(GPIOA, &GPIO_InitStruct);
 476              		.loc 1 230 26
 477 013c 0023     		movs	r3, #0
 478 013e BB62     		str	r3, [r7, #40]
 231:Src/stm32f1xx_hal_msp.c **** 
 479              		.loc 1 231 5
 480 0140 07F12003 		add	r3, r7, #32
 481 0144 1946     		mov	r1, r3
 482 0146 4F48     		ldr	r0, .L22+8
 483 0148 FFF7FEFF 		bl	HAL_GPIO_Init
 235:Src/stm32f1xx_hal_msp.c ****     hdma_usart2_rx.Init.Direction = DMA_PERIPH_TO_MEMORY;
 484              		.loc 1 235 29
 485 014c 514B     		ldr	r3, .L22+24
 486 014e 524A     		ldr	r2, .L22+28
 487 0150 1A60     		str	r2, [r3]
ARM GAS  C:\Users\57298\AppData\Local\Temp\ccLkMYum.s 			page 15


 236:Src/stm32f1xx_hal_msp.c ****     hdma_usart2_rx.Init.PeriphInc = DMA_PINC_DISABLE;
 488              		.loc 1 236 35
 489 0152 504B     		ldr	r3, .L22+24
 490 0154 0022     		movs	r2, #0
 491 0156 5A60     		str	r2, [r3, #4]
 237:Src/stm32f1xx_hal_msp.c ****     hdma_usart2_rx.Init.MemInc = DMA_MINC_ENABLE;
 492              		.loc 1 237 35
 493 0158 4E4B     		ldr	r3, .L22+24
 494 015a 0022     		movs	r2, #0
 495 015c 9A60     		str	r2, [r3, #8]
 238:Src/stm32f1xx_hal_msp.c ****     hdma_usart2_rx.Init.PeriphDataAlignment = DMA_PDATAALIGN_BYTE;
 496              		.loc 1 238 32
 497 015e 4D4B     		ldr	r3, .L22+24
 498 0160 8022     		movs	r2, #128
 499 0162 DA60     		str	r2, [r3, #12]
 239:Src/stm32f1xx_hal_msp.c ****     hdma_usart2_rx.Init.MemDataAlignment = DMA_MDATAALIGN_BYTE;
 500              		.loc 1 239 45
 501 0164 4B4B     		ldr	r3, .L22+24
 502 0166 0022     		movs	r2, #0
 503 0168 1A61     		str	r2, [r3, #16]
 240:Src/stm32f1xx_hal_msp.c ****     hdma_usart2_rx.Init.Mode = DMA_NORMAL;
 504              		.loc 1 240 42
 505 016a 4A4B     		ldr	r3, .L22+24
 506 016c 0022     		movs	r2, #0
 507 016e 5A61     		str	r2, [r3, #20]
 241:Src/stm32f1xx_hal_msp.c ****     hdma_usart2_rx.Init.Priority = DMA_PRIORITY_LOW;
 508              		.loc 1 241 30
 509 0170 484B     		ldr	r3, .L22+24
 510 0172 0022     		movs	r2, #0
 511 0174 9A61     		str	r2, [r3, #24]
 242:Src/stm32f1xx_hal_msp.c ****     if (HAL_DMA_Init(&hdma_usart2_rx) != HAL_OK)
 512              		.loc 1 242 34
 513 0176 474B     		ldr	r3, .L22+24
 514 0178 0022     		movs	r2, #0
 515 017a DA61     		str	r2, [r3, #28]
 243:Src/stm32f1xx_hal_msp.c ****     {
 516              		.loc 1 243 9
 517 017c 4548     		ldr	r0, .L22+24
 518 017e FFF7FEFF 		bl	HAL_DMA_Init
 519 0182 0346     		mov	r3, r0
 243:Src/stm32f1xx_hal_msp.c ****     {
 520              		.loc 1 243 8
 521 0184 002B     		cmp	r3, #0
 522 0186 01D0     		beq	.L19
 245:Src/stm32f1xx_hal_msp.c ****     }
 523              		.loc 1 245 7
 524 0188 FFF7FEFF 		bl	Error_Handler
 525              	.L19:
 248:Src/stm32f1xx_hal_msp.c **** 
 526              		.loc 1 248 5
 527 018c 7B68     		ldr	r3, [r7, #4]
 528 018e 414A     		ldr	r2, .L22+24
 529 0190 9A63     		str	r2, [r3, #56]
 530 0192 404A     		ldr	r2, .L22+24
 531 0194 7B68     		ldr	r3, [r7, #4]
 532 0196 5362     		str	r3, [r2, #36]
 251:Src/stm32f1xx_hal_msp.c ****     HAL_NVIC_EnableIRQ(USART2_IRQn);
ARM GAS  C:\Users\57298\AppData\Local\Temp\ccLkMYum.s 			page 16


 533              		.loc 1 251 5
 534 0198 0022     		movs	r2, #0
 535 019a 0021     		movs	r1, #0
 536 019c 2620     		movs	r0, #38
 537 019e FFF7FEFF 		bl	HAL_NVIC_SetPriority
 252:Src/stm32f1xx_hal_msp.c ****   /* USER CODE BEGIN USART2_MspInit 1 */
 538              		.loc 1 252 5
 539 01a2 2620     		movs	r0, #38
 540 01a4 FFF7FEFF 		bl	HAL_NVIC_EnableIRQ
 541              		.loc 1 305 1
 542 01a8 64E0     		b	.L21
 543              	.L18:
 257:Src/stm32f1xx_hal_msp.c ****   {
 544              		.loc 1 257 16
 545 01aa 7B68     		ldr	r3, [r7, #4]
 546 01ac 1B68     		ldr	r3, [r3]
 257:Src/stm32f1xx_hal_msp.c ****   {
 547              		.loc 1 257 10
 548 01ae 3B4A     		ldr	r2, .L22+32
 549 01b0 9342     		cmp	r3, r2
 550 01b2 5FD1     		bne	.L21
 551              	.LBB11:
 263:Src/stm32f1xx_hal_msp.c **** 
 552              		.loc 1 263 5
 553 01b4 324B     		ldr	r3, .L22+4
 554 01b6 DB69     		ldr	r3, [r3, #28]
 555 01b8 314A     		ldr	r2, .L22+4
 556 01ba 43F48023 		orr	r3, r3, #262144
 557 01be D361     		str	r3, [r2, #28]
 558 01c0 2F4B     		ldr	r3, .L22+4
 559 01c2 DB69     		ldr	r3, [r3, #28]
 560 01c4 03F48023 		and	r3, r3, #262144
 561 01c8 FB60     		str	r3, [r7, #12]
 562 01ca FB68     		ldr	r3, [r7, #12]
 563              	.LBE11:
 564              	.LBB12:
 265:Src/stm32f1xx_hal_msp.c ****     /**USART3 GPIO Configuration
 565              		.loc 1 265 5
 566 01cc 2C4B     		ldr	r3, .L22+4
 567 01ce 9B69     		ldr	r3, [r3, #24]
 568 01d0 2B4A     		ldr	r2, .L22+4
 569 01d2 43F00803 		orr	r3, r3, #8
 570 01d6 9361     		str	r3, [r2, #24]
 571 01d8 294B     		ldr	r3, .L22+4
 572 01da 9B69     		ldr	r3, [r3, #24]
 573 01dc 03F00803 		and	r3, r3, #8
 574 01e0 BB60     		str	r3, [r7, #8]
 575 01e2 BB68     		ldr	r3, [r7, #8]
 576              	.LBE12:
 270:Src/stm32f1xx_hal_msp.c ****     GPIO_InitStruct.Mode = GPIO_MODE_AF_PP;
 577              		.loc 1 270 25
 578 01e4 4FF48063 		mov	r3, #1024
 579 01e8 3B62     		str	r3, [r7, #32]
 271:Src/stm32f1xx_hal_msp.c ****     GPIO_InitStruct.Speed = GPIO_SPEED_FREQ_HIGH;
 580              		.loc 1 271 26
 581 01ea 0223     		movs	r3, #2
 582 01ec 7B62     		str	r3, [r7, #36]
ARM GAS  C:\Users\57298\AppData\Local\Temp\ccLkMYum.s 			page 17


 272:Src/stm32f1xx_hal_msp.c ****     HAL_GPIO_Init(GPIOB, &GPIO_InitStruct);
 583              		.loc 1 272 27
 584 01ee 0323     		movs	r3, #3
 585 01f0 FB62     		str	r3, [r7, #44]
 273:Src/stm32f1xx_hal_msp.c **** 
 586              		.loc 1 273 5
 587 01f2 07F12003 		add	r3, r7, #32
 588 01f6 1946     		mov	r1, r3
 589 01f8 2948     		ldr	r0, .L22+36
 590 01fa FFF7FEFF 		bl	HAL_GPIO_Init
 275:Src/stm32f1xx_hal_msp.c ****     GPIO_InitStruct.Mode = GPIO_MODE_INPUT;
 591              		.loc 1 275 25
 592 01fe 4FF40063 		mov	r3, #2048
 593 0202 3B62     		str	r3, [r7, #32]
 276:Src/stm32f1xx_hal_msp.c ****     GPIO_InitStruct.Pull = GPIO_NOPULL;
 594              		.loc 1 276 26
 595 0204 0023     		movs	r3, #0
 596 0206 7B62     		str	r3, [r7, #36]
 277:Src/stm32f1xx_hal_msp.c ****     HAL_GPIO_Init(GPIOB, &GPIO_InitStruct);
 597              		.loc 1 277 26
 598 0208 0023     		movs	r3, #0
 599 020a BB62     		str	r3, [r7, #40]
 278:Src/stm32f1xx_hal_msp.c **** 
 600              		.loc 1 278 5
 601 020c 07F12003 		add	r3, r7, #32
 602 0210 1946     		mov	r1, r3
 603 0212 2348     		ldr	r0, .L22+36
 604 0214 FFF7FEFF 		bl	HAL_GPIO_Init
 282:Src/stm32f1xx_hal_msp.c ****     hdma_usart3_rx.Init.Direction = DMA_PERIPH_TO_MEMORY;
 605              		.loc 1 282 29
 606 0218 224B     		ldr	r3, .L22+40
 607 021a 234A     		ldr	r2, .L22+44
 608 021c 1A60     		str	r2, [r3]
 283:Src/stm32f1xx_hal_msp.c ****     hdma_usart3_rx.Init.PeriphInc = DMA_PINC_DISABLE;
 609              		.loc 1 283 35
 610 021e 214B     		ldr	r3, .L22+40
 611 0220 0022     		movs	r2, #0
 612 0222 5A60     		str	r2, [r3, #4]
 284:Src/stm32f1xx_hal_msp.c ****     hdma_usart3_rx.Init.MemInc = DMA_MINC_ENABLE;
 613              		.loc 1 284 35
 614 0224 1F4B     		ldr	r3, .L22+40
 615 0226 0022     		movs	r2, #0
 616 0228 9A60     		str	r2, [r3, #8]
 285:Src/stm32f1xx_hal_msp.c ****     hdma_usart3_rx.Init.PeriphDataAlignment = DMA_PDATAALIGN_BYTE;
 617              		.loc 1 285 32
 618 022a 1E4B     		ldr	r3, .L22+40
 619 022c 8022     		movs	r2, #128
 620 022e DA60     		str	r2, [r3, #12]
 286:Src/stm32f1xx_hal_msp.c ****     hdma_usart3_rx.Init.MemDataAlignment = DMA_MDATAALIGN_BYTE;
 621              		.loc 1 286 45
 622 0230 1C4B     		ldr	r3, .L22+40
 623 0232 0022     		movs	r2, #0
 624 0234 1A61     		str	r2, [r3, #16]
 287:Src/stm32f1xx_hal_msp.c ****     hdma_usart3_rx.Init.Mode = DMA_NORMAL;
 625              		.loc 1 287 42
 626 0236 1B4B     		ldr	r3, .L22+40
 627 0238 0022     		movs	r2, #0
ARM GAS  C:\Users\57298\AppData\Local\Temp\ccLkMYum.s 			page 18


 628 023a 5A61     		str	r2, [r3, #20]
 288:Src/stm32f1xx_hal_msp.c ****     hdma_usart3_rx.Init.Priority = DMA_PRIORITY_LOW;
 629              		.loc 1 288 30
 630 023c 194B     		ldr	r3, .L22+40
 631 023e 0022     		movs	r2, #0
 632 0240 9A61     		str	r2, [r3, #24]
 289:Src/stm32f1xx_hal_msp.c ****     if (HAL_DMA_Init(&hdma_usart3_rx) != HAL_OK)
 633              		.loc 1 289 34
 634 0242 184B     		ldr	r3, .L22+40
 635 0244 0022     		movs	r2, #0
 636 0246 DA61     		str	r2, [r3, #28]
 290:Src/stm32f1xx_hal_msp.c ****     {
 637              		.loc 1 290 9
 638 0248 1648     		ldr	r0, .L22+40
 639 024a FFF7FEFF 		bl	HAL_DMA_Init
 640 024e 0346     		mov	r3, r0
 290:Src/stm32f1xx_hal_msp.c ****     {
 641              		.loc 1 290 8
 642 0250 002B     		cmp	r3, #0
 643 0252 01D0     		beq	.L20
 292:Src/stm32f1xx_hal_msp.c ****     }
 644              		.loc 1 292 7
 645 0254 FFF7FEFF 		bl	Error_Handler
 646              	.L20:
 295:Src/stm32f1xx_hal_msp.c **** 
 647              		.loc 1 295 5
 648 0258 7B68     		ldr	r3, [r7, #4]
 649 025a 124A     		ldr	r2, .L22+40
 650 025c 9A63     		str	r2, [r3, #56]
 651 025e 114A     		ldr	r2, .L22+40
 652 0260 7B68     		ldr	r3, [r7, #4]
 653 0262 5362     		str	r3, [r2, #36]
 298:Src/stm32f1xx_hal_msp.c ****     HAL_NVIC_EnableIRQ(USART3_IRQn);
 654              		.loc 1 298 5
 655 0264 0022     		movs	r2, #0
 656 0266 0021     		movs	r1, #0
 657 0268 2720     		movs	r0, #39
 658 026a FFF7FEFF 		bl	HAL_NVIC_SetPriority
 299:Src/stm32f1xx_hal_msp.c ****   /* USER CODE BEGIN USART3_MspInit 1 */
 659              		.loc 1 299 5
 660 026e 2720     		movs	r0, #39
 661 0270 FFF7FEFF 		bl	HAL_NVIC_EnableIRQ
 662              	.L21:
 663              		.loc 1 305 1
 664 0274 00BF     		nop
 665 0276 3037     		adds	r7, r7, #48
 666              	.LCFI19:
 667              		.cfi_def_cfa_offset 8
 668 0278 BD46     		mov	sp, r7
 669              	.LCFI20:
 670              		.cfi_def_cfa_register 13
 671              		@ sp needed
 672 027a 80BD     		pop	{r7, pc}
 673              	.L23:
 674              		.align	2
 675              	.L22:
 676 027c 00380140 		.word	1073821696
ARM GAS  C:\Users\57298\AppData\Local\Temp\ccLkMYum.s 			page 19


 677 0280 00100240 		.word	1073876992
 678 0284 00080140 		.word	1073809408
 679 0288 00000000 		.word	hdma_usart1_rx
 680 028c 58000240 		.word	1073872984
 681 0290 00440040 		.word	1073759232
 682 0294 00000000 		.word	hdma_usart2_rx
 683 0298 6C000240 		.word	1073873004
 684 029c 00480040 		.word	1073760256
 685 02a0 000C0140 		.word	1073810432
 686 02a4 00000000 		.word	hdma_usart3_rx
 687 02a8 30000240 		.word	1073872944
 688              		.cfi_endproc
 689              	.LFE68:
 691              		.section	.text.HAL_UART_MspDeInit,"ax",%progbits
 692              		.align	1
 693              		.global	HAL_UART_MspDeInit
 694              		.syntax unified
 695              		.thumb
 696              		.thumb_func
 698              	HAL_UART_MspDeInit:
 699              	.LFB69:
 306:Src/stm32f1xx_hal_msp.c **** 
 307:Src/stm32f1xx_hal_msp.c **** /**
 308:Src/stm32f1xx_hal_msp.c **** * @brief UART MSP De-Initialization
 309:Src/stm32f1xx_hal_msp.c **** * This function freeze the hardware resources used in this example
 310:Src/stm32f1xx_hal_msp.c **** * @param huart: UART handle pointer
 311:Src/stm32f1xx_hal_msp.c **** * @retval None
 312:Src/stm32f1xx_hal_msp.c **** */
 313:Src/stm32f1xx_hal_msp.c **** void HAL_UART_MspDeInit(UART_HandleTypeDef* huart)
 314:Src/stm32f1xx_hal_msp.c **** {
 700              		.loc 1 314 1
 701              		.cfi_startproc
 702              		@ args = 0, pretend = 0, frame = 8
 703              		@ frame_needed = 1, uses_anonymous_args = 0
 704 0000 80B5     		push	{r7, lr}
 705              	.LCFI21:
 706              		.cfi_def_cfa_offset 8
 707              		.cfi_offset 7, -8
 708              		.cfi_offset 14, -4
 709 0002 82B0     		sub	sp, sp, #8
 710              	.LCFI22:
 711              		.cfi_def_cfa_offset 16
 712 0004 00AF     		add	r7, sp, #0
 713              	.LCFI23:
 714              		.cfi_def_cfa_register 7
 715 0006 7860     		str	r0, [r7, #4]
 315:Src/stm32f1xx_hal_msp.c ****   if(huart->Instance==USART1)
 716              		.loc 1 315 11
 717 0008 7B68     		ldr	r3, [r7, #4]
 718 000a 1B68     		ldr	r3, [r3]
 719              		.loc 1 315 5
 720 000c 254A     		ldr	r2, .L29
 721 000e 9342     		cmp	r3, r2
 722 0010 13D1     		bne	.L25
 316:Src/stm32f1xx_hal_msp.c ****   {
 317:Src/stm32f1xx_hal_msp.c ****   /* USER CODE BEGIN USART1_MspDeInit 0 */
 318:Src/stm32f1xx_hal_msp.c **** 
ARM GAS  C:\Users\57298\AppData\Local\Temp\ccLkMYum.s 			page 20


 319:Src/stm32f1xx_hal_msp.c ****   /* USER CODE END USART1_MspDeInit 0 */
 320:Src/stm32f1xx_hal_msp.c ****     /* Peripheral clock disable */
 321:Src/stm32f1xx_hal_msp.c ****     __HAL_RCC_USART1_CLK_DISABLE();
 723              		.loc 1 321 5
 724 0012 254B     		ldr	r3, .L29+4
 725 0014 9B69     		ldr	r3, [r3, #24]
 726 0016 244A     		ldr	r2, .L29+4
 727 0018 23F48043 		bic	r3, r3, #16384
 728 001c 9361     		str	r3, [r2, #24]
 322:Src/stm32f1xx_hal_msp.c **** 
 323:Src/stm32f1xx_hal_msp.c ****     /**USART1 GPIO Configuration
 324:Src/stm32f1xx_hal_msp.c ****     PA9     ------> USART1_TX
 325:Src/stm32f1xx_hal_msp.c ****     PA10     ------> USART1_RX
 326:Src/stm32f1xx_hal_msp.c ****     */
 327:Src/stm32f1xx_hal_msp.c ****     HAL_GPIO_DeInit(GPIOA, GPIO_PIN_9|GPIO_PIN_10);
 729              		.loc 1 327 5
 730 001e 4FF4C061 		mov	r1, #1536
 731 0022 2248     		ldr	r0, .L29+8
 732 0024 FFF7FEFF 		bl	HAL_GPIO_DeInit
 328:Src/stm32f1xx_hal_msp.c **** 
 329:Src/stm32f1xx_hal_msp.c ****     /* USART1 DMA DeInit */
 330:Src/stm32f1xx_hal_msp.c ****     HAL_DMA_DeInit(huart->hdmarx);
 733              		.loc 1 330 5
 734 0028 7B68     		ldr	r3, [r7, #4]
 735 002a 9B6B     		ldr	r3, [r3, #56]
 736 002c 1846     		mov	r0, r3
 737 002e FFF7FEFF 		bl	HAL_DMA_DeInit
 331:Src/stm32f1xx_hal_msp.c **** 
 332:Src/stm32f1xx_hal_msp.c ****     /* USART1 interrupt DeInit */
 333:Src/stm32f1xx_hal_msp.c ****     HAL_NVIC_DisableIRQ(USART1_IRQn);
 738              		.loc 1 333 5
 739 0032 2520     		movs	r0, #37
 740 0034 FFF7FEFF 		bl	HAL_NVIC_DisableIRQ
 334:Src/stm32f1xx_hal_msp.c ****   /* USER CODE BEGIN USART1_MspDeInit 1 */
 335:Src/stm32f1xx_hal_msp.c **** 
 336:Src/stm32f1xx_hal_msp.c ****   /* USER CODE END USART1_MspDeInit 1 */
 337:Src/stm32f1xx_hal_msp.c ****   }
 338:Src/stm32f1xx_hal_msp.c ****   else if(huart->Instance==USART2)
 339:Src/stm32f1xx_hal_msp.c ****   {
 340:Src/stm32f1xx_hal_msp.c ****   /* USER CODE BEGIN USART2_MspDeInit 0 */
 341:Src/stm32f1xx_hal_msp.c **** 
 342:Src/stm32f1xx_hal_msp.c ****   /* USER CODE END USART2_MspDeInit 0 */
 343:Src/stm32f1xx_hal_msp.c ****     /* Peripheral clock disable */
 344:Src/stm32f1xx_hal_msp.c ****     __HAL_RCC_USART2_CLK_DISABLE();
 345:Src/stm32f1xx_hal_msp.c **** 
 346:Src/stm32f1xx_hal_msp.c ****     /**USART2 GPIO Configuration
 347:Src/stm32f1xx_hal_msp.c ****     PA2     ------> USART2_TX
 348:Src/stm32f1xx_hal_msp.c ****     PA3     ------> USART2_RX
 349:Src/stm32f1xx_hal_msp.c ****     */
 350:Src/stm32f1xx_hal_msp.c ****     HAL_GPIO_DeInit(GPIOA, GPIO_PIN_2|GPIO_PIN_3);
 351:Src/stm32f1xx_hal_msp.c **** 
 352:Src/stm32f1xx_hal_msp.c ****     /* USART2 DMA DeInit */
 353:Src/stm32f1xx_hal_msp.c ****     HAL_DMA_DeInit(huart->hdmarx);
 354:Src/stm32f1xx_hal_msp.c **** 
 355:Src/stm32f1xx_hal_msp.c ****     /* USART2 interrupt DeInit */
 356:Src/stm32f1xx_hal_msp.c ****     HAL_NVIC_DisableIRQ(USART2_IRQn);
 357:Src/stm32f1xx_hal_msp.c ****   /* USER CODE BEGIN USART2_MspDeInit 1 */
ARM GAS  C:\Users\57298\AppData\Local\Temp\ccLkMYum.s 			page 21


 358:Src/stm32f1xx_hal_msp.c **** 
 359:Src/stm32f1xx_hal_msp.c ****   /* USER CODE END USART2_MspDeInit 1 */
 360:Src/stm32f1xx_hal_msp.c ****   }
 361:Src/stm32f1xx_hal_msp.c ****   else if(huart->Instance==USART3)
 362:Src/stm32f1xx_hal_msp.c ****   {
 363:Src/stm32f1xx_hal_msp.c ****   /* USER CODE BEGIN USART3_MspDeInit 0 */
 364:Src/stm32f1xx_hal_msp.c **** 
 365:Src/stm32f1xx_hal_msp.c ****   /* USER CODE END USART3_MspDeInit 0 */
 366:Src/stm32f1xx_hal_msp.c ****     /* Peripheral clock disable */
 367:Src/stm32f1xx_hal_msp.c ****     __HAL_RCC_USART3_CLK_DISABLE();
 368:Src/stm32f1xx_hal_msp.c **** 
 369:Src/stm32f1xx_hal_msp.c ****     /**USART3 GPIO Configuration
 370:Src/stm32f1xx_hal_msp.c ****     PB10     ------> USART3_TX
 371:Src/stm32f1xx_hal_msp.c ****     PB11     ------> USART3_RX
 372:Src/stm32f1xx_hal_msp.c ****     */
 373:Src/stm32f1xx_hal_msp.c ****     HAL_GPIO_DeInit(GPIOB, GPIO_PIN_10|GPIO_PIN_11);
 374:Src/stm32f1xx_hal_msp.c **** 
 375:Src/stm32f1xx_hal_msp.c ****     /* USART3 DMA DeInit */
 376:Src/stm32f1xx_hal_msp.c ****     HAL_DMA_DeInit(huart->hdmarx);
 377:Src/stm32f1xx_hal_msp.c **** 
 378:Src/stm32f1xx_hal_msp.c ****     /* USART3 interrupt DeInit */
 379:Src/stm32f1xx_hal_msp.c ****     HAL_NVIC_DisableIRQ(USART3_IRQn);
 380:Src/stm32f1xx_hal_msp.c ****   /* USER CODE BEGIN USART3_MspDeInit 1 */
 381:Src/stm32f1xx_hal_msp.c **** 
 382:Src/stm32f1xx_hal_msp.c ****   /* USER CODE END USART3_MspDeInit 1 */
 383:Src/stm32f1xx_hal_msp.c ****   }
 384:Src/stm32f1xx_hal_msp.c **** 
 385:Src/stm32f1xx_hal_msp.c **** }
 741              		.loc 1 385 1
 742 0038 2FE0     		b	.L28
 743              	.L25:
 338:Src/stm32f1xx_hal_msp.c ****   {
 744              		.loc 1 338 16
 745 003a 7B68     		ldr	r3, [r7, #4]
 746 003c 1B68     		ldr	r3, [r3]
 338:Src/stm32f1xx_hal_msp.c ****   {
 747              		.loc 1 338 10
 748 003e 1C4A     		ldr	r2, .L29+12
 749 0040 9342     		cmp	r3, r2
 750 0042 12D1     		bne	.L27
 344:Src/stm32f1xx_hal_msp.c **** 
 751              		.loc 1 344 5
 752 0044 184B     		ldr	r3, .L29+4
 753 0046 DB69     		ldr	r3, [r3, #28]
 754 0048 174A     		ldr	r2, .L29+4
 755 004a 23F40033 		bic	r3, r3, #131072
 756 004e D361     		str	r3, [r2, #28]
 350:Src/stm32f1xx_hal_msp.c **** 
 757              		.loc 1 350 5
 758 0050 0C21     		movs	r1, #12
 759 0052 1648     		ldr	r0, .L29+8
 760 0054 FFF7FEFF 		bl	HAL_GPIO_DeInit
 353:Src/stm32f1xx_hal_msp.c **** 
 761              		.loc 1 353 5
 762 0058 7B68     		ldr	r3, [r7, #4]
 763 005a 9B6B     		ldr	r3, [r3, #56]
 764 005c 1846     		mov	r0, r3
ARM GAS  C:\Users\57298\AppData\Local\Temp\ccLkMYum.s 			page 22


 765 005e FFF7FEFF 		bl	HAL_DMA_DeInit
 356:Src/stm32f1xx_hal_msp.c ****   /* USER CODE BEGIN USART2_MspDeInit 1 */
 766              		.loc 1 356 5
 767 0062 2620     		movs	r0, #38
 768 0064 FFF7FEFF 		bl	HAL_NVIC_DisableIRQ
 769              		.loc 1 385 1
 770 0068 17E0     		b	.L28
 771              	.L27:
 361:Src/stm32f1xx_hal_msp.c ****   {
 772              		.loc 1 361 16
 773 006a 7B68     		ldr	r3, [r7, #4]
 774 006c 1B68     		ldr	r3, [r3]
 361:Src/stm32f1xx_hal_msp.c ****   {
 775              		.loc 1 361 10
 776 006e 114A     		ldr	r2, .L29+16
 777 0070 9342     		cmp	r3, r2
 778 0072 12D1     		bne	.L28
 367:Src/stm32f1xx_hal_msp.c **** 
 779              		.loc 1 367 5
 780 0074 0C4B     		ldr	r3, .L29+4
 781 0076 DB69     		ldr	r3, [r3, #28]
 782 0078 0B4A     		ldr	r2, .L29+4
 783 007a 23F48023 		bic	r3, r3, #262144
 784 007e D361     		str	r3, [r2, #28]
 373:Src/stm32f1xx_hal_msp.c **** 
 785              		.loc 1 373 5
 786 0080 4FF44061 		mov	r1, #3072
 787 0084 0C48     		ldr	r0, .L29+20
 788 0086 FFF7FEFF 		bl	HAL_GPIO_DeInit
 376:Src/stm32f1xx_hal_msp.c **** 
 789              		.loc 1 376 5
 790 008a 7B68     		ldr	r3, [r7, #4]
 791 008c 9B6B     		ldr	r3, [r3, #56]
 792 008e 1846     		mov	r0, r3
 793 0090 FFF7FEFF 		bl	HAL_DMA_DeInit
 379:Src/stm32f1xx_hal_msp.c ****   /* USER CODE BEGIN USART3_MspDeInit 1 */
 794              		.loc 1 379 5
 795 0094 2720     		movs	r0, #39
 796 0096 FFF7FEFF 		bl	HAL_NVIC_DisableIRQ
 797              	.L28:
 798              		.loc 1 385 1
 799 009a 00BF     		nop
 800 009c 0837     		adds	r7, r7, #8
 801              	.LCFI24:
 802              		.cfi_def_cfa_offset 8
 803 009e BD46     		mov	sp, r7
 804              	.LCFI25:
 805              		.cfi_def_cfa_register 13
 806              		@ sp needed
 807 00a0 80BD     		pop	{r7, pc}
 808              	.L30:
 809 00a2 00BF     		.align	2
 810              	.L29:
 811 00a4 00380140 		.word	1073821696
 812 00a8 00100240 		.word	1073876992
 813 00ac 00080140 		.word	1073809408
 814 00b0 00440040 		.word	1073759232
ARM GAS  C:\Users\57298\AppData\Local\Temp\ccLkMYum.s 			page 23


 815 00b4 00480040 		.word	1073760256
 816 00b8 000C0140 		.word	1073810432
 817              		.cfi_endproc
 818              	.LFE69:
 820              		.text
 821              	.Letext0:
 822              		.file 2 "c:\\program files\\gcc-arm-none-eabi-10.3-2021.10\\arm-none-eabi\\include\\machine\\_defa
 823              		.file 3 "c:\\program files\\gcc-arm-none-eabi-10.3-2021.10\\arm-none-eabi\\include\\sys\\_stdint.h
 824              		.file 4 "Drivers/CMSIS/Device/ST/STM32F1xx/Include/stm32f103xb.h"
 825              		.file 5 "Drivers/STM32F1xx_HAL_Driver/Inc/stm32f1xx_hal_def.h"
 826              		.file 6 "Drivers/STM32F1xx_HAL_Driver/Inc/stm32f1xx_hal_gpio.h"
 827              		.file 7 "Drivers/STM32F1xx_HAL_Driver/Inc/stm32f1xx_hal_dma.h"
 828              		.file 8 "Drivers/STM32F1xx_HAL_Driver/Inc/stm32f1xx_hal_i2c.h"
 829              		.file 9 "Drivers/STM32F1xx_HAL_Driver/Inc/stm32f1xx_hal_uart.h"
ARM GAS  C:\Users\57298\AppData\Local\Temp\ccLkMYum.s 			page 24


DEFINED SYMBOLS
                            *ABS*:00000000 stm32f1xx_hal_msp.c
C:\Users\57298\AppData\Local\Temp\ccLkMYum.s:18     .text.HAL_MspInit:00000000 $t
C:\Users\57298\AppData\Local\Temp\ccLkMYum.s:24     .text.HAL_MspInit:00000000 HAL_MspInit
C:\Users\57298\AppData\Local\Temp\ccLkMYum.s:100    .text.HAL_MspInit:0000005c $d
C:\Users\57298\AppData\Local\Temp\ccLkMYum.s:106    .text.HAL_I2C_MspInit:00000000 $t
C:\Users\57298\AppData\Local\Temp\ccLkMYum.s:112    .text.HAL_I2C_MspInit:00000000 HAL_I2C_MspInit
C:\Users\57298\AppData\Local\Temp\ccLkMYum.s:198    .text.HAL_I2C_MspInit:00000070 $d
C:\Users\57298\AppData\Local\Temp\ccLkMYum.s:205    .text.HAL_I2C_MspDeInit:00000000 $t
C:\Users\57298\AppData\Local\Temp\ccLkMYum.s:211    .text.HAL_I2C_MspDeInit:00000000 HAL_I2C_MspDeInit
C:\Users\57298\AppData\Local\Temp\ccLkMYum.s:264    .text.HAL_I2C_MspDeInit:00000038 $d
C:\Users\57298\AppData\Local\Temp\ccLkMYum.s:271    .text.HAL_UART_MspInit:00000000 $t
C:\Users\57298\AppData\Local\Temp\ccLkMYum.s:277    .text.HAL_UART_MspInit:00000000 HAL_UART_MspInit
C:\Users\57298\AppData\Local\Temp\ccLkMYum.s:676    .text.HAL_UART_MspInit:0000027c $d
C:\Users\57298\AppData\Local\Temp\ccLkMYum.s:692    .text.HAL_UART_MspDeInit:00000000 $t
C:\Users\57298\AppData\Local\Temp\ccLkMYum.s:698    .text.HAL_UART_MspDeInit:00000000 HAL_UART_MspDeInit
C:\Users\57298\AppData\Local\Temp\ccLkMYum.s:811    .text.HAL_UART_MspDeInit:000000a4 $d

UNDEFINED SYMBOLS
HAL_GPIO_Init
HAL_GPIO_DeInit
HAL_DMA_Init
Error_Handler
HAL_NVIC_SetPriority
HAL_NVIC_EnableIRQ
hdma_usart1_rx
hdma_usart2_rx
hdma_usart3_rx
HAL_DMA_DeInit
HAL_NVIC_DisableIRQ
