ARM GAS  C:\Users\57298\AppData\Local\Temp\ccq1CZ60.s 			page 1


   1              		.cpu cortex-m3
   2              		.arch armv7-m
   3              		.fpu softvfp
   4              		.eabi_attribute 20, 1
   5              		.eabi_attribute 21, 1
   6              		.eabi_attribute 23, 3
   7              		.eabi_attribute 24, 1
   8              		.eabi_attribute 25, 1
   9              		.eabi_attribute 26, 1
  10              		.eabi_attribute 30, 6
  11              		.eabi_attribute 34, 1
  12              		.eabi_attribute 18, 4
  13              		.file	"stm32f1xx_hal_rcc.c"
  14              		.text
  15              	.Ltext0:
  16              		.cfi_sections	.debug_frame
  17              		.section	.text.HAL_RCC_DeInit,"ax",%progbits
  18              		.align	1
  19              		.global	HAL_RCC_DeInit
  20              		.syntax unified
  21              		.thumb
  22              		.thumb_func
  24              	HAL_RCC_DeInit:
  25              	.LFB65:
  26              		.file 1 "Drivers/STM32F1xx_HAL_Driver/Src/stm32f1xx_hal_rcc.c"
   1:Drivers/STM32F1xx_HAL_Driver/Src/stm32f1xx_hal_rcc.c **** /**
   2:Drivers/STM32F1xx_HAL_Driver/Src/stm32f1xx_hal_rcc.c ****   ******************************************************************************
   3:Drivers/STM32F1xx_HAL_Driver/Src/stm32f1xx_hal_rcc.c ****   * @file    stm32f1xx_hal_rcc.c
   4:Drivers/STM32F1xx_HAL_Driver/Src/stm32f1xx_hal_rcc.c ****   * @author  MCD Application Team
   5:Drivers/STM32F1xx_HAL_Driver/Src/stm32f1xx_hal_rcc.c ****   * @brief   RCC HAL module driver.
   6:Drivers/STM32F1xx_HAL_Driver/Src/stm32f1xx_hal_rcc.c ****   *          This file provides firmware functions to manage the following
   7:Drivers/STM32F1xx_HAL_Driver/Src/stm32f1xx_hal_rcc.c ****   *          functionalities of the Reset and Clock Control (RCC) peripheral:
   8:Drivers/STM32F1xx_HAL_Driver/Src/stm32f1xx_hal_rcc.c ****   *           + Initialization and de-initialization functions
   9:Drivers/STM32F1xx_HAL_Driver/Src/stm32f1xx_hal_rcc.c ****   *           + Peripheral Control functions
  10:Drivers/STM32F1xx_HAL_Driver/Src/stm32f1xx_hal_rcc.c ****   *
  11:Drivers/STM32F1xx_HAL_Driver/Src/stm32f1xx_hal_rcc.c ****   @verbatim
  12:Drivers/STM32F1xx_HAL_Driver/Src/stm32f1xx_hal_rcc.c ****   ==============================================================================
  13:Drivers/STM32F1xx_HAL_Driver/Src/stm32f1xx_hal_rcc.c ****                       ##### RCC specific features #####
  14:Drivers/STM32F1xx_HAL_Driver/Src/stm32f1xx_hal_rcc.c ****   ==============================================================================
  15:Drivers/STM32F1xx_HAL_Driver/Src/stm32f1xx_hal_rcc.c ****     [..]
  16:Drivers/STM32F1xx_HAL_Driver/Src/stm32f1xx_hal_rcc.c ****       After reset the device is running from Internal High Speed oscillator
  17:Drivers/STM32F1xx_HAL_Driver/Src/stm32f1xx_hal_rcc.c ****       (HSI 8MHz) with Flash 0 wait state, Flash prefetch buffer is enabled,
  18:Drivers/STM32F1xx_HAL_Driver/Src/stm32f1xx_hal_rcc.c ****       and all peripherals are off except internal SRAM, Flash and JTAG.
  19:Drivers/STM32F1xx_HAL_Driver/Src/stm32f1xx_hal_rcc.c ****       (+) There is no prescaler on High speed (AHB) and Low speed (APB) buses;
  20:Drivers/STM32F1xx_HAL_Driver/Src/stm32f1xx_hal_rcc.c ****           all peripherals mapped on these buses are running at HSI speed.
  21:Drivers/STM32F1xx_HAL_Driver/Src/stm32f1xx_hal_rcc.c ****       (+) The clock for all peripherals is switched off, except the SRAM and FLASH.
  22:Drivers/STM32F1xx_HAL_Driver/Src/stm32f1xx_hal_rcc.c ****       (+) All GPIOs are in input floating state, except the JTAG pins which
  23:Drivers/STM32F1xx_HAL_Driver/Src/stm32f1xx_hal_rcc.c ****           are assigned to be used for debug purpose.
  24:Drivers/STM32F1xx_HAL_Driver/Src/stm32f1xx_hal_rcc.c ****     [..] Once the device started from reset, the user application has to:
  25:Drivers/STM32F1xx_HAL_Driver/Src/stm32f1xx_hal_rcc.c ****       (+) Configure the clock source to be used to drive the System clock
  26:Drivers/STM32F1xx_HAL_Driver/Src/stm32f1xx_hal_rcc.c ****           (if the application needs higher frequency/performance)
  27:Drivers/STM32F1xx_HAL_Driver/Src/stm32f1xx_hal_rcc.c ****       (+) Configure the System clock frequency and Flash settings
  28:Drivers/STM32F1xx_HAL_Driver/Src/stm32f1xx_hal_rcc.c ****       (+) Configure the AHB and APB buses prescalers
  29:Drivers/STM32F1xx_HAL_Driver/Src/stm32f1xx_hal_rcc.c ****       (+) Enable the clock for the peripheral(s) to be used
  30:Drivers/STM32F1xx_HAL_Driver/Src/stm32f1xx_hal_rcc.c ****       (+) Configure the clock source(s) for peripherals whose clocks are not
  31:Drivers/STM32F1xx_HAL_Driver/Src/stm32f1xx_hal_rcc.c ****           derived from the System clock (I2S, RTC, ADC, USB OTG FS)
  32:Drivers/STM32F1xx_HAL_Driver/Src/stm32f1xx_hal_rcc.c **** 
ARM GAS  C:\Users\57298\AppData\Local\Temp\ccq1CZ60.s 			page 2


  33:Drivers/STM32F1xx_HAL_Driver/Src/stm32f1xx_hal_rcc.c ****                       ##### RCC Limitations #####
  34:Drivers/STM32F1xx_HAL_Driver/Src/stm32f1xx_hal_rcc.c ****   ==============================================================================
  35:Drivers/STM32F1xx_HAL_Driver/Src/stm32f1xx_hal_rcc.c ****     [..]
  36:Drivers/STM32F1xx_HAL_Driver/Src/stm32f1xx_hal_rcc.c ****       A delay between an RCC peripheral clock enable and the effective peripheral
  37:Drivers/STM32F1xx_HAL_Driver/Src/stm32f1xx_hal_rcc.c ****       enabling should be taken into account in order to manage the peripheral read/write
  38:Drivers/STM32F1xx_HAL_Driver/Src/stm32f1xx_hal_rcc.c ****       from/to registers.
  39:Drivers/STM32F1xx_HAL_Driver/Src/stm32f1xx_hal_rcc.c ****       (+) This delay depends on the peripheral mapping.
  40:Drivers/STM32F1xx_HAL_Driver/Src/stm32f1xx_hal_rcc.c ****         (++) AHB & APB peripherals, 1 dummy read is necessary
  41:Drivers/STM32F1xx_HAL_Driver/Src/stm32f1xx_hal_rcc.c **** 
  42:Drivers/STM32F1xx_HAL_Driver/Src/stm32f1xx_hal_rcc.c ****     [..]
  43:Drivers/STM32F1xx_HAL_Driver/Src/stm32f1xx_hal_rcc.c ****       Workarounds:
  44:Drivers/STM32F1xx_HAL_Driver/Src/stm32f1xx_hal_rcc.c ****       (#) For AHB & APB peripherals, a dummy read to the peripheral register has been
  45:Drivers/STM32F1xx_HAL_Driver/Src/stm32f1xx_hal_rcc.c ****           inserted in each __HAL_RCC_PPP_CLK_ENABLE() macro.
  46:Drivers/STM32F1xx_HAL_Driver/Src/stm32f1xx_hal_rcc.c **** 
  47:Drivers/STM32F1xx_HAL_Driver/Src/stm32f1xx_hal_rcc.c ****   @endverbatim
  48:Drivers/STM32F1xx_HAL_Driver/Src/stm32f1xx_hal_rcc.c ****   ******************************************************************************
  49:Drivers/STM32F1xx_HAL_Driver/Src/stm32f1xx_hal_rcc.c ****   * @attention
  50:Drivers/STM32F1xx_HAL_Driver/Src/stm32f1xx_hal_rcc.c ****   *
  51:Drivers/STM32F1xx_HAL_Driver/Src/stm32f1xx_hal_rcc.c ****   * <h2><center>&copy; Copyright (c) 2016 STMicroelectronics.
  52:Drivers/STM32F1xx_HAL_Driver/Src/stm32f1xx_hal_rcc.c ****   * All rights reserved.</center></h2>
  53:Drivers/STM32F1xx_HAL_Driver/Src/stm32f1xx_hal_rcc.c ****   *
  54:Drivers/STM32F1xx_HAL_Driver/Src/stm32f1xx_hal_rcc.c ****   * This software component is licensed by ST under BSD 3-Clause license,
  55:Drivers/STM32F1xx_HAL_Driver/Src/stm32f1xx_hal_rcc.c ****   * the "License"; You may not use this file except in compliance with the
  56:Drivers/STM32F1xx_HAL_Driver/Src/stm32f1xx_hal_rcc.c ****   * License. You may obtain a copy of the License at:
  57:Drivers/STM32F1xx_HAL_Driver/Src/stm32f1xx_hal_rcc.c ****   *                        opensource.org/licenses/BSD-3-Clause
  58:Drivers/STM32F1xx_HAL_Driver/Src/stm32f1xx_hal_rcc.c ****   *
  59:Drivers/STM32F1xx_HAL_Driver/Src/stm32f1xx_hal_rcc.c ****   ******************************************************************************
  60:Drivers/STM32F1xx_HAL_Driver/Src/stm32f1xx_hal_rcc.c ****   */
  61:Drivers/STM32F1xx_HAL_Driver/Src/stm32f1xx_hal_rcc.c **** 
  62:Drivers/STM32F1xx_HAL_Driver/Src/stm32f1xx_hal_rcc.c **** /* Includes ------------------------------------------------------------------*/
  63:Drivers/STM32F1xx_HAL_Driver/Src/stm32f1xx_hal_rcc.c **** #include "stm32f1xx_hal.h"
  64:Drivers/STM32F1xx_HAL_Driver/Src/stm32f1xx_hal_rcc.c **** 
  65:Drivers/STM32F1xx_HAL_Driver/Src/stm32f1xx_hal_rcc.c **** /** @addtogroup STM32F1xx_HAL_Driver
  66:Drivers/STM32F1xx_HAL_Driver/Src/stm32f1xx_hal_rcc.c ****   * @{
  67:Drivers/STM32F1xx_HAL_Driver/Src/stm32f1xx_hal_rcc.c ****   */
  68:Drivers/STM32F1xx_HAL_Driver/Src/stm32f1xx_hal_rcc.c **** 
  69:Drivers/STM32F1xx_HAL_Driver/Src/stm32f1xx_hal_rcc.c **** /** @defgroup RCC RCC
  70:Drivers/STM32F1xx_HAL_Driver/Src/stm32f1xx_hal_rcc.c **** * @brief RCC HAL module driver
  71:Drivers/STM32F1xx_HAL_Driver/Src/stm32f1xx_hal_rcc.c ****   * @{
  72:Drivers/STM32F1xx_HAL_Driver/Src/stm32f1xx_hal_rcc.c ****   */
  73:Drivers/STM32F1xx_HAL_Driver/Src/stm32f1xx_hal_rcc.c **** 
  74:Drivers/STM32F1xx_HAL_Driver/Src/stm32f1xx_hal_rcc.c **** #ifdef HAL_RCC_MODULE_ENABLED
  75:Drivers/STM32F1xx_HAL_Driver/Src/stm32f1xx_hal_rcc.c **** 
  76:Drivers/STM32F1xx_HAL_Driver/Src/stm32f1xx_hal_rcc.c **** /* Private typedef -----------------------------------------------------------*/
  77:Drivers/STM32F1xx_HAL_Driver/Src/stm32f1xx_hal_rcc.c **** /* Private define ------------------------------------------------------------*/
  78:Drivers/STM32F1xx_HAL_Driver/Src/stm32f1xx_hal_rcc.c **** /** @defgroup RCC_Private_Constants RCC Private Constants
  79:Drivers/STM32F1xx_HAL_Driver/Src/stm32f1xx_hal_rcc.c ****  * @{
  80:Drivers/STM32F1xx_HAL_Driver/Src/stm32f1xx_hal_rcc.c ****  */
  81:Drivers/STM32F1xx_HAL_Driver/Src/stm32f1xx_hal_rcc.c **** /**
  82:Drivers/STM32F1xx_HAL_Driver/Src/stm32f1xx_hal_rcc.c ****   * @}
  83:Drivers/STM32F1xx_HAL_Driver/Src/stm32f1xx_hal_rcc.c ****   */
  84:Drivers/STM32F1xx_HAL_Driver/Src/stm32f1xx_hal_rcc.c **** /* Private macro -------------------------------------------------------------*/
  85:Drivers/STM32F1xx_HAL_Driver/Src/stm32f1xx_hal_rcc.c **** /** @defgroup RCC_Private_Macros RCC Private Macros
  86:Drivers/STM32F1xx_HAL_Driver/Src/stm32f1xx_hal_rcc.c ****   * @{
  87:Drivers/STM32F1xx_HAL_Driver/Src/stm32f1xx_hal_rcc.c ****   */
  88:Drivers/STM32F1xx_HAL_Driver/Src/stm32f1xx_hal_rcc.c **** 
  89:Drivers/STM32F1xx_HAL_Driver/Src/stm32f1xx_hal_rcc.c **** #define MCO1_CLK_ENABLE()     __HAL_RCC_GPIOA_CLK_ENABLE()
ARM GAS  C:\Users\57298\AppData\Local\Temp\ccq1CZ60.s 			page 3


  90:Drivers/STM32F1xx_HAL_Driver/Src/stm32f1xx_hal_rcc.c **** #define MCO1_GPIO_PORT        GPIOA
  91:Drivers/STM32F1xx_HAL_Driver/Src/stm32f1xx_hal_rcc.c **** #define MCO1_PIN              GPIO_PIN_8
  92:Drivers/STM32F1xx_HAL_Driver/Src/stm32f1xx_hal_rcc.c **** 
  93:Drivers/STM32F1xx_HAL_Driver/Src/stm32f1xx_hal_rcc.c **** /**
  94:Drivers/STM32F1xx_HAL_Driver/Src/stm32f1xx_hal_rcc.c ****   * @}
  95:Drivers/STM32F1xx_HAL_Driver/Src/stm32f1xx_hal_rcc.c ****   */
  96:Drivers/STM32F1xx_HAL_Driver/Src/stm32f1xx_hal_rcc.c **** 
  97:Drivers/STM32F1xx_HAL_Driver/Src/stm32f1xx_hal_rcc.c **** /* Private variables ---------------------------------------------------------*/
  98:Drivers/STM32F1xx_HAL_Driver/Src/stm32f1xx_hal_rcc.c **** /** @defgroup RCC_Private_Variables RCC Private Variables
  99:Drivers/STM32F1xx_HAL_Driver/Src/stm32f1xx_hal_rcc.c ****   * @{
 100:Drivers/STM32F1xx_HAL_Driver/Src/stm32f1xx_hal_rcc.c ****   */
 101:Drivers/STM32F1xx_HAL_Driver/Src/stm32f1xx_hal_rcc.c **** /**
 102:Drivers/STM32F1xx_HAL_Driver/Src/stm32f1xx_hal_rcc.c ****   * @}
 103:Drivers/STM32F1xx_HAL_Driver/Src/stm32f1xx_hal_rcc.c ****   */
 104:Drivers/STM32F1xx_HAL_Driver/Src/stm32f1xx_hal_rcc.c **** 
 105:Drivers/STM32F1xx_HAL_Driver/Src/stm32f1xx_hal_rcc.c **** /* Private function prototypes -----------------------------------------------*/
 106:Drivers/STM32F1xx_HAL_Driver/Src/stm32f1xx_hal_rcc.c **** static void RCC_Delay(uint32_t mdelay);
 107:Drivers/STM32F1xx_HAL_Driver/Src/stm32f1xx_hal_rcc.c **** 
 108:Drivers/STM32F1xx_HAL_Driver/Src/stm32f1xx_hal_rcc.c **** /* Exported functions --------------------------------------------------------*/
 109:Drivers/STM32F1xx_HAL_Driver/Src/stm32f1xx_hal_rcc.c **** 
 110:Drivers/STM32F1xx_HAL_Driver/Src/stm32f1xx_hal_rcc.c **** /** @defgroup RCC_Exported_Functions RCC Exported Functions
 111:Drivers/STM32F1xx_HAL_Driver/Src/stm32f1xx_hal_rcc.c ****   * @{
 112:Drivers/STM32F1xx_HAL_Driver/Src/stm32f1xx_hal_rcc.c ****   */
 113:Drivers/STM32F1xx_HAL_Driver/Src/stm32f1xx_hal_rcc.c **** 
 114:Drivers/STM32F1xx_HAL_Driver/Src/stm32f1xx_hal_rcc.c **** /** @defgroup RCC_Exported_Functions_Group1 Initialization and de-initialization functions
 115:Drivers/STM32F1xx_HAL_Driver/Src/stm32f1xx_hal_rcc.c ****   *  @brief    Initialization and Configuration functions
 116:Drivers/STM32F1xx_HAL_Driver/Src/stm32f1xx_hal_rcc.c ****   *
 117:Drivers/STM32F1xx_HAL_Driver/Src/stm32f1xx_hal_rcc.c ****   @verbatim
 118:Drivers/STM32F1xx_HAL_Driver/Src/stm32f1xx_hal_rcc.c ****   ===============================================================================
 119:Drivers/STM32F1xx_HAL_Driver/Src/stm32f1xx_hal_rcc.c ****            ##### Initialization and de-initialization functions #####
 120:Drivers/STM32F1xx_HAL_Driver/Src/stm32f1xx_hal_rcc.c ****   ===============================================================================
 121:Drivers/STM32F1xx_HAL_Driver/Src/stm32f1xx_hal_rcc.c ****     [..]
 122:Drivers/STM32F1xx_HAL_Driver/Src/stm32f1xx_hal_rcc.c ****       This section provides functions allowing to configure the internal/external oscillators
 123:Drivers/STM32F1xx_HAL_Driver/Src/stm32f1xx_hal_rcc.c ****       (HSE, HSI, LSE, LSI, PLL, CSS and MCO) and the System buses clocks (SYSCLK, AHB, APB1
 124:Drivers/STM32F1xx_HAL_Driver/Src/stm32f1xx_hal_rcc.c ****       and APB2).
 125:Drivers/STM32F1xx_HAL_Driver/Src/stm32f1xx_hal_rcc.c **** 
 126:Drivers/STM32F1xx_HAL_Driver/Src/stm32f1xx_hal_rcc.c ****     [..] Internal/external clock and PLL configuration
 127:Drivers/STM32F1xx_HAL_Driver/Src/stm32f1xx_hal_rcc.c ****       (#) HSI (high-speed internal), 8 MHz factory-trimmed RC used directly or through
 128:Drivers/STM32F1xx_HAL_Driver/Src/stm32f1xx_hal_rcc.c ****           the PLL as System clock source.
 129:Drivers/STM32F1xx_HAL_Driver/Src/stm32f1xx_hal_rcc.c ****       (#) LSI (low-speed internal), ~40 KHz low consumption RC used as IWDG and/or RTC
 130:Drivers/STM32F1xx_HAL_Driver/Src/stm32f1xx_hal_rcc.c ****           clock source.
 131:Drivers/STM32F1xx_HAL_Driver/Src/stm32f1xx_hal_rcc.c **** 
 132:Drivers/STM32F1xx_HAL_Driver/Src/stm32f1xx_hal_rcc.c ****       (#) HSE (high-speed external), 4 to 24 MHz (STM32F100xx) or 4 to 16 MHz (STM32F101x/STM32F102
 133:Drivers/STM32F1xx_HAL_Driver/Src/stm32f1xx_hal_rcc.c ****           through the PLL as System clock source. Can be used also as RTC clock source.
 134:Drivers/STM32F1xx_HAL_Driver/Src/stm32f1xx_hal_rcc.c **** 
 135:Drivers/STM32F1xx_HAL_Driver/Src/stm32f1xx_hal_rcc.c ****       (#) LSE (low-speed external), 32 KHz oscillator used as RTC clock source.
 136:Drivers/STM32F1xx_HAL_Driver/Src/stm32f1xx_hal_rcc.c **** 
 137:Drivers/STM32F1xx_HAL_Driver/Src/stm32f1xx_hal_rcc.c ****       (#) PLL (clocked by HSI or HSE), featuring different output clocks:
 138:Drivers/STM32F1xx_HAL_Driver/Src/stm32f1xx_hal_rcc.c ****         (++) The first output is used to generate the high speed system clock (up to 72 MHz for STM
 139:Drivers/STM32F1xx_HAL_Driver/Src/stm32f1xx_hal_rcc.c ****         (++) The second output is used to generate the clock for the USB OTG FS (48 MHz)
 140:Drivers/STM32F1xx_HAL_Driver/Src/stm32f1xx_hal_rcc.c **** 
 141:Drivers/STM32F1xx_HAL_Driver/Src/stm32f1xx_hal_rcc.c ****       (#) CSS (Clock security system), once enable using the macro __HAL_RCC_CSS_ENABLE()
 142:Drivers/STM32F1xx_HAL_Driver/Src/stm32f1xx_hal_rcc.c ****           and if a HSE clock failure occurs(HSE used directly or through PLL as System
 143:Drivers/STM32F1xx_HAL_Driver/Src/stm32f1xx_hal_rcc.c ****           clock source), the System clocks automatically switched to HSI and an interrupt
 144:Drivers/STM32F1xx_HAL_Driver/Src/stm32f1xx_hal_rcc.c ****           is generated if enabled. The interrupt is linked to the Cortex-M3 NMI
 145:Drivers/STM32F1xx_HAL_Driver/Src/stm32f1xx_hal_rcc.c ****           (Non-Maskable Interrupt) exception vector.
 146:Drivers/STM32F1xx_HAL_Driver/Src/stm32f1xx_hal_rcc.c **** 
ARM GAS  C:\Users\57298\AppData\Local\Temp\ccq1CZ60.s 			page 4


 147:Drivers/STM32F1xx_HAL_Driver/Src/stm32f1xx_hal_rcc.c ****       (#) MCO1 (microcontroller clock output), used to output SYSCLK, HSI,
 148:Drivers/STM32F1xx_HAL_Driver/Src/stm32f1xx_hal_rcc.c ****           HSE or PLL clock (divided by 2) on PA8 pin + PLL2CLK, PLL3CLK/2, PLL3CLK and XTI for STM3
 149:Drivers/STM32F1xx_HAL_Driver/Src/stm32f1xx_hal_rcc.c **** 
 150:Drivers/STM32F1xx_HAL_Driver/Src/stm32f1xx_hal_rcc.c ****     [..] System, AHB and APB buses clocks configuration
 151:Drivers/STM32F1xx_HAL_Driver/Src/stm32f1xx_hal_rcc.c ****       (#) Several clock sources can be used to drive the System clock (SYSCLK): HSI,
 152:Drivers/STM32F1xx_HAL_Driver/Src/stm32f1xx_hal_rcc.c ****           HSE and PLL.
 153:Drivers/STM32F1xx_HAL_Driver/Src/stm32f1xx_hal_rcc.c ****           The AHB clock (HCLK) is derived from System clock through configurable
 154:Drivers/STM32F1xx_HAL_Driver/Src/stm32f1xx_hal_rcc.c ****           prescaler and used to clock the CPU, memory and peripherals mapped
 155:Drivers/STM32F1xx_HAL_Driver/Src/stm32f1xx_hal_rcc.c ****           on AHB bus (DMA, GPIO...). APB1 (PCLK1) and APB2 (PCLK2) clocks are derived
 156:Drivers/STM32F1xx_HAL_Driver/Src/stm32f1xx_hal_rcc.c ****           from AHB clock through configurable prescalers and used to clock
 157:Drivers/STM32F1xx_HAL_Driver/Src/stm32f1xx_hal_rcc.c ****           the peripherals mapped on these buses. You can use
 158:Drivers/STM32F1xx_HAL_Driver/Src/stm32f1xx_hal_rcc.c ****           "@ref HAL_RCC_GetSysClockFreq()" function to retrieve the frequencies of these clocks.
 159:Drivers/STM32F1xx_HAL_Driver/Src/stm32f1xx_hal_rcc.c **** 
 160:Drivers/STM32F1xx_HAL_Driver/Src/stm32f1xx_hal_rcc.c ****       -@- All the peripheral clocks are derived from the System clock (SYSCLK) except:
 161:Drivers/STM32F1xx_HAL_Driver/Src/stm32f1xx_hal_rcc.c ****           (+@) RTC: RTC clock can be derived either from the LSI, LSE or HSE clock
 162:Drivers/STM32F1xx_HAL_Driver/Src/stm32f1xx_hal_rcc.c ****               divided by 128.
 163:Drivers/STM32F1xx_HAL_Driver/Src/stm32f1xx_hal_rcc.c ****           (+@) USB OTG FS and RTC: USB OTG FS require a frequency equal to 48 MHz
 164:Drivers/STM32F1xx_HAL_Driver/Src/stm32f1xx_hal_rcc.c ****               to work correctly. This clock is derived of the main PLL through PLL Multiplier.
 165:Drivers/STM32F1xx_HAL_Driver/Src/stm32f1xx_hal_rcc.c ****           (+@) I2S interface on STM32F105x/STM32F107x can be derived from PLL3CLK
 166:Drivers/STM32F1xx_HAL_Driver/Src/stm32f1xx_hal_rcc.c ****           (+@) IWDG clock which is always the LSI clock.
 167:Drivers/STM32F1xx_HAL_Driver/Src/stm32f1xx_hal_rcc.c **** 
 168:Drivers/STM32F1xx_HAL_Driver/Src/stm32f1xx_hal_rcc.c ****       (#) For STM32F10xxx, the maximum frequency of the SYSCLK and HCLK/PCLK2 is 72 MHz, PCLK1 36 M
 169:Drivers/STM32F1xx_HAL_Driver/Src/stm32f1xx_hal_rcc.c ****           For STM32F100xx, the maximum frequency of the SYSCLK and HCLK/PCLK1/PCLK2 is 24 MHz.
 170:Drivers/STM32F1xx_HAL_Driver/Src/stm32f1xx_hal_rcc.c ****           Depending on the SYSCLK frequency, the flash latency should be adapted accordingly.
 171:Drivers/STM32F1xx_HAL_Driver/Src/stm32f1xx_hal_rcc.c ****   @endverbatim
 172:Drivers/STM32F1xx_HAL_Driver/Src/stm32f1xx_hal_rcc.c ****   * @{
 173:Drivers/STM32F1xx_HAL_Driver/Src/stm32f1xx_hal_rcc.c ****   */
 174:Drivers/STM32F1xx_HAL_Driver/Src/stm32f1xx_hal_rcc.c **** 
 175:Drivers/STM32F1xx_HAL_Driver/Src/stm32f1xx_hal_rcc.c **** /*
 176:Drivers/STM32F1xx_HAL_Driver/Src/stm32f1xx_hal_rcc.c ****   Additional consideration on the SYSCLK based on Latency settings:
 177:Drivers/STM32F1xx_HAL_Driver/Src/stm32f1xx_hal_rcc.c ****         +-----------------------------------------------+
 178:Drivers/STM32F1xx_HAL_Driver/Src/stm32f1xx_hal_rcc.c ****         | Latency       | SYSCLK clock frequency (MHz)  |
 179:Drivers/STM32F1xx_HAL_Driver/Src/stm32f1xx_hal_rcc.c ****         |---------------|-------------------------------|
 180:Drivers/STM32F1xx_HAL_Driver/Src/stm32f1xx_hal_rcc.c ****         |0WS(1CPU cycle)|       0 < SYSCLK <= 24        |
 181:Drivers/STM32F1xx_HAL_Driver/Src/stm32f1xx_hal_rcc.c ****         |---------------|-------------------------------|
 182:Drivers/STM32F1xx_HAL_Driver/Src/stm32f1xx_hal_rcc.c ****         |1WS(2CPU cycle)|      24 < SYSCLK <= 48        |
 183:Drivers/STM32F1xx_HAL_Driver/Src/stm32f1xx_hal_rcc.c ****         |---------------|-------------------------------|
 184:Drivers/STM32F1xx_HAL_Driver/Src/stm32f1xx_hal_rcc.c ****         |2WS(3CPU cycle)|      48 < SYSCLK <= 72        |
 185:Drivers/STM32F1xx_HAL_Driver/Src/stm32f1xx_hal_rcc.c ****         +-----------------------------------------------+
 186:Drivers/STM32F1xx_HAL_Driver/Src/stm32f1xx_hal_rcc.c ****   */
 187:Drivers/STM32F1xx_HAL_Driver/Src/stm32f1xx_hal_rcc.c **** 
 188:Drivers/STM32F1xx_HAL_Driver/Src/stm32f1xx_hal_rcc.c **** /**
 189:Drivers/STM32F1xx_HAL_Driver/Src/stm32f1xx_hal_rcc.c ****   * @brief  Resets the RCC clock configuration to the default reset state.
 190:Drivers/STM32F1xx_HAL_Driver/Src/stm32f1xx_hal_rcc.c ****   * @note   The default reset state of the clock configuration is given below:
 191:Drivers/STM32F1xx_HAL_Driver/Src/stm32f1xx_hal_rcc.c ****   *            - HSI ON and used as system clock source
 192:Drivers/STM32F1xx_HAL_Driver/Src/stm32f1xx_hal_rcc.c ****   *            - HSE, PLL, PLL2 and PLL3 are OFF
 193:Drivers/STM32F1xx_HAL_Driver/Src/stm32f1xx_hal_rcc.c ****   *            - AHB, APB1 and APB2 prescaler set to 1.
 194:Drivers/STM32F1xx_HAL_Driver/Src/stm32f1xx_hal_rcc.c ****   *            - CSS and MCO1 OFF
 195:Drivers/STM32F1xx_HAL_Driver/Src/stm32f1xx_hal_rcc.c ****   *            - All interrupts disabled
 196:Drivers/STM32F1xx_HAL_Driver/Src/stm32f1xx_hal_rcc.c ****   *            - All flags are cleared
 197:Drivers/STM32F1xx_HAL_Driver/Src/stm32f1xx_hal_rcc.c ****   * @note   This function does not modify the configuration of the
 198:Drivers/STM32F1xx_HAL_Driver/Src/stm32f1xx_hal_rcc.c ****   *            - Peripheral clocks
 199:Drivers/STM32F1xx_HAL_Driver/Src/stm32f1xx_hal_rcc.c ****   *            - LSI, LSE and RTC clocks
 200:Drivers/STM32F1xx_HAL_Driver/Src/stm32f1xx_hal_rcc.c ****   * @retval HAL_StatusTypeDef
 201:Drivers/STM32F1xx_HAL_Driver/Src/stm32f1xx_hal_rcc.c ****   */
 202:Drivers/STM32F1xx_HAL_Driver/Src/stm32f1xx_hal_rcc.c **** HAL_StatusTypeDef HAL_RCC_DeInit(void)
 203:Drivers/STM32F1xx_HAL_Driver/Src/stm32f1xx_hal_rcc.c **** {
ARM GAS  C:\Users\57298\AppData\Local\Temp\ccq1CZ60.s 			page 5


  27              		.loc 1 203 1
  28              		.cfi_startproc
  29              		@ args = 0, pretend = 0, frame = 8
  30              		@ frame_needed = 1, uses_anonymous_args = 0
  31 0000 80B5     		push	{r7, lr}
  32              	.LCFI0:
  33              		.cfi_def_cfa_offset 8
  34              		.cfi_offset 7, -8
  35              		.cfi_offset 14, -4
  36 0002 82B0     		sub	sp, sp, #8
  37              	.LCFI1:
  38              		.cfi_def_cfa_offset 16
  39 0004 00AF     		add	r7, sp, #0
  40              	.LCFI2:
  41              		.cfi_def_cfa_register 7
 204:Drivers/STM32F1xx_HAL_Driver/Src/stm32f1xx_hal_rcc.c ****   uint32_t tickstart;
 205:Drivers/STM32F1xx_HAL_Driver/Src/stm32f1xx_hal_rcc.c **** 
 206:Drivers/STM32F1xx_HAL_Driver/Src/stm32f1xx_hal_rcc.c ****   /* Get Start Tick */
 207:Drivers/STM32F1xx_HAL_Driver/Src/stm32f1xx_hal_rcc.c ****   tickstart = HAL_GetTick();
  42              		.loc 1 207 15
  43 0006 FFF7FEFF 		bl	HAL_GetTick
  44 000a 7860     		str	r0, [r7, #4]
 208:Drivers/STM32F1xx_HAL_Driver/Src/stm32f1xx_hal_rcc.c **** 
 209:Drivers/STM32F1xx_HAL_Driver/Src/stm32f1xx_hal_rcc.c ****   /* Set HSION bit */
 210:Drivers/STM32F1xx_HAL_Driver/Src/stm32f1xx_hal_rcc.c ****   SET_BIT(RCC->CR, RCC_CR_HSION);
  45              		.loc 1 210 3
  46 000c 454B     		ldr	r3, .L12
  47 000e 1B68     		ldr	r3, [r3]
  48 0010 444A     		ldr	r2, .L12
  49 0012 43F00103 		orr	r3, r3, #1
  50 0016 1360     		str	r3, [r2]
 211:Drivers/STM32F1xx_HAL_Driver/Src/stm32f1xx_hal_rcc.c **** 
 212:Drivers/STM32F1xx_HAL_Driver/Src/stm32f1xx_hal_rcc.c ****   /* Wait till HSI is ready */
 213:Drivers/STM32F1xx_HAL_Driver/Src/stm32f1xx_hal_rcc.c ****   while (READ_BIT(RCC->CR, RCC_CR_HSIRDY) == RESET)
  51              		.loc 1 213 9
  52 0018 08E0     		b	.L2
  53              	.L4:
 214:Drivers/STM32F1xx_HAL_Driver/Src/stm32f1xx_hal_rcc.c ****   {
 215:Drivers/STM32F1xx_HAL_Driver/Src/stm32f1xx_hal_rcc.c ****     if ((HAL_GetTick() - tickstart) > HSI_TIMEOUT_VALUE)
  54              		.loc 1 215 10
  55 001a FFF7FEFF 		bl	HAL_GetTick
  56 001e 0246     		mov	r2, r0
  57              		.loc 1 215 24
  58 0020 7B68     		ldr	r3, [r7, #4]
  59 0022 D31A     		subs	r3, r2, r3
  60              		.loc 1 215 8
  61 0024 022B     		cmp	r3, #2
  62 0026 01D9     		bls	.L2
 216:Drivers/STM32F1xx_HAL_Driver/Src/stm32f1xx_hal_rcc.c ****     {
 217:Drivers/STM32F1xx_HAL_Driver/Src/stm32f1xx_hal_rcc.c ****       return HAL_TIMEOUT;
  63              		.loc 1 217 14
  64 0028 0323     		movs	r3, #3
  65 002a 77E0     		b	.L3
  66              	.L2:
 213:Drivers/STM32F1xx_HAL_Driver/Src/stm32f1xx_hal_rcc.c ****   {
  67              		.loc 1 213 10
  68 002c 3D4B     		ldr	r3, .L12
ARM GAS  C:\Users\57298\AppData\Local\Temp\ccq1CZ60.s 			page 6


  69 002e 1B68     		ldr	r3, [r3]
  70 0030 03F00203 		and	r3, r3, #2
 213:Drivers/STM32F1xx_HAL_Driver/Src/stm32f1xx_hal_rcc.c ****   {
  71              		.loc 1 213 9
  72 0034 002B     		cmp	r3, #0
  73 0036 F0D0     		beq	.L4
 218:Drivers/STM32F1xx_HAL_Driver/Src/stm32f1xx_hal_rcc.c ****     }
 219:Drivers/STM32F1xx_HAL_Driver/Src/stm32f1xx_hal_rcc.c ****   }
 220:Drivers/STM32F1xx_HAL_Driver/Src/stm32f1xx_hal_rcc.c **** 
 221:Drivers/STM32F1xx_HAL_Driver/Src/stm32f1xx_hal_rcc.c ****   /* Set HSITRIM bits to the reset value */
 222:Drivers/STM32F1xx_HAL_Driver/Src/stm32f1xx_hal_rcc.c ****   MODIFY_REG(RCC->CR, RCC_CR_HSITRIM, (0x10U << RCC_CR_HSITRIM_Pos));
  74              		.loc 1 222 3
  75 0038 3A4B     		ldr	r3, .L12
  76 003a 1B68     		ldr	r3, [r3]
  77 003c 23F0F803 		bic	r3, r3, #248
  78 0040 384A     		ldr	r2, .L12
  79 0042 43F08003 		orr	r3, r3, #128
  80 0046 1360     		str	r3, [r2]
 223:Drivers/STM32F1xx_HAL_Driver/Src/stm32f1xx_hal_rcc.c **** 
 224:Drivers/STM32F1xx_HAL_Driver/Src/stm32f1xx_hal_rcc.c ****   /* Get Start Tick */
 225:Drivers/STM32F1xx_HAL_Driver/Src/stm32f1xx_hal_rcc.c ****   tickstart = HAL_GetTick();
  81              		.loc 1 225 15
  82 0048 FFF7FEFF 		bl	HAL_GetTick
  83 004c 7860     		str	r0, [r7, #4]
 226:Drivers/STM32F1xx_HAL_Driver/Src/stm32f1xx_hal_rcc.c **** 
 227:Drivers/STM32F1xx_HAL_Driver/Src/stm32f1xx_hal_rcc.c ****   /* Reset CFGR register */
 228:Drivers/STM32F1xx_HAL_Driver/Src/stm32f1xx_hal_rcc.c ****   CLEAR_REG(RCC->CFGR);
  84              		.loc 1 228 3
  85 004e 354B     		ldr	r3, .L12
  86 0050 0022     		movs	r2, #0
  87 0052 5A60     		str	r2, [r3, #4]
 229:Drivers/STM32F1xx_HAL_Driver/Src/stm32f1xx_hal_rcc.c **** 
 230:Drivers/STM32F1xx_HAL_Driver/Src/stm32f1xx_hal_rcc.c ****   /* Wait till clock switch is ready */
 231:Drivers/STM32F1xx_HAL_Driver/Src/stm32f1xx_hal_rcc.c ****   while (READ_BIT(RCC->CFGR, RCC_CFGR_SWS) != RESET)
  88              		.loc 1 231 9
  89 0054 0AE0     		b	.L5
  90              	.L6:
 232:Drivers/STM32F1xx_HAL_Driver/Src/stm32f1xx_hal_rcc.c ****   {
 233:Drivers/STM32F1xx_HAL_Driver/Src/stm32f1xx_hal_rcc.c ****     if ((HAL_GetTick() - tickstart) > CLOCKSWITCH_TIMEOUT_VALUE)
  91              		.loc 1 233 10
  92 0056 FFF7FEFF 		bl	HAL_GetTick
  93 005a 0246     		mov	r2, r0
  94              		.loc 1 233 24
  95 005c 7B68     		ldr	r3, [r7, #4]
  96 005e D31A     		subs	r3, r2, r3
  97              		.loc 1 233 8
  98 0060 41F28832 		movw	r2, #5000
  99 0064 9342     		cmp	r3, r2
 100 0066 01D9     		bls	.L5
 234:Drivers/STM32F1xx_HAL_Driver/Src/stm32f1xx_hal_rcc.c ****     {
 235:Drivers/STM32F1xx_HAL_Driver/Src/stm32f1xx_hal_rcc.c ****       return HAL_TIMEOUT;
 101              		.loc 1 235 14
 102 0068 0323     		movs	r3, #3
 103 006a 57E0     		b	.L3
 104              	.L5:
 231:Drivers/STM32F1xx_HAL_Driver/Src/stm32f1xx_hal_rcc.c ****   {
 105              		.loc 1 231 10
ARM GAS  C:\Users\57298\AppData\Local\Temp\ccq1CZ60.s 			page 7


 106 006c 2D4B     		ldr	r3, .L12
 107 006e 5B68     		ldr	r3, [r3, #4]
 108 0070 03F00C03 		and	r3, r3, #12
 231:Drivers/STM32F1xx_HAL_Driver/Src/stm32f1xx_hal_rcc.c ****   {
 109              		.loc 1 231 9
 110 0074 002B     		cmp	r3, #0
 111 0076 EED1     		bne	.L6
 236:Drivers/STM32F1xx_HAL_Driver/Src/stm32f1xx_hal_rcc.c ****     }
 237:Drivers/STM32F1xx_HAL_Driver/Src/stm32f1xx_hal_rcc.c ****   }
 238:Drivers/STM32F1xx_HAL_Driver/Src/stm32f1xx_hal_rcc.c **** 
 239:Drivers/STM32F1xx_HAL_Driver/Src/stm32f1xx_hal_rcc.c ****   /* Update the SystemCoreClock global variable */
 240:Drivers/STM32F1xx_HAL_Driver/Src/stm32f1xx_hal_rcc.c ****   SystemCoreClock = HSI_VALUE;
 112              		.loc 1 240 19
 113 0078 2B4B     		ldr	r3, .L12+4
 114 007a 2C4A     		ldr	r2, .L12+8
 115 007c 1A60     		str	r2, [r3]
 241:Drivers/STM32F1xx_HAL_Driver/Src/stm32f1xx_hal_rcc.c **** 
 242:Drivers/STM32F1xx_HAL_Driver/Src/stm32f1xx_hal_rcc.c ****   /* Adapt Systick interrupt period */
 243:Drivers/STM32F1xx_HAL_Driver/Src/stm32f1xx_hal_rcc.c ****   if (HAL_InitTick(uwTickPrio) != HAL_OK)
 116              		.loc 1 243 7
 117 007e 2C4B     		ldr	r3, .L12+12
 118 0080 1B68     		ldr	r3, [r3]
 119 0082 1846     		mov	r0, r3
 120 0084 FFF7FEFF 		bl	HAL_InitTick
 121 0088 0346     		mov	r3, r0
 122              		.loc 1 243 6
 123 008a 002B     		cmp	r3, #0
 124 008c 01D0     		beq	.L7
 244:Drivers/STM32F1xx_HAL_Driver/Src/stm32f1xx_hal_rcc.c ****   {
 245:Drivers/STM32F1xx_HAL_Driver/Src/stm32f1xx_hal_rcc.c ****     return HAL_ERROR;
 125              		.loc 1 245 12
 126 008e 0123     		movs	r3, #1
 127 0090 44E0     		b	.L3
 128              	.L7:
 246:Drivers/STM32F1xx_HAL_Driver/Src/stm32f1xx_hal_rcc.c ****   }
 247:Drivers/STM32F1xx_HAL_Driver/Src/stm32f1xx_hal_rcc.c **** 
 248:Drivers/STM32F1xx_HAL_Driver/Src/stm32f1xx_hal_rcc.c ****   /* Get Start Tick */
 249:Drivers/STM32F1xx_HAL_Driver/Src/stm32f1xx_hal_rcc.c ****   tickstart = HAL_GetTick();
 129              		.loc 1 249 15
 130 0092 FFF7FEFF 		bl	HAL_GetTick
 131 0096 7860     		str	r0, [r7, #4]
 250:Drivers/STM32F1xx_HAL_Driver/Src/stm32f1xx_hal_rcc.c **** 
 251:Drivers/STM32F1xx_HAL_Driver/Src/stm32f1xx_hal_rcc.c ****   /* Second step is to clear PLLON bit */
 252:Drivers/STM32F1xx_HAL_Driver/Src/stm32f1xx_hal_rcc.c ****   CLEAR_BIT(RCC->CR, RCC_CR_PLLON);
 132              		.loc 1 252 3
 133 0098 224B     		ldr	r3, .L12
 134 009a 1B68     		ldr	r3, [r3]
 135 009c 214A     		ldr	r2, .L12
 136 009e 23F08073 		bic	r3, r3, #16777216
 137 00a2 1360     		str	r3, [r2]
 253:Drivers/STM32F1xx_HAL_Driver/Src/stm32f1xx_hal_rcc.c **** 
 254:Drivers/STM32F1xx_HAL_Driver/Src/stm32f1xx_hal_rcc.c ****   /* Wait till PLL is disabled */
 255:Drivers/STM32F1xx_HAL_Driver/Src/stm32f1xx_hal_rcc.c ****   while (READ_BIT(RCC->CR, RCC_CR_PLLRDY) != RESET)
 138              		.loc 1 255 9
 139 00a4 08E0     		b	.L8
 140              	.L9:
 256:Drivers/STM32F1xx_HAL_Driver/Src/stm32f1xx_hal_rcc.c ****   {
ARM GAS  C:\Users\57298\AppData\Local\Temp\ccq1CZ60.s 			page 8


 257:Drivers/STM32F1xx_HAL_Driver/Src/stm32f1xx_hal_rcc.c ****     if ((HAL_GetTick() - tickstart) > PLL_TIMEOUT_VALUE)
 141              		.loc 1 257 10
 142 00a6 FFF7FEFF 		bl	HAL_GetTick
 143 00aa 0246     		mov	r2, r0
 144              		.loc 1 257 24
 145 00ac 7B68     		ldr	r3, [r7, #4]
 146 00ae D31A     		subs	r3, r2, r3
 147              		.loc 1 257 8
 148 00b0 022B     		cmp	r3, #2
 149 00b2 01D9     		bls	.L8
 258:Drivers/STM32F1xx_HAL_Driver/Src/stm32f1xx_hal_rcc.c ****     {
 259:Drivers/STM32F1xx_HAL_Driver/Src/stm32f1xx_hal_rcc.c ****       return HAL_TIMEOUT;
 150              		.loc 1 259 14
 151 00b4 0323     		movs	r3, #3
 152 00b6 31E0     		b	.L3
 153              	.L8:
 255:Drivers/STM32F1xx_HAL_Driver/Src/stm32f1xx_hal_rcc.c ****   {
 154              		.loc 1 255 10
 155 00b8 1A4B     		ldr	r3, .L12
 156 00ba 1B68     		ldr	r3, [r3]
 157 00bc 03F00073 		and	r3, r3, #33554432
 255:Drivers/STM32F1xx_HAL_Driver/Src/stm32f1xx_hal_rcc.c ****   {
 158              		.loc 1 255 9
 159 00c0 002B     		cmp	r3, #0
 160 00c2 F0D1     		bne	.L9
 260:Drivers/STM32F1xx_HAL_Driver/Src/stm32f1xx_hal_rcc.c ****     }
 261:Drivers/STM32F1xx_HAL_Driver/Src/stm32f1xx_hal_rcc.c ****   }
 262:Drivers/STM32F1xx_HAL_Driver/Src/stm32f1xx_hal_rcc.c **** 
 263:Drivers/STM32F1xx_HAL_Driver/Src/stm32f1xx_hal_rcc.c ****   /* Ensure to reset PLLSRC and PLLMUL bits */
 264:Drivers/STM32F1xx_HAL_Driver/Src/stm32f1xx_hal_rcc.c ****   CLEAR_REG(RCC->CFGR);
 161              		.loc 1 264 3
 162 00c4 174B     		ldr	r3, .L12
 163 00c6 0022     		movs	r2, #0
 164 00c8 5A60     		str	r2, [r3, #4]
 265:Drivers/STM32F1xx_HAL_Driver/Src/stm32f1xx_hal_rcc.c **** 
 266:Drivers/STM32F1xx_HAL_Driver/Src/stm32f1xx_hal_rcc.c ****   /* Get Start Tick */
 267:Drivers/STM32F1xx_HAL_Driver/Src/stm32f1xx_hal_rcc.c ****   tickstart = HAL_GetTick();
 165              		.loc 1 267 15
 166 00ca FFF7FEFF 		bl	HAL_GetTick
 167 00ce 7860     		str	r0, [r7, #4]
 268:Drivers/STM32F1xx_HAL_Driver/Src/stm32f1xx_hal_rcc.c **** 
 269:Drivers/STM32F1xx_HAL_Driver/Src/stm32f1xx_hal_rcc.c ****   /* Reset HSEON & CSSON bits */
 270:Drivers/STM32F1xx_HAL_Driver/Src/stm32f1xx_hal_rcc.c ****   CLEAR_BIT(RCC->CR, RCC_CR_HSEON | RCC_CR_CSSON);
 168              		.loc 1 270 3
 169 00d0 144B     		ldr	r3, .L12
 170 00d2 1B68     		ldr	r3, [r3]
 171 00d4 134A     		ldr	r2, .L12
 172 00d6 23F41023 		bic	r3, r3, #589824
 173 00da 1360     		str	r3, [r2]
 271:Drivers/STM32F1xx_HAL_Driver/Src/stm32f1xx_hal_rcc.c **** 
 272:Drivers/STM32F1xx_HAL_Driver/Src/stm32f1xx_hal_rcc.c ****   /* Wait till HSE is disabled */
 273:Drivers/STM32F1xx_HAL_Driver/Src/stm32f1xx_hal_rcc.c ****   while (READ_BIT(RCC->CR, RCC_CR_HSERDY) != RESET)
 174              		.loc 1 273 9
 175 00dc 08E0     		b	.L10
 176              	.L11:
 274:Drivers/STM32F1xx_HAL_Driver/Src/stm32f1xx_hal_rcc.c ****   {
 275:Drivers/STM32F1xx_HAL_Driver/Src/stm32f1xx_hal_rcc.c ****     if ((HAL_GetTick() - tickstart) > HSE_TIMEOUT_VALUE)
ARM GAS  C:\Users\57298\AppData\Local\Temp\ccq1CZ60.s 			page 9


 177              		.loc 1 275 10
 178 00de FFF7FEFF 		bl	HAL_GetTick
 179 00e2 0246     		mov	r2, r0
 180              		.loc 1 275 24
 181 00e4 7B68     		ldr	r3, [r7, #4]
 182 00e6 D31A     		subs	r3, r2, r3
 183              		.loc 1 275 8
 184 00e8 642B     		cmp	r3, #100
 185 00ea 01D9     		bls	.L10
 276:Drivers/STM32F1xx_HAL_Driver/Src/stm32f1xx_hal_rcc.c ****     {
 277:Drivers/STM32F1xx_HAL_Driver/Src/stm32f1xx_hal_rcc.c ****       return HAL_TIMEOUT;
 186              		.loc 1 277 14
 187 00ec 0323     		movs	r3, #3
 188 00ee 15E0     		b	.L3
 189              	.L10:
 273:Drivers/STM32F1xx_HAL_Driver/Src/stm32f1xx_hal_rcc.c ****   {
 190              		.loc 1 273 10
 191 00f0 0C4B     		ldr	r3, .L12
 192 00f2 1B68     		ldr	r3, [r3]
 193 00f4 03F40033 		and	r3, r3, #131072
 273:Drivers/STM32F1xx_HAL_Driver/Src/stm32f1xx_hal_rcc.c ****   {
 194              		.loc 1 273 9
 195 00f8 002B     		cmp	r3, #0
 196 00fa F0D1     		bne	.L11
 278:Drivers/STM32F1xx_HAL_Driver/Src/stm32f1xx_hal_rcc.c ****     }
 279:Drivers/STM32F1xx_HAL_Driver/Src/stm32f1xx_hal_rcc.c ****   }
 280:Drivers/STM32F1xx_HAL_Driver/Src/stm32f1xx_hal_rcc.c **** 
 281:Drivers/STM32F1xx_HAL_Driver/Src/stm32f1xx_hal_rcc.c ****   /* Reset HSEBYP bit */
 282:Drivers/STM32F1xx_HAL_Driver/Src/stm32f1xx_hal_rcc.c ****   CLEAR_BIT(RCC->CR, RCC_CR_HSEBYP);
 197              		.loc 1 282 3
 198 00fc 094B     		ldr	r3, .L12
 199 00fe 1B68     		ldr	r3, [r3]
 200 0100 084A     		ldr	r2, .L12
 201 0102 23F48023 		bic	r3, r3, #262144
 202 0106 1360     		str	r3, [r2]
 283:Drivers/STM32F1xx_HAL_Driver/Src/stm32f1xx_hal_rcc.c **** 
 284:Drivers/STM32F1xx_HAL_Driver/Src/stm32f1xx_hal_rcc.c **** #if defined(RCC_PLL2_SUPPORT)
 285:Drivers/STM32F1xx_HAL_Driver/Src/stm32f1xx_hal_rcc.c ****   /* Get Start Tick */
 286:Drivers/STM32F1xx_HAL_Driver/Src/stm32f1xx_hal_rcc.c ****   tickstart = HAL_GetTick();
 287:Drivers/STM32F1xx_HAL_Driver/Src/stm32f1xx_hal_rcc.c **** 
 288:Drivers/STM32F1xx_HAL_Driver/Src/stm32f1xx_hal_rcc.c ****   /* Clear PLL2ON bit */
 289:Drivers/STM32F1xx_HAL_Driver/Src/stm32f1xx_hal_rcc.c ****   CLEAR_BIT(RCC->CR, RCC_CR_PLL2ON);
 290:Drivers/STM32F1xx_HAL_Driver/Src/stm32f1xx_hal_rcc.c **** 
 291:Drivers/STM32F1xx_HAL_Driver/Src/stm32f1xx_hal_rcc.c ****   /* Wait till PLL2 is disabled */
 292:Drivers/STM32F1xx_HAL_Driver/Src/stm32f1xx_hal_rcc.c ****   while (READ_BIT(RCC->CR, RCC_CR_PLL2RDY) != RESET)
 293:Drivers/STM32F1xx_HAL_Driver/Src/stm32f1xx_hal_rcc.c ****   {
 294:Drivers/STM32F1xx_HAL_Driver/Src/stm32f1xx_hal_rcc.c ****     if ((HAL_GetTick() - tickstart) > PLL2_TIMEOUT_VALUE)
 295:Drivers/STM32F1xx_HAL_Driver/Src/stm32f1xx_hal_rcc.c ****     {
 296:Drivers/STM32F1xx_HAL_Driver/Src/stm32f1xx_hal_rcc.c ****       return HAL_TIMEOUT;
 297:Drivers/STM32F1xx_HAL_Driver/Src/stm32f1xx_hal_rcc.c ****     }
 298:Drivers/STM32F1xx_HAL_Driver/Src/stm32f1xx_hal_rcc.c ****   }
 299:Drivers/STM32F1xx_HAL_Driver/Src/stm32f1xx_hal_rcc.c **** #endif /* RCC_PLL2_SUPPORT */
 300:Drivers/STM32F1xx_HAL_Driver/Src/stm32f1xx_hal_rcc.c **** 
 301:Drivers/STM32F1xx_HAL_Driver/Src/stm32f1xx_hal_rcc.c **** #if defined(RCC_PLLI2S_SUPPORT)
 302:Drivers/STM32F1xx_HAL_Driver/Src/stm32f1xx_hal_rcc.c ****   /* Get Start Tick */
 303:Drivers/STM32F1xx_HAL_Driver/Src/stm32f1xx_hal_rcc.c ****   tickstart = HAL_GetTick();
 304:Drivers/STM32F1xx_HAL_Driver/Src/stm32f1xx_hal_rcc.c **** 
ARM GAS  C:\Users\57298\AppData\Local\Temp\ccq1CZ60.s 			page 10


 305:Drivers/STM32F1xx_HAL_Driver/Src/stm32f1xx_hal_rcc.c ****   /* Clear PLL3ON bit */
 306:Drivers/STM32F1xx_HAL_Driver/Src/stm32f1xx_hal_rcc.c ****   CLEAR_BIT(RCC->CR, RCC_CR_PLL3ON);
 307:Drivers/STM32F1xx_HAL_Driver/Src/stm32f1xx_hal_rcc.c **** 
 308:Drivers/STM32F1xx_HAL_Driver/Src/stm32f1xx_hal_rcc.c ****   /* Wait till PLL3 is disabled */
 309:Drivers/STM32F1xx_HAL_Driver/Src/stm32f1xx_hal_rcc.c ****   while (READ_BIT(RCC->CR, RCC_CR_PLL3RDY) != RESET)
 310:Drivers/STM32F1xx_HAL_Driver/Src/stm32f1xx_hal_rcc.c ****   {
 311:Drivers/STM32F1xx_HAL_Driver/Src/stm32f1xx_hal_rcc.c ****     if ((HAL_GetTick() - tickstart) > PLLI2S_TIMEOUT_VALUE)
 312:Drivers/STM32F1xx_HAL_Driver/Src/stm32f1xx_hal_rcc.c ****     {
 313:Drivers/STM32F1xx_HAL_Driver/Src/stm32f1xx_hal_rcc.c ****       return HAL_TIMEOUT;
 314:Drivers/STM32F1xx_HAL_Driver/Src/stm32f1xx_hal_rcc.c ****     }
 315:Drivers/STM32F1xx_HAL_Driver/Src/stm32f1xx_hal_rcc.c ****   }
 316:Drivers/STM32F1xx_HAL_Driver/Src/stm32f1xx_hal_rcc.c **** #endif /* RCC_PLLI2S_SUPPORT */
 317:Drivers/STM32F1xx_HAL_Driver/Src/stm32f1xx_hal_rcc.c **** 
 318:Drivers/STM32F1xx_HAL_Driver/Src/stm32f1xx_hal_rcc.c **** #if defined(RCC_CFGR2_PREDIV1)
 319:Drivers/STM32F1xx_HAL_Driver/Src/stm32f1xx_hal_rcc.c ****   /* Reset CFGR2 register */
 320:Drivers/STM32F1xx_HAL_Driver/Src/stm32f1xx_hal_rcc.c ****   CLEAR_REG(RCC->CFGR2);
 321:Drivers/STM32F1xx_HAL_Driver/Src/stm32f1xx_hal_rcc.c **** #endif /* RCC_CFGR2_PREDIV1 */
 322:Drivers/STM32F1xx_HAL_Driver/Src/stm32f1xx_hal_rcc.c **** 
 323:Drivers/STM32F1xx_HAL_Driver/Src/stm32f1xx_hal_rcc.c ****   /* Reset all CSR flags */
 324:Drivers/STM32F1xx_HAL_Driver/Src/stm32f1xx_hal_rcc.c ****   SET_BIT(RCC->CSR, RCC_CSR_RMVF);
 203              		.loc 1 324 3
 204 0108 064B     		ldr	r3, .L12
 205 010a 5B6A     		ldr	r3, [r3, #36]
 206 010c 054A     		ldr	r2, .L12
 207 010e 43F08073 		orr	r3, r3, #16777216
 208 0112 5362     		str	r3, [r2, #36]
 325:Drivers/STM32F1xx_HAL_Driver/Src/stm32f1xx_hal_rcc.c **** 
 326:Drivers/STM32F1xx_HAL_Driver/Src/stm32f1xx_hal_rcc.c ****   /* Disable all interrupts */
 327:Drivers/STM32F1xx_HAL_Driver/Src/stm32f1xx_hal_rcc.c ****   CLEAR_REG(RCC->CIR);
 209              		.loc 1 327 3
 210 0114 034B     		ldr	r3, .L12
 211 0116 0022     		movs	r2, #0
 212 0118 9A60     		str	r2, [r3, #8]
 328:Drivers/STM32F1xx_HAL_Driver/Src/stm32f1xx_hal_rcc.c **** 
 329:Drivers/STM32F1xx_HAL_Driver/Src/stm32f1xx_hal_rcc.c ****   return HAL_OK;
 213              		.loc 1 329 10
 214 011a 0023     		movs	r3, #0
 215              	.L3:
 330:Drivers/STM32F1xx_HAL_Driver/Src/stm32f1xx_hal_rcc.c **** }
 216              		.loc 1 330 1
 217 011c 1846     		mov	r0, r3
 218 011e 0837     		adds	r7, r7, #8
 219              	.LCFI3:
 220              		.cfi_def_cfa_offset 8
 221 0120 BD46     		mov	sp, r7
 222              	.LCFI4:
 223              		.cfi_def_cfa_register 13
 224              		@ sp needed
 225 0122 80BD     		pop	{r7, pc}
 226              	.L13:
 227              		.align	2
 228              	.L12:
 229 0124 00100240 		.word	1073876992
 230 0128 00000000 		.word	SystemCoreClock
 231 012c 00127A00 		.word	8000000
 232 0130 00000000 		.word	uwTickPrio
 233              		.cfi_endproc
ARM GAS  C:\Users\57298\AppData\Local\Temp\ccq1CZ60.s 			page 11


 234              	.LFE65:
 236              		.section	.text.HAL_RCC_OscConfig,"ax",%progbits
 237              		.align	1
 238              		.global	HAL_RCC_OscConfig
 239              		.syntax unified
 240              		.thumb
 241              		.thumb_func
 243              	HAL_RCC_OscConfig:
 244              	.LFB66:
 331:Drivers/STM32F1xx_HAL_Driver/Src/stm32f1xx_hal_rcc.c **** 
 332:Drivers/STM32F1xx_HAL_Driver/Src/stm32f1xx_hal_rcc.c **** /**
 333:Drivers/STM32F1xx_HAL_Driver/Src/stm32f1xx_hal_rcc.c ****   * @brief  Initializes the RCC Oscillators according to the specified parameters in the
 334:Drivers/STM32F1xx_HAL_Driver/Src/stm32f1xx_hal_rcc.c ****   *         RCC_OscInitTypeDef.
 335:Drivers/STM32F1xx_HAL_Driver/Src/stm32f1xx_hal_rcc.c ****   * @param  RCC_OscInitStruct pointer to an RCC_OscInitTypeDef structure that
 336:Drivers/STM32F1xx_HAL_Driver/Src/stm32f1xx_hal_rcc.c ****   *         contains the configuration information for the RCC Oscillators.
 337:Drivers/STM32F1xx_HAL_Driver/Src/stm32f1xx_hal_rcc.c ****   * @note   The PLL is not disabled when used as system clock.
 338:Drivers/STM32F1xx_HAL_Driver/Src/stm32f1xx_hal_rcc.c ****   * @note   The PLL is not disabled when USB OTG FS clock is enabled (specific to devices with USB 
 339:Drivers/STM32F1xx_HAL_Driver/Src/stm32f1xx_hal_rcc.c ****   * @note   Transitions LSE Bypass to LSE On and LSE On to LSE Bypass are not
 340:Drivers/STM32F1xx_HAL_Driver/Src/stm32f1xx_hal_rcc.c ****   *         supported by this macro. User should request a transition to LSE Off
 341:Drivers/STM32F1xx_HAL_Driver/Src/stm32f1xx_hal_rcc.c ****   *         first and then LSE On or LSE Bypass.
 342:Drivers/STM32F1xx_HAL_Driver/Src/stm32f1xx_hal_rcc.c ****   * @note   Transition HSE Bypass to HSE On and HSE On to HSE Bypass are not
 343:Drivers/STM32F1xx_HAL_Driver/Src/stm32f1xx_hal_rcc.c ****   *         supported by this macro. User should request a transition to HSE Off
 344:Drivers/STM32F1xx_HAL_Driver/Src/stm32f1xx_hal_rcc.c ****   *         first and then HSE On or HSE Bypass.
 345:Drivers/STM32F1xx_HAL_Driver/Src/stm32f1xx_hal_rcc.c ****   * @retval HAL status
 346:Drivers/STM32F1xx_HAL_Driver/Src/stm32f1xx_hal_rcc.c ****   */
 347:Drivers/STM32F1xx_HAL_Driver/Src/stm32f1xx_hal_rcc.c **** HAL_StatusTypeDef HAL_RCC_OscConfig(RCC_OscInitTypeDef  *RCC_OscInitStruct)
 348:Drivers/STM32F1xx_HAL_Driver/Src/stm32f1xx_hal_rcc.c **** {
 245              		.loc 1 348 1
 246              		.cfi_startproc
 247              		@ args = 0, pretend = 0, frame = 24
 248              		@ frame_needed = 1, uses_anonymous_args = 0
 249 0000 80B5     		push	{r7, lr}
 250              	.LCFI5:
 251              		.cfi_def_cfa_offset 8
 252              		.cfi_offset 7, -8
 253              		.cfi_offset 14, -4
 254 0002 86B0     		sub	sp, sp, #24
 255              	.LCFI6:
 256              		.cfi_def_cfa_offset 32
 257 0004 00AF     		add	r7, sp, #0
 258              	.LCFI7:
 259              		.cfi_def_cfa_register 7
 260 0006 7860     		str	r0, [r7, #4]
 349:Drivers/STM32F1xx_HAL_Driver/Src/stm32f1xx_hal_rcc.c ****   uint32_t tickstart;
 350:Drivers/STM32F1xx_HAL_Driver/Src/stm32f1xx_hal_rcc.c ****   uint32_t pll_config;
 351:Drivers/STM32F1xx_HAL_Driver/Src/stm32f1xx_hal_rcc.c **** 
 352:Drivers/STM32F1xx_HAL_Driver/Src/stm32f1xx_hal_rcc.c ****   /* Check Null pointer */
 353:Drivers/STM32F1xx_HAL_Driver/Src/stm32f1xx_hal_rcc.c ****   if (RCC_OscInitStruct == NULL)
 261              		.loc 1 353 6
 262 0008 7B68     		ldr	r3, [r7, #4]
 263 000a 002B     		cmp	r3, #0
 264 000c 01D1     		bne	.L15
 354:Drivers/STM32F1xx_HAL_Driver/Src/stm32f1xx_hal_rcc.c ****   {
 355:Drivers/STM32F1xx_HAL_Driver/Src/stm32f1xx_hal_rcc.c ****     return HAL_ERROR;
 265              		.loc 1 355 12
 266 000e 0123     		movs	r3, #1
 267 0010 72E2     		b	.L16
ARM GAS  C:\Users\57298\AppData\Local\Temp\ccq1CZ60.s 			page 12


 268              	.L15:
 356:Drivers/STM32F1xx_HAL_Driver/Src/stm32f1xx_hal_rcc.c ****   }
 357:Drivers/STM32F1xx_HAL_Driver/Src/stm32f1xx_hal_rcc.c **** 
 358:Drivers/STM32F1xx_HAL_Driver/Src/stm32f1xx_hal_rcc.c ****   /* Check the parameters */
 359:Drivers/STM32F1xx_HAL_Driver/Src/stm32f1xx_hal_rcc.c ****   assert_param(IS_RCC_OSCILLATORTYPE(RCC_OscInitStruct->OscillatorType));
 360:Drivers/STM32F1xx_HAL_Driver/Src/stm32f1xx_hal_rcc.c **** 
 361:Drivers/STM32F1xx_HAL_Driver/Src/stm32f1xx_hal_rcc.c ****   /*------------------------------- HSE Configuration ------------------------*/
 362:Drivers/STM32F1xx_HAL_Driver/Src/stm32f1xx_hal_rcc.c ****   if (((RCC_OscInitStruct->OscillatorType) & RCC_OSCILLATORTYPE_HSE) == RCC_OSCILLATORTYPE_HSE)
 269              		.loc 1 362 26
 270 0012 7B68     		ldr	r3, [r7, #4]
 271 0014 1B68     		ldr	r3, [r3]
 272              		.loc 1 362 44
 273 0016 03F00103 		and	r3, r3, #1
 274              		.loc 1 362 6
 275 001a 002B     		cmp	r3, #0
 276 001c 00F08780 		beq	.L17
 363:Drivers/STM32F1xx_HAL_Driver/Src/stm32f1xx_hal_rcc.c ****   {
 364:Drivers/STM32F1xx_HAL_Driver/Src/stm32f1xx_hal_rcc.c ****     /* Check the parameters */
 365:Drivers/STM32F1xx_HAL_Driver/Src/stm32f1xx_hal_rcc.c ****     assert_param(IS_RCC_HSE(RCC_OscInitStruct->HSEState));
 366:Drivers/STM32F1xx_HAL_Driver/Src/stm32f1xx_hal_rcc.c **** 
 367:Drivers/STM32F1xx_HAL_Driver/Src/stm32f1xx_hal_rcc.c ****     /* When the HSE is used as system clock or clock source for PLL in these cases it is not allowe
 368:Drivers/STM32F1xx_HAL_Driver/Src/stm32f1xx_hal_rcc.c ****     if ((__HAL_RCC_GET_SYSCLK_SOURCE() == RCC_SYSCLKSOURCE_STATUS_HSE)
 277              		.loc 1 368 10
 278 0020 924B     		ldr	r3, .L73
 279 0022 5B68     		ldr	r3, [r3, #4]
 280 0024 03F00C03 		and	r3, r3, #12
 281              		.loc 1 368 8
 282 0028 042B     		cmp	r3, #4
 283 002a 0CD0     		beq	.L18
 369:Drivers/STM32F1xx_HAL_Driver/Src/stm32f1xx_hal_rcc.c ****         || ((__HAL_RCC_GET_SYSCLK_SOURCE() == RCC_SYSCLKSOURCE_STATUS_PLLCLK) && (__HAL_RCC_GET_PLL
 284              		.loc 1 369 14
 285 002c 8F4B     		ldr	r3, .L73
 286 002e 5B68     		ldr	r3, [r3, #4]
 287 0030 03F00C03 		and	r3, r3, #12
 288              		.loc 1 369 9
 289 0034 082B     		cmp	r3, #8
 290 0036 12D1     		bne	.L19
 291              		.loc 1 369 83 discriminator 1
 292 0038 8C4B     		ldr	r3, .L73
 293 003a 5B68     		ldr	r3, [r3, #4]
 294 003c 03F48033 		and	r3, r3, #65536
 295              		.loc 1 369 79 discriminator 1
 296 0040 B3F5803F 		cmp	r3, #65536
 297 0044 0BD1     		bne	.L19
 298              	.L18:
 370:Drivers/STM32F1xx_HAL_Driver/Src/stm32f1xx_hal_rcc.c ****     {
 371:Drivers/STM32F1xx_HAL_Driver/Src/stm32f1xx_hal_rcc.c ****       if ((__HAL_RCC_GET_FLAG(RCC_FLAG_HSERDY) != RESET) && (RCC_OscInitStruct->HSEState == RCC_HSE
 299              		.loc 1 371 12
 300 0046 894B     		ldr	r3, .L73
 301 0048 1B68     		ldr	r3, [r3]
 302 004a 03F40033 		and	r3, r3, #131072
 303              		.loc 1 371 10
 304 004e 002B     		cmp	r3, #0
 305 0050 6CD0     		beq	.L72
 306              		.loc 1 371 79 discriminator 1
 307 0052 7B68     		ldr	r3, [r7, #4]
 308 0054 5B68     		ldr	r3, [r3, #4]
ARM GAS  C:\Users\57298\AppData\Local\Temp\ccq1CZ60.s 			page 13


 309              		.loc 1 371 58 discriminator 1
 310 0056 002B     		cmp	r3, #0
 311 0058 68D1     		bne	.L72
 372:Drivers/STM32F1xx_HAL_Driver/Src/stm32f1xx_hal_rcc.c ****       {
 373:Drivers/STM32F1xx_HAL_Driver/Src/stm32f1xx_hal_rcc.c ****         return HAL_ERROR;
 312              		.loc 1 373 16
 313 005a 0123     		movs	r3, #1
 314 005c 4CE2     		b	.L16
 315              	.L19:
 374:Drivers/STM32F1xx_HAL_Driver/Src/stm32f1xx_hal_rcc.c ****       }
 375:Drivers/STM32F1xx_HAL_Driver/Src/stm32f1xx_hal_rcc.c ****     }
 376:Drivers/STM32F1xx_HAL_Driver/Src/stm32f1xx_hal_rcc.c ****     else
 377:Drivers/STM32F1xx_HAL_Driver/Src/stm32f1xx_hal_rcc.c ****     {
 378:Drivers/STM32F1xx_HAL_Driver/Src/stm32f1xx_hal_rcc.c ****       /* Set the new HSE configuration ---------------------------------------*/
 379:Drivers/STM32F1xx_HAL_Driver/Src/stm32f1xx_hal_rcc.c ****       __HAL_RCC_HSE_CONFIG(RCC_OscInitStruct->HSEState);
 316              		.loc 1 379 7
 317 005e 7B68     		ldr	r3, [r7, #4]
 318 0060 5B68     		ldr	r3, [r3, #4]
 319 0062 B3F5803F 		cmp	r3, #65536
 320 0066 06D1     		bne	.L21
 321              		.loc 1 379 7 is_stmt 0 discriminator 1
 322 0068 804B     		ldr	r3, .L73
 323 006a 1B68     		ldr	r3, [r3]
 324 006c 7F4A     		ldr	r2, .L73
 325 006e 43F48033 		orr	r3, r3, #65536
 326 0072 1360     		str	r3, [r2]
 327 0074 2EE0     		b	.L22
 328              	.L21:
 329              		.loc 1 379 7 discriminator 2
 330 0076 7B68     		ldr	r3, [r7, #4]
 331 0078 5B68     		ldr	r3, [r3, #4]
 332 007a 002B     		cmp	r3, #0
 333 007c 0CD1     		bne	.L23
 334              		.loc 1 379 7 discriminator 3
 335 007e 7B4B     		ldr	r3, .L73
 336 0080 1B68     		ldr	r3, [r3]
 337 0082 7A4A     		ldr	r2, .L73
 338 0084 23F48033 		bic	r3, r3, #65536
 339 0088 1360     		str	r3, [r2]
 340 008a 784B     		ldr	r3, .L73
 341 008c 1B68     		ldr	r3, [r3]
 342 008e 774A     		ldr	r2, .L73
 343 0090 23F48023 		bic	r3, r3, #262144
 344 0094 1360     		str	r3, [r2]
 345 0096 1DE0     		b	.L22
 346              	.L23:
 347              		.loc 1 379 7 discriminator 4
 348 0098 7B68     		ldr	r3, [r7, #4]
 349 009a 5B68     		ldr	r3, [r3, #4]
 350 009c B3F5A02F 		cmp	r3, #327680
 351 00a0 0CD1     		bne	.L24
 352              		.loc 1 379 7 discriminator 5
 353 00a2 724B     		ldr	r3, .L73
 354 00a4 1B68     		ldr	r3, [r3]
 355 00a6 714A     		ldr	r2, .L73
 356 00a8 43F48023 		orr	r3, r3, #262144
 357 00ac 1360     		str	r3, [r2]
ARM GAS  C:\Users\57298\AppData\Local\Temp\ccq1CZ60.s 			page 14


 358 00ae 6F4B     		ldr	r3, .L73
 359 00b0 1B68     		ldr	r3, [r3]
 360 00b2 6E4A     		ldr	r2, .L73
 361 00b4 43F48033 		orr	r3, r3, #65536
 362 00b8 1360     		str	r3, [r2]
 363 00ba 0BE0     		b	.L22
 364              	.L24:
 365              		.loc 1 379 7 discriminator 6
 366 00bc 6B4B     		ldr	r3, .L73
 367 00be 1B68     		ldr	r3, [r3]
 368 00c0 6A4A     		ldr	r2, .L73
 369 00c2 23F48033 		bic	r3, r3, #65536
 370 00c6 1360     		str	r3, [r2]
 371 00c8 684B     		ldr	r3, .L73
 372 00ca 1B68     		ldr	r3, [r3]
 373 00cc 674A     		ldr	r2, .L73
 374 00ce 23F48023 		bic	r3, r3, #262144
 375 00d2 1360     		str	r3, [r2]
 376              	.L22:
 380:Drivers/STM32F1xx_HAL_Driver/Src/stm32f1xx_hal_rcc.c **** 
 381:Drivers/STM32F1xx_HAL_Driver/Src/stm32f1xx_hal_rcc.c **** 
 382:Drivers/STM32F1xx_HAL_Driver/Src/stm32f1xx_hal_rcc.c ****       /* Check the HSE State */
 383:Drivers/STM32F1xx_HAL_Driver/Src/stm32f1xx_hal_rcc.c ****       if (RCC_OscInitStruct->HSEState != RCC_HSE_OFF)
 377              		.loc 1 383 28 is_stmt 1
 378 00d4 7B68     		ldr	r3, [r7, #4]
 379 00d6 5B68     		ldr	r3, [r3, #4]
 380              		.loc 1 383 10
 381 00d8 002B     		cmp	r3, #0
 382 00da 13D0     		beq	.L25
 384:Drivers/STM32F1xx_HAL_Driver/Src/stm32f1xx_hal_rcc.c ****       {
 385:Drivers/STM32F1xx_HAL_Driver/Src/stm32f1xx_hal_rcc.c ****         /* Get Start Tick */
 386:Drivers/STM32F1xx_HAL_Driver/Src/stm32f1xx_hal_rcc.c ****         tickstart = HAL_GetTick();
 383              		.loc 1 386 21
 384 00dc FFF7FEFF 		bl	HAL_GetTick
 385 00e0 3861     		str	r0, [r7, #16]
 387:Drivers/STM32F1xx_HAL_Driver/Src/stm32f1xx_hal_rcc.c **** 
 388:Drivers/STM32F1xx_HAL_Driver/Src/stm32f1xx_hal_rcc.c ****         /* Wait till HSE is ready */
 389:Drivers/STM32F1xx_HAL_Driver/Src/stm32f1xx_hal_rcc.c ****         while (__HAL_RCC_GET_FLAG(RCC_FLAG_HSERDY) == RESET)
 386              		.loc 1 389 15
 387 00e2 08E0     		b	.L26
 388              	.L27:
 390:Drivers/STM32F1xx_HAL_Driver/Src/stm32f1xx_hal_rcc.c ****         {
 391:Drivers/STM32F1xx_HAL_Driver/Src/stm32f1xx_hal_rcc.c ****           if ((HAL_GetTick() - tickstart) > HSE_TIMEOUT_VALUE)
 389              		.loc 1 391 16
 390 00e4 FFF7FEFF 		bl	HAL_GetTick
 391 00e8 0246     		mov	r2, r0
 392              		.loc 1 391 30
 393 00ea 3B69     		ldr	r3, [r7, #16]
 394 00ec D31A     		subs	r3, r2, r3
 395              		.loc 1 391 14
 396 00ee 642B     		cmp	r3, #100
 397 00f0 01D9     		bls	.L26
 392:Drivers/STM32F1xx_HAL_Driver/Src/stm32f1xx_hal_rcc.c ****           {
 393:Drivers/STM32F1xx_HAL_Driver/Src/stm32f1xx_hal_rcc.c ****             return HAL_TIMEOUT;
 398              		.loc 1 393 20
 399 00f2 0323     		movs	r3, #3
 400 00f4 00E2     		b	.L16
ARM GAS  C:\Users\57298\AppData\Local\Temp\ccq1CZ60.s 			page 15


 401              	.L26:
 389:Drivers/STM32F1xx_HAL_Driver/Src/stm32f1xx_hal_rcc.c ****         {
 402              		.loc 1 389 16
 403 00f6 5D4B     		ldr	r3, .L73
 404 00f8 1B68     		ldr	r3, [r3]
 405 00fa 03F40033 		and	r3, r3, #131072
 389:Drivers/STM32F1xx_HAL_Driver/Src/stm32f1xx_hal_rcc.c ****         {
 406              		.loc 1 389 15
 407 00fe 002B     		cmp	r3, #0
 408 0100 F0D0     		beq	.L27
 409 0102 14E0     		b	.L17
 410              	.L25:
 394:Drivers/STM32F1xx_HAL_Driver/Src/stm32f1xx_hal_rcc.c ****           }
 395:Drivers/STM32F1xx_HAL_Driver/Src/stm32f1xx_hal_rcc.c ****         }
 396:Drivers/STM32F1xx_HAL_Driver/Src/stm32f1xx_hal_rcc.c ****       }
 397:Drivers/STM32F1xx_HAL_Driver/Src/stm32f1xx_hal_rcc.c ****       else
 398:Drivers/STM32F1xx_HAL_Driver/Src/stm32f1xx_hal_rcc.c ****       {
 399:Drivers/STM32F1xx_HAL_Driver/Src/stm32f1xx_hal_rcc.c ****         /* Get Start Tick */
 400:Drivers/STM32F1xx_HAL_Driver/Src/stm32f1xx_hal_rcc.c ****         tickstart = HAL_GetTick();
 411              		.loc 1 400 21
 412 0104 FFF7FEFF 		bl	HAL_GetTick
 413 0108 3861     		str	r0, [r7, #16]
 401:Drivers/STM32F1xx_HAL_Driver/Src/stm32f1xx_hal_rcc.c **** 
 402:Drivers/STM32F1xx_HAL_Driver/Src/stm32f1xx_hal_rcc.c ****         /* Wait till HSE is disabled */
 403:Drivers/STM32F1xx_HAL_Driver/Src/stm32f1xx_hal_rcc.c ****         while (__HAL_RCC_GET_FLAG(RCC_FLAG_HSERDY) != RESET)
 414              		.loc 1 403 15
 415 010a 08E0     		b	.L28
 416              	.L29:
 404:Drivers/STM32F1xx_HAL_Driver/Src/stm32f1xx_hal_rcc.c ****         {
 405:Drivers/STM32F1xx_HAL_Driver/Src/stm32f1xx_hal_rcc.c ****           if ((HAL_GetTick() - tickstart) > HSE_TIMEOUT_VALUE)
 417              		.loc 1 405 16
 418 010c FFF7FEFF 		bl	HAL_GetTick
 419 0110 0246     		mov	r2, r0
 420              		.loc 1 405 30
 421 0112 3B69     		ldr	r3, [r7, #16]
 422 0114 D31A     		subs	r3, r2, r3
 423              		.loc 1 405 14
 424 0116 642B     		cmp	r3, #100
 425 0118 01D9     		bls	.L28
 406:Drivers/STM32F1xx_HAL_Driver/Src/stm32f1xx_hal_rcc.c ****           {
 407:Drivers/STM32F1xx_HAL_Driver/Src/stm32f1xx_hal_rcc.c ****             return HAL_TIMEOUT;
 426              		.loc 1 407 20
 427 011a 0323     		movs	r3, #3
 428 011c ECE1     		b	.L16
 429              	.L28:
 403:Drivers/STM32F1xx_HAL_Driver/Src/stm32f1xx_hal_rcc.c ****         {
 430              		.loc 1 403 16
 431 011e 534B     		ldr	r3, .L73
 432 0120 1B68     		ldr	r3, [r3]
 433 0122 03F40033 		and	r3, r3, #131072
 403:Drivers/STM32F1xx_HAL_Driver/Src/stm32f1xx_hal_rcc.c ****         {
 434              		.loc 1 403 15
 435 0126 002B     		cmp	r3, #0
 436 0128 F0D1     		bne	.L29
 437 012a 00E0     		b	.L17
 438              	.L72:
 371:Drivers/STM32F1xx_HAL_Driver/Src/stm32f1xx_hal_rcc.c ****       {
ARM GAS  C:\Users\57298\AppData\Local\Temp\ccq1CZ60.s 			page 16


 439              		.loc 1 371 10
 440 012c 00BF     		nop
 441              	.L17:
 408:Drivers/STM32F1xx_HAL_Driver/Src/stm32f1xx_hal_rcc.c ****           }
 409:Drivers/STM32F1xx_HAL_Driver/Src/stm32f1xx_hal_rcc.c ****         }
 410:Drivers/STM32F1xx_HAL_Driver/Src/stm32f1xx_hal_rcc.c ****       }
 411:Drivers/STM32F1xx_HAL_Driver/Src/stm32f1xx_hal_rcc.c ****     }
 412:Drivers/STM32F1xx_HAL_Driver/Src/stm32f1xx_hal_rcc.c ****   }
 413:Drivers/STM32F1xx_HAL_Driver/Src/stm32f1xx_hal_rcc.c ****   /*----------------------------- HSI Configuration --------------------------*/
 414:Drivers/STM32F1xx_HAL_Driver/Src/stm32f1xx_hal_rcc.c ****   if (((RCC_OscInitStruct->OscillatorType) & RCC_OSCILLATORTYPE_HSI) == RCC_OSCILLATORTYPE_HSI)
 442              		.loc 1 414 26
 443 012e 7B68     		ldr	r3, [r7, #4]
 444 0130 1B68     		ldr	r3, [r3]
 445              		.loc 1 414 44
 446 0132 03F00203 		and	r3, r3, #2
 447              		.loc 1 414 6
 448 0136 002B     		cmp	r3, #0
 449 0138 63D0     		beq	.L30
 415:Drivers/STM32F1xx_HAL_Driver/Src/stm32f1xx_hal_rcc.c ****   {
 416:Drivers/STM32F1xx_HAL_Driver/Src/stm32f1xx_hal_rcc.c ****     /* Check the parameters */
 417:Drivers/STM32F1xx_HAL_Driver/Src/stm32f1xx_hal_rcc.c ****     assert_param(IS_RCC_HSI(RCC_OscInitStruct->HSIState));
 418:Drivers/STM32F1xx_HAL_Driver/Src/stm32f1xx_hal_rcc.c ****     assert_param(IS_RCC_CALIBRATION_VALUE(RCC_OscInitStruct->HSICalibrationValue));
 419:Drivers/STM32F1xx_HAL_Driver/Src/stm32f1xx_hal_rcc.c **** 
 420:Drivers/STM32F1xx_HAL_Driver/Src/stm32f1xx_hal_rcc.c ****     /* Check if HSI is used as system clock or as PLL source when PLL is selected as system clock *
 421:Drivers/STM32F1xx_HAL_Driver/Src/stm32f1xx_hal_rcc.c ****     if ((__HAL_RCC_GET_SYSCLK_SOURCE() == RCC_SYSCLKSOURCE_STATUS_HSI)
 450              		.loc 1 421 10
 451 013a 4C4B     		ldr	r3, .L73
 452 013c 5B68     		ldr	r3, [r3, #4]
 453 013e 03F00C03 		and	r3, r3, #12
 454              		.loc 1 421 8
 455 0142 002B     		cmp	r3, #0
 456 0144 0BD0     		beq	.L31
 422:Drivers/STM32F1xx_HAL_Driver/Src/stm32f1xx_hal_rcc.c ****         || ((__HAL_RCC_GET_SYSCLK_SOURCE() == RCC_SYSCLKSOURCE_STATUS_PLLCLK) && (__HAL_RCC_GET_PLL
 457              		.loc 1 422 14
 458 0146 494B     		ldr	r3, .L73
 459 0148 5B68     		ldr	r3, [r3, #4]
 460 014a 03F00C03 		and	r3, r3, #12
 461              		.loc 1 422 9
 462 014e 082B     		cmp	r3, #8
 463 0150 1CD1     		bne	.L32
 464              		.loc 1 422 83 discriminator 1
 465 0152 464B     		ldr	r3, .L73
 466 0154 5B68     		ldr	r3, [r3, #4]
 467 0156 03F48033 		and	r3, r3, #65536
 468              		.loc 1 422 79 discriminator 1
 469 015a 002B     		cmp	r3, #0
 470 015c 16D1     		bne	.L32
 471              	.L31:
 423:Drivers/STM32F1xx_HAL_Driver/Src/stm32f1xx_hal_rcc.c ****     {
 424:Drivers/STM32F1xx_HAL_Driver/Src/stm32f1xx_hal_rcc.c ****       /* When HSI is used as system clock it will not disabled */
 425:Drivers/STM32F1xx_HAL_Driver/Src/stm32f1xx_hal_rcc.c ****       if ((__HAL_RCC_GET_FLAG(RCC_FLAG_HSIRDY) != RESET) && (RCC_OscInitStruct->HSIState != RCC_HSI
 472              		.loc 1 425 12
 473 015e 434B     		ldr	r3, .L73
 474 0160 1B68     		ldr	r3, [r3]
 475 0162 03F00203 		and	r3, r3, #2
 476              		.loc 1 425 10
 477 0166 002B     		cmp	r3, #0
ARM GAS  C:\Users\57298\AppData\Local\Temp\ccq1CZ60.s 			page 17


 478 0168 05D0     		beq	.L33
 479              		.loc 1 425 79 discriminator 1
 480 016a 7B68     		ldr	r3, [r7, #4]
 481 016c 1B69     		ldr	r3, [r3, #16]
 482              		.loc 1 425 58 discriminator 1
 483 016e 012B     		cmp	r3, #1
 484 0170 01D0     		beq	.L33
 426:Drivers/STM32F1xx_HAL_Driver/Src/stm32f1xx_hal_rcc.c ****       {
 427:Drivers/STM32F1xx_HAL_Driver/Src/stm32f1xx_hal_rcc.c ****         return HAL_ERROR;
 485              		.loc 1 427 16
 486 0172 0123     		movs	r3, #1
 487 0174 C0E1     		b	.L16
 488              	.L33:
 428:Drivers/STM32F1xx_HAL_Driver/Src/stm32f1xx_hal_rcc.c ****       }
 429:Drivers/STM32F1xx_HAL_Driver/Src/stm32f1xx_hal_rcc.c ****       /* Otherwise, just the calibration is allowed */
 430:Drivers/STM32F1xx_HAL_Driver/Src/stm32f1xx_hal_rcc.c ****       else
 431:Drivers/STM32F1xx_HAL_Driver/Src/stm32f1xx_hal_rcc.c ****       {
 432:Drivers/STM32F1xx_HAL_Driver/Src/stm32f1xx_hal_rcc.c ****         /* Adjusts the Internal High Speed oscillator (HSI) calibration value.*/
 433:Drivers/STM32F1xx_HAL_Driver/Src/stm32f1xx_hal_rcc.c ****         __HAL_RCC_HSI_CALIBRATIONVALUE_ADJUST(RCC_OscInitStruct->HSICalibrationValue);
 489              		.loc 1 433 9
 490 0176 3D4B     		ldr	r3, .L73
 491 0178 1B68     		ldr	r3, [r3]
 492 017a 23F0F802 		bic	r2, r3, #248
 493 017e 7B68     		ldr	r3, [r7, #4]
 494 0180 5B69     		ldr	r3, [r3, #20]
 495 0182 DB00     		lsls	r3, r3, #3
 496 0184 3949     		ldr	r1, .L73
 497 0186 1343     		orrs	r3, r3, r2
 498 0188 0B60     		str	r3, [r1]
 425:Drivers/STM32F1xx_HAL_Driver/Src/stm32f1xx_hal_rcc.c ****       {
 499              		.loc 1 425 10
 500 018a 3AE0     		b	.L30
 501              	.L32:
 434:Drivers/STM32F1xx_HAL_Driver/Src/stm32f1xx_hal_rcc.c ****       }
 435:Drivers/STM32F1xx_HAL_Driver/Src/stm32f1xx_hal_rcc.c ****     }
 436:Drivers/STM32F1xx_HAL_Driver/Src/stm32f1xx_hal_rcc.c ****     else
 437:Drivers/STM32F1xx_HAL_Driver/Src/stm32f1xx_hal_rcc.c ****     {
 438:Drivers/STM32F1xx_HAL_Driver/Src/stm32f1xx_hal_rcc.c ****       /* Check the HSI State */
 439:Drivers/STM32F1xx_HAL_Driver/Src/stm32f1xx_hal_rcc.c ****       if (RCC_OscInitStruct->HSIState != RCC_HSI_OFF)
 502              		.loc 1 439 28
 503 018c 7B68     		ldr	r3, [r7, #4]
 504 018e 1B69     		ldr	r3, [r3, #16]
 505              		.loc 1 439 10
 506 0190 002B     		cmp	r3, #0
 507 0192 20D0     		beq	.L34
 440:Drivers/STM32F1xx_HAL_Driver/Src/stm32f1xx_hal_rcc.c ****       {
 441:Drivers/STM32F1xx_HAL_Driver/Src/stm32f1xx_hal_rcc.c ****         /* Enable the Internal High Speed oscillator (HSI). */
 442:Drivers/STM32F1xx_HAL_Driver/Src/stm32f1xx_hal_rcc.c ****         __HAL_RCC_HSI_ENABLE();
 508              		.loc 1 442 9
 509 0194 364B     		ldr	r3, .L73+4
 510 0196 0122     		movs	r2, #1
 511 0198 1A60     		str	r2, [r3]
 443:Drivers/STM32F1xx_HAL_Driver/Src/stm32f1xx_hal_rcc.c **** 
 444:Drivers/STM32F1xx_HAL_Driver/Src/stm32f1xx_hal_rcc.c ****         /* Get Start Tick */
 445:Drivers/STM32F1xx_HAL_Driver/Src/stm32f1xx_hal_rcc.c ****         tickstart = HAL_GetTick();
 512              		.loc 1 445 21
 513 019a FFF7FEFF 		bl	HAL_GetTick
ARM GAS  C:\Users\57298\AppData\Local\Temp\ccq1CZ60.s 			page 18


 514 019e 3861     		str	r0, [r7, #16]
 446:Drivers/STM32F1xx_HAL_Driver/Src/stm32f1xx_hal_rcc.c **** 
 447:Drivers/STM32F1xx_HAL_Driver/Src/stm32f1xx_hal_rcc.c ****         /* Wait till HSI is ready */
 448:Drivers/STM32F1xx_HAL_Driver/Src/stm32f1xx_hal_rcc.c ****         while (__HAL_RCC_GET_FLAG(RCC_FLAG_HSIRDY) == RESET)
 515              		.loc 1 448 15
 516 01a0 08E0     		b	.L35
 517              	.L36:
 449:Drivers/STM32F1xx_HAL_Driver/Src/stm32f1xx_hal_rcc.c ****         {
 450:Drivers/STM32F1xx_HAL_Driver/Src/stm32f1xx_hal_rcc.c ****           if ((HAL_GetTick() - tickstart) > HSI_TIMEOUT_VALUE)
 518              		.loc 1 450 16
 519 01a2 FFF7FEFF 		bl	HAL_GetTick
 520 01a6 0246     		mov	r2, r0
 521              		.loc 1 450 30
 522 01a8 3B69     		ldr	r3, [r7, #16]
 523 01aa D31A     		subs	r3, r2, r3
 524              		.loc 1 450 14
 525 01ac 022B     		cmp	r3, #2
 526 01ae 01D9     		bls	.L35
 451:Drivers/STM32F1xx_HAL_Driver/Src/stm32f1xx_hal_rcc.c ****           {
 452:Drivers/STM32F1xx_HAL_Driver/Src/stm32f1xx_hal_rcc.c ****             return HAL_TIMEOUT;
 527              		.loc 1 452 20
 528 01b0 0323     		movs	r3, #3
 529 01b2 A1E1     		b	.L16
 530              	.L35:
 448:Drivers/STM32F1xx_HAL_Driver/Src/stm32f1xx_hal_rcc.c ****         {
 531              		.loc 1 448 16
 532 01b4 2D4B     		ldr	r3, .L73
 533 01b6 1B68     		ldr	r3, [r3]
 534 01b8 03F00203 		and	r3, r3, #2
 448:Drivers/STM32F1xx_HAL_Driver/Src/stm32f1xx_hal_rcc.c ****         {
 535              		.loc 1 448 15
 536 01bc 002B     		cmp	r3, #0
 537 01be F0D0     		beq	.L36
 453:Drivers/STM32F1xx_HAL_Driver/Src/stm32f1xx_hal_rcc.c ****           }
 454:Drivers/STM32F1xx_HAL_Driver/Src/stm32f1xx_hal_rcc.c ****         }
 455:Drivers/STM32F1xx_HAL_Driver/Src/stm32f1xx_hal_rcc.c **** 
 456:Drivers/STM32F1xx_HAL_Driver/Src/stm32f1xx_hal_rcc.c ****         /* Adjusts the Internal High Speed oscillator (HSI) calibration value.*/
 457:Drivers/STM32F1xx_HAL_Driver/Src/stm32f1xx_hal_rcc.c ****         __HAL_RCC_HSI_CALIBRATIONVALUE_ADJUST(RCC_OscInitStruct->HSICalibrationValue);
 538              		.loc 1 457 9
 539 01c0 2A4B     		ldr	r3, .L73
 540 01c2 1B68     		ldr	r3, [r3]
 541 01c4 23F0F802 		bic	r2, r3, #248
 542 01c8 7B68     		ldr	r3, [r7, #4]
 543 01ca 5B69     		ldr	r3, [r3, #20]
 544 01cc DB00     		lsls	r3, r3, #3
 545 01ce 2749     		ldr	r1, .L73
 546 01d0 1343     		orrs	r3, r3, r2
 547 01d2 0B60     		str	r3, [r1]
 548 01d4 15E0     		b	.L30
 549              	.L34:
 458:Drivers/STM32F1xx_HAL_Driver/Src/stm32f1xx_hal_rcc.c ****       }
 459:Drivers/STM32F1xx_HAL_Driver/Src/stm32f1xx_hal_rcc.c ****       else
 460:Drivers/STM32F1xx_HAL_Driver/Src/stm32f1xx_hal_rcc.c ****       {
 461:Drivers/STM32F1xx_HAL_Driver/Src/stm32f1xx_hal_rcc.c ****         /* Disable the Internal High Speed oscillator (HSI). */
 462:Drivers/STM32F1xx_HAL_Driver/Src/stm32f1xx_hal_rcc.c ****         __HAL_RCC_HSI_DISABLE();
 550              		.loc 1 462 9
 551 01d6 264B     		ldr	r3, .L73+4
ARM GAS  C:\Users\57298\AppData\Local\Temp\ccq1CZ60.s 			page 19


 552 01d8 0022     		movs	r2, #0
 553 01da 1A60     		str	r2, [r3]
 463:Drivers/STM32F1xx_HAL_Driver/Src/stm32f1xx_hal_rcc.c **** 
 464:Drivers/STM32F1xx_HAL_Driver/Src/stm32f1xx_hal_rcc.c ****         /* Get Start Tick */
 465:Drivers/STM32F1xx_HAL_Driver/Src/stm32f1xx_hal_rcc.c ****         tickstart = HAL_GetTick();
 554              		.loc 1 465 21
 555 01dc FFF7FEFF 		bl	HAL_GetTick
 556 01e0 3861     		str	r0, [r7, #16]
 466:Drivers/STM32F1xx_HAL_Driver/Src/stm32f1xx_hal_rcc.c **** 
 467:Drivers/STM32F1xx_HAL_Driver/Src/stm32f1xx_hal_rcc.c ****         /* Wait till HSI is disabled */
 468:Drivers/STM32F1xx_HAL_Driver/Src/stm32f1xx_hal_rcc.c ****         while (__HAL_RCC_GET_FLAG(RCC_FLAG_HSIRDY) != RESET)
 557              		.loc 1 468 15
 558 01e2 08E0     		b	.L37
 559              	.L38:
 469:Drivers/STM32F1xx_HAL_Driver/Src/stm32f1xx_hal_rcc.c ****         {
 470:Drivers/STM32F1xx_HAL_Driver/Src/stm32f1xx_hal_rcc.c ****           if ((HAL_GetTick() - tickstart) > HSI_TIMEOUT_VALUE)
 560              		.loc 1 470 16
 561 01e4 FFF7FEFF 		bl	HAL_GetTick
 562 01e8 0246     		mov	r2, r0
 563              		.loc 1 470 30
 564 01ea 3B69     		ldr	r3, [r7, #16]
 565 01ec D31A     		subs	r3, r2, r3
 566              		.loc 1 470 14
 567 01ee 022B     		cmp	r3, #2
 568 01f0 01D9     		bls	.L37
 471:Drivers/STM32F1xx_HAL_Driver/Src/stm32f1xx_hal_rcc.c ****           {
 472:Drivers/STM32F1xx_HAL_Driver/Src/stm32f1xx_hal_rcc.c ****             return HAL_TIMEOUT;
 569              		.loc 1 472 20
 570 01f2 0323     		movs	r3, #3
 571 01f4 80E1     		b	.L16
 572              	.L37:
 468:Drivers/STM32F1xx_HAL_Driver/Src/stm32f1xx_hal_rcc.c ****         {
 573              		.loc 1 468 16
 574 01f6 1D4B     		ldr	r3, .L73
 575 01f8 1B68     		ldr	r3, [r3]
 576 01fa 03F00203 		and	r3, r3, #2
 468:Drivers/STM32F1xx_HAL_Driver/Src/stm32f1xx_hal_rcc.c ****         {
 577              		.loc 1 468 15
 578 01fe 002B     		cmp	r3, #0
 579 0200 F0D1     		bne	.L38
 580              	.L30:
 473:Drivers/STM32F1xx_HAL_Driver/Src/stm32f1xx_hal_rcc.c ****           }
 474:Drivers/STM32F1xx_HAL_Driver/Src/stm32f1xx_hal_rcc.c ****         }
 475:Drivers/STM32F1xx_HAL_Driver/Src/stm32f1xx_hal_rcc.c ****       }
 476:Drivers/STM32F1xx_HAL_Driver/Src/stm32f1xx_hal_rcc.c ****     }
 477:Drivers/STM32F1xx_HAL_Driver/Src/stm32f1xx_hal_rcc.c ****   }
 478:Drivers/STM32F1xx_HAL_Driver/Src/stm32f1xx_hal_rcc.c ****   /*------------------------------ LSI Configuration -------------------------*/
 479:Drivers/STM32F1xx_HAL_Driver/Src/stm32f1xx_hal_rcc.c ****   if (((RCC_OscInitStruct->OscillatorType) & RCC_OSCILLATORTYPE_LSI) == RCC_OSCILLATORTYPE_LSI)
 581              		.loc 1 479 26
 582 0202 7B68     		ldr	r3, [r7, #4]
 583 0204 1B68     		ldr	r3, [r3]
 584              		.loc 1 479 44
 585 0206 03F00803 		and	r3, r3, #8
 586              		.loc 1 479 6
 587 020a 002B     		cmp	r3, #0
 588 020c 3AD0     		beq	.L39
 480:Drivers/STM32F1xx_HAL_Driver/Src/stm32f1xx_hal_rcc.c ****   {
ARM GAS  C:\Users\57298\AppData\Local\Temp\ccq1CZ60.s 			page 20


 481:Drivers/STM32F1xx_HAL_Driver/Src/stm32f1xx_hal_rcc.c ****     /* Check the parameters */
 482:Drivers/STM32F1xx_HAL_Driver/Src/stm32f1xx_hal_rcc.c ****     assert_param(IS_RCC_LSI(RCC_OscInitStruct->LSIState));
 483:Drivers/STM32F1xx_HAL_Driver/Src/stm32f1xx_hal_rcc.c **** 
 484:Drivers/STM32F1xx_HAL_Driver/Src/stm32f1xx_hal_rcc.c ****     /* Check the LSI State */
 485:Drivers/STM32F1xx_HAL_Driver/Src/stm32f1xx_hal_rcc.c ****     if (RCC_OscInitStruct->LSIState != RCC_LSI_OFF)
 589              		.loc 1 485 26
 590 020e 7B68     		ldr	r3, [r7, #4]
 591 0210 9B69     		ldr	r3, [r3, #24]
 592              		.loc 1 485 8
 593 0212 002B     		cmp	r3, #0
 594 0214 19D0     		beq	.L40
 486:Drivers/STM32F1xx_HAL_Driver/Src/stm32f1xx_hal_rcc.c ****     {
 487:Drivers/STM32F1xx_HAL_Driver/Src/stm32f1xx_hal_rcc.c ****       /* Enable the Internal Low Speed oscillator (LSI). */
 488:Drivers/STM32F1xx_HAL_Driver/Src/stm32f1xx_hal_rcc.c ****       __HAL_RCC_LSI_ENABLE();
 595              		.loc 1 488 7
 596 0216 174B     		ldr	r3, .L73+8
 597 0218 0122     		movs	r2, #1
 598 021a 1A60     		str	r2, [r3]
 489:Drivers/STM32F1xx_HAL_Driver/Src/stm32f1xx_hal_rcc.c **** 
 490:Drivers/STM32F1xx_HAL_Driver/Src/stm32f1xx_hal_rcc.c ****       /* Get Start Tick */
 491:Drivers/STM32F1xx_HAL_Driver/Src/stm32f1xx_hal_rcc.c ****       tickstart = HAL_GetTick();
 599              		.loc 1 491 19
 600 021c FFF7FEFF 		bl	HAL_GetTick
 601 0220 3861     		str	r0, [r7, #16]
 492:Drivers/STM32F1xx_HAL_Driver/Src/stm32f1xx_hal_rcc.c **** 
 493:Drivers/STM32F1xx_HAL_Driver/Src/stm32f1xx_hal_rcc.c ****       /* Wait till LSI is ready */
 494:Drivers/STM32F1xx_HAL_Driver/Src/stm32f1xx_hal_rcc.c ****       while (__HAL_RCC_GET_FLAG(RCC_FLAG_LSIRDY) == RESET)
 602              		.loc 1 494 13
 603 0222 08E0     		b	.L41
 604              	.L42:
 495:Drivers/STM32F1xx_HAL_Driver/Src/stm32f1xx_hal_rcc.c ****       {
 496:Drivers/STM32F1xx_HAL_Driver/Src/stm32f1xx_hal_rcc.c ****         if ((HAL_GetTick() - tickstart) > LSI_TIMEOUT_VALUE)
 605              		.loc 1 496 14
 606 0224 FFF7FEFF 		bl	HAL_GetTick
 607 0228 0246     		mov	r2, r0
 608              		.loc 1 496 28
 609 022a 3B69     		ldr	r3, [r7, #16]
 610 022c D31A     		subs	r3, r2, r3
 611              		.loc 1 496 12
 612 022e 022B     		cmp	r3, #2
 613 0230 01D9     		bls	.L41
 497:Drivers/STM32F1xx_HAL_Driver/Src/stm32f1xx_hal_rcc.c ****         {
 498:Drivers/STM32F1xx_HAL_Driver/Src/stm32f1xx_hal_rcc.c ****           return HAL_TIMEOUT;
 614              		.loc 1 498 18
 615 0232 0323     		movs	r3, #3
 616 0234 60E1     		b	.L16
 617              	.L41:
 494:Drivers/STM32F1xx_HAL_Driver/Src/stm32f1xx_hal_rcc.c ****       {
 618              		.loc 1 494 14
 619 0236 0D4B     		ldr	r3, .L73
 620 0238 5B6A     		ldr	r3, [r3, #36]
 621 023a 03F00203 		and	r3, r3, #2
 494:Drivers/STM32F1xx_HAL_Driver/Src/stm32f1xx_hal_rcc.c ****       {
 622              		.loc 1 494 13
 623 023e 002B     		cmp	r3, #0
 624 0240 F0D0     		beq	.L42
 499:Drivers/STM32F1xx_HAL_Driver/Src/stm32f1xx_hal_rcc.c ****         }
ARM GAS  C:\Users\57298\AppData\Local\Temp\ccq1CZ60.s 			page 21


 500:Drivers/STM32F1xx_HAL_Driver/Src/stm32f1xx_hal_rcc.c ****       }
 501:Drivers/STM32F1xx_HAL_Driver/Src/stm32f1xx_hal_rcc.c ****       /*  To have a fully stabilized clock in the specified range, a software delay of 1ms
 502:Drivers/STM32F1xx_HAL_Driver/Src/stm32f1xx_hal_rcc.c ****           should be added.*/
 503:Drivers/STM32F1xx_HAL_Driver/Src/stm32f1xx_hal_rcc.c ****       RCC_Delay(1);
 625              		.loc 1 503 7
 626 0242 0120     		movs	r0, #1
 627 0244 FFF7FEFF 		bl	RCC_Delay
 628 0248 1CE0     		b	.L39
 629              	.L40:
 504:Drivers/STM32F1xx_HAL_Driver/Src/stm32f1xx_hal_rcc.c ****     }
 505:Drivers/STM32F1xx_HAL_Driver/Src/stm32f1xx_hal_rcc.c ****     else
 506:Drivers/STM32F1xx_HAL_Driver/Src/stm32f1xx_hal_rcc.c ****     {
 507:Drivers/STM32F1xx_HAL_Driver/Src/stm32f1xx_hal_rcc.c ****       /* Disable the Internal Low Speed oscillator (LSI). */
 508:Drivers/STM32F1xx_HAL_Driver/Src/stm32f1xx_hal_rcc.c ****       __HAL_RCC_LSI_DISABLE();
 630              		.loc 1 508 7
 631 024a 0A4B     		ldr	r3, .L73+8
 632 024c 0022     		movs	r2, #0
 633 024e 1A60     		str	r2, [r3]
 509:Drivers/STM32F1xx_HAL_Driver/Src/stm32f1xx_hal_rcc.c **** 
 510:Drivers/STM32F1xx_HAL_Driver/Src/stm32f1xx_hal_rcc.c ****       /* Get Start Tick */
 511:Drivers/STM32F1xx_HAL_Driver/Src/stm32f1xx_hal_rcc.c ****       tickstart = HAL_GetTick();
 634              		.loc 1 511 19
 635 0250 FFF7FEFF 		bl	HAL_GetTick
 636 0254 3861     		str	r0, [r7, #16]
 512:Drivers/STM32F1xx_HAL_Driver/Src/stm32f1xx_hal_rcc.c **** 
 513:Drivers/STM32F1xx_HAL_Driver/Src/stm32f1xx_hal_rcc.c ****       /* Wait till LSI is disabled */
 514:Drivers/STM32F1xx_HAL_Driver/Src/stm32f1xx_hal_rcc.c ****       while (__HAL_RCC_GET_FLAG(RCC_FLAG_LSIRDY) != RESET)
 637              		.loc 1 514 13
 638 0256 0FE0     		b	.L43
 639              	.L44:
 515:Drivers/STM32F1xx_HAL_Driver/Src/stm32f1xx_hal_rcc.c ****       {
 516:Drivers/STM32F1xx_HAL_Driver/Src/stm32f1xx_hal_rcc.c ****         if ((HAL_GetTick() - tickstart) > LSI_TIMEOUT_VALUE)
 640              		.loc 1 516 14
 641 0258 FFF7FEFF 		bl	HAL_GetTick
 642 025c 0246     		mov	r2, r0
 643              		.loc 1 516 28
 644 025e 3B69     		ldr	r3, [r7, #16]
 645 0260 D31A     		subs	r3, r2, r3
 646              		.loc 1 516 12
 647 0262 022B     		cmp	r3, #2
 648 0264 08D9     		bls	.L43
 517:Drivers/STM32F1xx_HAL_Driver/Src/stm32f1xx_hal_rcc.c ****         {
 518:Drivers/STM32F1xx_HAL_Driver/Src/stm32f1xx_hal_rcc.c ****           return HAL_TIMEOUT;
 649              		.loc 1 518 18
 650 0266 0323     		movs	r3, #3
 651 0268 46E1     		b	.L16
 652              	.L74:
 653 026a 00BF     		.align	2
 654              	.L73:
 655 026c 00100240 		.word	1073876992
 656 0270 00004242 		.word	1111621632
 657 0274 80044242 		.word	1111622784
 658              	.L43:
 514:Drivers/STM32F1xx_HAL_Driver/Src/stm32f1xx_hal_rcc.c ****       {
 659              		.loc 1 514 14
 660 0278 924B     		ldr	r3, .L75
 661 027a 5B6A     		ldr	r3, [r3, #36]
ARM GAS  C:\Users\57298\AppData\Local\Temp\ccq1CZ60.s 			page 22


 662 027c 03F00203 		and	r3, r3, #2
 514:Drivers/STM32F1xx_HAL_Driver/Src/stm32f1xx_hal_rcc.c ****       {
 663              		.loc 1 514 13
 664 0280 002B     		cmp	r3, #0
 665 0282 E9D1     		bne	.L44
 666              	.L39:
 519:Drivers/STM32F1xx_HAL_Driver/Src/stm32f1xx_hal_rcc.c ****         }
 520:Drivers/STM32F1xx_HAL_Driver/Src/stm32f1xx_hal_rcc.c ****       }
 521:Drivers/STM32F1xx_HAL_Driver/Src/stm32f1xx_hal_rcc.c ****     }
 522:Drivers/STM32F1xx_HAL_Driver/Src/stm32f1xx_hal_rcc.c ****   }
 523:Drivers/STM32F1xx_HAL_Driver/Src/stm32f1xx_hal_rcc.c ****   /*------------------------------ LSE Configuration -------------------------*/
 524:Drivers/STM32F1xx_HAL_Driver/Src/stm32f1xx_hal_rcc.c ****   if (((RCC_OscInitStruct->OscillatorType) & RCC_OSCILLATORTYPE_LSE) == RCC_OSCILLATORTYPE_LSE)
 667              		.loc 1 524 26
 668 0284 7B68     		ldr	r3, [r7, #4]
 669 0286 1B68     		ldr	r3, [r3]
 670              		.loc 1 524 44
 671 0288 03F00403 		and	r3, r3, #4
 672              		.loc 1 524 6
 673 028c 002B     		cmp	r3, #0
 674 028e 00F0A680 		beq	.L45
 675              	.LBB2:
 525:Drivers/STM32F1xx_HAL_Driver/Src/stm32f1xx_hal_rcc.c ****   {
 526:Drivers/STM32F1xx_HAL_Driver/Src/stm32f1xx_hal_rcc.c ****     FlagStatus       pwrclkchanged = RESET;
 676              		.loc 1 526 22
 677 0292 0023     		movs	r3, #0
 678 0294 FB75     		strb	r3, [r7, #23]
 527:Drivers/STM32F1xx_HAL_Driver/Src/stm32f1xx_hal_rcc.c **** 
 528:Drivers/STM32F1xx_HAL_Driver/Src/stm32f1xx_hal_rcc.c ****     /* Check the parameters */
 529:Drivers/STM32F1xx_HAL_Driver/Src/stm32f1xx_hal_rcc.c ****     assert_param(IS_RCC_LSE(RCC_OscInitStruct->LSEState));
 530:Drivers/STM32F1xx_HAL_Driver/Src/stm32f1xx_hal_rcc.c **** 
 531:Drivers/STM32F1xx_HAL_Driver/Src/stm32f1xx_hal_rcc.c ****     /* Update LSE configuration in Backup Domain control register    */
 532:Drivers/STM32F1xx_HAL_Driver/Src/stm32f1xx_hal_rcc.c ****     /* Requires to enable write access to Backup Domain of necessary */
 533:Drivers/STM32F1xx_HAL_Driver/Src/stm32f1xx_hal_rcc.c ****     if (__HAL_RCC_PWR_IS_CLK_DISABLED())
 679              		.loc 1 533 9
 680 0296 8B4B     		ldr	r3, .L75
 681 0298 DB69     		ldr	r3, [r3, #28]
 682 029a 03F08053 		and	r3, r3, #268435456
 683              		.loc 1 533 8
 684 029e 002B     		cmp	r3, #0
 685 02a0 0DD1     		bne	.L46
 686              	.LBB3:
 534:Drivers/STM32F1xx_HAL_Driver/Src/stm32f1xx_hal_rcc.c ****     {
 535:Drivers/STM32F1xx_HAL_Driver/Src/stm32f1xx_hal_rcc.c ****       __HAL_RCC_PWR_CLK_ENABLE();
 687              		.loc 1 535 7
 688 02a2 884B     		ldr	r3, .L75
 689 02a4 DB69     		ldr	r3, [r3, #28]
 690 02a6 874A     		ldr	r2, .L75
 691 02a8 43F08053 		orr	r3, r3, #268435456
 692 02ac D361     		str	r3, [r2, #28]
 693 02ae 854B     		ldr	r3, .L75
 694 02b0 DB69     		ldr	r3, [r3, #28]
 695 02b2 03F08053 		and	r3, r3, #268435456
 696 02b6 BB60     		str	r3, [r7, #8]
 697 02b8 BB68     		ldr	r3, [r7, #8]
 698              	.LBE3:
 536:Drivers/STM32F1xx_HAL_Driver/Src/stm32f1xx_hal_rcc.c ****       pwrclkchanged = SET;
 699              		.loc 1 536 21
ARM GAS  C:\Users\57298\AppData\Local\Temp\ccq1CZ60.s 			page 23


 700 02ba 0123     		movs	r3, #1
 701 02bc FB75     		strb	r3, [r7, #23]
 702              	.L46:
 537:Drivers/STM32F1xx_HAL_Driver/Src/stm32f1xx_hal_rcc.c ****     }
 538:Drivers/STM32F1xx_HAL_Driver/Src/stm32f1xx_hal_rcc.c **** 
 539:Drivers/STM32F1xx_HAL_Driver/Src/stm32f1xx_hal_rcc.c ****     if (HAL_IS_BIT_CLR(PWR->CR, PWR_CR_DBP))
 703              		.loc 1 539 9
 704 02be 824B     		ldr	r3, .L75+4
 705 02c0 1B68     		ldr	r3, [r3]
 706 02c2 03F48073 		and	r3, r3, #256
 707              		.loc 1 539 8
 708 02c6 002B     		cmp	r3, #0
 709 02c8 18D1     		bne	.L47
 540:Drivers/STM32F1xx_HAL_Driver/Src/stm32f1xx_hal_rcc.c ****     {
 541:Drivers/STM32F1xx_HAL_Driver/Src/stm32f1xx_hal_rcc.c ****       /* Enable write access to Backup domain */
 542:Drivers/STM32F1xx_HAL_Driver/Src/stm32f1xx_hal_rcc.c ****       SET_BIT(PWR->CR, PWR_CR_DBP);
 710              		.loc 1 542 7
 711 02ca 7F4B     		ldr	r3, .L75+4
 712 02cc 1B68     		ldr	r3, [r3]
 713 02ce 7E4A     		ldr	r2, .L75+4
 714 02d0 43F48073 		orr	r3, r3, #256
 715 02d4 1360     		str	r3, [r2]
 543:Drivers/STM32F1xx_HAL_Driver/Src/stm32f1xx_hal_rcc.c **** 
 544:Drivers/STM32F1xx_HAL_Driver/Src/stm32f1xx_hal_rcc.c ****       /* Wait for Backup domain Write protection disable */
 545:Drivers/STM32F1xx_HAL_Driver/Src/stm32f1xx_hal_rcc.c ****       tickstart = HAL_GetTick();
 716              		.loc 1 545 19
 717 02d6 FFF7FEFF 		bl	HAL_GetTick
 718 02da 3861     		str	r0, [r7, #16]
 546:Drivers/STM32F1xx_HAL_Driver/Src/stm32f1xx_hal_rcc.c **** 
 547:Drivers/STM32F1xx_HAL_Driver/Src/stm32f1xx_hal_rcc.c ****       while (HAL_IS_BIT_CLR(PWR->CR, PWR_CR_DBP))
 719              		.loc 1 547 13
 720 02dc 08E0     		b	.L48
 721              	.L49:
 548:Drivers/STM32F1xx_HAL_Driver/Src/stm32f1xx_hal_rcc.c ****       {
 549:Drivers/STM32F1xx_HAL_Driver/Src/stm32f1xx_hal_rcc.c ****         if ((HAL_GetTick() - tickstart) > RCC_DBP_TIMEOUT_VALUE)
 722              		.loc 1 549 14
 723 02de FFF7FEFF 		bl	HAL_GetTick
 724 02e2 0246     		mov	r2, r0
 725              		.loc 1 549 28
 726 02e4 3B69     		ldr	r3, [r7, #16]
 727 02e6 D31A     		subs	r3, r2, r3
 728              		.loc 1 549 12
 729 02e8 642B     		cmp	r3, #100
 730 02ea 01D9     		bls	.L48
 550:Drivers/STM32F1xx_HAL_Driver/Src/stm32f1xx_hal_rcc.c ****         {
 551:Drivers/STM32F1xx_HAL_Driver/Src/stm32f1xx_hal_rcc.c ****           return HAL_TIMEOUT;
 731              		.loc 1 551 18
 732 02ec 0323     		movs	r3, #3
 733 02ee 03E1     		b	.L16
 734              	.L48:
 547:Drivers/STM32F1xx_HAL_Driver/Src/stm32f1xx_hal_rcc.c ****       {
 735              		.loc 1 547 14
 736 02f0 754B     		ldr	r3, .L75+4
 737 02f2 1B68     		ldr	r3, [r3]
 738 02f4 03F48073 		and	r3, r3, #256
 547:Drivers/STM32F1xx_HAL_Driver/Src/stm32f1xx_hal_rcc.c ****       {
 739              		.loc 1 547 13
ARM GAS  C:\Users\57298\AppData\Local\Temp\ccq1CZ60.s 			page 24


 740 02f8 002B     		cmp	r3, #0
 741 02fa F0D0     		beq	.L49
 742              	.L47:
 552:Drivers/STM32F1xx_HAL_Driver/Src/stm32f1xx_hal_rcc.c ****         }
 553:Drivers/STM32F1xx_HAL_Driver/Src/stm32f1xx_hal_rcc.c ****       }
 554:Drivers/STM32F1xx_HAL_Driver/Src/stm32f1xx_hal_rcc.c ****     }
 555:Drivers/STM32F1xx_HAL_Driver/Src/stm32f1xx_hal_rcc.c **** 
 556:Drivers/STM32F1xx_HAL_Driver/Src/stm32f1xx_hal_rcc.c ****     /* Set the new LSE configuration -----------------------------------------*/
 557:Drivers/STM32F1xx_HAL_Driver/Src/stm32f1xx_hal_rcc.c ****     __HAL_RCC_LSE_CONFIG(RCC_OscInitStruct->LSEState);
 743              		.loc 1 557 5
 744 02fc 7B68     		ldr	r3, [r7, #4]
 745 02fe DB68     		ldr	r3, [r3, #12]
 746 0300 012B     		cmp	r3, #1
 747 0302 06D1     		bne	.L50
 748              		.loc 1 557 5 is_stmt 0 discriminator 1
 749 0304 6F4B     		ldr	r3, .L75
 750 0306 1B6A     		ldr	r3, [r3, #32]
 751 0308 6E4A     		ldr	r2, .L75
 752 030a 43F00103 		orr	r3, r3, #1
 753 030e 1362     		str	r3, [r2, #32]
 754 0310 2DE0     		b	.L51
 755              	.L50:
 756              		.loc 1 557 5 discriminator 2
 757 0312 7B68     		ldr	r3, [r7, #4]
 758 0314 DB68     		ldr	r3, [r3, #12]
 759 0316 002B     		cmp	r3, #0
 760 0318 0CD1     		bne	.L52
 761              		.loc 1 557 5 discriminator 3
 762 031a 6A4B     		ldr	r3, .L75
 763 031c 1B6A     		ldr	r3, [r3, #32]
 764 031e 694A     		ldr	r2, .L75
 765 0320 23F00103 		bic	r3, r3, #1
 766 0324 1362     		str	r3, [r2, #32]
 767 0326 674B     		ldr	r3, .L75
 768 0328 1B6A     		ldr	r3, [r3, #32]
 769 032a 664A     		ldr	r2, .L75
 770 032c 23F00403 		bic	r3, r3, #4
 771 0330 1362     		str	r3, [r2, #32]
 772 0332 1CE0     		b	.L51
 773              	.L52:
 774              		.loc 1 557 5 discriminator 4
 775 0334 7B68     		ldr	r3, [r7, #4]
 776 0336 DB68     		ldr	r3, [r3, #12]
 777 0338 052B     		cmp	r3, #5
 778 033a 0CD1     		bne	.L53
 779              		.loc 1 557 5 discriminator 5
 780 033c 614B     		ldr	r3, .L75
 781 033e 1B6A     		ldr	r3, [r3, #32]
 782 0340 604A     		ldr	r2, .L75
 783 0342 43F00403 		orr	r3, r3, #4
 784 0346 1362     		str	r3, [r2, #32]
 785 0348 5E4B     		ldr	r3, .L75
 786 034a 1B6A     		ldr	r3, [r3, #32]
 787 034c 5D4A     		ldr	r2, .L75
 788 034e 43F00103 		orr	r3, r3, #1
 789 0352 1362     		str	r3, [r2, #32]
 790 0354 0BE0     		b	.L51
ARM GAS  C:\Users\57298\AppData\Local\Temp\ccq1CZ60.s 			page 25


 791              	.L53:
 792              		.loc 1 557 5 discriminator 6
 793 0356 5B4B     		ldr	r3, .L75
 794 0358 1B6A     		ldr	r3, [r3, #32]
 795 035a 5A4A     		ldr	r2, .L75
 796 035c 23F00103 		bic	r3, r3, #1
 797 0360 1362     		str	r3, [r2, #32]
 798 0362 584B     		ldr	r3, .L75
 799 0364 1B6A     		ldr	r3, [r3, #32]
 800 0366 574A     		ldr	r2, .L75
 801 0368 23F00403 		bic	r3, r3, #4
 802 036c 1362     		str	r3, [r2, #32]
 803              	.L51:
 558:Drivers/STM32F1xx_HAL_Driver/Src/stm32f1xx_hal_rcc.c ****     /* Check the LSE State */
 559:Drivers/STM32F1xx_HAL_Driver/Src/stm32f1xx_hal_rcc.c ****     if (RCC_OscInitStruct->LSEState != RCC_LSE_OFF)
 804              		.loc 1 559 26 is_stmt 1
 805 036e 7B68     		ldr	r3, [r7, #4]
 806 0370 DB68     		ldr	r3, [r3, #12]
 807              		.loc 1 559 8
 808 0372 002B     		cmp	r3, #0
 809 0374 15D0     		beq	.L54
 560:Drivers/STM32F1xx_HAL_Driver/Src/stm32f1xx_hal_rcc.c ****     {
 561:Drivers/STM32F1xx_HAL_Driver/Src/stm32f1xx_hal_rcc.c ****       /* Get Start Tick */
 562:Drivers/STM32F1xx_HAL_Driver/Src/stm32f1xx_hal_rcc.c ****       tickstart = HAL_GetTick();
 810              		.loc 1 562 19
 811 0376 FFF7FEFF 		bl	HAL_GetTick
 812 037a 3861     		str	r0, [r7, #16]
 563:Drivers/STM32F1xx_HAL_Driver/Src/stm32f1xx_hal_rcc.c **** 
 564:Drivers/STM32F1xx_HAL_Driver/Src/stm32f1xx_hal_rcc.c ****       /* Wait till LSE is ready */
 565:Drivers/STM32F1xx_HAL_Driver/Src/stm32f1xx_hal_rcc.c ****       while (__HAL_RCC_GET_FLAG(RCC_FLAG_LSERDY) == RESET)
 813              		.loc 1 565 13
 814 037c 0AE0     		b	.L55
 815              	.L56:
 566:Drivers/STM32F1xx_HAL_Driver/Src/stm32f1xx_hal_rcc.c ****       {
 567:Drivers/STM32F1xx_HAL_Driver/Src/stm32f1xx_hal_rcc.c ****         if ((HAL_GetTick() - tickstart) > RCC_LSE_TIMEOUT_VALUE)
 816              		.loc 1 567 14
 817 037e FFF7FEFF 		bl	HAL_GetTick
 818 0382 0246     		mov	r2, r0
 819              		.loc 1 567 28
 820 0384 3B69     		ldr	r3, [r7, #16]
 821 0386 D31A     		subs	r3, r2, r3
 822              		.loc 1 567 12
 823 0388 41F28832 		movw	r2, #5000
 824 038c 9342     		cmp	r3, r2
 825 038e 01D9     		bls	.L55
 568:Drivers/STM32F1xx_HAL_Driver/Src/stm32f1xx_hal_rcc.c ****         {
 569:Drivers/STM32F1xx_HAL_Driver/Src/stm32f1xx_hal_rcc.c ****           return HAL_TIMEOUT;
 826              		.loc 1 569 18
 827 0390 0323     		movs	r3, #3
 828 0392 B1E0     		b	.L16
 829              	.L55:
 565:Drivers/STM32F1xx_HAL_Driver/Src/stm32f1xx_hal_rcc.c ****       {
 830              		.loc 1 565 14
 831 0394 4B4B     		ldr	r3, .L75
 832 0396 1B6A     		ldr	r3, [r3, #32]
 833 0398 03F00203 		and	r3, r3, #2
 565:Drivers/STM32F1xx_HAL_Driver/Src/stm32f1xx_hal_rcc.c ****       {
ARM GAS  C:\Users\57298\AppData\Local\Temp\ccq1CZ60.s 			page 26


 834              		.loc 1 565 13
 835 039c 002B     		cmp	r3, #0
 836 039e EED0     		beq	.L56
 837 03a0 14E0     		b	.L57
 838              	.L54:
 570:Drivers/STM32F1xx_HAL_Driver/Src/stm32f1xx_hal_rcc.c ****         }
 571:Drivers/STM32F1xx_HAL_Driver/Src/stm32f1xx_hal_rcc.c ****       }
 572:Drivers/STM32F1xx_HAL_Driver/Src/stm32f1xx_hal_rcc.c ****     }
 573:Drivers/STM32F1xx_HAL_Driver/Src/stm32f1xx_hal_rcc.c ****     else
 574:Drivers/STM32F1xx_HAL_Driver/Src/stm32f1xx_hal_rcc.c ****     {
 575:Drivers/STM32F1xx_HAL_Driver/Src/stm32f1xx_hal_rcc.c ****       /* Get Start Tick */
 576:Drivers/STM32F1xx_HAL_Driver/Src/stm32f1xx_hal_rcc.c ****       tickstart = HAL_GetTick();
 839              		.loc 1 576 19
 840 03a2 FFF7FEFF 		bl	HAL_GetTick
 841 03a6 3861     		str	r0, [r7, #16]
 577:Drivers/STM32F1xx_HAL_Driver/Src/stm32f1xx_hal_rcc.c **** 
 578:Drivers/STM32F1xx_HAL_Driver/Src/stm32f1xx_hal_rcc.c ****       /* Wait till LSE is disabled */
 579:Drivers/STM32F1xx_HAL_Driver/Src/stm32f1xx_hal_rcc.c ****       while (__HAL_RCC_GET_FLAG(RCC_FLAG_LSERDY) != RESET)
 842              		.loc 1 579 13
 843 03a8 0AE0     		b	.L58
 844              	.L59:
 580:Drivers/STM32F1xx_HAL_Driver/Src/stm32f1xx_hal_rcc.c ****       {
 581:Drivers/STM32F1xx_HAL_Driver/Src/stm32f1xx_hal_rcc.c ****         if ((HAL_GetTick() - tickstart) > RCC_LSE_TIMEOUT_VALUE)
 845              		.loc 1 581 14
 846 03aa FFF7FEFF 		bl	HAL_GetTick
 847 03ae 0246     		mov	r2, r0
 848              		.loc 1 581 28
 849 03b0 3B69     		ldr	r3, [r7, #16]
 850 03b2 D31A     		subs	r3, r2, r3
 851              		.loc 1 581 12
 852 03b4 41F28832 		movw	r2, #5000
 853 03b8 9342     		cmp	r3, r2
 854 03ba 01D9     		bls	.L58
 582:Drivers/STM32F1xx_HAL_Driver/Src/stm32f1xx_hal_rcc.c ****         {
 583:Drivers/STM32F1xx_HAL_Driver/Src/stm32f1xx_hal_rcc.c ****           return HAL_TIMEOUT;
 855              		.loc 1 583 18
 856 03bc 0323     		movs	r3, #3
 857 03be 9BE0     		b	.L16
 858              	.L58:
 579:Drivers/STM32F1xx_HAL_Driver/Src/stm32f1xx_hal_rcc.c ****       {
 859              		.loc 1 579 14
 860 03c0 404B     		ldr	r3, .L75
 861 03c2 1B6A     		ldr	r3, [r3, #32]
 862 03c4 03F00203 		and	r3, r3, #2
 579:Drivers/STM32F1xx_HAL_Driver/Src/stm32f1xx_hal_rcc.c ****       {
 863              		.loc 1 579 13
 864 03c8 002B     		cmp	r3, #0
 865 03ca EED1     		bne	.L59
 866              	.L57:
 584:Drivers/STM32F1xx_HAL_Driver/Src/stm32f1xx_hal_rcc.c ****         }
 585:Drivers/STM32F1xx_HAL_Driver/Src/stm32f1xx_hal_rcc.c ****       }
 586:Drivers/STM32F1xx_HAL_Driver/Src/stm32f1xx_hal_rcc.c ****     }
 587:Drivers/STM32F1xx_HAL_Driver/Src/stm32f1xx_hal_rcc.c **** 
 588:Drivers/STM32F1xx_HAL_Driver/Src/stm32f1xx_hal_rcc.c ****     /* Require to disable power clock if necessary */
 589:Drivers/STM32F1xx_HAL_Driver/Src/stm32f1xx_hal_rcc.c ****     if (pwrclkchanged == SET)
 867              		.loc 1 589 8
 868 03cc FB7D     		ldrb	r3, [r7, #23]	@ zero_extendqisi2
ARM GAS  C:\Users\57298\AppData\Local\Temp\ccq1CZ60.s 			page 27


 869 03ce 012B     		cmp	r3, #1
 870 03d0 05D1     		bne	.L45
 590:Drivers/STM32F1xx_HAL_Driver/Src/stm32f1xx_hal_rcc.c ****     {
 591:Drivers/STM32F1xx_HAL_Driver/Src/stm32f1xx_hal_rcc.c ****       __HAL_RCC_PWR_CLK_DISABLE();
 871              		.loc 1 591 7
 872 03d2 3C4B     		ldr	r3, .L75
 873 03d4 DB69     		ldr	r3, [r3, #28]
 874 03d6 3B4A     		ldr	r2, .L75
 875 03d8 23F08053 		bic	r3, r3, #268435456
 876 03dc D361     		str	r3, [r2, #28]
 877              	.L45:
 878              	.LBE2:
 592:Drivers/STM32F1xx_HAL_Driver/Src/stm32f1xx_hal_rcc.c ****     }
 593:Drivers/STM32F1xx_HAL_Driver/Src/stm32f1xx_hal_rcc.c ****   }
 594:Drivers/STM32F1xx_HAL_Driver/Src/stm32f1xx_hal_rcc.c **** 
 595:Drivers/STM32F1xx_HAL_Driver/Src/stm32f1xx_hal_rcc.c **** #if defined(RCC_CR_PLL2ON)
 596:Drivers/STM32F1xx_HAL_Driver/Src/stm32f1xx_hal_rcc.c ****   /*-------------------------------- PLL2 Configuration -----------------------*/
 597:Drivers/STM32F1xx_HAL_Driver/Src/stm32f1xx_hal_rcc.c ****   /* Check the parameters */
 598:Drivers/STM32F1xx_HAL_Driver/Src/stm32f1xx_hal_rcc.c ****   assert_param(IS_RCC_PLL2(RCC_OscInitStruct->PLL2.PLL2State));
 599:Drivers/STM32F1xx_HAL_Driver/Src/stm32f1xx_hal_rcc.c ****   if ((RCC_OscInitStruct->PLL2.PLL2State) != RCC_PLL2_NONE)
 600:Drivers/STM32F1xx_HAL_Driver/Src/stm32f1xx_hal_rcc.c ****   {
 601:Drivers/STM32F1xx_HAL_Driver/Src/stm32f1xx_hal_rcc.c ****     /* This bit can not be cleared if the PLL2 clock is used indirectly as system
 602:Drivers/STM32F1xx_HAL_Driver/Src/stm32f1xx_hal_rcc.c ****       clock (i.e. it is used as PLL clock entry that is used as system clock). */
 603:Drivers/STM32F1xx_HAL_Driver/Src/stm32f1xx_hal_rcc.c ****     if ((__HAL_RCC_GET_PLL_OSCSOURCE() == RCC_PLLSOURCE_HSE) && \
 604:Drivers/STM32F1xx_HAL_Driver/Src/stm32f1xx_hal_rcc.c ****         (__HAL_RCC_GET_SYSCLK_SOURCE() == RCC_SYSCLKSOURCE_STATUS_PLLCLK) && \
 605:Drivers/STM32F1xx_HAL_Driver/Src/stm32f1xx_hal_rcc.c ****         ((READ_BIT(RCC->CFGR2, RCC_CFGR2_PREDIV1SRC)) == RCC_CFGR2_PREDIV1SRC_PLL2))
 606:Drivers/STM32F1xx_HAL_Driver/Src/stm32f1xx_hal_rcc.c ****     {
 607:Drivers/STM32F1xx_HAL_Driver/Src/stm32f1xx_hal_rcc.c ****       return HAL_ERROR;
 608:Drivers/STM32F1xx_HAL_Driver/Src/stm32f1xx_hal_rcc.c ****     }
 609:Drivers/STM32F1xx_HAL_Driver/Src/stm32f1xx_hal_rcc.c ****     else
 610:Drivers/STM32F1xx_HAL_Driver/Src/stm32f1xx_hal_rcc.c ****     {
 611:Drivers/STM32F1xx_HAL_Driver/Src/stm32f1xx_hal_rcc.c ****       if ((RCC_OscInitStruct->PLL2.PLL2State) == RCC_PLL2_ON)
 612:Drivers/STM32F1xx_HAL_Driver/Src/stm32f1xx_hal_rcc.c ****       {
 613:Drivers/STM32F1xx_HAL_Driver/Src/stm32f1xx_hal_rcc.c ****         /* Check the parameters */
 614:Drivers/STM32F1xx_HAL_Driver/Src/stm32f1xx_hal_rcc.c ****         assert_param(IS_RCC_PLL2_MUL(RCC_OscInitStruct->PLL2.PLL2MUL));
 615:Drivers/STM32F1xx_HAL_Driver/Src/stm32f1xx_hal_rcc.c ****         assert_param(IS_RCC_HSE_PREDIV2(RCC_OscInitStruct->PLL2.HSEPrediv2Value));
 616:Drivers/STM32F1xx_HAL_Driver/Src/stm32f1xx_hal_rcc.c **** 
 617:Drivers/STM32F1xx_HAL_Driver/Src/stm32f1xx_hal_rcc.c ****         /* Prediv2 can be written only when the PLLI2S is disabled. */
 618:Drivers/STM32F1xx_HAL_Driver/Src/stm32f1xx_hal_rcc.c ****         /* Return an error only if new value is different from the programmed value */
 619:Drivers/STM32F1xx_HAL_Driver/Src/stm32f1xx_hal_rcc.c ****         if (HAL_IS_BIT_SET(RCC->CR, RCC_CR_PLL3ON) && \
 620:Drivers/STM32F1xx_HAL_Driver/Src/stm32f1xx_hal_rcc.c ****             (__HAL_RCC_HSE_GET_PREDIV2() != RCC_OscInitStruct->PLL2.HSEPrediv2Value))
 621:Drivers/STM32F1xx_HAL_Driver/Src/stm32f1xx_hal_rcc.c ****         {
 622:Drivers/STM32F1xx_HAL_Driver/Src/stm32f1xx_hal_rcc.c ****           return HAL_ERROR;
 623:Drivers/STM32F1xx_HAL_Driver/Src/stm32f1xx_hal_rcc.c ****         }
 624:Drivers/STM32F1xx_HAL_Driver/Src/stm32f1xx_hal_rcc.c **** 
 625:Drivers/STM32F1xx_HAL_Driver/Src/stm32f1xx_hal_rcc.c ****         /* Disable the main PLL2. */
 626:Drivers/STM32F1xx_HAL_Driver/Src/stm32f1xx_hal_rcc.c ****         __HAL_RCC_PLL2_DISABLE();
 627:Drivers/STM32F1xx_HAL_Driver/Src/stm32f1xx_hal_rcc.c **** 
 628:Drivers/STM32F1xx_HAL_Driver/Src/stm32f1xx_hal_rcc.c ****         /* Get Start Tick */
 629:Drivers/STM32F1xx_HAL_Driver/Src/stm32f1xx_hal_rcc.c ****         tickstart = HAL_GetTick();
 630:Drivers/STM32F1xx_HAL_Driver/Src/stm32f1xx_hal_rcc.c **** 
 631:Drivers/STM32F1xx_HAL_Driver/Src/stm32f1xx_hal_rcc.c ****         /* Wait till PLL2 is disabled */
 632:Drivers/STM32F1xx_HAL_Driver/Src/stm32f1xx_hal_rcc.c ****         while (__HAL_RCC_GET_FLAG(RCC_FLAG_PLL2RDY) != RESET)
 633:Drivers/STM32F1xx_HAL_Driver/Src/stm32f1xx_hal_rcc.c ****         {
 634:Drivers/STM32F1xx_HAL_Driver/Src/stm32f1xx_hal_rcc.c ****           if ((HAL_GetTick() - tickstart) > PLL2_TIMEOUT_VALUE)
 635:Drivers/STM32F1xx_HAL_Driver/Src/stm32f1xx_hal_rcc.c ****           {
 636:Drivers/STM32F1xx_HAL_Driver/Src/stm32f1xx_hal_rcc.c ****             return HAL_TIMEOUT;
ARM GAS  C:\Users\57298\AppData\Local\Temp\ccq1CZ60.s 			page 28


 637:Drivers/STM32F1xx_HAL_Driver/Src/stm32f1xx_hal_rcc.c ****           }
 638:Drivers/STM32F1xx_HAL_Driver/Src/stm32f1xx_hal_rcc.c ****         }
 639:Drivers/STM32F1xx_HAL_Driver/Src/stm32f1xx_hal_rcc.c **** 
 640:Drivers/STM32F1xx_HAL_Driver/Src/stm32f1xx_hal_rcc.c ****         /* Configure the HSE prediv2 factor --------------------------------*/
 641:Drivers/STM32F1xx_HAL_Driver/Src/stm32f1xx_hal_rcc.c ****         __HAL_RCC_HSE_PREDIV2_CONFIG(RCC_OscInitStruct->PLL2.HSEPrediv2Value);
 642:Drivers/STM32F1xx_HAL_Driver/Src/stm32f1xx_hal_rcc.c **** 
 643:Drivers/STM32F1xx_HAL_Driver/Src/stm32f1xx_hal_rcc.c ****         /* Configure the main PLL2 multiplication factors. */
 644:Drivers/STM32F1xx_HAL_Driver/Src/stm32f1xx_hal_rcc.c ****         __HAL_RCC_PLL2_CONFIG(RCC_OscInitStruct->PLL2.PLL2MUL);
 645:Drivers/STM32F1xx_HAL_Driver/Src/stm32f1xx_hal_rcc.c **** 
 646:Drivers/STM32F1xx_HAL_Driver/Src/stm32f1xx_hal_rcc.c ****         /* Enable the main PLL2. */
 647:Drivers/STM32F1xx_HAL_Driver/Src/stm32f1xx_hal_rcc.c ****         __HAL_RCC_PLL2_ENABLE();
 648:Drivers/STM32F1xx_HAL_Driver/Src/stm32f1xx_hal_rcc.c **** 
 649:Drivers/STM32F1xx_HAL_Driver/Src/stm32f1xx_hal_rcc.c ****         /* Get Start Tick */
 650:Drivers/STM32F1xx_HAL_Driver/Src/stm32f1xx_hal_rcc.c ****         tickstart = HAL_GetTick();
 651:Drivers/STM32F1xx_HAL_Driver/Src/stm32f1xx_hal_rcc.c **** 
 652:Drivers/STM32F1xx_HAL_Driver/Src/stm32f1xx_hal_rcc.c ****         /* Wait till PLL2 is ready */
 653:Drivers/STM32F1xx_HAL_Driver/Src/stm32f1xx_hal_rcc.c ****         while (__HAL_RCC_GET_FLAG(RCC_FLAG_PLL2RDY)  == RESET)
 654:Drivers/STM32F1xx_HAL_Driver/Src/stm32f1xx_hal_rcc.c ****         {
 655:Drivers/STM32F1xx_HAL_Driver/Src/stm32f1xx_hal_rcc.c ****           if ((HAL_GetTick() - tickstart) > PLL2_TIMEOUT_VALUE)
 656:Drivers/STM32F1xx_HAL_Driver/Src/stm32f1xx_hal_rcc.c ****           {
 657:Drivers/STM32F1xx_HAL_Driver/Src/stm32f1xx_hal_rcc.c ****             return HAL_TIMEOUT;
 658:Drivers/STM32F1xx_HAL_Driver/Src/stm32f1xx_hal_rcc.c ****           }
 659:Drivers/STM32F1xx_HAL_Driver/Src/stm32f1xx_hal_rcc.c ****         }
 660:Drivers/STM32F1xx_HAL_Driver/Src/stm32f1xx_hal_rcc.c ****       }
 661:Drivers/STM32F1xx_HAL_Driver/Src/stm32f1xx_hal_rcc.c ****       else
 662:Drivers/STM32F1xx_HAL_Driver/Src/stm32f1xx_hal_rcc.c ****       {
 663:Drivers/STM32F1xx_HAL_Driver/Src/stm32f1xx_hal_rcc.c ****         /* Set PREDIV1 source to HSE */
 664:Drivers/STM32F1xx_HAL_Driver/Src/stm32f1xx_hal_rcc.c ****         CLEAR_BIT(RCC->CFGR2, RCC_CFGR2_PREDIV1SRC);
 665:Drivers/STM32F1xx_HAL_Driver/Src/stm32f1xx_hal_rcc.c **** 
 666:Drivers/STM32F1xx_HAL_Driver/Src/stm32f1xx_hal_rcc.c ****         /* Disable the main PLL2. */
 667:Drivers/STM32F1xx_HAL_Driver/Src/stm32f1xx_hal_rcc.c ****         __HAL_RCC_PLL2_DISABLE();
 668:Drivers/STM32F1xx_HAL_Driver/Src/stm32f1xx_hal_rcc.c **** 
 669:Drivers/STM32F1xx_HAL_Driver/Src/stm32f1xx_hal_rcc.c ****         /* Get Start Tick */
 670:Drivers/STM32F1xx_HAL_Driver/Src/stm32f1xx_hal_rcc.c ****         tickstart = HAL_GetTick();
 671:Drivers/STM32F1xx_HAL_Driver/Src/stm32f1xx_hal_rcc.c **** 
 672:Drivers/STM32F1xx_HAL_Driver/Src/stm32f1xx_hal_rcc.c ****         /* Wait till PLL2 is disabled */
 673:Drivers/STM32F1xx_HAL_Driver/Src/stm32f1xx_hal_rcc.c ****         while (__HAL_RCC_GET_FLAG(RCC_FLAG_PLL2RDY)  != RESET)
 674:Drivers/STM32F1xx_HAL_Driver/Src/stm32f1xx_hal_rcc.c ****         {
 675:Drivers/STM32F1xx_HAL_Driver/Src/stm32f1xx_hal_rcc.c ****           if ((HAL_GetTick() - tickstart) > PLL2_TIMEOUT_VALUE)
 676:Drivers/STM32F1xx_HAL_Driver/Src/stm32f1xx_hal_rcc.c ****           {
 677:Drivers/STM32F1xx_HAL_Driver/Src/stm32f1xx_hal_rcc.c ****             return HAL_TIMEOUT;
 678:Drivers/STM32F1xx_HAL_Driver/Src/stm32f1xx_hal_rcc.c ****           }
 679:Drivers/STM32F1xx_HAL_Driver/Src/stm32f1xx_hal_rcc.c ****         }
 680:Drivers/STM32F1xx_HAL_Driver/Src/stm32f1xx_hal_rcc.c ****       }
 681:Drivers/STM32F1xx_HAL_Driver/Src/stm32f1xx_hal_rcc.c ****     }
 682:Drivers/STM32F1xx_HAL_Driver/Src/stm32f1xx_hal_rcc.c ****   }
 683:Drivers/STM32F1xx_HAL_Driver/Src/stm32f1xx_hal_rcc.c **** 
 684:Drivers/STM32F1xx_HAL_Driver/Src/stm32f1xx_hal_rcc.c **** #endif /* RCC_CR_PLL2ON */
 685:Drivers/STM32F1xx_HAL_Driver/Src/stm32f1xx_hal_rcc.c ****   /*-------------------------------- PLL Configuration -----------------------*/
 686:Drivers/STM32F1xx_HAL_Driver/Src/stm32f1xx_hal_rcc.c ****   /* Check the parameters */
 687:Drivers/STM32F1xx_HAL_Driver/Src/stm32f1xx_hal_rcc.c ****   assert_param(IS_RCC_PLL(RCC_OscInitStruct->PLL.PLLState));
 688:Drivers/STM32F1xx_HAL_Driver/Src/stm32f1xx_hal_rcc.c ****   if ((RCC_OscInitStruct->PLL.PLLState) != RCC_PLL_NONE)
 879              		.loc 1 688 30
 880 03de 7B68     		ldr	r3, [r7, #4]
 881 03e0 DB69     		ldr	r3, [r3, #28]
 882              		.loc 1 688 6
 883 03e2 002B     		cmp	r3, #0
ARM GAS  C:\Users\57298\AppData\Local\Temp\ccq1CZ60.s 			page 29


 884 03e4 00F08780 		beq	.L60
 689:Drivers/STM32F1xx_HAL_Driver/Src/stm32f1xx_hal_rcc.c ****   {
 690:Drivers/STM32F1xx_HAL_Driver/Src/stm32f1xx_hal_rcc.c ****     /* Check if the PLL is used as system clock or not */
 691:Drivers/STM32F1xx_HAL_Driver/Src/stm32f1xx_hal_rcc.c ****     if (__HAL_RCC_GET_SYSCLK_SOURCE() != RCC_SYSCLKSOURCE_STATUS_PLLCLK)
 885              		.loc 1 691 9
 886 03e8 364B     		ldr	r3, .L75
 887 03ea 5B68     		ldr	r3, [r3, #4]
 888 03ec 03F00C03 		and	r3, r3, #12
 889              		.loc 1 691 8
 890 03f0 082B     		cmp	r3, #8
 891 03f2 61D0     		beq	.L61
 692:Drivers/STM32F1xx_HAL_Driver/Src/stm32f1xx_hal_rcc.c ****     {
 693:Drivers/STM32F1xx_HAL_Driver/Src/stm32f1xx_hal_rcc.c ****       if ((RCC_OscInitStruct->PLL.PLLState) == RCC_PLL_ON)
 892              		.loc 1 693 34
 893 03f4 7B68     		ldr	r3, [r7, #4]
 894 03f6 DB69     		ldr	r3, [r3, #28]
 895              		.loc 1 693 10
 896 03f8 022B     		cmp	r3, #2
 897 03fa 46D1     		bne	.L62
 694:Drivers/STM32F1xx_HAL_Driver/Src/stm32f1xx_hal_rcc.c ****       {
 695:Drivers/STM32F1xx_HAL_Driver/Src/stm32f1xx_hal_rcc.c ****         /* Check the parameters */
 696:Drivers/STM32F1xx_HAL_Driver/Src/stm32f1xx_hal_rcc.c ****         assert_param(IS_RCC_PLLSOURCE(RCC_OscInitStruct->PLL.PLLSource));
 697:Drivers/STM32F1xx_HAL_Driver/Src/stm32f1xx_hal_rcc.c ****         assert_param(IS_RCC_PLL_MUL(RCC_OscInitStruct->PLL.PLLMUL));
 698:Drivers/STM32F1xx_HAL_Driver/Src/stm32f1xx_hal_rcc.c **** 
 699:Drivers/STM32F1xx_HAL_Driver/Src/stm32f1xx_hal_rcc.c ****         /* Disable the main PLL. */
 700:Drivers/STM32F1xx_HAL_Driver/Src/stm32f1xx_hal_rcc.c ****         __HAL_RCC_PLL_DISABLE();
 898              		.loc 1 700 9
 899 03fc 334B     		ldr	r3, .L75+8
 900 03fe 0022     		movs	r2, #0
 901 0400 1A60     		str	r2, [r3]
 701:Drivers/STM32F1xx_HAL_Driver/Src/stm32f1xx_hal_rcc.c **** 
 702:Drivers/STM32F1xx_HAL_Driver/Src/stm32f1xx_hal_rcc.c ****         /* Get Start Tick */
 703:Drivers/STM32F1xx_HAL_Driver/Src/stm32f1xx_hal_rcc.c ****         tickstart = HAL_GetTick();
 902              		.loc 1 703 21
 903 0402 FFF7FEFF 		bl	HAL_GetTick
 904 0406 3861     		str	r0, [r7, #16]
 704:Drivers/STM32F1xx_HAL_Driver/Src/stm32f1xx_hal_rcc.c **** 
 705:Drivers/STM32F1xx_HAL_Driver/Src/stm32f1xx_hal_rcc.c ****         /* Wait till PLL is disabled */
 706:Drivers/STM32F1xx_HAL_Driver/Src/stm32f1xx_hal_rcc.c ****         while (__HAL_RCC_GET_FLAG(RCC_FLAG_PLLRDY)  != RESET)
 905              		.loc 1 706 15
 906 0408 08E0     		b	.L63
 907              	.L64:
 707:Drivers/STM32F1xx_HAL_Driver/Src/stm32f1xx_hal_rcc.c ****         {
 708:Drivers/STM32F1xx_HAL_Driver/Src/stm32f1xx_hal_rcc.c ****           if ((HAL_GetTick() - tickstart) > PLL_TIMEOUT_VALUE)
 908              		.loc 1 708 16
 909 040a FFF7FEFF 		bl	HAL_GetTick
 910 040e 0246     		mov	r2, r0
 911              		.loc 1 708 30
 912 0410 3B69     		ldr	r3, [r7, #16]
 913 0412 D31A     		subs	r3, r2, r3
 914              		.loc 1 708 14
 915 0414 022B     		cmp	r3, #2
 916 0416 01D9     		bls	.L63
 709:Drivers/STM32F1xx_HAL_Driver/Src/stm32f1xx_hal_rcc.c ****           {
 710:Drivers/STM32F1xx_HAL_Driver/Src/stm32f1xx_hal_rcc.c ****             return HAL_TIMEOUT;
 917              		.loc 1 710 20
 918 0418 0323     		movs	r3, #3
ARM GAS  C:\Users\57298\AppData\Local\Temp\ccq1CZ60.s 			page 30


 919 041a 6DE0     		b	.L16
 920              	.L63:
 706:Drivers/STM32F1xx_HAL_Driver/Src/stm32f1xx_hal_rcc.c ****         {
 921              		.loc 1 706 16
 922 041c 294B     		ldr	r3, .L75
 923 041e 1B68     		ldr	r3, [r3]
 924 0420 03F00073 		and	r3, r3, #33554432
 706:Drivers/STM32F1xx_HAL_Driver/Src/stm32f1xx_hal_rcc.c ****         {
 925              		.loc 1 706 15
 926 0424 002B     		cmp	r3, #0
 927 0426 F0D1     		bne	.L64
 711:Drivers/STM32F1xx_HAL_Driver/Src/stm32f1xx_hal_rcc.c ****           }
 712:Drivers/STM32F1xx_HAL_Driver/Src/stm32f1xx_hal_rcc.c ****         }
 713:Drivers/STM32F1xx_HAL_Driver/Src/stm32f1xx_hal_rcc.c **** 
 714:Drivers/STM32F1xx_HAL_Driver/Src/stm32f1xx_hal_rcc.c ****         /* Configure the HSE prediv factor --------------------------------*/
 715:Drivers/STM32F1xx_HAL_Driver/Src/stm32f1xx_hal_rcc.c ****         /* It can be written only when the PLL is disabled. Not used in PLL source is different tha
 716:Drivers/STM32F1xx_HAL_Driver/Src/stm32f1xx_hal_rcc.c ****         if (RCC_OscInitStruct->PLL.PLLSource == RCC_PLLSOURCE_HSE)
 928              		.loc 1 716 35
 929 0428 7B68     		ldr	r3, [r7, #4]
 930 042a 1B6A     		ldr	r3, [r3, #32]
 931              		.loc 1 716 12
 932 042c B3F5803F 		cmp	r3, #65536
 933 0430 08D1     		bne	.L65
 717:Drivers/STM32F1xx_HAL_Driver/Src/stm32f1xx_hal_rcc.c ****         {
 718:Drivers/STM32F1xx_HAL_Driver/Src/stm32f1xx_hal_rcc.c ****           /* Check the parameter */
 719:Drivers/STM32F1xx_HAL_Driver/Src/stm32f1xx_hal_rcc.c ****           assert_param(IS_RCC_HSE_PREDIV(RCC_OscInitStruct->HSEPredivValue));
 720:Drivers/STM32F1xx_HAL_Driver/Src/stm32f1xx_hal_rcc.c **** #if defined(RCC_CFGR2_PREDIV1SRC)
 721:Drivers/STM32F1xx_HAL_Driver/Src/stm32f1xx_hal_rcc.c ****           assert_param(IS_RCC_PREDIV1_SOURCE(RCC_OscInitStruct->Prediv1Source));
 722:Drivers/STM32F1xx_HAL_Driver/Src/stm32f1xx_hal_rcc.c **** 
 723:Drivers/STM32F1xx_HAL_Driver/Src/stm32f1xx_hal_rcc.c ****           /* Set PREDIV1 source */
 724:Drivers/STM32F1xx_HAL_Driver/Src/stm32f1xx_hal_rcc.c ****           SET_BIT(RCC->CFGR2, RCC_OscInitStruct->Prediv1Source);
 725:Drivers/STM32F1xx_HAL_Driver/Src/stm32f1xx_hal_rcc.c **** #endif /* RCC_CFGR2_PREDIV1SRC */
 726:Drivers/STM32F1xx_HAL_Driver/Src/stm32f1xx_hal_rcc.c **** 
 727:Drivers/STM32F1xx_HAL_Driver/Src/stm32f1xx_hal_rcc.c ****           /* Set PREDIV1 Value */
 728:Drivers/STM32F1xx_HAL_Driver/Src/stm32f1xx_hal_rcc.c ****           __HAL_RCC_HSE_PREDIV_CONFIG(RCC_OscInitStruct->HSEPredivValue);
 934              		.loc 1 728 11
 935 0432 244B     		ldr	r3, .L75
 936 0434 5B68     		ldr	r3, [r3, #4]
 937 0436 23F40032 		bic	r2, r3, #131072
 938 043a 7B68     		ldr	r3, [r7, #4]
 939 043c 9B68     		ldr	r3, [r3, #8]
 940 043e 2149     		ldr	r1, .L75
 941 0440 1343     		orrs	r3, r3, r2
 942 0442 4B60     		str	r3, [r1, #4]
 943              	.L65:
 729:Drivers/STM32F1xx_HAL_Driver/Src/stm32f1xx_hal_rcc.c ****         }
 730:Drivers/STM32F1xx_HAL_Driver/Src/stm32f1xx_hal_rcc.c **** 
 731:Drivers/STM32F1xx_HAL_Driver/Src/stm32f1xx_hal_rcc.c ****         /* Configure the main PLL clock source and multiplication factors. */
 732:Drivers/STM32F1xx_HAL_Driver/Src/stm32f1xx_hal_rcc.c ****         __HAL_RCC_PLL_CONFIG(RCC_OscInitStruct->PLL.PLLSource,
 944              		.loc 1 732 9
 945 0444 1F4B     		ldr	r3, .L75
 946 0446 5B68     		ldr	r3, [r3, #4]
 947 0448 23F47412 		bic	r2, r3, #3997696
 948 044c 7B68     		ldr	r3, [r7, #4]
 949 044e 196A     		ldr	r1, [r3, #32]
 950 0450 7B68     		ldr	r3, [r7, #4]
 951 0452 5B6A     		ldr	r3, [r3, #36]
ARM GAS  C:\Users\57298\AppData\Local\Temp\ccq1CZ60.s 			page 31


 952 0454 0B43     		orrs	r3, r3, r1
 953 0456 1B49     		ldr	r1, .L75
 954 0458 1343     		orrs	r3, r3, r2
 955 045a 4B60     		str	r3, [r1, #4]
 733:Drivers/STM32F1xx_HAL_Driver/Src/stm32f1xx_hal_rcc.c ****                              RCC_OscInitStruct->PLL.PLLMUL);
 734:Drivers/STM32F1xx_HAL_Driver/Src/stm32f1xx_hal_rcc.c ****         /* Enable the main PLL. */
 735:Drivers/STM32F1xx_HAL_Driver/Src/stm32f1xx_hal_rcc.c ****         __HAL_RCC_PLL_ENABLE();
 956              		.loc 1 735 9
 957 045c 1B4B     		ldr	r3, .L75+8
 958 045e 0122     		movs	r2, #1
 959 0460 1A60     		str	r2, [r3]
 736:Drivers/STM32F1xx_HAL_Driver/Src/stm32f1xx_hal_rcc.c **** 
 737:Drivers/STM32F1xx_HAL_Driver/Src/stm32f1xx_hal_rcc.c ****         /* Get Start Tick */
 738:Drivers/STM32F1xx_HAL_Driver/Src/stm32f1xx_hal_rcc.c ****         tickstart = HAL_GetTick();
 960              		.loc 1 738 21
 961 0462 FFF7FEFF 		bl	HAL_GetTick
 962 0466 3861     		str	r0, [r7, #16]
 739:Drivers/STM32F1xx_HAL_Driver/Src/stm32f1xx_hal_rcc.c **** 
 740:Drivers/STM32F1xx_HAL_Driver/Src/stm32f1xx_hal_rcc.c ****         /* Wait till PLL is ready */
 741:Drivers/STM32F1xx_HAL_Driver/Src/stm32f1xx_hal_rcc.c ****         while (__HAL_RCC_GET_FLAG(RCC_FLAG_PLLRDY)  == RESET)
 963              		.loc 1 741 15
 964 0468 08E0     		b	.L66
 965              	.L67:
 742:Drivers/STM32F1xx_HAL_Driver/Src/stm32f1xx_hal_rcc.c ****         {
 743:Drivers/STM32F1xx_HAL_Driver/Src/stm32f1xx_hal_rcc.c ****           if ((HAL_GetTick() - tickstart) > PLL_TIMEOUT_VALUE)
 966              		.loc 1 743 16
 967 046a FFF7FEFF 		bl	HAL_GetTick
 968 046e 0246     		mov	r2, r0
 969              		.loc 1 743 30
 970 0470 3B69     		ldr	r3, [r7, #16]
 971 0472 D31A     		subs	r3, r2, r3
 972              		.loc 1 743 14
 973 0474 022B     		cmp	r3, #2
 974 0476 01D9     		bls	.L66
 744:Drivers/STM32F1xx_HAL_Driver/Src/stm32f1xx_hal_rcc.c ****           {
 745:Drivers/STM32F1xx_HAL_Driver/Src/stm32f1xx_hal_rcc.c ****             return HAL_TIMEOUT;
 975              		.loc 1 745 20
 976 0478 0323     		movs	r3, #3
 977 047a 3DE0     		b	.L16
 978              	.L66:
 741:Drivers/STM32F1xx_HAL_Driver/Src/stm32f1xx_hal_rcc.c ****         {
 979              		.loc 1 741 16
 980 047c 114B     		ldr	r3, .L75
 981 047e 1B68     		ldr	r3, [r3]
 982 0480 03F00073 		and	r3, r3, #33554432
 741:Drivers/STM32F1xx_HAL_Driver/Src/stm32f1xx_hal_rcc.c ****         {
 983              		.loc 1 741 15
 984 0484 002B     		cmp	r3, #0
 985 0486 F0D0     		beq	.L67
 986 0488 35E0     		b	.L60
 987              	.L62:
 746:Drivers/STM32F1xx_HAL_Driver/Src/stm32f1xx_hal_rcc.c ****           }
 747:Drivers/STM32F1xx_HAL_Driver/Src/stm32f1xx_hal_rcc.c ****         }
 748:Drivers/STM32F1xx_HAL_Driver/Src/stm32f1xx_hal_rcc.c ****       }
 749:Drivers/STM32F1xx_HAL_Driver/Src/stm32f1xx_hal_rcc.c ****       else
 750:Drivers/STM32F1xx_HAL_Driver/Src/stm32f1xx_hal_rcc.c ****       {
 751:Drivers/STM32F1xx_HAL_Driver/Src/stm32f1xx_hal_rcc.c ****         /* Disable the main PLL. */
ARM GAS  C:\Users\57298\AppData\Local\Temp\ccq1CZ60.s 			page 32


 752:Drivers/STM32F1xx_HAL_Driver/Src/stm32f1xx_hal_rcc.c ****         __HAL_RCC_PLL_DISABLE();
 988              		.loc 1 752 9
 989 048a 104B     		ldr	r3, .L75+8
 990 048c 0022     		movs	r2, #0
 991 048e 1A60     		str	r2, [r3]
 753:Drivers/STM32F1xx_HAL_Driver/Src/stm32f1xx_hal_rcc.c **** 
 754:Drivers/STM32F1xx_HAL_Driver/Src/stm32f1xx_hal_rcc.c ****         /* Get Start Tick */
 755:Drivers/STM32F1xx_HAL_Driver/Src/stm32f1xx_hal_rcc.c ****         tickstart = HAL_GetTick();
 992              		.loc 1 755 21
 993 0490 FFF7FEFF 		bl	HAL_GetTick
 994 0494 3861     		str	r0, [r7, #16]
 756:Drivers/STM32F1xx_HAL_Driver/Src/stm32f1xx_hal_rcc.c **** 
 757:Drivers/STM32F1xx_HAL_Driver/Src/stm32f1xx_hal_rcc.c ****         /* Wait till PLL is disabled */
 758:Drivers/STM32F1xx_HAL_Driver/Src/stm32f1xx_hal_rcc.c ****         while (__HAL_RCC_GET_FLAG(RCC_FLAG_PLLRDY)  != RESET)
 995              		.loc 1 758 15
 996 0496 08E0     		b	.L68
 997              	.L69:
 759:Drivers/STM32F1xx_HAL_Driver/Src/stm32f1xx_hal_rcc.c ****         {
 760:Drivers/STM32F1xx_HAL_Driver/Src/stm32f1xx_hal_rcc.c ****           if ((HAL_GetTick() - tickstart) > PLL_TIMEOUT_VALUE)
 998              		.loc 1 760 16
 999 0498 FFF7FEFF 		bl	HAL_GetTick
 1000 049c 0246     		mov	r2, r0
 1001              		.loc 1 760 30
 1002 049e 3B69     		ldr	r3, [r7, #16]
 1003 04a0 D31A     		subs	r3, r2, r3
 1004              		.loc 1 760 14
 1005 04a2 022B     		cmp	r3, #2
 1006 04a4 01D9     		bls	.L68
 761:Drivers/STM32F1xx_HAL_Driver/Src/stm32f1xx_hal_rcc.c ****           {
 762:Drivers/STM32F1xx_HAL_Driver/Src/stm32f1xx_hal_rcc.c ****             return HAL_TIMEOUT;
 1007              		.loc 1 762 20
 1008 04a6 0323     		movs	r3, #3
 1009 04a8 26E0     		b	.L16
 1010              	.L68:
 758:Drivers/STM32F1xx_HAL_Driver/Src/stm32f1xx_hal_rcc.c ****         {
 1011              		.loc 1 758 16
 1012 04aa 064B     		ldr	r3, .L75
 1013 04ac 1B68     		ldr	r3, [r3]
 1014 04ae 03F00073 		and	r3, r3, #33554432
 758:Drivers/STM32F1xx_HAL_Driver/Src/stm32f1xx_hal_rcc.c ****         {
 1015              		.loc 1 758 15
 1016 04b2 002B     		cmp	r3, #0
 1017 04b4 F0D1     		bne	.L69
 1018 04b6 1EE0     		b	.L60
 1019              	.L61:
 763:Drivers/STM32F1xx_HAL_Driver/Src/stm32f1xx_hal_rcc.c ****           }
 764:Drivers/STM32F1xx_HAL_Driver/Src/stm32f1xx_hal_rcc.c ****         }
 765:Drivers/STM32F1xx_HAL_Driver/Src/stm32f1xx_hal_rcc.c ****       }
 766:Drivers/STM32F1xx_HAL_Driver/Src/stm32f1xx_hal_rcc.c ****     }
 767:Drivers/STM32F1xx_HAL_Driver/Src/stm32f1xx_hal_rcc.c ****     else
 768:Drivers/STM32F1xx_HAL_Driver/Src/stm32f1xx_hal_rcc.c ****     {
 769:Drivers/STM32F1xx_HAL_Driver/Src/stm32f1xx_hal_rcc.c ****       /* Check if there is a request to disable the PLL used as System clock source */
 770:Drivers/STM32F1xx_HAL_Driver/Src/stm32f1xx_hal_rcc.c ****       if ((RCC_OscInitStruct->PLL.PLLState) == RCC_PLL_OFF)
 1020              		.loc 1 770 34
 1021 04b8 7B68     		ldr	r3, [r7, #4]
 1022 04ba DB69     		ldr	r3, [r3, #28]
 1023              		.loc 1 770 10
ARM GAS  C:\Users\57298\AppData\Local\Temp\ccq1CZ60.s 			page 33


 1024 04bc 012B     		cmp	r3, #1
 1025 04be 07D1     		bne	.L70
 771:Drivers/STM32F1xx_HAL_Driver/Src/stm32f1xx_hal_rcc.c ****       {
 772:Drivers/STM32F1xx_HAL_Driver/Src/stm32f1xx_hal_rcc.c ****         return HAL_ERROR;
 1026              		.loc 1 772 16
 1027 04c0 0123     		movs	r3, #1
 1028 04c2 19E0     		b	.L16
 1029              	.L76:
 1030              		.align	2
 1031              	.L75:
 1032 04c4 00100240 		.word	1073876992
 1033 04c8 00700040 		.word	1073770496
 1034 04cc 60004242 		.word	1111621728
 1035              	.L70:
 773:Drivers/STM32F1xx_HAL_Driver/Src/stm32f1xx_hal_rcc.c ****       }
 774:Drivers/STM32F1xx_HAL_Driver/Src/stm32f1xx_hal_rcc.c ****       else
 775:Drivers/STM32F1xx_HAL_Driver/Src/stm32f1xx_hal_rcc.c ****       {
 776:Drivers/STM32F1xx_HAL_Driver/Src/stm32f1xx_hal_rcc.c ****         /* Do not return HAL_ERROR if request repeats the current configuration */
 777:Drivers/STM32F1xx_HAL_Driver/Src/stm32f1xx_hal_rcc.c ****         pll_config = RCC->CFGR;
 1036              		.loc 1 777 25
 1037 04d0 0B4B     		ldr	r3, .L77
 1038              		.loc 1 777 20
 1039 04d2 5B68     		ldr	r3, [r3, #4]
 1040 04d4 FB60     		str	r3, [r7, #12]
 778:Drivers/STM32F1xx_HAL_Driver/Src/stm32f1xx_hal_rcc.c ****         if ((READ_BIT(pll_config, RCC_CFGR_PLLSRC) != RCC_OscInitStruct->PLL.PLLSource) ||
 1041              		.loc 1 778 14
 1042 04d6 FB68     		ldr	r3, [r7, #12]
 1043 04d8 03F48032 		and	r2, r3, #65536
 1044              		.loc 1 778 77
 1045 04dc 7B68     		ldr	r3, [r7, #4]
 1046 04de 1B6A     		ldr	r3, [r3, #32]
 1047              		.loc 1 778 12
 1048 04e0 9A42     		cmp	r2, r3
 1049 04e2 06D1     		bne	.L71
 779:Drivers/STM32F1xx_HAL_Driver/Src/stm32f1xx_hal_rcc.c ****             (READ_BIT(pll_config, RCC_CFGR_PLLMULL) != RCC_OscInitStruct->PLL.PLLMUL))
 1050              		.loc 1 779 14 discriminator 1
 1051 04e4 FB68     		ldr	r3, [r7, #12]
 1052 04e6 03F47012 		and	r2, r3, #3932160
 1053              		.loc 1 779 78 discriminator 1
 1054 04ea 7B68     		ldr	r3, [r7, #4]
 1055 04ec 5B6A     		ldr	r3, [r3, #36]
 778:Drivers/STM32F1xx_HAL_Driver/Src/stm32f1xx_hal_rcc.c ****         if ((READ_BIT(pll_config, RCC_CFGR_PLLSRC) != RCC_OscInitStruct->PLL.PLLSource) ||
 1056              		.loc 1 778 89 discriminator 1
 1057 04ee 9A42     		cmp	r2, r3
 1058 04f0 01D0     		beq	.L60
 1059              	.L71:
 780:Drivers/STM32F1xx_HAL_Driver/Src/stm32f1xx_hal_rcc.c ****         {
 781:Drivers/STM32F1xx_HAL_Driver/Src/stm32f1xx_hal_rcc.c ****           return HAL_ERROR;
 1060              		.loc 1 781 18
 1061 04f2 0123     		movs	r3, #1
 1062 04f4 00E0     		b	.L16
 1063              	.L60:
 782:Drivers/STM32F1xx_HAL_Driver/Src/stm32f1xx_hal_rcc.c ****         }
 783:Drivers/STM32F1xx_HAL_Driver/Src/stm32f1xx_hal_rcc.c ****       }
 784:Drivers/STM32F1xx_HAL_Driver/Src/stm32f1xx_hal_rcc.c ****     }
 785:Drivers/STM32F1xx_HAL_Driver/Src/stm32f1xx_hal_rcc.c ****   }
 786:Drivers/STM32F1xx_HAL_Driver/Src/stm32f1xx_hal_rcc.c **** 
ARM GAS  C:\Users\57298\AppData\Local\Temp\ccq1CZ60.s 			page 34


 787:Drivers/STM32F1xx_HAL_Driver/Src/stm32f1xx_hal_rcc.c ****   return HAL_OK;
 1064              		.loc 1 787 10
 1065 04f6 0023     		movs	r3, #0
 1066              	.L16:
 788:Drivers/STM32F1xx_HAL_Driver/Src/stm32f1xx_hal_rcc.c **** }
 1067              		.loc 1 788 1
 1068 04f8 1846     		mov	r0, r3
 1069 04fa 1837     		adds	r7, r7, #24
 1070              	.LCFI8:
 1071              		.cfi_def_cfa_offset 8
 1072 04fc BD46     		mov	sp, r7
 1073              	.LCFI9:
 1074              		.cfi_def_cfa_register 13
 1075              		@ sp needed
 1076 04fe 80BD     		pop	{r7, pc}
 1077              	.L78:
 1078              		.align	2
 1079              	.L77:
 1080 0500 00100240 		.word	1073876992
 1081              		.cfi_endproc
 1082              	.LFE66:
 1084              		.section	.text.HAL_RCC_ClockConfig,"ax",%progbits
 1085              		.align	1
 1086              		.global	HAL_RCC_ClockConfig
 1087              		.syntax unified
 1088              		.thumb
 1089              		.thumb_func
 1091              	HAL_RCC_ClockConfig:
 1092              	.LFB67:
 789:Drivers/STM32F1xx_HAL_Driver/Src/stm32f1xx_hal_rcc.c **** 
 790:Drivers/STM32F1xx_HAL_Driver/Src/stm32f1xx_hal_rcc.c **** /**
 791:Drivers/STM32F1xx_HAL_Driver/Src/stm32f1xx_hal_rcc.c ****   * @brief  Initializes the CPU, AHB and APB buses clocks according to the specified
 792:Drivers/STM32F1xx_HAL_Driver/Src/stm32f1xx_hal_rcc.c ****   *         parameters in the RCC_ClkInitStruct.
 793:Drivers/STM32F1xx_HAL_Driver/Src/stm32f1xx_hal_rcc.c ****   * @param  RCC_ClkInitStruct pointer to an RCC_OscInitTypeDef structure that
 794:Drivers/STM32F1xx_HAL_Driver/Src/stm32f1xx_hal_rcc.c ****   *         contains the configuration information for the RCC peripheral.
 795:Drivers/STM32F1xx_HAL_Driver/Src/stm32f1xx_hal_rcc.c ****   * @param  FLatency FLASH Latency
 796:Drivers/STM32F1xx_HAL_Driver/Src/stm32f1xx_hal_rcc.c ****   *          The value of this parameter depend on device used within the same series
 797:Drivers/STM32F1xx_HAL_Driver/Src/stm32f1xx_hal_rcc.c ****   * @note   The SystemCoreClock CMSIS variable is used to store System Clock Frequency
 798:Drivers/STM32F1xx_HAL_Driver/Src/stm32f1xx_hal_rcc.c ****   *         and updated by @ref HAL_RCC_GetHCLKFreq() function called within this function
 799:Drivers/STM32F1xx_HAL_Driver/Src/stm32f1xx_hal_rcc.c ****   *
 800:Drivers/STM32F1xx_HAL_Driver/Src/stm32f1xx_hal_rcc.c ****   * @note   The HSI is used (enabled by hardware) as system clock source after
 801:Drivers/STM32F1xx_HAL_Driver/Src/stm32f1xx_hal_rcc.c ****   *         start-up from Reset, wake-up from STOP and STANDBY mode, or in case
 802:Drivers/STM32F1xx_HAL_Driver/Src/stm32f1xx_hal_rcc.c ****   *         of failure of the HSE used directly or indirectly as system clock
 803:Drivers/STM32F1xx_HAL_Driver/Src/stm32f1xx_hal_rcc.c ****   *         (if the Clock Security System CSS is enabled).
 804:Drivers/STM32F1xx_HAL_Driver/Src/stm32f1xx_hal_rcc.c ****   *
 805:Drivers/STM32F1xx_HAL_Driver/Src/stm32f1xx_hal_rcc.c ****   * @note   A switch from one clock source to another occurs only if the target
 806:Drivers/STM32F1xx_HAL_Driver/Src/stm32f1xx_hal_rcc.c ****   *         clock source is ready (clock stable after start-up delay or PLL locked).
 807:Drivers/STM32F1xx_HAL_Driver/Src/stm32f1xx_hal_rcc.c ****   *         If a clock source which is not yet ready is selected, the switch will
 808:Drivers/STM32F1xx_HAL_Driver/Src/stm32f1xx_hal_rcc.c ****   *         occur when the clock source will be ready.
 809:Drivers/STM32F1xx_HAL_Driver/Src/stm32f1xx_hal_rcc.c ****   *         You can use @ref HAL_RCC_GetClockConfig() function to know which clock is
 810:Drivers/STM32F1xx_HAL_Driver/Src/stm32f1xx_hal_rcc.c ****   *         currently used as system clock source.
 811:Drivers/STM32F1xx_HAL_Driver/Src/stm32f1xx_hal_rcc.c ****   * @retval HAL status
 812:Drivers/STM32F1xx_HAL_Driver/Src/stm32f1xx_hal_rcc.c ****   */
 813:Drivers/STM32F1xx_HAL_Driver/Src/stm32f1xx_hal_rcc.c **** HAL_StatusTypeDef HAL_RCC_ClockConfig(RCC_ClkInitTypeDef  *RCC_ClkInitStruct, uint32_t FLatency)
 814:Drivers/STM32F1xx_HAL_Driver/Src/stm32f1xx_hal_rcc.c **** {
 1093              		.loc 1 814 1
 1094              		.cfi_startproc
ARM GAS  C:\Users\57298\AppData\Local\Temp\ccq1CZ60.s 			page 35


 1095              		@ args = 0, pretend = 0, frame = 16
 1096              		@ frame_needed = 1, uses_anonymous_args = 0
 1097 0000 80B5     		push	{r7, lr}
 1098              	.LCFI10:
 1099              		.cfi_def_cfa_offset 8
 1100              		.cfi_offset 7, -8
 1101              		.cfi_offset 14, -4
 1102 0002 84B0     		sub	sp, sp, #16
 1103              	.LCFI11:
 1104              		.cfi_def_cfa_offset 24
 1105 0004 00AF     		add	r7, sp, #0
 1106              	.LCFI12:
 1107              		.cfi_def_cfa_register 7
 1108 0006 7860     		str	r0, [r7, #4]
 1109 0008 3960     		str	r1, [r7]
 815:Drivers/STM32F1xx_HAL_Driver/Src/stm32f1xx_hal_rcc.c ****   uint32_t tickstart;
 816:Drivers/STM32F1xx_HAL_Driver/Src/stm32f1xx_hal_rcc.c **** 
 817:Drivers/STM32F1xx_HAL_Driver/Src/stm32f1xx_hal_rcc.c ****   /* Check Null pointer */
 818:Drivers/STM32F1xx_HAL_Driver/Src/stm32f1xx_hal_rcc.c ****   if (RCC_ClkInitStruct == NULL)
 1110              		.loc 1 818 6
 1111 000a 7B68     		ldr	r3, [r7, #4]
 1112 000c 002B     		cmp	r3, #0
 1113 000e 01D1     		bne	.L80
 819:Drivers/STM32F1xx_HAL_Driver/Src/stm32f1xx_hal_rcc.c ****   {
 820:Drivers/STM32F1xx_HAL_Driver/Src/stm32f1xx_hal_rcc.c ****     return HAL_ERROR;
 1114              		.loc 1 820 12
 1115 0010 0123     		movs	r3, #1
 1116 0012 D0E0     		b	.L81
 1117              	.L80:
 821:Drivers/STM32F1xx_HAL_Driver/Src/stm32f1xx_hal_rcc.c ****   }
 822:Drivers/STM32F1xx_HAL_Driver/Src/stm32f1xx_hal_rcc.c **** 
 823:Drivers/STM32F1xx_HAL_Driver/Src/stm32f1xx_hal_rcc.c ****   /* Check the parameters */
 824:Drivers/STM32F1xx_HAL_Driver/Src/stm32f1xx_hal_rcc.c ****   assert_param(IS_RCC_CLOCKTYPE(RCC_ClkInitStruct->ClockType));
 825:Drivers/STM32F1xx_HAL_Driver/Src/stm32f1xx_hal_rcc.c ****   assert_param(IS_FLASH_LATENCY(FLatency));
 826:Drivers/STM32F1xx_HAL_Driver/Src/stm32f1xx_hal_rcc.c **** 
 827:Drivers/STM32F1xx_HAL_Driver/Src/stm32f1xx_hal_rcc.c ****   /* To correctly read data from FLASH memory, the number of wait states (LATENCY)
 828:Drivers/STM32F1xx_HAL_Driver/Src/stm32f1xx_hal_rcc.c ****   must be correctly programmed according to the frequency of the CPU clock
 829:Drivers/STM32F1xx_HAL_Driver/Src/stm32f1xx_hal_rcc.c ****     (HCLK) of the device. */
 830:Drivers/STM32F1xx_HAL_Driver/Src/stm32f1xx_hal_rcc.c **** 
 831:Drivers/STM32F1xx_HAL_Driver/Src/stm32f1xx_hal_rcc.c **** #if defined(FLASH_ACR_LATENCY)
 832:Drivers/STM32F1xx_HAL_Driver/Src/stm32f1xx_hal_rcc.c ****   /* Increasing the number of wait states because of higher CPU frequency */
 833:Drivers/STM32F1xx_HAL_Driver/Src/stm32f1xx_hal_rcc.c ****   if (FLatency > __HAL_FLASH_GET_LATENCY())
 1118              		.loc 1 833 18
 1119 0014 6A4B     		ldr	r3, .L95
 1120 0016 1B68     		ldr	r3, [r3]
 1121 0018 03F00703 		and	r3, r3, #7
 1122              		.loc 1 833 6
 1123 001c 3A68     		ldr	r2, [r7]
 1124 001e 9A42     		cmp	r2, r3
 1125 0020 10D9     		bls	.L82
 834:Drivers/STM32F1xx_HAL_Driver/Src/stm32f1xx_hal_rcc.c ****   {
 835:Drivers/STM32F1xx_HAL_Driver/Src/stm32f1xx_hal_rcc.c ****     /* Program the new number of wait states to the LATENCY bits in the FLASH_ACR register */
 836:Drivers/STM32F1xx_HAL_Driver/Src/stm32f1xx_hal_rcc.c ****     __HAL_FLASH_SET_LATENCY(FLatency);
 1126              		.loc 1 836 5
 1127 0022 674B     		ldr	r3, .L95
 1128 0024 1B68     		ldr	r3, [r3]
 1129 0026 23F00702 		bic	r2, r3, #7
ARM GAS  C:\Users\57298\AppData\Local\Temp\ccq1CZ60.s 			page 36


 1130 002a 6549     		ldr	r1, .L95
 1131 002c 3B68     		ldr	r3, [r7]
 1132 002e 1343     		orrs	r3, r3, r2
 1133 0030 0B60     		str	r3, [r1]
 837:Drivers/STM32F1xx_HAL_Driver/Src/stm32f1xx_hal_rcc.c **** 
 838:Drivers/STM32F1xx_HAL_Driver/Src/stm32f1xx_hal_rcc.c ****     /* Check that the new number of wait states is taken into account to access the Flash
 839:Drivers/STM32F1xx_HAL_Driver/Src/stm32f1xx_hal_rcc.c ****     memory by reading the FLASH_ACR register */
 840:Drivers/STM32F1xx_HAL_Driver/Src/stm32f1xx_hal_rcc.c ****     if (__HAL_FLASH_GET_LATENCY() != FLatency)
 1134              		.loc 1 840 9
 1135 0032 634B     		ldr	r3, .L95
 1136 0034 1B68     		ldr	r3, [r3]
 1137 0036 03F00703 		and	r3, r3, #7
 1138              		.loc 1 840 8
 1139 003a 3A68     		ldr	r2, [r7]
 1140 003c 9A42     		cmp	r2, r3
 1141 003e 01D0     		beq	.L82
 841:Drivers/STM32F1xx_HAL_Driver/Src/stm32f1xx_hal_rcc.c ****   {
 842:Drivers/STM32F1xx_HAL_Driver/Src/stm32f1xx_hal_rcc.c ****     return HAL_ERROR;
 1142              		.loc 1 842 12
 1143 0040 0123     		movs	r3, #1
 1144 0042 B8E0     		b	.L81
 1145              	.L82:
 843:Drivers/STM32F1xx_HAL_Driver/Src/stm32f1xx_hal_rcc.c ****   }
 844:Drivers/STM32F1xx_HAL_Driver/Src/stm32f1xx_hal_rcc.c **** }
 845:Drivers/STM32F1xx_HAL_Driver/Src/stm32f1xx_hal_rcc.c **** 
 846:Drivers/STM32F1xx_HAL_Driver/Src/stm32f1xx_hal_rcc.c **** #endif /* FLASH_ACR_LATENCY */
 847:Drivers/STM32F1xx_HAL_Driver/Src/stm32f1xx_hal_rcc.c **** /*-------------------------- HCLK Configuration --------------------------*/
 848:Drivers/STM32F1xx_HAL_Driver/Src/stm32f1xx_hal_rcc.c **** if (((RCC_ClkInitStruct->ClockType) & RCC_CLOCKTYPE_HCLK) == RCC_CLOCKTYPE_HCLK)
 1146              		.loc 1 848 24
 1147 0044 7B68     		ldr	r3, [r7, #4]
 1148 0046 1B68     		ldr	r3, [r3]
 1149              		.loc 1 848 37
 1150 0048 03F00203 		and	r3, r3, #2
 1151              		.loc 1 848 4
 1152 004c 002B     		cmp	r3, #0
 1153 004e 20D0     		beq	.L83
 849:Drivers/STM32F1xx_HAL_Driver/Src/stm32f1xx_hal_rcc.c ****   {
 850:Drivers/STM32F1xx_HAL_Driver/Src/stm32f1xx_hal_rcc.c ****     /* Set the highest APBx dividers in order to ensure that we do not go through
 851:Drivers/STM32F1xx_HAL_Driver/Src/stm32f1xx_hal_rcc.c ****     a non-spec phase whatever we decrease or increase HCLK. */
 852:Drivers/STM32F1xx_HAL_Driver/Src/stm32f1xx_hal_rcc.c ****     if (((RCC_ClkInitStruct->ClockType) & RCC_CLOCKTYPE_PCLK1) == RCC_CLOCKTYPE_PCLK1)
 1154              		.loc 1 852 28
 1155 0050 7B68     		ldr	r3, [r7, #4]
 1156 0052 1B68     		ldr	r3, [r3]
 1157              		.loc 1 852 41
 1158 0054 03F00403 		and	r3, r3, #4
 1159              		.loc 1 852 8
 1160 0058 002B     		cmp	r3, #0
 1161 005a 05D0     		beq	.L84
 853:Drivers/STM32F1xx_HAL_Driver/Src/stm32f1xx_hal_rcc.c ****     {
 854:Drivers/STM32F1xx_HAL_Driver/Src/stm32f1xx_hal_rcc.c ****       MODIFY_REG(RCC->CFGR, RCC_CFGR_PPRE1, RCC_HCLK_DIV16);
 1162              		.loc 1 854 7
 1163 005c 594B     		ldr	r3, .L95+4
 1164 005e 5B68     		ldr	r3, [r3, #4]
 1165 0060 584A     		ldr	r2, .L95+4
 1166 0062 43F4E063 		orr	r3, r3, #1792
 1167 0066 5360     		str	r3, [r2, #4]
 1168              	.L84:
ARM GAS  C:\Users\57298\AppData\Local\Temp\ccq1CZ60.s 			page 37


 855:Drivers/STM32F1xx_HAL_Driver/Src/stm32f1xx_hal_rcc.c ****     }
 856:Drivers/STM32F1xx_HAL_Driver/Src/stm32f1xx_hal_rcc.c **** 
 857:Drivers/STM32F1xx_HAL_Driver/Src/stm32f1xx_hal_rcc.c ****     if (((RCC_ClkInitStruct->ClockType) & RCC_CLOCKTYPE_PCLK2) == RCC_CLOCKTYPE_PCLK2)
 1169              		.loc 1 857 28
 1170 0068 7B68     		ldr	r3, [r7, #4]
 1171 006a 1B68     		ldr	r3, [r3]
 1172              		.loc 1 857 41
 1173 006c 03F00803 		and	r3, r3, #8
 1174              		.loc 1 857 8
 1175 0070 002B     		cmp	r3, #0
 1176 0072 05D0     		beq	.L85
 858:Drivers/STM32F1xx_HAL_Driver/Src/stm32f1xx_hal_rcc.c ****     {
 859:Drivers/STM32F1xx_HAL_Driver/Src/stm32f1xx_hal_rcc.c ****       MODIFY_REG(RCC->CFGR, RCC_CFGR_PPRE2, (RCC_HCLK_DIV16 << 3));
 1177              		.loc 1 859 7
 1178 0074 534B     		ldr	r3, .L95+4
 1179 0076 5B68     		ldr	r3, [r3, #4]
 1180 0078 524A     		ldr	r2, .L95+4
 1181 007a 43F46053 		orr	r3, r3, #14336
 1182 007e 5360     		str	r3, [r2, #4]
 1183              	.L85:
 860:Drivers/STM32F1xx_HAL_Driver/Src/stm32f1xx_hal_rcc.c ****     }
 861:Drivers/STM32F1xx_HAL_Driver/Src/stm32f1xx_hal_rcc.c **** 
 862:Drivers/STM32F1xx_HAL_Driver/Src/stm32f1xx_hal_rcc.c ****     /* Set the new HCLK clock divider */
 863:Drivers/STM32F1xx_HAL_Driver/Src/stm32f1xx_hal_rcc.c ****     assert_param(IS_RCC_HCLK(RCC_ClkInitStruct->AHBCLKDivider));
 864:Drivers/STM32F1xx_HAL_Driver/Src/stm32f1xx_hal_rcc.c ****     MODIFY_REG(RCC->CFGR, RCC_CFGR_HPRE, RCC_ClkInitStruct->AHBCLKDivider);
 1184              		.loc 1 864 5
 1185 0080 504B     		ldr	r3, .L95+4
 1186 0082 5B68     		ldr	r3, [r3, #4]
 1187 0084 23F0F002 		bic	r2, r3, #240
 1188 0088 7B68     		ldr	r3, [r7, #4]
 1189 008a 9B68     		ldr	r3, [r3, #8]
 1190 008c 4D49     		ldr	r1, .L95+4
 1191 008e 1343     		orrs	r3, r3, r2
 1192 0090 4B60     		str	r3, [r1, #4]
 1193              	.L83:
 865:Drivers/STM32F1xx_HAL_Driver/Src/stm32f1xx_hal_rcc.c ****   }
 866:Drivers/STM32F1xx_HAL_Driver/Src/stm32f1xx_hal_rcc.c **** 
 867:Drivers/STM32F1xx_HAL_Driver/Src/stm32f1xx_hal_rcc.c ****   /*------------------------- SYSCLK Configuration ---------------------------*/
 868:Drivers/STM32F1xx_HAL_Driver/Src/stm32f1xx_hal_rcc.c ****   if (((RCC_ClkInitStruct->ClockType) & RCC_CLOCKTYPE_SYSCLK) == RCC_CLOCKTYPE_SYSCLK)
 1194              		.loc 1 868 26
 1195 0092 7B68     		ldr	r3, [r7, #4]
 1196 0094 1B68     		ldr	r3, [r3]
 1197              		.loc 1 868 39
 1198 0096 03F00103 		and	r3, r3, #1
 1199              		.loc 1 868 6
 1200 009a 002B     		cmp	r3, #0
 1201 009c 40D0     		beq	.L86
 869:Drivers/STM32F1xx_HAL_Driver/Src/stm32f1xx_hal_rcc.c ****   {
 870:Drivers/STM32F1xx_HAL_Driver/Src/stm32f1xx_hal_rcc.c ****     assert_param(IS_RCC_SYSCLKSOURCE(RCC_ClkInitStruct->SYSCLKSource));
 871:Drivers/STM32F1xx_HAL_Driver/Src/stm32f1xx_hal_rcc.c **** 
 872:Drivers/STM32F1xx_HAL_Driver/Src/stm32f1xx_hal_rcc.c ****     /* HSE is selected as System Clock Source */
 873:Drivers/STM32F1xx_HAL_Driver/Src/stm32f1xx_hal_rcc.c ****     if (RCC_ClkInitStruct->SYSCLKSource == RCC_SYSCLKSOURCE_HSE)
 1202              		.loc 1 873 26
 1203 009e 7B68     		ldr	r3, [r7, #4]
 1204 00a0 5B68     		ldr	r3, [r3, #4]
 1205              		.loc 1 873 8
 1206 00a2 012B     		cmp	r3, #1
ARM GAS  C:\Users\57298\AppData\Local\Temp\ccq1CZ60.s 			page 38


 1207 00a4 07D1     		bne	.L87
 874:Drivers/STM32F1xx_HAL_Driver/Src/stm32f1xx_hal_rcc.c ****     {
 875:Drivers/STM32F1xx_HAL_Driver/Src/stm32f1xx_hal_rcc.c ****       /* Check the HSE ready flag */
 876:Drivers/STM32F1xx_HAL_Driver/Src/stm32f1xx_hal_rcc.c ****       if (__HAL_RCC_GET_FLAG(RCC_FLAG_HSERDY) == RESET)
 1208              		.loc 1 876 11
 1209 00a6 474B     		ldr	r3, .L95+4
 1210 00a8 1B68     		ldr	r3, [r3]
 1211 00aa 03F40033 		and	r3, r3, #131072
 1212              		.loc 1 876 10
 1213 00ae 002B     		cmp	r3, #0
 1214 00b0 15D1     		bne	.L88
 877:Drivers/STM32F1xx_HAL_Driver/Src/stm32f1xx_hal_rcc.c ****       {
 878:Drivers/STM32F1xx_HAL_Driver/Src/stm32f1xx_hal_rcc.c ****         return HAL_ERROR;
 1215              		.loc 1 878 16
 1216 00b2 0123     		movs	r3, #1
 1217 00b4 7FE0     		b	.L81
 1218              	.L87:
 879:Drivers/STM32F1xx_HAL_Driver/Src/stm32f1xx_hal_rcc.c ****       }
 880:Drivers/STM32F1xx_HAL_Driver/Src/stm32f1xx_hal_rcc.c ****     }
 881:Drivers/STM32F1xx_HAL_Driver/Src/stm32f1xx_hal_rcc.c ****     /* PLL is selected as System Clock Source */
 882:Drivers/STM32F1xx_HAL_Driver/Src/stm32f1xx_hal_rcc.c ****     else if (RCC_ClkInitStruct->SYSCLKSource == RCC_SYSCLKSOURCE_PLLCLK)
 1219              		.loc 1 882 31
 1220 00b6 7B68     		ldr	r3, [r7, #4]
 1221 00b8 5B68     		ldr	r3, [r3, #4]
 1222              		.loc 1 882 13
 1223 00ba 022B     		cmp	r3, #2
 1224 00bc 07D1     		bne	.L89
 883:Drivers/STM32F1xx_HAL_Driver/Src/stm32f1xx_hal_rcc.c ****     {
 884:Drivers/STM32F1xx_HAL_Driver/Src/stm32f1xx_hal_rcc.c ****       /* Check the PLL ready flag */
 885:Drivers/STM32F1xx_HAL_Driver/Src/stm32f1xx_hal_rcc.c ****       if (__HAL_RCC_GET_FLAG(RCC_FLAG_PLLRDY) == RESET)
 1225              		.loc 1 885 11
 1226 00be 414B     		ldr	r3, .L95+4
 1227 00c0 1B68     		ldr	r3, [r3]
 1228 00c2 03F00073 		and	r3, r3, #33554432
 1229              		.loc 1 885 10
 1230 00c6 002B     		cmp	r3, #0
 1231 00c8 09D1     		bne	.L88
 886:Drivers/STM32F1xx_HAL_Driver/Src/stm32f1xx_hal_rcc.c ****       {
 887:Drivers/STM32F1xx_HAL_Driver/Src/stm32f1xx_hal_rcc.c ****         return HAL_ERROR;
 1232              		.loc 1 887 16
 1233 00ca 0123     		movs	r3, #1
 1234 00cc 73E0     		b	.L81
 1235              	.L89:
 888:Drivers/STM32F1xx_HAL_Driver/Src/stm32f1xx_hal_rcc.c ****       }
 889:Drivers/STM32F1xx_HAL_Driver/Src/stm32f1xx_hal_rcc.c ****     }
 890:Drivers/STM32F1xx_HAL_Driver/Src/stm32f1xx_hal_rcc.c ****     /* HSI is selected as System Clock Source */
 891:Drivers/STM32F1xx_HAL_Driver/Src/stm32f1xx_hal_rcc.c ****     else
 892:Drivers/STM32F1xx_HAL_Driver/Src/stm32f1xx_hal_rcc.c ****     {
 893:Drivers/STM32F1xx_HAL_Driver/Src/stm32f1xx_hal_rcc.c ****       /* Check the HSI ready flag */
 894:Drivers/STM32F1xx_HAL_Driver/Src/stm32f1xx_hal_rcc.c ****       if (__HAL_RCC_GET_FLAG(RCC_FLAG_HSIRDY) == RESET)
 1236              		.loc 1 894 11
 1237 00ce 3D4B     		ldr	r3, .L95+4
 1238 00d0 1B68     		ldr	r3, [r3]
 1239 00d2 03F00203 		and	r3, r3, #2
 1240              		.loc 1 894 10
 1241 00d6 002B     		cmp	r3, #0
 1242 00d8 01D1     		bne	.L88
ARM GAS  C:\Users\57298\AppData\Local\Temp\ccq1CZ60.s 			page 39


 895:Drivers/STM32F1xx_HAL_Driver/Src/stm32f1xx_hal_rcc.c ****       {
 896:Drivers/STM32F1xx_HAL_Driver/Src/stm32f1xx_hal_rcc.c ****         return HAL_ERROR;
 1243              		.loc 1 896 16
 1244 00da 0123     		movs	r3, #1
 1245 00dc 6BE0     		b	.L81
 1246              	.L88:
 897:Drivers/STM32F1xx_HAL_Driver/Src/stm32f1xx_hal_rcc.c ****       }
 898:Drivers/STM32F1xx_HAL_Driver/Src/stm32f1xx_hal_rcc.c ****     }
 899:Drivers/STM32F1xx_HAL_Driver/Src/stm32f1xx_hal_rcc.c ****     __HAL_RCC_SYSCLK_CONFIG(RCC_ClkInitStruct->SYSCLKSource);
 1247              		.loc 1 899 5
 1248 00de 394B     		ldr	r3, .L95+4
 1249 00e0 5B68     		ldr	r3, [r3, #4]
 1250 00e2 23F00302 		bic	r2, r3, #3
 1251 00e6 7B68     		ldr	r3, [r7, #4]
 1252 00e8 5B68     		ldr	r3, [r3, #4]
 1253 00ea 3649     		ldr	r1, .L95+4
 1254 00ec 1343     		orrs	r3, r3, r2
 1255 00ee 4B60     		str	r3, [r1, #4]
 900:Drivers/STM32F1xx_HAL_Driver/Src/stm32f1xx_hal_rcc.c **** 
 901:Drivers/STM32F1xx_HAL_Driver/Src/stm32f1xx_hal_rcc.c ****     /* Get Start Tick */
 902:Drivers/STM32F1xx_HAL_Driver/Src/stm32f1xx_hal_rcc.c ****     tickstart = HAL_GetTick();
 1256              		.loc 1 902 17
 1257 00f0 FFF7FEFF 		bl	HAL_GetTick
 1258 00f4 F860     		str	r0, [r7, #12]
 903:Drivers/STM32F1xx_HAL_Driver/Src/stm32f1xx_hal_rcc.c **** 
 904:Drivers/STM32F1xx_HAL_Driver/Src/stm32f1xx_hal_rcc.c ****     while (__HAL_RCC_GET_SYSCLK_SOURCE() != (RCC_ClkInitStruct->SYSCLKSource << RCC_CFGR_SWS_Pos))
 1259              		.loc 1 904 11
 1260 00f6 0AE0     		b	.L90
 1261              	.L91:
 905:Drivers/STM32F1xx_HAL_Driver/Src/stm32f1xx_hal_rcc.c ****     {
 906:Drivers/STM32F1xx_HAL_Driver/Src/stm32f1xx_hal_rcc.c ****       if ((HAL_GetTick() - tickstart) > CLOCKSWITCH_TIMEOUT_VALUE)
 1262              		.loc 1 906 12
 1263 00f8 FFF7FEFF 		bl	HAL_GetTick
 1264 00fc 0246     		mov	r2, r0
 1265              		.loc 1 906 26
 1266 00fe FB68     		ldr	r3, [r7, #12]
 1267 0100 D31A     		subs	r3, r2, r3
 1268              		.loc 1 906 10
 1269 0102 41F28832 		movw	r2, #5000
 1270 0106 9342     		cmp	r3, r2
 1271 0108 01D9     		bls	.L90
 907:Drivers/STM32F1xx_HAL_Driver/Src/stm32f1xx_hal_rcc.c ****       {
 908:Drivers/STM32F1xx_HAL_Driver/Src/stm32f1xx_hal_rcc.c ****         return HAL_TIMEOUT;
 1272              		.loc 1 908 16
 1273 010a 0323     		movs	r3, #3
 1274 010c 53E0     		b	.L81
 1275              	.L90:
 904:Drivers/STM32F1xx_HAL_Driver/Src/stm32f1xx_hal_rcc.c ****     {
 1276              		.loc 1 904 12
 1277 010e 2D4B     		ldr	r3, .L95+4
 1278 0110 5B68     		ldr	r3, [r3, #4]
 1279 0112 03F00C02 		and	r2, r3, #12
 904:Drivers/STM32F1xx_HAL_Driver/Src/stm32f1xx_hal_rcc.c ****     {
 1280              		.loc 1 904 63
 1281 0116 7B68     		ldr	r3, [r7, #4]
 1282 0118 5B68     		ldr	r3, [r3, #4]
 904:Drivers/STM32F1xx_HAL_Driver/Src/stm32f1xx_hal_rcc.c ****     {
ARM GAS  C:\Users\57298\AppData\Local\Temp\ccq1CZ60.s 			page 40


 1283              		.loc 1 904 78
 1284 011a 9B00     		lsls	r3, r3, #2
 904:Drivers/STM32F1xx_HAL_Driver/Src/stm32f1xx_hal_rcc.c ****     {
 1285              		.loc 1 904 11
 1286 011c 9A42     		cmp	r2, r3
 1287 011e EBD1     		bne	.L91
 1288              	.L86:
 909:Drivers/STM32F1xx_HAL_Driver/Src/stm32f1xx_hal_rcc.c ****       }
 910:Drivers/STM32F1xx_HAL_Driver/Src/stm32f1xx_hal_rcc.c ****     }
 911:Drivers/STM32F1xx_HAL_Driver/Src/stm32f1xx_hal_rcc.c ****   }
 912:Drivers/STM32F1xx_HAL_Driver/Src/stm32f1xx_hal_rcc.c **** 
 913:Drivers/STM32F1xx_HAL_Driver/Src/stm32f1xx_hal_rcc.c **** #if defined(FLASH_ACR_LATENCY)
 914:Drivers/STM32F1xx_HAL_Driver/Src/stm32f1xx_hal_rcc.c ****   /* Decreasing the number of wait states because of lower CPU frequency */
 915:Drivers/STM32F1xx_HAL_Driver/Src/stm32f1xx_hal_rcc.c ****   if (FLatency < __HAL_FLASH_GET_LATENCY())
 1289              		.loc 1 915 18
 1290 0120 274B     		ldr	r3, .L95
 1291 0122 1B68     		ldr	r3, [r3]
 1292 0124 03F00703 		and	r3, r3, #7
 1293              		.loc 1 915 6
 1294 0128 3A68     		ldr	r2, [r7]
 1295 012a 9A42     		cmp	r2, r3
 1296 012c 10D2     		bcs	.L92
 916:Drivers/STM32F1xx_HAL_Driver/Src/stm32f1xx_hal_rcc.c ****   {
 917:Drivers/STM32F1xx_HAL_Driver/Src/stm32f1xx_hal_rcc.c ****     /* Program the new number of wait states to the LATENCY bits in the FLASH_ACR register */
 918:Drivers/STM32F1xx_HAL_Driver/Src/stm32f1xx_hal_rcc.c ****     __HAL_FLASH_SET_LATENCY(FLatency);
 1297              		.loc 1 918 5
 1298 012e 244B     		ldr	r3, .L95
 1299 0130 1B68     		ldr	r3, [r3]
 1300 0132 23F00702 		bic	r2, r3, #7
 1301 0136 2249     		ldr	r1, .L95
 1302 0138 3B68     		ldr	r3, [r7]
 1303 013a 1343     		orrs	r3, r3, r2
 1304 013c 0B60     		str	r3, [r1]
 919:Drivers/STM32F1xx_HAL_Driver/Src/stm32f1xx_hal_rcc.c **** 
 920:Drivers/STM32F1xx_HAL_Driver/Src/stm32f1xx_hal_rcc.c ****     /* Check that the new number of wait states is taken into account to access the Flash
 921:Drivers/STM32F1xx_HAL_Driver/Src/stm32f1xx_hal_rcc.c ****     memory by reading the FLASH_ACR register */
 922:Drivers/STM32F1xx_HAL_Driver/Src/stm32f1xx_hal_rcc.c ****     if (__HAL_FLASH_GET_LATENCY() != FLatency)
 1305              		.loc 1 922 9
 1306 013e 204B     		ldr	r3, .L95
 1307 0140 1B68     		ldr	r3, [r3]
 1308 0142 03F00703 		and	r3, r3, #7
 1309              		.loc 1 922 8
 1310 0146 3A68     		ldr	r2, [r7]
 1311 0148 9A42     		cmp	r2, r3
 1312 014a 01D0     		beq	.L92
 923:Drivers/STM32F1xx_HAL_Driver/Src/stm32f1xx_hal_rcc.c ****   {
 924:Drivers/STM32F1xx_HAL_Driver/Src/stm32f1xx_hal_rcc.c ****     return HAL_ERROR;
 1313              		.loc 1 924 12
 1314 014c 0123     		movs	r3, #1
 1315 014e 32E0     		b	.L81
 1316              	.L92:
 925:Drivers/STM32F1xx_HAL_Driver/Src/stm32f1xx_hal_rcc.c ****   }
 926:Drivers/STM32F1xx_HAL_Driver/Src/stm32f1xx_hal_rcc.c **** }
 927:Drivers/STM32F1xx_HAL_Driver/Src/stm32f1xx_hal_rcc.c **** #endif /* FLASH_ACR_LATENCY */
 928:Drivers/STM32F1xx_HAL_Driver/Src/stm32f1xx_hal_rcc.c **** 
 929:Drivers/STM32F1xx_HAL_Driver/Src/stm32f1xx_hal_rcc.c **** /*-------------------------- PCLK1 Configuration ---------------------------*/
 930:Drivers/STM32F1xx_HAL_Driver/Src/stm32f1xx_hal_rcc.c **** if (((RCC_ClkInitStruct->ClockType) & RCC_CLOCKTYPE_PCLK1) == RCC_CLOCKTYPE_PCLK1)
ARM GAS  C:\Users\57298\AppData\Local\Temp\ccq1CZ60.s 			page 41


 1317              		.loc 1 930 24
 1318 0150 7B68     		ldr	r3, [r7, #4]
 1319 0152 1B68     		ldr	r3, [r3]
 1320              		.loc 1 930 37
 1321 0154 03F00403 		and	r3, r3, #4
 1322              		.loc 1 930 4
 1323 0158 002B     		cmp	r3, #0
 1324 015a 08D0     		beq	.L93
 931:Drivers/STM32F1xx_HAL_Driver/Src/stm32f1xx_hal_rcc.c ****   {
 932:Drivers/STM32F1xx_HAL_Driver/Src/stm32f1xx_hal_rcc.c ****     assert_param(IS_RCC_PCLK(RCC_ClkInitStruct->APB1CLKDivider));
 933:Drivers/STM32F1xx_HAL_Driver/Src/stm32f1xx_hal_rcc.c ****     MODIFY_REG(RCC->CFGR, RCC_CFGR_PPRE1, RCC_ClkInitStruct->APB1CLKDivider);
 1325              		.loc 1 933 5
 1326 015c 194B     		ldr	r3, .L95+4
 1327 015e 5B68     		ldr	r3, [r3, #4]
 1328 0160 23F4E062 		bic	r2, r3, #1792
 1329 0164 7B68     		ldr	r3, [r7, #4]
 1330 0166 DB68     		ldr	r3, [r3, #12]
 1331 0168 1649     		ldr	r1, .L95+4
 1332 016a 1343     		orrs	r3, r3, r2
 1333 016c 4B60     		str	r3, [r1, #4]
 1334              	.L93:
 934:Drivers/STM32F1xx_HAL_Driver/Src/stm32f1xx_hal_rcc.c ****   }
 935:Drivers/STM32F1xx_HAL_Driver/Src/stm32f1xx_hal_rcc.c **** 
 936:Drivers/STM32F1xx_HAL_Driver/Src/stm32f1xx_hal_rcc.c ****   /*-------------------------- PCLK2 Configuration ---------------------------*/
 937:Drivers/STM32F1xx_HAL_Driver/Src/stm32f1xx_hal_rcc.c ****   if (((RCC_ClkInitStruct->ClockType) & RCC_CLOCKTYPE_PCLK2) == RCC_CLOCKTYPE_PCLK2)
 1335              		.loc 1 937 26
 1336 016e 7B68     		ldr	r3, [r7, #4]
 1337 0170 1B68     		ldr	r3, [r3]
 1338              		.loc 1 937 39
 1339 0172 03F00803 		and	r3, r3, #8
 1340              		.loc 1 937 6
 1341 0176 002B     		cmp	r3, #0
 1342 0178 09D0     		beq	.L94
 938:Drivers/STM32F1xx_HAL_Driver/Src/stm32f1xx_hal_rcc.c ****   {
 939:Drivers/STM32F1xx_HAL_Driver/Src/stm32f1xx_hal_rcc.c ****     assert_param(IS_RCC_PCLK(RCC_ClkInitStruct->APB2CLKDivider));
 940:Drivers/STM32F1xx_HAL_Driver/Src/stm32f1xx_hal_rcc.c ****     MODIFY_REG(RCC->CFGR, RCC_CFGR_PPRE2, ((RCC_ClkInitStruct->APB2CLKDivider) << 3));
 1343              		.loc 1 940 5
 1344 017a 124B     		ldr	r3, .L95+4
 1345 017c 5B68     		ldr	r3, [r3, #4]
 1346 017e 23F46052 		bic	r2, r3, #14336
 1347 0182 7B68     		ldr	r3, [r7, #4]
 1348 0184 1B69     		ldr	r3, [r3, #16]
 1349 0186 DB00     		lsls	r3, r3, #3
 1350 0188 0E49     		ldr	r1, .L95+4
 1351 018a 1343     		orrs	r3, r3, r2
 1352 018c 4B60     		str	r3, [r1, #4]
 1353              	.L94:
 941:Drivers/STM32F1xx_HAL_Driver/Src/stm32f1xx_hal_rcc.c ****   }
 942:Drivers/STM32F1xx_HAL_Driver/Src/stm32f1xx_hal_rcc.c **** 
 943:Drivers/STM32F1xx_HAL_Driver/Src/stm32f1xx_hal_rcc.c ****   /* Update the SystemCoreClock global variable */
 944:Drivers/STM32F1xx_HAL_Driver/Src/stm32f1xx_hal_rcc.c ****   SystemCoreClock = HAL_RCC_GetSysClockFreq() >> AHBPrescTable[(RCC->CFGR & RCC_CFGR_HPRE) >> RCC_C
 1354              		.loc 1 944 21
 1355 018e FFF7FEFF 		bl	HAL_RCC_GetSysClockFreq
 1356 0192 0246     		mov	r2, r0
 1357              		.loc 1 944 68
 1358 0194 0B4B     		ldr	r3, .L95+4
 1359 0196 5B68     		ldr	r3, [r3, #4]
ARM GAS  C:\Users\57298\AppData\Local\Temp\ccq1CZ60.s 			page 42


 1360              		.loc 1 944 92
 1361 0198 1B09     		lsrs	r3, r3, #4
 1362 019a 03F00F03 		and	r3, r3, #15
 1363              		.loc 1 944 63
 1364 019e 0A49     		ldr	r1, .L95+8
 1365 01a0 CB5C     		ldrb	r3, [r1, r3]	@ zero_extendqisi2
 1366              		.loc 1 944 47
 1367 01a2 22FA03F3 		lsr	r3, r2, r3
 1368              		.loc 1 944 19
 1369 01a6 094A     		ldr	r2, .L95+12
 1370 01a8 1360     		str	r3, [r2]
 945:Drivers/STM32F1xx_HAL_Driver/Src/stm32f1xx_hal_rcc.c **** 
 946:Drivers/STM32F1xx_HAL_Driver/Src/stm32f1xx_hal_rcc.c ****   /* Configure the source of time base considering new system clocks settings*/
 947:Drivers/STM32F1xx_HAL_Driver/Src/stm32f1xx_hal_rcc.c ****   HAL_InitTick(uwTickPrio);
 1371              		.loc 1 947 3
 1372 01aa 094B     		ldr	r3, .L95+16
 1373 01ac 1B68     		ldr	r3, [r3]
 1374 01ae 1846     		mov	r0, r3
 1375 01b0 FFF7FEFF 		bl	HAL_InitTick
 948:Drivers/STM32F1xx_HAL_Driver/Src/stm32f1xx_hal_rcc.c **** 
 949:Drivers/STM32F1xx_HAL_Driver/Src/stm32f1xx_hal_rcc.c ****   return HAL_OK;
 1376              		.loc 1 949 10
 1377 01b4 0023     		movs	r3, #0
 1378              	.L81:
 950:Drivers/STM32F1xx_HAL_Driver/Src/stm32f1xx_hal_rcc.c **** }
 1379              		.loc 1 950 1
 1380 01b6 1846     		mov	r0, r3
 1381 01b8 1037     		adds	r7, r7, #16
 1382              	.LCFI13:
 1383              		.cfi_def_cfa_offset 8
 1384 01ba BD46     		mov	sp, r7
 1385              	.LCFI14:
 1386              		.cfi_def_cfa_register 13
 1387              		@ sp needed
 1388 01bc 80BD     		pop	{r7, pc}
 1389              	.L96:
 1390 01be 00BF     		.align	2
 1391              	.L95:
 1392 01c0 00200240 		.word	1073881088
 1393 01c4 00100240 		.word	1073876992
 1394 01c8 00000000 		.word	AHBPrescTable
 1395 01cc 00000000 		.word	SystemCoreClock
 1396 01d0 00000000 		.word	uwTickPrio
 1397              		.cfi_endproc
 1398              	.LFE67:
 1400              		.section	.text.HAL_RCC_MCOConfig,"ax",%progbits
 1401              		.align	1
 1402              		.global	HAL_RCC_MCOConfig
 1403              		.syntax unified
 1404              		.thumb
 1405              		.thumb_func
 1407              	HAL_RCC_MCOConfig:
 1408              	.LFB68:
 951:Drivers/STM32F1xx_HAL_Driver/Src/stm32f1xx_hal_rcc.c **** 
 952:Drivers/STM32F1xx_HAL_Driver/Src/stm32f1xx_hal_rcc.c **** /**
 953:Drivers/STM32F1xx_HAL_Driver/Src/stm32f1xx_hal_rcc.c ****   * @}
 954:Drivers/STM32F1xx_HAL_Driver/Src/stm32f1xx_hal_rcc.c ****   */
ARM GAS  C:\Users\57298\AppData\Local\Temp\ccq1CZ60.s 			page 43


 955:Drivers/STM32F1xx_HAL_Driver/Src/stm32f1xx_hal_rcc.c **** 
 956:Drivers/STM32F1xx_HAL_Driver/Src/stm32f1xx_hal_rcc.c **** /** @defgroup RCC_Exported_Functions_Group2 Peripheral Control functions
 957:Drivers/STM32F1xx_HAL_Driver/Src/stm32f1xx_hal_rcc.c ****   *  @brief   RCC clocks control functions
 958:Drivers/STM32F1xx_HAL_Driver/Src/stm32f1xx_hal_rcc.c ****   *
 959:Drivers/STM32F1xx_HAL_Driver/Src/stm32f1xx_hal_rcc.c ****   @verbatim
 960:Drivers/STM32F1xx_HAL_Driver/Src/stm32f1xx_hal_rcc.c ****   ===============================================================================
 961:Drivers/STM32F1xx_HAL_Driver/Src/stm32f1xx_hal_rcc.c ****                   ##### Peripheral Control functions #####
 962:Drivers/STM32F1xx_HAL_Driver/Src/stm32f1xx_hal_rcc.c ****   ===============================================================================
 963:Drivers/STM32F1xx_HAL_Driver/Src/stm32f1xx_hal_rcc.c ****     [..]
 964:Drivers/STM32F1xx_HAL_Driver/Src/stm32f1xx_hal_rcc.c ****     This subsection provides a set of functions allowing to control the RCC Clocks
 965:Drivers/STM32F1xx_HAL_Driver/Src/stm32f1xx_hal_rcc.c ****     frequencies.
 966:Drivers/STM32F1xx_HAL_Driver/Src/stm32f1xx_hal_rcc.c **** 
 967:Drivers/STM32F1xx_HAL_Driver/Src/stm32f1xx_hal_rcc.c ****   @endverbatim
 968:Drivers/STM32F1xx_HAL_Driver/Src/stm32f1xx_hal_rcc.c ****   * @{
 969:Drivers/STM32F1xx_HAL_Driver/Src/stm32f1xx_hal_rcc.c ****   */
 970:Drivers/STM32F1xx_HAL_Driver/Src/stm32f1xx_hal_rcc.c **** 
 971:Drivers/STM32F1xx_HAL_Driver/Src/stm32f1xx_hal_rcc.c **** /**
 972:Drivers/STM32F1xx_HAL_Driver/Src/stm32f1xx_hal_rcc.c ****   * @brief  Selects the clock source to output on MCO pin.
 973:Drivers/STM32F1xx_HAL_Driver/Src/stm32f1xx_hal_rcc.c ****   * @note   MCO pin should be configured in alternate function mode.
 974:Drivers/STM32F1xx_HAL_Driver/Src/stm32f1xx_hal_rcc.c ****   * @param  RCC_MCOx specifies the output direction for the clock source.
 975:Drivers/STM32F1xx_HAL_Driver/Src/stm32f1xx_hal_rcc.c ****   *          This parameter can be one of the following values:
 976:Drivers/STM32F1xx_HAL_Driver/Src/stm32f1xx_hal_rcc.c ****   *            @arg @ref RCC_MCO1 Clock source to output on MCO1 pin(PA8).
 977:Drivers/STM32F1xx_HAL_Driver/Src/stm32f1xx_hal_rcc.c ****   * @param  RCC_MCOSource specifies the clock source to output.
 978:Drivers/STM32F1xx_HAL_Driver/Src/stm32f1xx_hal_rcc.c ****   *          This parameter can be one of the following values:
 979:Drivers/STM32F1xx_HAL_Driver/Src/stm32f1xx_hal_rcc.c ****   *            @arg @ref RCC_MCO1SOURCE_NOCLOCK     No clock selected as MCO clock
 980:Drivers/STM32F1xx_HAL_Driver/Src/stm32f1xx_hal_rcc.c ****   *            @arg @ref RCC_MCO1SOURCE_SYSCLK      System clock selected as MCO clock
 981:Drivers/STM32F1xx_HAL_Driver/Src/stm32f1xx_hal_rcc.c ****   *            @arg @ref RCC_MCO1SOURCE_HSI         HSI selected as MCO clock
 982:Drivers/STM32F1xx_HAL_Driver/Src/stm32f1xx_hal_rcc.c ****   *            @arg @ref RCC_MCO1SOURCE_HSE         HSE selected as MCO clock
 983:Drivers/STM32F1xx_HAL_Driver/Src/stm32f1xx_hal_rcc.c ****   @if STM32F105xC
 984:Drivers/STM32F1xx_HAL_Driver/Src/stm32f1xx_hal_rcc.c ****   *            @arg @ref RCC_MCO1SOURCE_PLLCLK       PLL clock divided by 2 selected as MCO source
 985:Drivers/STM32F1xx_HAL_Driver/Src/stm32f1xx_hal_rcc.c ****   *            @arg @ref RCC_MCO1SOURCE_PLL2CLK      PLL2 clock selected as MCO source
 986:Drivers/STM32F1xx_HAL_Driver/Src/stm32f1xx_hal_rcc.c ****   *            @arg @ref RCC_MCO1SOURCE_PLL3CLK_DIV2 PLL3 clock divided by 2 selected as MCO source
 987:Drivers/STM32F1xx_HAL_Driver/Src/stm32f1xx_hal_rcc.c ****   *            @arg @ref RCC_MCO1SOURCE_EXT_HSE      XT1 external 3-25 MHz oscillator clock selecte
 988:Drivers/STM32F1xx_HAL_Driver/Src/stm32f1xx_hal_rcc.c ****   *            @arg @ref RCC_MCO1SOURCE_PLL3CLK      PLL3 clock selected as MCO source
 989:Drivers/STM32F1xx_HAL_Driver/Src/stm32f1xx_hal_rcc.c ****   @endif
 990:Drivers/STM32F1xx_HAL_Driver/Src/stm32f1xx_hal_rcc.c ****   @if STM32F107xC
 991:Drivers/STM32F1xx_HAL_Driver/Src/stm32f1xx_hal_rcc.c ****   *            @arg @ref RCC_MCO1SOURCE_PLLCLK       PLL clock divided by 2 selected as MCO source
 992:Drivers/STM32F1xx_HAL_Driver/Src/stm32f1xx_hal_rcc.c ****   *            @arg @ref RCC_MCO1SOURCE_PLL2CLK      PLL2 clock selected as MCO source
 993:Drivers/STM32F1xx_HAL_Driver/Src/stm32f1xx_hal_rcc.c ****   *            @arg @ref RCC_MCO1SOURCE_PLL3CLK_DIV2 PLL3 clock divided by 2 selected as MCO source
 994:Drivers/STM32F1xx_HAL_Driver/Src/stm32f1xx_hal_rcc.c ****   *            @arg @ref RCC_MCO1SOURCE_EXT_HSE XT1  external 3-25 MHz oscillator clock selected as
 995:Drivers/STM32F1xx_HAL_Driver/Src/stm32f1xx_hal_rcc.c ****   *            @arg @ref RCC_MCO1SOURCE_PLL3CLK      PLL3 clock selected as MCO source
 996:Drivers/STM32F1xx_HAL_Driver/Src/stm32f1xx_hal_rcc.c ****   @endif
 997:Drivers/STM32F1xx_HAL_Driver/Src/stm32f1xx_hal_rcc.c ****   * @param  RCC_MCODiv specifies the MCO DIV.
 998:Drivers/STM32F1xx_HAL_Driver/Src/stm32f1xx_hal_rcc.c ****   *          This parameter can be one of the following values:
 999:Drivers/STM32F1xx_HAL_Driver/Src/stm32f1xx_hal_rcc.c ****   *            @arg @ref RCC_MCODIV_1 no division applied to MCO clock
1000:Drivers/STM32F1xx_HAL_Driver/Src/stm32f1xx_hal_rcc.c ****   * @retval None
1001:Drivers/STM32F1xx_HAL_Driver/Src/stm32f1xx_hal_rcc.c ****   */
1002:Drivers/STM32F1xx_HAL_Driver/Src/stm32f1xx_hal_rcc.c **** void HAL_RCC_MCOConfig(uint32_t RCC_MCOx, uint32_t RCC_MCOSource, uint32_t RCC_MCODiv)
1003:Drivers/STM32F1xx_HAL_Driver/Src/stm32f1xx_hal_rcc.c **** {
 1409              		.loc 1 1003 1
 1410              		.cfi_startproc
 1411              		@ args = 0, pretend = 0, frame = 40
 1412              		@ frame_needed = 1, uses_anonymous_args = 0
 1413 0000 80B5     		push	{r7, lr}
 1414              	.LCFI15:
 1415              		.cfi_def_cfa_offset 8
 1416              		.cfi_offset 7, -8
ARM GAS  C:\Users\57298\AppData\Local\Temp\ccq1CZ60.s 			page 44


 1417              		.cfi_offset 14, -4
 1418 0002 8AB0     		sub	sp, sp, #40
 1419              	.LCFI16:
 1420              		.cfi_def_cfa_offset 48
 1421 0004 00AF     		add	r7, sp, #0
 1422              	.LCFI17:
 1423              		.cfi_def_cfa_register 7
 1424 0006 F860     		str	r0, [r7, #12]
 1425 0008 B960     		str	r1, [r7, #8]
 1426 000a 7A60     		str	r2, [r7, #4]
1004:Drivers/STM32F1xx_HAL_Driver/Src/stm32f1xx_hal_rcc.c ****   GPIO_InitTypeDef gpio = {0U};
 1427              		.loc 1 1004 20
 1428 000c 07F11803 		add	r3, r7, #24
 1429 0010 0022     		movs	r2, #0
 1430 0012 1A60     		str	r2, [r3]
 1431 0014 5A60     		str	r2, [r3, #4]
 1432 0016 9A60     		str	r2, [r3, #8]
 1433 0018 DA60     		str	r2, [r3, #12]
1005:Drivers/STM32F1xx_HAL_Driver/Src/stm32f1xx_hal_rcc.c **** 
1006:Drivers/STM32F1xx_HAL_Driver/Src/stm32f1xx_hal_rcc.c ****   /* Check the parameters */
1007:Drivers/STM32F1xx_HAL_Driver/Src/stm32f1xx_hal_rcc.c ****   assert_param(IS_RCC_MCO(RCC_MCOx));
1008:Drivers/STM32F1xx_HAL_Driver/Src/stm32f1xx_hal_rcc.c ****   assert_param(IS_RCC_MCODIV(RCC_MCODiv));
1009:Drivers/STM32F1xx_HAL_Driver/Src/stm32f1xx_hal_rcc.c ****   assert_param(IS_RCC_MCO1SOURCE(RCC_MCOSource));
1010:Drivers/STM32F1xx_HAL_Driver/Src/stm32f1xx_hal_rcc.c **** 
1011:Drivers/STM32F1xx_HAL_Driver/Src/stm32f1xx_hal_rcc.c ****   /* Prevent unused argument(s) compilation warning */
1012:Drivers/STM32F1xx_HAL_Driver/Src/stm32f1xx_hal_rcc.c ****   UNUSED(RCC_MCOx);
1013:Drivers/STM32F1xx_HAL_Driver/Src/stm32f1xx_hal_rcc.c ****   UNUSED(RCC_MCODiv);
1014:Drivers/STM32F1xx_HAL_Driver/Src/stm32f1xx_hal_rcc.c **** 
1015:Drivers/STM32F1xx_HAL_Driver/Src/stm32f1xx_hal_rcc.c ****   /* Configure the MCO1 pin in alternate function mode */
1016:Drivers/STM32F1xx_HAL_Driver/Src/stm32f1xx_hal_rcc.c ****   gpio.Mode      = GPIO_MODE_AF_PP;
 1434              		.loc 1 1016 18
 1435 001a 0223     		movs	r3, #2
 1436 001c FB61     		str	r3, [r7, #28]
1017:Drivers/STM32F1xx_HAL_Driver/Src/stm32f1xx_hal_rcc.c ****   gpio.Speed     = GPIO_SPEED_FREQ_HIGH;
 1437              		.loc 1 1017 18
 1438 001e 0323     		movs	r3, #3
 1439 0020 7B62     		str	r3, [r7, #36]
1018:Drivers/STM32F1xx_HAL_Driver/Src/stm32f1xx_hal_rcc.c ****   gpio.Pull      = GPIO_NOPULL;
 1440              		.loc 1 1018 18
 1441 0022 0023     		movs	r3, #0
 1442 0024 3B62     		str	r3, [r7, #32]
1019:Drivers/STM32F1xx_HAL_Driver/Src/stm32f1xx_hal_rcc.c ****   gpio.Pin       = MCO1_PIN;
 1443              		.loc 1 1019 18
 1444 0026 4FF48073 		mov	r3, #256
 1445 002a BB61     		str	r3, [r7, #24]
 1446              	.LBB4:
1020:Drivers/STM32F1xx_HAL_Driver/Src/stm32f1xx_hal_rcc.c **** 
1021:Drivers/STM32F1xx_HAL_Driver/Src/stm32f1xx_hal_rcc.c ****   /* MCO1 Clock Enable */
1022:Drivers/STM32F1xx_HAL_Driver/Src/stm32f1xx_hal_rcc.c ****   MCO1_CLK_ENABLE();
 1447              		.loc 1 1022 3
 1448 002c 0E4B     		ldr	r3, .L98
 1449 002e 9B69     		ldr	r3, [r3, #24]
 1450 0030 0D4A     		ldr	r2, .L98
 1451 0032 43F00403 		orr	r3, r3, #4
 1452 0036 9361     		str	r3, [r2, #24]
 1453 0038 0B4B     		ldr	r3, .L98
 1454 003a 9B69     		ldr	r3, [r3, #24]
ARM GAS  C:\Users\57298\AppData\Local\Temp\ccq1CZ60.s 			page 45


 1455 003c 03F00403 		and	r3, r3, #4
 1456 0040 7B61     		str	r3, [r7, #20]
 1457 0042 7B69     		ldr	r3, [r7, #20]
 1458              	.LBE4:
1023:Drivers/STM32F1xx_HAL_Driver/Src/stm32f1xx_hal_rcc.c **** 
1024:Drivers/STM32F1xx_HAL_Driver/Src/stm32f1xx_hal_rcc.c ****   HAL_GPIO_Init(MCO1_GPIO_PORT, &gpio);
 1459              		.loc 1 1024 3
 1460 0044 07F11803 		add	r3, r7, #24
 1461 0048 1946     		mov	r1, r3
 1462 004a 0848     		ldr	r0, .L98+4
 1463 004c FFF7FEFF 		bl	HAL_GPIO_Init
1025:Drivers/STM32F1xx_HAL_Driver/Src/stm32f1xx_hal_rcc.c **** 
1026:Drivers/STM32F1xx_HAL_Driver/Src/stm32f1xx_hal_rcc.c ****   /* Configure the MCO clock source */
1027:Drivers/STM32F1xx_HAL_Driver/Src/stm32f1xx_hal_rcc.c ****   __HAL_RCC_MCO1_CONFIG(RCC_MCOSource, RCC_MCODiv);
 1464              		.loc 1 1027 3
 1465 0050 054B     		ldr	r3, .L98
 1466 0052 5B68     		ldr	r3, [r3, #4]
 1467 0054 23F0E062 		bic	r2, r3, #117440512
 1468 0058 0349     		ldr	r1, .L98
 1469 005a BB68     		ldr	r3, [r7, #8]
 1470 005c 1343     		orrs	r3, r3, r2
 1471 005e 4B60     		str	r3, [r1, #4]
1028:Drivers/STM32F1xx_HAL_Driver/Src/stm32f1xx_hal_rcc.c **** }
 1472              		.loc 1 1028 1
 1473 0060 00BF     		nop
 1474 0062 2837     		adds	r7, r7, #40
 1475              	.LCFI18:
 1476              		.cfi_def_cfa_offset 8
 1477 0064 BD46     		mov	sp, r7
 1478              	.LCFI19:
 1479              		.cfi_def_cfa_register 13
 1480              		@ sp needed
 1481 0066 80BD     		pop	{r7, pc}
 1482              	.L99:
 1483              		.align	2
 1484              	.L98:
 1485 0068 00100240 		.word	1073876992
 1486 006c 00080140 		.word	1073809408
 1487              		.cfi_endproc
 1488              	.LFE68:
 1490              		.section	.text.HAL_RCC_EnableCSS,"ax",%progbits
 1491              		.align	1
 1492              		.global	HAL_RCC_EnableCSS
 1493              		.syntax unified
 1494              		.thumb
 1495              		.thumb_func
 1497              	HAL_RCC_EnableCSS:
 1498              	.LFB69:
1029:Drivers/STM32F1xx_HAL_Driver/Src/stm32f1xx_hal_rcc.c **** 
1030:Drivers/STM32F1xx_HAL_Driver/Src/stm32f1xx_hal_rcc.c **** /**
1031:Drivers/STM32F1xx_HAL_Driver/Src/stm32f1xx_hal_rcc.c ****   * @brief  Enables the Clock Security System.
1032:Drivers/STM32F1xx_HAL_Driver/Src/stm32f1xx_hal_rcc.c ****   * @note   If a failure is detected on the HSE oscillator clock, this oscillator
1033:Drivers/STM32F1xx_HAL_Driver/Src/stm32f1xx_hal_rcc.c ****   *         is automatically disabled and an interrupt is generated to inform the
1034:Drivers/STM32F1xx_HAL_Driver/Src/stm32f1xx_hal_rcc.c ****   *         software about the failure (Clock Security System Interrupt, CSSI),
1035:Drivers/STM32F1xx_HAL_Driver/Src/stm32f1xx_hal_rcc.c ****   *         allowing the MCU to perform rescue operations. The CSSI is linked to
1036:Drivers/STM32F1xx_HAL_Driver/Src/stm32f1xx_hal_rcc.c ****   *         the Cortex-M3 NMI (Non-Maskable Interrupt) exception vector.
1037:Drivers/STM32F1xx_HAL_Driver/Src/stm32f1xx_hal_rcc.c ****   * @retval None
ARM GAS  C:\Users\57298\AppData\Local\Temp\ccq1CZ60.s 			page 46


1038:Drivers/STM32F1xx_HAL_Driver/Src/stm32f1xx_hal_rcc.c ****   */
1039:Drivers/STM32F1xx_HAL_Driver/Src/stm32f1xx_hal_rcc.c **** void HAL_RCC_EnableCSS(void)
1040:Drivers/STM32F1xx_HAL_Driver/Src/stm32f1xx_hal_rcc.c **** {
 1499              		.loc 1 1040 1
 1500              		.cfi_startproc
 1501              		@ args = 0, pretend = 0, frame = 0
 1502              		@ frame_needed = 1, uses_anonymous_args = 0
 1503              		@ link register save eliminated.
 1504 0000 80B4     		push	{r7}
 1505              	.LCFI20:
 1506              		.cfi_def_cfa_offset 4
 1507              		.cfi_offset 7, -4
 1508 0002 00AF     		add	r7, sp, #0
 1509              	.LCFI21:
 1510              		.cfi_def_cfa_register 7
1041:Drivers/STM32F1xx_HAL_Driver/Src/stm32f1xx_hal_rcc.c ****   *(__IO uint32_t *) RCC_CR_CSSON_BB = (uint32_t)ENABLE;
 1511              		.loc 1 1041 3
 1512 0004 034B     		ldr	r3, .L101
 1513              		.loc 1 1041 38
 1514 0006 0122     		movs	r2, #1
 1515 0008 1A60     		str	r2, [r3]
1042:Drivers/STM32F1xx_HAL_Driver/Src/stm32f1xx_hal_rcc.c **** }
 1516              		.loc 1 1042 1
 1517 000a 00BF     		nop
 1518 000c BD46     		mov	sp, r7
 1519              	.LCFI22:
 1520              		.cfi_def_cfa_register 13
 1521              		@ sp needed
 1522 000e 80BC     		pop	{r7}
 1523              	.LCFI23:
 1524              		.cfi_restore 7
 1525              		.cfi_def_cfa_offset 0
 1526 0010 7047     		bx	lr
 1527              	.L102:
 1528 0012 00BF     		.align	2
 1529              	.L101:
 1530 0014 4C004242 		.word	1111621708
 1531              		.cfi_endproc
 1532              	.LFE69:
 1534              		.section	.text.HAL_RCC_DisableCSS,"ax",%progbits
 1535              		.align	1
 1536              		.global	HAL_RCC_DisableCSS
 1537              		.syntax unified
 1538              		.thumb
 1539              		.thumb_func
 1541              	HAL_RCC_DisableCSS:
 1542              	.LFB70:
1043:Drivers/STM32F1xx_HAL_Driver/Src/stm32f1xx_hal_rcc.c **** 
1044:Drivers/STM32F1xx_HAL_Driver/Src/stm32f1xx_hal_rcc.c **** /**
1045:Drivers/STM32F1xx_HAL_Driver/Src/stm32f1xx_hal_rcc.c ****   * @brief  Disables the Clock Security System.
1046:Drivers/STM32F1xx_HAL_Driver/Src/stm32f1xx_hal_rcc.c ****   * @retval None
1047:Drivers/STM32F1xx_HAL_Driver/Src/stm32f1xx_hal_rcc.c ****   */
1048:Drivers/STM32F1xx_HAL_Driver/Src/stm32f1xx_hal_rcc.c **** void HAL_RCC_DisableCSS(void)
1049:Drivers/STM32F1xx_HAL_Driver/Src/stm32f1xx_hal_rcc.c **** {
 1543              		.loc 1 1049 1
 1544              		.cfi_startproc
 1545              		@ args = 0, pretend = 0, frame = 0
ARM GAS  C:\Users\57298\AppData\Local\Temp\ccq1CZ60.s 			page 47


 1546              		@ frame_needed = 1, uses_anonymous_args = 0
 1547              		@ link register save eliminated.
 1548 0000 80B4     		push	{r7}
 1549              	.LCFI24:
 1550              		.cfi_def_cfa_offset 4
 1551              		.cfi_offset 7, -4
 1552 0002 00AF     		add	r7, sp, #0
 1553              	.LCFI25:
 1554              		.cfi_def_cfa_register 7
1050:Drivers/STM32F1xx_HAL_Driver/Src/stm32f1xx_hal_rcc.c ****   *(__IO uint32_t *) RCC_CR_CSSON_BB = (uint32_t)DISABLE;
 1555              		.loc 1 1050 3
 1556 0004 034B     		ldr	r3, .L104
 1557              		.loc 1 1050 38
 1558 0006 0022     		movs	r2, #0
 1559 0008 1A60     		str	r2, [r3]
1051:Drivers/STM32F1xx_HAL_Driver/Src/stm32f1xx_hal_rcc.c **** }
 1560              		.loc 1 1051 1
 1561 000a 00BF     		nop
 1562 000c BD46     		mov	sp, r7
 1563              	.LCFI26:
 1564              		.cfi_def_cfa_register 13
 1565              		@ sp needed
 1566 000e 80BC     		pop	{r7}
 1567              	.LCFI27:
 1568              		.cfi_restore 7
 1569              		.cfi_def_cfa_offset 0
 1570 0010 7047     		bx	lr
 1571              	.L105:
 1572 0012 00BF     		.align	2
 1573              	.L104:
 1574 0014 4C004242 		.word	1111621708
 1575              		.cfi_endproc
 1576              	.LFE70:
 1578              		.section	.rodata
 1579              		.align	2
 1580              	.LC0:
 1581 0000 02030405 		.ascii	"\002\003\004\005\006\007\010\011\012\013\014\015\016"
 1581      06070809 
 1581      0A0B0C0D 
 1581      0E
 1582 000d 0F1010   		.ascii	"\017\020\020"
 1583              		.section	.text.HAL_RCC_GetSysClockFreq,"ax",%progbits
 1584              		.align	1
 1585              		.global	HAL_RCC_GetSysClockFreq
 1586              		.syntax unified
 1587              		.thumb
 1588              		.thumb_func
 1590              	HAL_RCC_GetSysClockFreq:
 1591              	.LFB71:
1052:Drivers/STM32F1xx_HAL_Driver/Src/stm32f1xx_hal_rcc.c **** 
1053:Drivers/STM32F1xx_HAL_Driver/Src/stm32f1xx_hal_rcc.c **** /**
1054:Drivers/STM32F1xx_HAL_Driver/Src/stm32f1xx_hal_rcc.c ****   * @brief  Returns the SYSCLK frequency
1055:Drivers/STM32F1xx_HAL_Driver/Src/stm32f1xx_hal_rcc.c ****   * @note   The system frequency computed by this function is not the real
1056:Drivers/STM32F1xx_HAL_Driver/Src/stm32f1xx_hal_rcc.c ****   *         frequency in the chip. It is calculated based on the predefined
1057:Drivers/STM32F1xx_HAL_Driver/Src/stm32f1xx_hal_rcc.c ****   *         constant and the selected clock source:
1058:Drivers/STM32F1xx_HAL_Driver/Src/stm32f1xx_hal_rcc.c ****   * @note     If SYSCLK source is HSI, function returns values based on HSI_VALUE(*)
1059:Drivers/STM32F1xx_HAL_Driver/Src/stm32f1xx_hal_rcc.c ****   * @note     If SYSCLK source is HSE, function returns a value based on HSE_VALUE
ARM GAS  C:\Users\57298\AppData\Local\Temp\ccq1CZ60.s 			page 48


1060:Drivers/STM32F1xx_HAL_Driver/Src/stm32f1xx_hal_rcc.c ****   *           divided by PREDIV factor(**)
1061:Drivers/STM32F1xx_HAL_Driver/Src/stm32f1xx_hal_rcc.c ****   * @note     If SYSCLK source is PLL, function returns a value based on HSE_VALUE
1062:Drivers/STM32F1xx_HAL_Driver/Src/stm32f1xx_hal_rcc.c ****   *           divided by PREDIV factor(**) or HSI_VALUE(*) multiplied by the PLL factor.
1063:Drivers/STM32F1xx_HAL_Driver/Src/stm32f1xx_hal_rcc.c ****   * @note     (*) HSI_VALUE is a constant defined in stm32f1xx_hal_conf.h file (default value
1064:Drivers/STM32F1xx_HAL_Driver/Src/stm32f1xx_hal_rcc.c ****   *               8 MHz) but the real value may vary depending on the variations
1065:Drivers/STM32F1xx_HAL_Driver/Src/stm32f1xx_hal_rcc.c ****   *               in voltage and temperature.
1066:Drivers/STM32F1xx_HAL_Driver/Src/stm32f1xx_hal_rcc.c ****   * @note     (**) HSE_VALUE is a constant defined in stm32f1xx_hal_conf.h file (default value
1067:Drivers/STM32F1xx_HAL_Driver/Src/stm32f1xx_hal_rcc.c ****   *                8 MHz), user has to ensure that HSE_VALUE is same as the real
1068:Drivers/STM32F1xx_HAL_Driver/Src/stm32f1xx_hal_rcc.c ****   *                frequency of the crystal used. Otherwise, this function may
1069:Drivers/STM32F1xx_HAL_Driver/Src/stm32f1xx_hal_rcc.c ****   *                have wrong result.
1070:Drivers/STM32F1xx_HAL_Driver/Src/stm32f1xx_hal_rcc.c ****   *
1071:Drivers/STM32F1xx_HAL_Driver/Src/stm32f1xx_hal_rcc.c ****   * @note   The result of this function could be not correct when using fractional
1072:Drivers/STM32F1xx_HAL_Driver/Src/stm32f1xx_hal_rcc.c ****   *         value for HSE crystal.
1073:Drivers/STM32F1xx_HAL_Driver/Src/stm32f1xx_hal_rcc.c ****   *
1074:Drivers/STM32F1xx_HAL_Driver/Src/stm32f1xx_hal_rcc.c ****   * @note   This function can be used by the user application to compute the
1075:Drivers/STM32F1xx_HAL_Driver/Src/stm32f1xx_hal_rcc.c ****   *         baud-rate for the communication peripherals or configure other parameters.
1076:Drivers/STM32F1xx_HAL_Driver/Src/stm32f1xx_hal_rcc.c ****   *
1077:Drivers/STM32F1xx_HAL_Driver/Src/stm32f1xx_hal_rcc.c ****   * @note   Each time SYSCLK changes, this function must be called to update the
1078:Drivers/STM32F1xx_HAL_Driver/Src/stm32f1xx_hal_rcc.c ****   *         right SYSCLK value. Otherwise, any configuration based on this function will be incorre
1079:Drivers/STM32F1xx_HAL_Driver/Src/stm32f1xx_hal_rcc.c ****   *
1080:Drivers/STM32F1xx_HAL_Driver/Src/stm32f1xx_hal_rcc.c ****   * @retval SYSCLK frequency
1081:Drivers/STM32F1xx_HAL_Driver/Src/stm32f1xx_hal_rcc.c ****   */
1082:Drivers/STM32F1xx_HAL_Driver/Src/stm32f1xx_hal_rcc.c **** uint32_t HAL_RCC_GetSysClockFreq(void)
1083:Drivers/STM32F1xx_HAL_Driver/Src/stm32f1xx_hal_rcc.c **** {
 1592              		.loc 1 1083 1
 1593              		.cfi_startproc
 1594              		@ args = 0, pretend = 0, frame = 40
 1595              		@ frame_needed = 1, uses_anonymous_args = 0
 1596              		@ link register save eliminated.
 1597 0000 90B4     		push	{r4, r7}
 1598              	.LCFI28:
 1599              		.cfi_def_cfa_offset 8
 1600              		.cfi_offset 4, -8
 1601              		.cfi_offset 7, -4
 1602 0002 8AB0     		sub	sp, sp, #40
 1603              	.LCFI29:
 1604              		.cfi_def_cfa_offset 48
 1605 0004 00AF     		add	r7, sp, #0
 1606              	.LCFI30:
 1607              		.cfi_def_cfa_register 7
1084:Drivers/STM32F1xx_HAL_Driver/Src/stm32f1xx_hal_rcc.c **** #if defined(RCC_CFGR2_PREDIV1SRC)
1085:Drivers/STM32F1xx_HAL_Driver/Src/stm32f1xx_hal_rcc.c ****   const uint8_t aPLLMULFactorTable[14] = {0, 0, 4, 5, 6, 7, 8, 9, 0, 0, 0, 0, 0, 13};
1086:Drivers/STM32F1xx_HAL_Driver/Src/stm32f1xx_hal_rcc.c ****   const uint8_t aPredivFactorTable[16] = {1, 2, 3, 4, 5, 6, 7, 8, 9, 10, 11, 12, 13, 14, 15, 16};
1087:Drivers/STM32F1xx_HAL_Driver/Src/stm32f1xx_hal_rcc.c **** #else
1088:Drivers/STM32F1xx_HAL_Driver/Src/stm32f1xx_hal_rcc.c ****   const uint8_t aPLLMULFactorTable[16] = {2, 3, 4, 5, 6, 7, 8, 9, 10, 11, 12, 13, 14, 15, 16, 16};
 1608              		.loc 1 1088 17
 1609 0006 294B     		ldr	r3, .L115
 1610 0008 3C1D     		adds	r4, r7, #4
 1611 000a 0FCB     		ldm	r3, {r0, r1, r2, r3}
 1612 000c 84E80F00 		stm	r4, {r0, r1, r2, r3}
1089:Drivers/STM32F1xx_HAL_Driver/Src/stm32f1xx_hal_rcc.c **** #if defined(RCC_CFGR2_PREDIV1)
1090:Drivers/STM32F1xx_HAL_Driver/Src/stm32f1xx_hal_rcc.c ****   const uint8_t aPredivFactorTable[16] = {1, 2, 3, 4, 5, 6, 7, 8, 9, 10, 11, 12, 13, 14, 15, 16};
1091:Drivers/STM32F1xx_HAL_Driver/Src/stm32f1xx_hal_rcc.c **** #else
1092:Drivers/STM32F1xx_HAL_Driver/Src/stm32f1xx_hal_rcc.c ****   const uint8_t aPredivFactorTable[2] = {1, 2};
 1613              		.loc 1 1092 17
 1614 0010 40F20123 		movw	r3, #513
 1615 0014 3B80     		strh	r3, [r7]	@ movhi
ARM GAS  C:\Users\57298\AppData\Local\Temp\ccq1CZ60.s 			page 49


1093:Drivers/STM32F1xx_HAL_Driver/Src/stm32f1xx_hal_rcc.c **** #endif /*RCC_CFGR2_PREDIV1*/
1094:Drivers/STM32F1xx_HAL_Driver/Src/stm32f1xx_hal_rcc.c **** 
1095:Drivers/STM32F1xx_HAL_Driver/Src/stm32f1xx_hal_rcc.c **** #endif
1096:Drivers/STM32F1xx_HAL_Driver/Src/stm32f1xx_hal_rcc.c ****   uint32_t tmpreg = 0U, prediv = 0U, pllclk = 0U, pllmul = 0U;
 1616              		.loc 1 1096 12
 1617 0016 0023     		movs	r3, #0
 1618 0018 FB61     		str	r3, [r7, #28]
 1619              		.loc 1 1096 25
 1620 001a 0023     		movs	r3, #0
 1621 001c BB61     		str	r3, [r7, #24]
 1622              		.loc 1 1096 38
 1623 001e 0023     		movs	r3, #0
 1624 0020 7B62     		str	r3, [r7, #36]
 1625              		.loc 1 1096 51
 1626 0022 0023     		movs	r3, #0
 1627 0024 7B61     		str	r3, [r7, #20]
1097:Drivers/STM32F1xx_HAL_Driver/Src/stm32f1xx_hal_rcc.c ****   uint32_t sysclockfreq = 0U;
 1628              		.loc 1 1097 12
 1629 0026 0023     		movs	r3, #0
 1630 0028 3B62     		str	r3, [r7, #32]
1098:Drivers/STM32F1xx_HAL_Driver/Src/stm32f1xx_hal_rcc.c **** #if defined(RCC_CFGR2_PREDIV1SRC)
1099:Drivers/STM32F1xx_HAL_Driver/Src/stm32f1xx_hal_rcc.c ****   uint32_t prediv2 = 0U, pll2mul = 0U;
1100:Drivers/STM32F1xx_HAL_Driver/Src/stm32f1xx_hal_rcc.c **** #endif /*RCC_CFGR2_PREDIV1SRC*/
1101:Drivers/STM32F1xx_HAL_Driver/Src/stm32f1xx_hal_rcc.c **** 
1102:Drivers/STM32F1xx_HAL_Driver/Src/stm32f1xx_hal_rcc.c ****   tmpreg = RCC->CFGR;
 1631              		.loc 1 1102 15
 1632 002a 214B     		ldr	r3, .L115+4
 1633              		.loc 1 1102 10
 1634 002c 5B68     		ldr	r3, [r3, #4]
 1635 002e FB61     		str	r3, [r7, #28]
1103:Drivers/STM32F1xx_HAL_Driver/Src/stm32f1xx_hal_rcc.c **** 
1104:Drivers/STM32F1xx_HAL_Driver/Src/stm32f1xx_hal_rcc.c ****   /* Get SYSCLK source -------------------------------------------------------*/
1105:Drivers/STM32F1xx_HAL_Driver/Src/stm32f1xx_hal_rcc.c ****   switch (tmpreg & RCC_CFGR_SWS)
 1636              		.loc 1 1105 18
 1637 0030 FB69     		ldr	r3, [r7, #28]
 1638 0032 03F00C03 		and	r3, r3, #12
 1639              		.loc 1 1105 3
 1640 0036 042B     		cmp	r3, #4
 1641 0038 02D0     		beq	.L107
 1642 003a 082B     		cmp	r3, #8
 1643 003c 03D0     		beq	.L108
 1644 003e 2BE0     		b	.L114
 1645              	.L107:
1106:Drivers/STM32F1xx_HAL_Driver/Src/stm32f1xx_hal_rcc.c ****   {
1107:Drivers/STM32F1xx_HAL_Driver/Src/stm32f1xx_hal_rcc.c ****     case RCC_SYSCLKSOURCE_STATUS_HSE:  /* HSE used as system clock */
1108:Drivers/STM32F1xx_HAL_Driver/Src/stm32f1xx_hal_rcc.c ****     {
1109:Drivers/STM32F1xx_HAL_Driver/Src/stm32f1xx_hal_rcc.c ****       sysclockfreq = HSE_VALUE;
 1646              		.loc 1 1109 20
 1647 0040 1C4B     		ldr	r3, .L115+8
 1648 0042 3B62     		str	r3, [r7, #32]
1110:Drivers/STM32F1xx_HAL_Driver/Src/stm32f1xx_hal_rcc.c ****       break;
 1649              		.loc 1 1110 7
 1650 0044 2BE0     		b	.L110
 1651              	.L108:
1111:Drivers/STM32F1xx_HAL_Driver/Src/stm32f1xx_hal_rcc.c ****     }
1112:Drivers/STM32F1xx_HAL_Driver/Src/stm32f1xx_hal_rcc.c ****     case RCC_SYSCLKSOURCE_STATUS_PLLCLK:  /* PLL used as system clock */
1113:Drivers/STM32F1xx_HAL_Driver/Src/stm32f1xx_hal_rcc.c ****     {
ARM GAS  C:\Users\57298\AppData\Local\Temp\ccq1CZ60.s 			page 50


1114:Drivers/STM32F1xx_HAL_Driver/Src/stm32f1xx_hal_rcc.c ****       pllmul = aPLLMULFactorTable[(uint32_t)(tmpreg & RCC_CFGR_PLLMULL) >> RCC_CFGR_PLLMULL_Pos];
 1652              		.loc 1 1114 73
 1653 0046 FB69     		ldr	r3, [r7, #28]
 1654 0048 9B0C     		lsrs	r3, r3, #18
 1655 004a 03F00F03 		and	r3, r3, #15
 1656              		.loc 1 1114 34
 1657 004e 2833     		adds	r3, r3, #40
 1658 0050 3B44     		add	r3, r3, r7
 1659 0052 13F8243C 		ldrb	r3, [r3, #-36]	@ zero_extendqisi2
 1660              		.loc 1 1114 14
 1661 0056 7B61     		str	r3, [r7, #20]
1115:Drivers/STM32F1xx_HAL_Driver/Src/stm32f1xx_hal_rcc.c ****       if ((tmpreg & RCC_CFGR_PLLSRC) != RCC_PLLSOURCE_HSI_DIV2)
 1662              		.loc 1 1115 19
 1663 0058 FB69     		ldr	r3, [r7, #28]
 1664 005a 03F48033 		and	r3, r3, #65536
 1665              		.loc 1 1115 10
 1666 005e 002B     		cmp	r3, #0
 1667 0060 12D0     		beq	.L111
1116:Drivers/STM32F1xx_HAL_Driver/Src/stm32f1xx_hal_rcc.c ****       {
1117:Drivers/STM32F1xx_HAL_Driver/Src/stm32f1xx_hal_rcc.c **** #if defined(RCC_CFGR2_PREDIV1)
1118:Drivers/STM32F1xx_HAL_Driver/Src/stm32f1xx_hal_rcc.c ****         prediv = aPredivFactorTable[(uint32_t)(RCC->CFGR2 & RCC_CFGR2_PREDIV1) >> RCC_CFGR2_PREDIV1
1119:Drivers/STM32F1xx_HAL_Driver/Src/stm32f1xx_hal_rcc.c **** #else
1120:Drivers/STM32F1xx_HAL_Driver/Src/stm32f1xx_hal_rcc.c ****         prediv = aPredivFactorTable[(uint32_t)(RCC->CFGR & RCC_CFGR_PLLXTPRE) >> RCC_CFGR_PLLXTPRE_
 1668              		.loc 1 1120 51
 1669 0062 134B     		ldr	r3, .L115+4
 1670 0064 5B68     		ldr	r3, [r3, #4]
 1671              		.loc 1 1120 79
 1672 0066 5B0C     		lsrs	r3, r3, #17
 1673 0068 03F00103 		and	r3, r3, #1
 1674              		.loc 1 1120 36
 1675 006c 2833     		adds	r3, r3, #40
 1676 006e 3B44     		add	r3, r3, r7
 1677 0070 13F8283C 		ldrb	r3, [r3, #-40]	@ zero_extendqisi2
 1678              		.loc 1 1120 16
 1679 0074 BB61     		str	r3, [r7, #24]
1121:Drivers/STM32F1xx_HAL_Driver/Src/stm32f1xx_hal_rcc.c **** #endif /*RCC_CFGR2_PREDIV1*/
1122:Drivers/STM32F1xx_HAL_Driver/Src/stm32f1xx_hal_rcc.c **** #if defined(RCC_CFGR2_PREDIV1SRC)
1123:Drivers/STM32F1xx_HAL_Driver/Src/stm32f1xx_hal_rcc.c **** 
1124:Drivers/STM32F1xx_HAL_Driver/Src/stm32f1xx_hal_rcc.c ****         if (HAL_IS_BIT_SET(RCC->CFGR2, RCC_CFGR2_PREDIV1SRC))
1125:Drivers/STM32F1xx_HAL_Driver/Src/stm32f1xx_hal_rcc.c ****         {
1126:Drivers/STM32F1xx_HAL_Driver/Src/stm32f1xx_hal_rcc.c ****           /* PLL2 selected as Prediv1 source */
1127:Drivers/STM32F1xx_HAL_Driver/Src/stm32f1xx_hal_rcc.c ****           /* PLLCLK = PLL2CLK / PREDIV1 * PLLMUL with PLL2CLK = HSE/PREDIV2 * PLL2MUL */
1128:Drivers/STM32F1xx_HAL_Driver/Src/stm32f1xx_hal_rcc.c ****           prediv2 = ((RCC->CFGR2 & RCC_CFGR2_PREDIV2) >> RCC_CFGR2_PREDIV2_Pos) + 1;
1129:Drivers/STM32F1xx_HAL_Driver/Src/stm32f1xx_hal_rcc.c ****           pll2mul = ((RCC->CFGR2 & RCC_CFGR2_PLL2MUL) >> RCC_CFGR2_PLL2MUL_Pos) + 2;
1130:Drivers/STM32F1xx_HAL_Driver/Src/stm32f1xx_hal_rcc.c ****           pllclk = (uint32_t)(((uint64_t)HSE_VALUE * (uint64_t)pll2mul * (uint64_t)pllmul) / ((uint
1131:Drivers/STM32F1xx_HAL_Driver/Src/stm32f1xx_hal_rcc.c ****         }
1132:Drivers/STM32F1xx_HAL_Driver/Src/stm32f1xx_hal_rcc.c ****         else
1133:Drivers/STM32F1xx_HAL_Driver/Src/stm32f1xx_hal_rcc.c ****         {
1134:Drivers/STM32F1xx_HAL_Driver/Src/stm32f1xx_hal_rcc.c ****           /* HSE used as PLL clock source : PLLCLK = HSE/PREDIV1 * PLLMUL */
1135:Drivers/STM32F1xx_HAL_Driver/Src/stm32f1xx_hal_rcc.c ****           pllclk = (uint32_t)((HSE_VALUE * pllmul) / prediv);
1136:Drivers/STM32F1xx_HAL_Driver/Src/stm32f1xx_hal_rcc.c ****         }
1137:Drivers/STM32F1xx_HAL_Driver/Src/stm32f1xx_hal_rcc.c **** 
1138:Drivers/STM32F1xx_HAL_Driver/Src/stm32f1xx_hal_rcc.c ****         /* If PLLMUL was set to 13 means that it was to cover the case PLLMUL 6.5 (avoid using floa
1139:Drivers/STM32F1xx_HAL_Driver/Src/stm32f1xx_hal_rcc.c ****         /* In this case need to divide pllclk by 2 */
1140:Drivers/STM32F1xx_HAL_Driver/Src/stm32f1xx_hal_rcc.c ****         if (pllmul == aPLLMULFactorTable[(uint32_t)(RCC_CFGR_PLLMULL6_5) >> RCC_CFGR_PLLMULL_Pos])
1141:Drivers/STM32F1xx_HAL_Driver/Src/stm32f1xx_hal_rcc.c ****         {
1142:Drivers/STM32F1xx_HAL_Driver/Src/stm32f1xx_hal_rcc.c ****           pllclk = pllclk / 2;
ARM GAS  C:\Users\57298\AppData\Local\Temp\ccq1CZ60.s 			page 51


1143:Drivers/STM32F1xx_HAL_Driver/Src/stm32f1xx_hal_rcc.c ****         }
1144:Drivers/STM32F1xx_HAL_Driver/Src/stm32f1xx_hal_rcc.c **** #else
1145:Drivers/STM32F1xx_HAL_Driver/Src/stm32f1xx_hal_rcc.c ****         /* HSE used as PLL clock source : PLLCLK = HSE/PREDIV1 * PLLMUL */
1146:Drivers/STM32F1xx_HAL_Driver/Src/stm32f1xx_hal_rcc.c ****         pllclk = (uint32_t)((HSE_VALUE  * pllmul) / prediv);
 1680              		.loc 1 1146 41
 1681 0076 7B69     		ldr	r3, [r7, #20]
 1682 0078 0E4A     		ldr	r2, .L115+8
 1683 007a 03FB02F2 		mul	r2, r3, r2
 1684              		.loc 1 1146 16
 1685 007e BB69     		ldr	r3, [r7, #24]
 1686 0080 B2FBF3F3 		udiv	r3, r2, r3
 1687 0084 7B62     		str	r3, [r7, #36]
 1688 0086 04E0     		b	.L112
 1689              	.L111:
1147:Drivers/STM32F1xx_HAL_Driver/Src/stm32f1xx_hal_rcc.c **** #endif /*RCC_CFGR2_PREDIV1SRC*/
1148:Drivers/STM32F1xx_HAL_Driver/Src/stm32f1xx_hal_rcc.c ****       }
1149:Drivers/STM32F1xx_HAL_Driver/Src/stm32f1xx_hal_rcc.c ****       else
1150:Drivers/STM32F1xx_HAL_Driver/Src/stm32f1xx_hal_rcc.c ****       {
1151:Drivers/STM32F1xx_HAL_Driver/Src/stm32f1xx_hal_rcc.c ****         /* HSI used as PLL clock source : PLLCLK = HSI/2 * PLLMUL */
1152:Drivers/STM32F1xx_HAL_Driver/Src/stm32f1xx_hal_rcc.c ****         pllclk = (uint32_t)((HSI_VALUE >> 1) * pllmul);
 1690              		.loc 1 1152 16
 1691 0088 7B69     		ldr	r3, [r7, #20]
 1692 008a 0B4A     		ldr	r2, .L115+12
 1693 008c 02FB03F3 		mul	r3, r2, r3
 1694 0090 7B62     		str	r3, [r7, #36]
 1695              	.L112:
1153:Drivers/STM32F1xx_HAL_Driver/Src/stm32f1xx_hal_rcc.c ****       }
1154:Drivers/STM32F1xx_HAL_Driver/Src/stm32f1xx_hal_rcc.c ****       sysclockfreq = pllclk;
 1696              		.loc 1 1154 20
 1697 0092 7B6A     		ldr	r3, [r7, #36]
 1698 0094 3B62     		str	r3, [r7, #32]
1155:Drivers/STM32F1xx_HAL_Driver/Src/stm32f1xx_hal_rcc.c ****       break;
 1699              		.loc 1 1155 7
 1700 0096 02E0     		b	.L110
 1701              	.L114:
1156:Drivers/STM32F1xx_HAL_Driver/Src/stm32f1xx_hal_rcc.c ****     }
1157:Drivers/STM32F1xx_HAL_Driver/Src/stm32f1xx_hal_rcc.c ****     case RCC_SYSCLKSOURCE_STATUS_HSI:  /* HSI used as system clock source */
1158:Drivers/STM32F1xx_HAL_Driver/Src/stm32f1xx_hal_rcc.c ****     default: /* HSI used as system clock */
1159:Drivers/STM32F1xx_HAL_Driver/Src/stm32f1xx_hal_rcc.c ****     {
1160:Drivers/STM32F1xx_HAL_Driver/Src/stm32f1xx_hal_rcc.c ****       sysclockfreq = HSI_VALUE;
 1702              		.loc 1 1160 20
 1703 0098 064B     		ldr	r3, .L115+8
 1704 009a 3B62     		str	r3, [r7, #32]
1161:Drivers/STM32F1xx_HAL_Driver/Src/stm32f1xx_hal_rcc.c ****       break;
 1705              		.loc 1 1161 7
 1706 009c 00BF     		nop
 1707              	.L110:
1162:Drivers/STM32F1xx_HAL_Driver/Src/stm32f1xx_hal_rcc.c ****     }
1163:Drivers/STM32F1xx_HAL_Driver/Src/stm32f1xx_hal_rcc.c ****   }
1164:Drivers/STM32F1xx_HAL_Driver/Src/stm32f1xx_hal_rcc.c ****   return sysclockfreq;
 1708              		.loc 1 1164 10
 1709 009e 3B6A     		ldr	r3, [r7, #32]
1165:Drivers/STM32F1xx_HAL_Driver/Src/stm32f1xx_hal_rcc.c **** }
 1710              		.loc 1 1165 1
 1711 00a0 1846     		mov	r0, r3
 1712 00a2 2837     		adds	r7, r7, #40
 1713              	.LCFI31:
ARM GAS  C:\Users\57298\AppData\Local\Temp\ccq1CZ60.s 			page 52


 1714              		.cfi_def_cfa_offset 8
 1715 00a4 BD46     		mov	sp, r7
 1716              	.LCFI32:
 1717              		.cfi_def_cfa_register 13
 1718              		@ sp needed
 1719 00a6 90BC     		pop	{r4, r7}
 1720              	.LCFI33:
 1721              		.cfi_restore 7
 1722              		.cfi_restore 4
 1723              		.cfi_def_cfa_offset 0
 1724 00a8 7047     		bx	lr
 1725              	.L116:
 1726 00aa 00BF     		.align	2
 1727              	.L115:
 1728 00ac 00000000 		.word	.LC0
 1729 00b0 00100240 		.word	1073876992
 1730 00b4 00127A00 		.word	8000000
 1731 00b8 00093D00 		.word	4000000
 1732              		.cfi_endproc
 1733              	.LFE71:
 1735              		.section	.text.HAL_RCC_GetHCLKFreq,"ax",%progbits
 1736              		.align	1
 1737              		.global	HAL_RCC_GetHCLKFreq
 1738              		.syntax unified
 1739              		.thumb
 1740              		.thumb_func
 1742              	HAL_RCC_GetHCLKFreq:
 1743              	.LFB72:
1166:Drivers/STM32F1xx_HAL_Driver/Src/stm32f1xx_hal_rcc.c **** 
1167:Drivers/STM32F1xx_HAL_Driver/Src/stm32f1xx_hal_rcc.c **** /**
1168:Drivers/STM32F1xx_HAL_Driver/Src/stm32f1xx_hal_rcc.c ****   * @brief  Returns the HCLK frequency
1169:Drivers/STM32F1xx_HAL_Driver/Src/stm32f1xx_hal_rcc.c ****   * @note   Each time HCLK changes, this function must be called to update the
1170:Drivers/STM32F1xx_HAL_Driver/Src/stm32f1xx_hal_rcc.c ****   *         right HCLK value. Otherwise, any configuration based on this function will be incorrect
1171:Drivers/STM32F1xx_HAL_Driver/Src/stm32f1xx_hal_rcc.c ****   *
1172:Drivers/STM32F1xx_HAL_Driver/Src/stm32f1xx_hal_rcc.c ****   * @note   The SystemCoreClock CMSIS variable is used to store System Clock Frequency
1173:Drivers/STM32F1xx_HAL_Driver/Src/stm32f1xx_hal_rcc.c ****   *         and updated within this function
1174:Drivers/STM32F1xx_HAL_Driver/Src/stm32f1xx_hal_rcc.c ****   * @retval HCLK frequency
1175:Drivers/STM32F1xx_HAL_Driver/Src/stm32f1xx_hal_rcc.c ****   */
1176:Drivers/STM32F1xx_HAL_Driver/Src/stm32f1xx_hal_rcc.c **** uint32_t HAL_RCC_GetHCLKFreq(void)
1177:Drivers/STM32F1xx_HAL_Driver/Src/stm32f1xx_hal_rcc.c **** {
 1744              		.loc 1 1177 1
 1745              		.cfi_startproc
 1746              		@ args = 0, pretend = 0, frame = 0
 1747              		@ frame_needed = 1, uses_anonymous_args = 0
 1748              		@ link register save eliminated.
 1749 0000 80B4     		push	{r7}
 1750              	.LCFI34:
 1751              		.cfi_def_cfa_offset 4
 1752              		.cfi_offset 7, -4
 1753 0002 00AF     		add	r7, sp, #0
 1754              	.LCFI35:
 1755              		.cfi_def_cfa_register 7
1178:Drivers/STM32F1xx_HAL_Driver/Src/stm32f1xx_hal_rcc.c ****   return SystemCoreClock;
 1756              		.loc 1 1178 10
 1757 0004 024B     		ldr	r3, .L119
 1758 0006 1B68     		ldr	r3, [r3]
1179:Drivers/STM32F1xx_HAL_Driver/Src/stm32f1xx_hal_rcc.c **** }
ARM GAS  C:\Users\57298\AppData\Local\Temp\ccq1CZ60.s 			page 53


 1759              		.loc 1 1179 1
 1760 0008 1846     		mov	r0, r3
 1761 000a BD46     		mov	sp, r7
 1762              	.LCFI36:
 1763              		.cfi_def_cfa_register 13
 1764              		@ sp needed
 1765 000c 80BC     		pop	{r7}
 1766              	.LCFI37:
 1767              		.cfi_restore 7
 1768              		.cfi_def_cfa_offset 0
 1769 000e 7047     		bx	lr
 1770              	.L120:
 1771              		.align	2
 1772              	.L119:
 1773 0010 00000000 		.word	SystemCoreClock
 1774              		.cfi_endproc
 1775              	.LFE72:
 1777              		.section	.text.HAL_RCC_GetPCLK1Freq,"ax",%progbits
 1778              		.align	1
 1779              		.global	HAL_RCC_GetPCLK1Freq
 1780              		.syntax unified
 1781              		.thumb
 1782              		.thumb_func
 1784              	HAL_RCC_GetPCLK1Freq:
 1785              	.LFB73:
1180:Drivers/STM32F1xx_HAL_Driver/Src/stm32f1xx_hal_rcc.c **** 
1181:Drivers/STM32F1xx_HAL_Driver/Src/stm32f1xx_hal_rcc.c **** /**
1182:Drivers/STM32F1xx_HAL_Driver/Src/stm32f1xx_hal_rcc.c ****   * @brief  Returns the PCLK1 frequency
1183:Drivers/STM32F1xx_HAL_Driver/Src/stm32f1xx_hal_rcc.c ****   * @note   Each time PCLK1 changes, this function must be called to update the
1184:Drivers/STM32F1xx_HAL_Driver/Src/stm32f1xx_hal_rcc.c ****   *         right PCLK1 value. Otherwise, any configuration based on this function will be incorrec
1185:Drivers/STM32F1xx_HAL_Driver/Src/stm32f1xx_hal_rcc.c ****   * @retval PCLK1 frequency
1186:Drivers/STM32F1xx_HAL_Driver/Src/stm32f1xx_hal_rcc.c ****   */
1187:Drivers/STM32F1xx_HAL_Driver/Src/stm32f1xx_hal_rcc.c **** uint32_t HAL_RCC_GetPCLK1Freq(void)
1188:Drivers/STM32F1xx_HAL_Driver/Src/stm32f1xx_hal_rcc.c **** {
 1786              		.loc 1 1188 1
 1787              		.cfi_startproc
 1788              		@ args = 0, pretend = 0, frame = 0
 1789              		@ frame_needed = 1, uses_anonymous_args = 0
 1790 0000 80B5     		push	{r7, lr}
 1791              	.LCFI38:
 1792              		.cfi_def_cfa_offset 8
 1793              		.cfi_offset 7, -8
 1794              		.cfi_offset 14, -4
 1795 0002 00AF     		add	r7, sp, #0
 1796              	.LCFI39:
 1797              		.cfi_def_cfa_register 7
1189:Drivers/STM32F1xx_HAL_Driver/Src/stm32f1xx_hal_rcc.c ****   /* Get HCLK source and Compute PCLK1 frequency ---------------------------*/
1190:Drivers/STM32F1xx_HAL_Driver/Src/stm32f1xx_hal_rcc.c ****   return (HAL_RCC_GetHCLKFreq() >> APBPrescTable[(RCC->CFGR & RCC_CFGR_PPRE1) >> RCC_CFGR_PPRE1_Pos
 1798              		.loc 1 1190 11
 1799 0004 FFF7FEFF 		bl	HAL_RCC_GetHCLKFreq
 1800 0008 0246     		mov	r2, r0
 1801              		.loc 1 1190 54
 1802 000a 054B     		ldr	r3, .L123
 1803 000c 5B68     		ldr	r3, [r3, #4]
 1804              		.loc 1 1190 79
 1805 000e 1B0A     		lsrs	r3, r3, #8
 1806 0010 03F00703 		and	r3, r3, #7
ARM GAS  C:\Users\57298\AppData\Local\Temp\ccq1CZ60.s 			page 54


 1807              		.loc 1 1190 49
 1808 0014 0349     		ldr	r1, .L123+4
 1809 0016 CB5C     		ldrb	r3, [r1, r3]	@ zero_extendqisi2
 1810              		.loc 1 1190 33
 1811 0018 22FA03F3 		lsr	r3, r2, r3
1191:Drivers/STM32F1xx_HAL_Driver/Src/stm32f1xx_hal_rcc.c **** }
 1812              		.loc 1 1191 1
 1813 001c 1846     		mov	r0, r3
 1814 001e 80BD     		pop	{r7, pc}
 1815              	.L124:
 1816              		.align	2
 1817              	.L123:
 1818 0020 00100240 		.word	1073876992
 1819 0024 00000000 		.word	APBPrescTable
 1820              		.cfi_endproc
 1821              	.LFE73:
 1823              		.section	.text.HAL_RCC_GetPCLK2Freq,"ax",%progbits
 1824              		.align	1
 1825              		.global	HAL_RCC_GetPCLK2Freq
 1826              		.syntax unified
 1827              		.thumb
 1828              		.thumb_func
 1830              	HAL_RCC_GetPCLK2Freq:
 1831              	.LFB74:
1192:Drivers/STM32F1xx_HAL_Driver/Src/stm32f1xx_hal_rcc.c **** 
1193:Drivers/STM32F1xx_HAL_Driver/Src/stm32f1xx_hal_rcc.c **** /**
1194:Drivers/STM32F1xx_HAL_Driver/Src/stm32f1xx_hal_rcc.c ****   * @brief  Returns the PCLK2 frequency
1195:Drivers/STM32F1xx_HAL_Driver/Src/stm32f1xx_hal_rcc.c ****   * @note   Each time PCLK2 changes, this function must be called to update the
1196:Drivers/STM32F1xx_HAL_Driver/Src/stm32f1xx_hal_rcc.c ****   *         right PCLK2 value. Otherwise, any configuration based on this function will be incorrec
1197:Drivers/STM32F1xx_HAL_Driver/Src/stm32f1xx_hal_rcc.c ****   * @retval PCLK2 frequency
1198:Drivers/STM32F1xx_HAL_Driver/Src/stm32f1xx_hal_rcc.c ****   */
1199:Drivers/STM32F1xx_HAL_Driver/Src/stm32f1xx_hal_rcc.c **** uint32_t HAL_RCC_GetPCLK2Freq(void)
1200:Drivers/STM32F1xx_HAL_Driver/Src/stm32f1xx_hal_rcc.c **** {
 1832              		.loc 1 1200 1
 1833              		.cfi_startproc
 1834              		@ args = 0, pretend = 0, frame = 0
 1835              		@ frame_needed = 1, uses_anonymous_args = 0
 1836 0000 80B5     		push	{r7, lr}
 1837              	.LCFI40:
 1838              		.cfi_def_cfa_offset 8
 1839              		.cfi_offset 7, -8
 1840              		.cfi_offset 14, -4
 1841 0002 00AF     		add	r7, sp, #0
 1842              	.LCFI41:
 1843              		.cfi_def_cfa_register 7
1201:Drivers/STM32F1xx_HAL_Driver/Src/stm32f1xx_hal_rcc.c ****   /* Get HCLK source and Compute PCLK2 frequency ---------------------------*/
1202:Drivers/STM32F1xx_HAL_Driver/Src/stm32f1xx_hal_rcc.c ****   return (HAL_RCC_GetHCLKFreq() >> APBPrescTable[(RCC->CFGR & RCC_CFGR_PPRE2) >> RCC_CFGR_PPRE2_Pos
 1844              		.loc 1 1202 11
 1845 0004 FFF7FEFF 		bl	HAL_RCC_GetHCLKFreq
 1846 0008 0246     		mov	r2, r0
 1847              		.loc 1 1202 54
 1848 000a 054B     		ldr	r3, .L127
 1849 000c 5B68     		ldr	r3, [r3, #4]
 1850              		.loc 1 1202 79
 1851 000e DB0A     		lsrs	r3, r3, #11
 1852 0010 03F00703 		and	r3, r3, #7
 1853              		.loc 1 1202 49
ARM GAS  C:\Users\57298\AppData\Local\Temp\ccq1CZ60.s 			page 55


 1854 0014 0349     		ldr	r1, .L127+4
 1855 0016 CB5C     		ldrb	r3, [r1, r3]	@ zero_extendqisi2
 1856              		.loc 1 1202 33
 1857 0018 22FA03F3 		lsr	r3, r2, r3
1203:Drivers/STM32F1xx_HAL_Driver/Src/stm32f1xx_hal_rcc.c **** }
 1858              		.loc 1 1203 1
 1859 001c 1846     		mov	r0, r3
 1860 001e 80BD     		pop	{r7, pc}
 1861              	.L128:
 1862              		.align	2
 1863              	.L127:
 1864 0020 00100240 		.word	1073876992
 1865 0024 00000000 		.word	APBPrescTable
 1866              		.cfi_endproc
 1867              	.LFE74:
 1869              		.section	.text.HAL_RCC_GetOscConfig,"ax",%progbits
 1870              		.align	1
 1871              		.global	HAL_RCC_GetOscConfig
 1872              		.syntax unified
 1873              		.thumb
 1874              		.thumb_func
 1876              	HAL_RCC_GetOscConfig:
 1877              	.LFB75:
1204:Drivers/STM32F1xx_HAL_Driver/Src/stm32f1xx_hal_rcc.c **** 
1205:Drivers/STM32F1xx_HAL_Driver/Src/stm32f1xx_hal_rcc.c **** /**
1206:Drivers/STM32F1xx_HAL_Driver/Src/stm32f1xx_hal_rcc.c ****   * @brief  Configures the RCC_OscInitStruct according to the internal
1207:Drivers/STM32F1xx_HAL_Driver/Src/stm32f1xx_hal_rcc.c ****   * RCC configuration registers.
1208:Drivers/STM32F1xx_HAL_Driver/Src/stm32f1xx_hal_rcc.c ****   * @param  RCC_OscInitStruct pointer to an RCC_OscInitTypeDef structure that
1209:Drivers/STM32F1xx_HAL_Driver/Src/stm32f1xx_hal_rcc.c ****   * will be configured.
1210:Drivers/STM32F1xx_HAL_Driver/Src/stm32f1xx_hal_rcc.c ****   * @retval None
1211:Drivers/STM32F1xx_HAL_Driver/Src/stm32f1xx_hal_rcc.c ****   */
1212:Drivers/STM32F1xx_HAL_Driver/Src/stm32f1xx_hal_rcc.c **** void HAL_RCC_GetOscConfig(RCC_OscInitTypeDef  *RCC_OscInitStruct)
1213:Drivers/STM32F1xx_HAL_Driver/Src/stm32f1xx_hal_rcc.c **** {
 1878              		.loc 1 1213 1
 1879              		.cfi_startproc
 1880              		@ args = 0, pretend = 0, frame = 8
 1881              		@ frame_needed = 1, uses_anonymous_args = 0
 1882              		@ link register save eliminated.
 1883 0000 80B4     		push	{r7}
 1884              	.LCFI42:
 1885              		.cfi_def_cfa_offset 4
 1886              		.cfi_offset 7, -4
 1887 0002 83B0     		sub	sp, sp, #12
 1888              	.LCFI43:
 1889              		.cfi_def_cfa_offset 16
 1890 0004 00AF     		add	r7, sp, #0
 1891              	.LCFI44:
 1892              		.cfi_def_cfa_register 7
 1893 0006 7860     		str	r0, [r7, #4]
1214:Drivers/STM32F1xx_HAL_Driver/Src/stm32f1xx_hal_rcc.c ****   /* Check the parameters */
1215:Drivers/STM32F1xx_HAL_Driver/Src/stm32f1xx_hal_rcc.c ****   assert_param(RCC_OscInitStruct != NULL);
1216:Drivers/STM32F1xx_HAL_Driver/Src/stm32f1xx_hal_rcc.c **** 
1217:Drivers/STM32F1xx_HAL_Driver/Src/stm32f1xx_hal_rcc.c ****   /* Set all possible values for the Oscillator type parameter ---------------*/
1218:Drivers/STM32F1xx_HAL_Driver/Src/stm32f1xx_hal_rcc.c ****   RCC_OscInitStruct->OscillatorType = RCC_OSCILLATORTYPE_HSE | RCC_OSCILLATORTYPE_HSI  \
 1894              		.loc 1 1218 37
 1895 0008 7B68     		ldr	r3, [r7, #4]
 1896 000a 0F22     		movs	r2, #15
ARM GAS  C:\Users\57298\AppData\Local\Temp\ccq1CZ60.s 			page 56


 1897 000c 1A60     		str	r2, [r3]
1219:Drivers/STM32F1xx_HAL_Driver/Src/stm32f1xx_hal_rcc.c ****                                       | RCC_OSCILLATORTYPE_LSE | RCC_OSCILLATORTYPE_LSI;
1220:Drivers/STM32F1xx_HAL_Driver/Src/stm32f1xx_hal_rcc.c **** 
1221:Drivers/STM32F1xx_HAL_Driver/Src/stm32f1xx_hal_rcc.c **** #if defined(RCC_CFGR2_PREDIV1SRC)
1222:Drivers/STM32F1xx_HAL_Driver/Src/stm32f1xx_hal_rcc.c ****   /* Get the Prediv1 source --------------------------------------------------*/
1223:Drivers/STM32F1xx_HAL_Driver/Src/stm32f1xx_hal_rcc.c ****   RCC_OscInitStruct->Prediv1Source = READ_BIT(RCC->CFGR2, RCC_CFGR2_PREDIV1SRC);
1224:Drivers/STM32F1xx_HAL_Driver/Src/stm32f1xx_hal_rcc.c **** #endif /* RCC_CFGR2_PREDIV1SRC */
1225:Drivers/STM32F1xx_HAL_Driver/Src/stm32f1xx_hal_rcc.c **** 
1226:Drivers/STM32F1xx_HAL_Driver/Src/stm32f1xx_hal_rcc.c ****   /* Get the HSE configuration -----------------------------------------------*/
1227:Drivers/STM32F1xx_HAL_Driver/Src/stm32f1xx_hal_rcc.c ****   if ((RCC->CR & RCC_CR_HSEBYP) == RCC_CR_HSEBYP)
 1898              		.loc 1 1227 11
 1899 000e 3C4B     		ldr	r3, .L142
 1900 0010 1B68     		ldr	r3, [r3]
 1901              		.loc 1 1227 16
 1902 0012 03F48023 		and	r3, r3, #262144
 1903              		.loc 1 1227 6
 1904 0016 B3F5802F 		cmp	r3, #262144
 1905 001a 04D1     		bne	.L130
1228:Drivers/STM32F1xx_HAL_Driver/Src/stm32f1xx_hal_rcc.c ****   {
1229:Drivers/STM32F1xx_HAL_Driver/Src/stm32f1xx_hal_rcc.c ****     RCC_OscInitStruct->HSEState = RCC_HSE_BYPASS;
 1906              		.loc 1 1229 33
 1907 001c 7B68     		ldr	r3, [r7, #4]
 1908 001e 4FF4A022 		mov	r2, #327680
 1909 0022 5A60     		str	r2, [r3, #4]
 1910 0024 0EE0     		b	.L131
 1911              	.L130:
1230:Drivers/STM32F1xx_HAL_Driver/Src/stm32f1xx_hal_rcc.c ****   }
1231:Drivers/STM32F1xx_HAL_Driver/Src/stm32f1xx_hal_rcc.c ****   else if ((RCC->CR & RCC_CR_HSEON) == RCC_CR_HSEON)
 1912              		.loc 1 1231 16
 1913 0026 364B     		ldr	r3, .L142
 1914 0028 1B68     		ldr	r3, [r3]
 1915              		.loc 1 1231 21
 1916 002a 03F48033 		and	r3, r3, #65536
 1917              		.loc 1 1231 11
 1918 002e B3F5803F 		cmp	r3, #65536
 1919 0032 04D1     		bne	.L132
1232:Drivers/STM32F1xx_HAL_Driver/Src/stm32f1xx_hal_rcc.c ****   {
1233:Drivers/STM32F1xx_HAL_Driver/Src/stm32f1xx_hal_rcc.c ****     RCC_OscInitStruct->HSEState = RCC_HSE_ON;
 1920              		.loc 1 1233 33
 1921 0034 7B68     		ldr	r3, [r7, #4]
 1922 0036 4FF48032 		mov	r2, #65536
 1923 003a 5A60     		str	r2, [r3, #4]
 1924 003c 02E0     		b	.L131
 1925              	.L132:
1234:Drivers/STM32F1xx_HAL_Driver/Src/stm32f1xx_hal_rcc.c ****   }
1235:Drivers/STM32F1xx_HAL_Driver/Src/stm32f1xx_hal_rcc.c ****   else
1236:Drivers/STM32F1xx_HAL_Driver/Src/stm32f1xx_hal_rcc.c ****   {
1237:Drivers/STM32F1xx_HAL_Driver/Src/stm32f1xx_hal_rcc.c ****     RCC_OscInitStruct->HSEState = RCC_HSE_OFF;
 1926              		.loc 1 1237 33
 1927 003e 7B68     		ldr	r3, [r7, #4]
 1928 0040 0022     		movs	r2, #0
 1929 0042 5A60     		str	r2, [r3, #4]
 1930              	.L131:
1238:Drivers/STM32F1xx_HAL_Driver/Src/stm32f1xx_hal_rcc.c ****   }
1239:Drivers/STM32F1xx_HAL_Driver/Src/stm32f1xx_hal_rcc.c ****   RCC_OscInitStruct->HSEPredivValue = __HAL_RCC_HSE_GET_PREDIV();
 1931              		.loc 1 1239 39
 1932 0044 2E4B     		ldr	r3, .L142
ARM GAS  C:\Users\57298\AppData\Local\Temp\ccq1CZ60.s 			page 57


 1933 0046 5B68     		ldr	r3, [r3, #4]
 1934 0048 03F40032 		and	r2, r3, #131072
 1935              		.loc 1 1239 37
 1936 004c 7B68     		ldr	r3, [r7, #4]
 1937 004e 9A60     		str	r2, [r3, #8]
1240:Drivers/STM32F1xx_HAL_Driver/Src/stm32f1xx_hal_rcc.c **** 
1241:Drivers/STM32F1xx_HAL_Driver/Src/stm32f1xx_hal_rcc.c ****   /* Get the HSI configuration -----------------------------------------------*/
1242:Drivers/STM32F1xx_HAL_Driver/Src/stm32f1xx_hal_rcc.c ****   if ((RCC->CR & RCC_CR_HSION) == RCC_CR_HSION)
 1938              		.loc 1 1242 11
 1939 0050 2B4B     		ldr	r3, .L142
 1940 0052 1B68     		ldr	r3, [r3]
 1941              		.loc 1 1242 16
 1942 0054 03F00103 		and	r3, r3, #1
 1943              		.loc 1 1242 6
 1944 0058 012B     		cmp	r3, #1
 1945 005a 03D1     		bne	.L133
1243:Drivers/STM32F1xx_HAL_Driver/Src/stm32f1xx_hal_rcc.c ****   {
1244:Drivers/STM32F1xx_HAL_Driver/Src/stm32f1xx_hal_rcc.c ****     RCC_OscInitStruct->HSIState = RCC_HSI_ON;
 1946              		.loc 1 1244 33
 1947 005c 7B68     		ldr	r3, [r7, #4]
 1948 005e 0122     		movs	r2, #1
 1949 0060 1A61     		str	r2, [r3, #16]
 1950 0062 02E0     		b	.L134
 1951              	.L133:
1245:Drivers/STM32F1xx_HAL_Driver/Src/stm32f1xx_hal_rcc.c ****   }
1246:Drivers/STM32F1xx_HAL_Driver/Src/stm32f1xx_hal_rcc.c ****   else
1247:Drivers/STM32F1xx_HAL_Driver/Src/stm32f1xx_hal_rcc.c ****   {
1248:Drivers/STM32F1xx_HAL_Driver/Src/stm32f1xx_hal_rcc.c ****     RCC_OscInitStruct->HSIState = RCC_HSI_OFF;
 1952              		.loc 1 1248 33
 1953 0064 7B68     		ldr	r3, [r7, #4]
 1954 0066 0022     		movs	r2, #0
 1955 0068 1A61     		str	r2, [r3, #16]
 1956              	.L134:
1249:Drivers/STM32F1xx_HAL_Driver/Src/stm32f1xx_hal_rcc.c ****   }
1250:Drivers/STM32F1xx_HAL_Driver/Src/stm32f1xx_hal_rcc.c **** 
1251:Drivers/STM32F1xx_HAL_Driver/Src/stm32f1xx_hal_rcc.c ****   RCC_OscInitStruct->HSICalibrationValue = (uint32_t)((RCC->CR & RCC_CR_HSITRIM) >> RCC_CR_HSITRIM_
 1957              		.loc 1 1251 59
 1958 006a 254B     		ldr	r3, .L142
 1959 006c 1B68     		ldr	r3, [r3]
 1960              		.loc 1 1251 44
 1961 006e DB08     		lsrs	r3, r3, #3
 1962 0070 03F01F02 		and	r2, r3, #31
 1963              		.loc 1 1251 42
 1964 0074 7B68     		ldr	r3, [r7, #4]
 1965 0076 5A61     		str	r2, [r3, #20]
1252:Drivers/STM32F1xx_HAL_Driver/Src/stm32f1xx_hal_rcc.c **** 
1253:Drivers/STM32F1xx_HAL_Driver/Src/stm32f1xx_hal_rcc.c ****   /* Get the LSE configuration -----------------------------------------------*/
1254:Drivers/STM32F1xx_HAL_Driver/Src/stm32f1xx_hal_rcc.c ****   if ((RCC->BDCR & RCC_BDCR_LSEBYP) == RCC_BDCR_LSEBYP)
 1966              		.loc 1 1254 11
 1967 0078 214B     		ldr	r3, .L142
 1968 007a 1B6A     		ldr	r3, [r3, #32]
 1969              		.loc 1 1254 18
 1970 007c 03F00403 		and	r3, r3, #4
 1971              		.loc 1 1254 6
 1972 0080 042B     		cmp	r3, #4
 1973 0082 03D1     		bne	.L135
1255:Drivers/STM32F1xx_HAL_Driver/Src/stm32f1xx_hal_rcc.c ****   {
ARM GAS  C:\Users\57298\AppData\Local\Temp\ccq1CZ60.s 			page 58


1256:Drivers/STM32F1xx_HAL_Driver/Src/stm32f1xx_hal_rcc.c ****     RCC_OscInitStruct->LSEState = RCC_LSE_BYPASS;
 1974              		.loc 1 1256 33
 1975 0084 7B68     		ldr	r3, [r7, #4]
 1976 0086 0522     		movs	r2, #5
 1977 0088 DA60     		str	r2, [r3, #12]
 1978 008a 0CE0     		b	.L136
 1979              	.L135:
1257:Drivers/STM32F1xx_HAL_Driver/Src/stm32f1xx_hal_rcc.c ****   }
1258:Drivers/STM32F1xx_HAL_Driver/Src/stm32f1xx_hal_rcc.c ****   else if ((RCC->BDCR & RCC_BDCR_LSEON) == RCC_BDCR_LSEON)
 1980              		.loc 1 1258 16
 1981 008c 1C4B     		ldr	r3, .L142
 1982 008e 1B6A     		ldr	r3, [r3, #32]
 1983              		.loc 1 1258 23
 1984 0090 03F00103 		and	r3, r3, #1
 1985              		.loc 1 1258 11
 1986 0094 012B     		cmp	r3, #1
 1987 0096 03D1     		bne	.L137
1259:Drivers/STM32F1xx_HAL_Driver/Src/stm32f1xx_hal_rcc.c ****   {
1260:Drivers/STM32F1xx_HAL_Driver/Src/stm32f1xx_hal_rcc.c ****     RCC_OscInitStruct->LSEState = RCC_LSE_ON;
 1988              		.loc 1 1260 33
 1989 0098 7B68     		ldr	r3, [r7, #4]
 1990 009a 0122     		movs	r2, #1
 1991 009c DA60     		str	r2, [r3, #12]
 1992 009e 02E0     		b	.L136
 1993              	.L137:
1261:Drivers/STM32F1xx_HAL_Driver/Src/stm32f1xx_hal_rcc.c ****   }
1262:Drivers/STM32F1xx_HAL_Driver/Src/stm32f1xx_hal_rcc.c ****   else
1263:Drivers/STM32F1xx_HAL_Driver/Src/stm32f1xx_hal_rcc.c ****   {
1264:Drivers/STM32F1xx_HAL_Driver/Src/stm32f1xx_hal_rcc.c ****     RCC_OscInitStruct->LSEState = RCC_LSE_OFF;
 1994              		.loc 1 1264 33
 1995 00a0 7B68     		ldr	r3, [r7, #4]
 1996 00a2 0022     		movs	r2, #0
 1997 00a4 DA60     		str	r2, [r3, #12]
 1998              	.L136:
1265:Drivers/STM32F1xx_HAL_Driver/Src/stm32f1xx_hal_rcc.c ****   }
1266:Drivers/STM32F1xx_HAL_Driver/Src/stm32f1xx_hal_rcc.c **** 
1267:Drivers/STM32F1xx_HAL_Driver/Src/stm32f1xx_hal_rcc.c ****   /* Get the LSI configuration -----------------------------------------------*/
1268:Drivers/STM32F1xx_HAL_Driver/Src/stm32f1xx_hal_rcc.c ****   if ((RCC->CSR & RCC_CSR_LSION) == RCC_CSR_LSION)
 1999              		.loc 1 1268 11
 2000 00a6 164B     		ldr	r3, .L142
 2001 00a8 5B6A     		ldr	r3, [r3, #36]
 2002              		.loc 1 1268 17
 2003 00aa 03F00103 		and	r3, r3, #1
 2004              		.loc 1 1268 6
 2005 00ae 012B     		cmp	r3, #1
 2006 00b0 03D1     		bne	.L138
1269:Drivers/STM32F1xx_HAL_Driver/Src/stm32f1xx_hal_rcc.c ****   {
1270:Drivers/STM32F1xx_HAL_Driver/Src/stm32f1xx_hal_rcc.c ****     RCC_OscInitStruct->LSIState = RCC_LSI_ON;
 2007              		.loc 1 1270 33
 2008 00b2 7B68     		ldr	r3, [r7, #4]
 2009 00b4 0122     		movs	r2, #1
 2010 00b6 9A61     		str	r2, [r3, #24]
 2011 00b8 02E0     		b	.L139
 2012              	.L138:
1271:Drivers/STM32F1xx_HAL_Driver/Src/stm32f1xx_hal_rcc.c ****   }
1272:Drivers/STM32F1xx_HAL_Driver/Src/stm32f1xx_hal_rcc.c ****   else
1273:Drivers/STM32F1xx_HAL_Driver/Src/stm32f1xx_hal_rcc.c ****   {
ARM GAS  C:\Users\57298\AppData\Local\Temp\ccq1CZ60.s 			page 59


1274:Drivers/STM32F1xx_HAL_Driver/Src/stm32f1xx_hal_rcc.c ****     RCC_OscInitStruct->LSIState = RCC_LSI_OFF;
 2013              		.loc 1 1274 33
 2014 00ba 7B68     		ldr	r3, [r7, #4]
 2015 00bc 0022     		movs	r2, #0
 2016 00be 9A61     		str	r2, [r3, #24]
 2017              	.L139:
1275:Drivers/STM32F1xx_HAL_Driver/Src/stm32f1xx_hal_rcc.c ****   }
1276:Drivers/STM32F1xx_HAL_Driver/Src/stm32f1xx_hal_rcc.c **** 
1277:Drivers/STM32F1xx_HAL_Driver/Src/stm32f1xx_hal_rcc.c **** 
1278:Drivers/STM32F1xx_HAL_Driver/Src/stm32f1xx_hal_rcc.c ****   /* Get the PLL configuration -----------------------------------------------*/
1279:Drivers/STM32F1xx_HAL_Driver/Src/stm32f1xx_hal_rcc.c ****   if ((RCC->CR & RCC_CR_PLLON) == RCC_CR_PLLON)
 2018              		.loc 1 1279 11
 2019 00c0 0F4B     		ldr	r3, .L142
 2020 00c2 1B68     		ldr	r3, [r3]
 2021              		.loc 1 1279 16
 2022 00c4 03F08073 		and	r3, r3, #16777216
 2023              		.loc 1 1279 6
 2024 00c8 B3F1807F 		cmp	r3, #16777216
 2025 00cc 03D1     		bne	.L140
1280:Drivers/STM32F1xx_HAL_Driver/Src/stm32f1xx_hal_rcc.c ****   {
1281:Drivers/STM32F1xx_HAL_Driver/Src/stm32f1xx_hal_rcc.c ****     RCC_OscInitStruct->PLL.PLLState = RCC_PLL_ON;
 2026              		.loc 1 1281 37
 2027 00ce 7B68     		ldr	r3, [r7, #4]
 2028 00d0 0222     		movs	r2, #2
 2029 00d2 DA61     		str	r2, [r3, #28]
 2030 00d4 02E0     		b	.L141
 2031              	.L140:
1282:Drivers/STM32F1xx_HAL_Driver/Src/stm32f1xx_hal_rcc.c ****   }
1283:Drivers/STM32F1xx_HAL_Driver/Src/stm32f1xx_hal_rcc.c ****   else
1284:Drivers/STM32F1xx_HAL_Driver/Src/stm32f1xx_hal_rcc.c ****   {
1285:Drivers/STM32F1xx_HAL_Driver/Src/stm32f1xx_hal_rcc.c ****     RCC_OscInitStruct->PLL.PLLState = RCC_PLL_OFF;
 2032              		.loc 1 1285 37
 2033 00d6 7B68     		ldr	r3, [r7, #4]
 2034 00d8 0122     		movs	r2, #1
 2035 00da DA61     		str	r2, [r3, #28]
 2036              	.L141:
1286:Drivers/STM32F1xx_HAL_Driver/Src/stm32f1xx_hal_rcc.c ****   }
1287:Drivers/STM32F1xx_HAL_Driver/Src/stm32f1xx_hal_rcc.c ****   RCC_OscInitStruct->PLL.PLLSource = (uint32_t)(RCC->CFGR & RCC_CFGR_PLLSRC);
 2037              		.loc 1 1287 52
 2038 00dc 084B     		ldr	r3, .L142
 2039 00de 5B68     		ldr	r3, [r3, #4]
 2040              		.loc 1 1287 38
 2041 00e0 03F48032 		and	r2, r3, #65536
 2042              		.loc 1 1287 36
 2043 00e4 7B68     		ldr	r3, [r7, #4]
 2044 00e6 1A62     		str	r2, [r3, #32]
1288:Drivers/STM32F1xx_HAL_Driver/Src/stm32f1xx_hal_rcc.c ****   RCC_OscInitStruct->PLL.PLLMUL = (uint32_t)(RCC->CFGR & RCC_CFGR_PLLMULL);
 2045              		.loc 1 1288 49
 2046 00e8 054B     		ldr	r3, .L142
 2047 00ea 5B68     		ldr	r3, [r3, #4]
 2048              		.loc 1 1288 35
 2049 00ec 03F47012 		and	r2, r3, #3932160
 2050              		.loc 1 1288 33
 2051 00f0 7B68     		ldr	r3, [r7, #4]
 2052 00f2 5A62     		str	r2, [r3, #36]
1289:Drivers/STM32F1xx_HAL_Driver/Src/stm32f1xx_hal_rcc.c **** #if defined(RCC_CR_PLL2ON)
1290:Drivers/STM32F1xx_HAL_Driver/Src/stm32f1xx_hal_rcc.c ****   /* Get the PLL2 configuration -----------------------------------------------*/
ARM GAS  C:\Users\57298\AppData\Local\Temp\ccq1CZ60.s 			page 60


1291:Drivers/STM32F1xx_HAL_Driver/Src/stm32f1xx_hal_rcc.c ****   if ((RCC->CR & RCC_CR_PLL2ON) == RCC_CR_PLL2ON)
1292:Drivers/STM32F1xx_HAL_Driver/Src/stm32f1xx_hal_rcc.c ****   {
1293:Drivers/STM32F1xx_HAL_Driver/Src/stm32f1xx_hal_rcc.c ****     RCC_OscInitStruct->PLL2.PLL2State = RCC_PLL2_ON;
1294:Drivers/STM32F1xx_HAL_Driver/Src/stm32f1xx_hal_rcc.c ****   }
1295:Drivers/STM32F1xx_HAL_Driver/Src/stm32f1xx_hal_rcc.c ****   else
1296:Drivers/STM32F1xx_HAL_Driver/Src/stm32f1xx_hal_rcc.c ****   {
1297:Drivers/STM32F1xx_HAL_Driver/Src/stm32f1xx_hal_rcc.c ****     RCC_OscInitStruct->PLL2.PLL2State = RCC_PLL2_OFF;
1298:Drivers/STM32F1xx_HAL_Driver/Src/stm32f1xx_hal_rcc.c ****   }
1299:Drivers/STM32F1xx_HAL_Driver/Src/stm32f1xx_hal_rcc.c ****   RCC_OscInitStruct->PLL2.HSEPrediv2Value = __HAL_RCC_HSE_GET_PREDIV2();
1300:Drivers/STM32F1xx_HAL_Driver/Src/stm32f1xx_hal_rcc.c ****   RCC_OscInitStruct->PLL2.PLL2MUL = (uint32_t)(RCC->CFGR2 & RCC_CFGR2_PLL2MUL);
1301:Drivers/STM32F1xx_HAL_Driver/Src/stm32f1xx_hal_rcc.c **** #endif /* RCC_CR_PLL2ON */
1302:Drivers/STM32F1xx_HAL_Driver/Src/stm32f1xx_hal_rcc.c **** }
 2053              		.loc 1 1302 1
 2054 00f4 00BF     		nop
 2055 00f6 0C37     		adds	r7, r7, #12
 2056              	.LCFI45:
 2057              		.cfi_def_cfa_offset 4
 2058 00f8 BD46     		mov	sp, r7
 2059              	.LCFI46:
 2060              		.cfi_def_cfa_register 13
 2061              		@ sp needed
 2062 00fa 80BC     		pop	{r7}
 2063              	.LCFI47:
 2064              		.cfi_restore 7
 2065              		.cfi_def_cfa_offset 0
 2066 00fc 7047     		bx	lr
 2067              	.L143:
 2068 00fe 00BF     		.align	2
 2069              	.L142:
 2070 0100 00100240 		.word	1073876992
 2071              		.cfi_endproc
 2072              	.LFE75:
 2074              		.section	.text.HAL_RCC_GetClockConfig,"ax",%progbits
 2075              		.align	1
 2076              		.global	HAL_RCC_GetClockConfig
 2077              		.syntax unified
 2078              		.thumb
 2079              		.thumb_func
 2081              	HAL_RCC_GetClockConfig:
 2082              	.LFB76:
1303:Drivers/STM32F1xx_HAL_Driver/Src/stm32f1xx_hal_rcc.c **** 
1304:Drivers/STM32F1xx_HAL_Driver/Src/stm32f1xx_hal_rcc.c **** /**
1305:Drivers/STM32F1xx_HAL_Driver/Src/stm32f1xx_hal_rcc.c ****   * @brief  Get the RCC_ClkInitStruct according to the internal
1306:Drivers/STM32F1xx_HAL_Driver/Src/stm32f1xx_hal_rcc.c ****   * RCC configuration registers.
1307:Drivers/STM32F1xx_HAL_Driver/Src/stm32f1xx_hal_rcc.c ****   * @param  RCC_ClkInitStruct pointer to an RCC_ClkInitTypeDef structure that
1308:Drivers/STM32F1xx_HAL_Driver/Src/stm32f1xx_hal_rcc.c ****   * contains the current clock configuration.
1309:Drivers/STM32F1xx_HAL_Driver/Src/stm32f1xx_hal_rcc.c ****   * @param  pFLatency Pointer on the Flash Latency.
1310:Drivers/STM32F1xx_HAL_Driver/Src/stm32f1xx_hal_rcc.c ****   * @retval None
1311:Drivers/STM32F1xx_HAL_Driver/Src/stm32f1xx_hal_rcc.c ****   */
1312:Drivers/STM32F1xx_HAL_Driver/Src/stm32f1xx_hal_rcc.c **** void HAL_RCC_GetClockConfig(RCC_ClkInitTypeDef  *RCC_ClkInitStruct, uint32_t *pFLatency)
1313:Drivers/STM32F1xx_HAL_Driver/Src/stm32f1xx_hal_rcc.c **** {
 2083              		.loc 1 1313 1
 2084              		.cfi_startproc
 2085              		@ args = 0, pretend = 0, frame = 8
 2086              		@ frame_needed = 1, uses_anonymous_args = 0
 2087              		@ link register save eliminated.
 2088 0000 80B4     		push	{r7}
ARM GAS  C:\Users\57298\AppData\Local\Temp\ccq1CZ60.s 			page 61


 2089              	.LCFI48:
 2090              		.cfi_def_cfa_offset 4
 2091              		.cfi_offset 7, -4
 2092 0002 83B0     		sub	sp, sp, #12
 2093              	.LCFI49:
 2094              		.cfi_def_cfa_offset 16
 2095 0004 00AF     		add	r7, sp, #0
 2096              	.LCFI50:
 2097              		.cfi_def_cfa_register 7
 2098 0006 7860     		str	r0, [r7, #4]
 2099 0008 3960     		str	r1, [r7]
1314:Drivers/STM32F1xx_HAL_Driver/Src/stm32f1xx_hal_rcc.c ****   /* Check the parameters */
1315:Drivers/STM32F1xx_HAL_Driver/Src/stm32f1xx_hal_rcc.c ****   assert_param(RCC_ClkInitStruct != NULL);
1316:Drivers/STM32F1xx_HAL_Driver/Src/stm32f1xx_hal_rcc.c ****   assert_param(pFLatency != NULL);
1317:Drivers/STM32F1xx_HAL_Driver/Src/stm32f1xx_hal_rcc.c **** 
1318:Drivers/STM32F1xx_HAL_Driver/Src/stm32f1xx_hal_rcc.c ****   /* Set all possible values for the Clock type parameter --------------------*/
1319:Drivers/STM32F1xx_HAL_Driver/Src/stm32f1xx_hal_rcc.c ****   RCC_ClkInitStruct->ClockType = RCC_CLOCKTYPE_SYSCLK | RCC_CLOCKTYPE_HCLK | RCC_CLOCKTYPE_PCLK1 | 
 2100              		.loc 1 1319 32
 2101 000a 7B68     		ldr	r3, [r7, #4]
 2102 000c 0F22     		movs	r2, #15
 2103 000e 1A60     		str	r2, [r3]
1320:Drivers/STM32F1xx_HAL_Driver/Src/stm32f1xx_hal_rcc.c **** 
1321:Drivers/STM32F1xx_HAL_Driver/Src/stm32f1xx_hal_rcc.c ****   /* Get the SYSCLK configuration --------------------------------------------*/
1322:Drivers/STM32F1xx_HAL_Driver/Src/stm32f1xx_hal_rcc.c ****   RCC_ClkInitStruct->SYSCLKSource = (uint32_t)(RCC->CFGR & RCC_CFGR_SW);
 2104              		.loc 1 1322 51
 2105 0010 114B     		ldr	r3, .L145
 2106 0012 5B68     		ldr	r3, [r3, #4]
 2107              		.loc 1 1322 37
 2108 0014 03F00302 		and	r2, r3, #3
 2109              		.loc 1 1322 35
 2110 0018 7B68     		ldr	r3, [r7, #4]
 2111 001a 5A60     		str	r2, [r3, #4]
1323:Drivers/STM32F1xx_HAL_Driver/Src/stm32f1xx_hal_rcc.c **** 
1324:Drivers/STM32F1xx_HAL_Driver/Src/stm32f1xx_hal_rcc.c ****   /* Get the HCLK configuration ----------------------------------------------*/
1325:Drivers/STM32F1xx_HAL_Driver/Src/stm32f1xx_hal_rcc.c ****   RCC_ClkInitStruct->AHBCLKDivider = (uint32_t)(RCC->CFGR & RCC_CFGR_HPRE);
 2112              		.loc 1 1325 52
 2113 001c 0E4B     		ldr	r3, .L145
 2114 001e 5B68     		ldr	r3, [r3, #4]
 2115              		.loc 1 1325 38
 2116 0020 03F0F002 		and	r2, r3, #240
 2117              		.loc 1 1325 36
 2118 0024 7B68     		ldr	r3, [r7, #4]
 2119 0026 9A60     		str	r2, [r3, #8]
1326:Drivers/STM32F1xx_HAL_Driver/Src/stm32f1xx_hal_rcc.c **** 
1327:Drivers/STM32F1xx_HAL_Driver/Src/stm32f1xx_hal_rcc.c ****   /* Get the APB1 configuration ----------------------------------------------*/
1328:Drivers/STM32F1xx_HAL_Driver/Src/stm32f1xx_hal_rcc.c ****   RCC_ClkInitStruct->APB1CLKDivider = (uint32_t)(RCC->CFGR & RCC_CFGR_PPRE1);
 2120              		.loc 1 1328 53
 2121 0028 0B4B     		ldr	r3, .L145
 2122 002a 5B68     		ldr	r3, [r3, #4]
 2123              		.loc 1 1328 39
 2124 002c 03F4E062 		and	r2, r3, #1792
 2125              		.loc 1 1328 37
 2126 0030 7B68     		ldr	r3, [r7, #4]
 2127 0032 DA60     		str	r2, [r3, #12]
1329:Drivers/STM32F1xx_HAL_Driver/Src/stm32f1xx_hal_rcc.c **** 
1330:Drivers/STM32F1xx_HAL_Driver/Src/stm32f1xx_hal_rcc.c ****   /* Get the APB2 configuration ----------------------------------------------*/
1331:Drivers/STM32F1xx_HAL_Driver/Src/stm32f1xx_hal_rcc.c ****   RCC_ClkInitStruct->APB2CLKDivider = (uint32_t)((RCC->CFGR & RCC_CFGR_PPRE2) >> 3);
ARM GAS  C:\Users\57298\AppData\Local\Temp\ccq1CZ60.s 			page 62


 2128              		.loc 1 1331 54
 2129 0034 084B     		ldr	r3, .L145
 2130 0036 5B68     		ldr	r3, [r3, #4]
 2131              		.loc 1 1331 39
 2132 0038 DB08     		lsrs	r3, r3, #3
 2133 003a 03F4E062 		and	r2, r3, #1792
 2134              		.loc 1 1331 37
 2135 003e 7B68     		ldr	r3, [r7, #4]
 2136 0040 1A61     		str	r2, [r3, #16]
1332:Drivers/STM32F1xx_HAL_Driver/Src/stm32f1xx_hal_rcc.c **** 
1333:Drivers/STM32F1xx_HAL_Driver/Src/stm32f1xx_hal_rcc.c **** #if   defined(FLASH_ACR_LATENCY)
1334:Drivers/STM32F1xx_HAL_Driver/Src/stm32f1xx_hal_rcc.c ****   /* Get the Flash Wait State (Latency) configuration ------------------------*/
1335:Drivers/STM32F1xx_HAL_Driver/Src/stm32f1xx_hal_rcc.c ****   *pFLatency = (uint32_t)(FLASH->ACR & FLASH_ACR_LATENCY);
 2137              		.loc 1 1335 32
 2138 0042 064B     		ldr	r3, .L145+4
 2139 0044 1B68     		ldr	r3, [r3]
 2140              		.loc 1 1335 16
 2141 0046 03F00702 		and	r2, r3, #7
 2142              		.loc 1 1335 14
 2143 004a 3B68     		ldr	r3, [r7]
 2144 004c 1A60     		str	r2, [r3]
1336:Drivers/STM32F1xx_HAL_Driver/Src/stm32f1xx_hal_rcc.c **** #else
1337:Drivers/STM32F1xx_HAL_Driver/Src/stm32f1xx_hal_rcc.c ****   /* For VALUE lines devices, only LATENCY_0 can be set*/
1338:Drivers/STM32F1xx_HAL_Driver/Src/stm32f1xx_hal_rcc.c ****   *pFLatency = (uint32_t)FLASH_LATENCY_0;
1339:Drivers/STM32F1xx_HAL_Driver/Src/stm32f1xx_hal_rcc.c **** #endif
1340:Drivers/STM32F1xx_HAL_Driver/Src/stm32f1xx_hal_rcc.c **** }
 2145              		.loc 1 1340 1
 2146 004e 00BF     		nop
 2147 0050 0C37     		adds	r7, r7, #12
 2148              	.LCFI51:
 2149              		.cfi_def_cfa_offset 4
 2150 0052 BD46     		mov	sp, r7
 2151              	.LCFI52:
 2152              		.cfi_def_cfa_register 13
 2153              		@ sp needed
 2154 0054 80BC     		pop	{r7}
 2155              	.LCFI53:
 2156              		.cfi_restore 7
 2157              		.cfi_def_cfa_offset 0
 2158 0056 7047     		bx	lr
 2159              	.L146:
 2160              		.align	2
 2161              	.L145:
 2162 0058 00100240 		.word	1073876992
 2163 005c 00200240 		.word	1073881088
 2164              		.cfi_endproc
 2165              	.LFE76:
 2167              		.section	.text.HAL_RCC_NMI_IRQHandler,"ax",%progbits
 2168              		.align	1
 2169              		.global	HAL_RCC_NMI_IRQHandler
 2170              		.syntax unified
 2171              		.thumb
 2172              		.thumb_func
 2174              	HAL_RCC_NMI_IRQHandler:
 2175              	.LFB77:
1341:Drivers/STM32F1xx_HAL_Driver/Src/stm32f1xx_hal_rcc.c **** 
1342:Drivers/STM32F1xx_HAL_Driver/Src/stm32f1xx_hal_rcc.c **** /**
ARM GAS  C:\Users\57298\AppData\Local\Temp\ccq1CZ60.s 			page 63


1343:Drivers/STM32F1xx_HAL_Driver/Src/stm32f1xx_hal_rcc.c ****   * @brief This function handles the RCC CSS interrupt request.
1344:Drivers/STM32F1xx_HAL_Driver/Src/stm32f1xx_hal_rcc.c ****   * @note This API should be called under the NMI_Handler().
1345:Drivers/STM32F1xx_HAL_Driver/Src/stm32f1xx_hal_rcc.c ****   * @retval None
1346:Drivers/STM32F1xx_HAL_Driver/Src/stm32f1xx_hal_rcc.c ****   */
1347:Drivers/STM32F1xx_HAL_Driver/Src/stm32f1xx_hal_rcc.c **** void HAL_RCC_NMI_IRQHandler(void)
1348:Drivers/STM32F1xx_HAL_Driver/Src/stm32f1xx_hal_rcc.c **** {
 2176              		.loc 1 1348 1
 2177              		.cfi_startproc
 2178              		@ args = 0, pretend = 0, frame = 0
 2179              		@ frame_needed = 1, uses_anonymous_args = 0
 2180 0000 80B5     		push	{r7, lr}
 2181              	.LCFI54:
 2182              		.cfi_def_cfa_offset 8
 2183              		.cfi_offset 7, -8
 2184              		.cfi_offset 14, -4
 2185 0002 00AF     		add	r7, sp, #0
 2186              	.LCFI55:
 2187              		.cfi_def_cfa_register 7
1349:Drivers/STM32F1xx_HAL_Driver/Src/stm32f1xx_hal_rcc.c ****   /* Check RCC CSSF flag  */
1350:Drivers/STM32F1xx_HAL_Driver/Src/stm32f1xx_hal_rcc.c ****   if (__HAL_RCC_GET_IT(RCC_IT_CSS))
 2188              		.loc 1 1350 7
 2189 0004 064B     		ldr	r3, .L150
 2190 0006 9B68     		ldr	r3, [r3, #8]
 2191 0008 03F08003 		and	r3, r3, #128
 2192              		.loc 1 1350 6
 2193 000c 802B     		cmp	r3, #128
 2194 000e 04D1     		bne	.L149
1351:Drivers/STM32F1xx_HAL_Driver/Src/stm32f1xx_hal_rcc.c ****   {
1352:Drivers/STM32F1xx_HAL_Driver/Src/stm32f1xx_hal_rcc.c ****     /* RCC Clock Security System interrupt user callback */
1353:Drivers/STM32F1xx_HAL_Driver/Src/stm32f1xx_hal_rcc.c ****     HAL_RCC_CSSCallback();
 2195              		.loc 1 1353 5
 2196 0010 FFF7FEFF 		bl	HAL_RCC_CSSCallback
1354:Drivers/STM32F1xx_HAL_Driver/Src/stm32f1xx_hal_rcc.c **** 
1355:Drivers/STM32F1xx_HAL_Driver/Src/stm32f1xx_hal_rcc.c ****     /* Clear RCC CSS pending bit */
1356:Drivers/STM32F1xx_HAL_Driver/Src/stm32f1xx_hal_rcc.c ****     __HAL_RCC_CLEAR_IT(RCC_IT_CSS);
 2197              		.loc 1 1356 5
 2198 0014 034B     		ldr	r3, .L150+4
 2199 0016 8022     		movs	r2, #128
 2200 0018 1A70     		strb	r2, [r3]
 2201              	.L149:
1357:Drivers/STM32F1xx_HAL_Driver/Src/stm32f1xx_hal_rcc.c ****   }
1358:Drivers/STM32F1xx_HAL_Driver/Src/stm32f1xx_hal_rcc.c **** }
 2202              		.loc 1 1358 1
 2203 001a 00BF     		nop
 2204 001c 80BD     		pop	{r7, pc}
 2205              	.L151:
 2206 001e 00BF     		.align	2
 2207              	.L150:
 2208 0020 00100240 		.word	1073876992
 2209 0024 0A100240 		.word	1073877002
 2210              		.cfi_endproc
 2211              	.LFE77:
 2213              		.section	.text.RCC_Delay,"ax",%progbits
 2214              		.align	1
 2215              		.syntax unified
 2216              		.thumb
 2217              		.thumb_func
ARM GAS  C:\Users\57298\AppData\Local\Temp\ccq1CZ60.s 			page 64


 2219              	RCC_Delay:
 2220              	.LFB78:
1359:Drivers/STM32F1xx_HAL_Driver/Src/stm32f1xx_hal_rcc.c **** 
1360:Drivers/STM32F1xx_HAL_Driver/Src/stm32f1xx_hal_rcc.c **** /**
1361:Drivers/STM32F1xx_HAL_Driver/Src/stm32f1xx_hal_rcc.c ****   * @brief  This function provides delay (in milliseconds) based on CPU cycles method.
1362:Drivers/STM32F1xx_HAL_Driver/Src/stm32f1xx_hal_rcc.c ****   * @param  mdelay: specifies the delay time length, in milliseconds.
1363:Drivers/STM32F1xx_HAL_Driver/Src/stm32f1xx_hal_rcc.c ****   * @retval None
1364:Drivers/STM32F1xx_HAL_Driver/Src/stm32f1xx_hal_rcc.c ****   */
1365:Drivers/STM32F1xx_HAL_Driver/Src/stm32f1xx_hal_rcc.c **** static void RCC_Delay(uint32_t mdelay)
1366:Drivers/STM32F1xx_HAL_Driver/Src/stm32f1xx_hal_rcc.c **** {
 2221              		.loc 1 1366 1
 2222              		.cfi_startproc
 2223              		@ args = 0, pretend = 0, frame = 16
 2224              		@ frame_needed = 1, uses_anonymous_args = 0
 2225              		@ link register save eliminated.
 2226 0000 80B4     		push	{r7}
 2227              	.LCFI56:
 2228              		.cfi_def_cfa_offset 4
 2229              		.cfi_offset 7, -4
 2230 0002 85B0     		sub	sp, sp, #20
 2231              	.LCFI57:
 2232              		.cfi_def_cfa_offset 24
 2233 0004 00AF     		add	r7, sp, #0
 2234              	.LCFI58:
 2235              		.cfi_def_cfa_register 7
 2236 0006 7860     		str	r0, [r7, #4]
1367:Drivers/STM32F1xx_HAL_Driver/Src/stm32f1xx_hal_rcc.c ****   __IO uint32_t Delay = mdelay * (SystemCoreClock / 8U / 1000U);
 2237              		.loc 1 1367 56
 2238 0008 0A4B     		ldr	r3, .L154
 2239 000a 1B68     		ldr	r3, [r3]
 2240 000c 0A4A     		ldr	r2, .L154+4
 2241 000e A2FB0323 		umull	r2, r3, r2, r3
 2242 0012 5B0A     		lsrs	r3, r3, #9
 2243              		.loc 1 1367 32
 2244 0014 7A68     		ldr	r2, [r7, #4]
 2245 0016 02FB03F3 		mul	r3, r2, r3
 2246              		.loc 1 1367 17
 2247 001a FB60     		str	r3, [r7, #12]
 2248              	.L153:
1368:Drivers/STM32F1xx_HAL_Driver/Src/stm32f1xx_hal_rcc.c ****   do
1369:Drivers/STM32F1xx_HAL_Driver/Src/stm32f1xx_hal_rcc.c ****   {
1370:Drivers/STM32F1xx_HAL_Driver/Src/stm32f1xx_hal_rcc.c ****     __NOP();
 2249              		.loc 1 1370 5 discriminator 1
 2250              		.syntax unified
 2251              	@ 1370 "Drivers/STM32F1xx_HAL_Driver/Src/stm32f1xx_hal_rcc.c" 1
 2252 001c 00BF     		nop
 2253              	@ 0 "" 2
1371:Drivers/STM32F1xx_HAL_Driver/Src/stm32f1xx_hal_rcc.c ****   }
1372:Drivers/STM32F1xx_HAL_Driver/Src/stm32f1xx_hal_rcc.c ****   while (Delay --);
 2254              		.loc 1 1372 16 discriminator 1
 2255              		.thumb
 2256              		.syntax unified
 2257 001e FB68     		ldr	r3, [r7, #12]
 2258 0020 5A1E     		subs	r2, r3, #1
 2259 0022 FA60     		str	r2, [r7, #12]
 2260              		.loc 1 1372 3 discriminator 1
 2261 0024 002B     		cmp	r3, #0
ARM GAS  C:\Users\57298\AppData\Local\Temp\ccq1CZ60.s 			page 65


 2262 0026 F9D1     		bne	.L153
1373:Drivers/STM32F1xx_HAL_Driver/Src/stm32f1xx_hal_rcc.c **** }
 2263              		.loc 1 1373 1
 2264 0028 00BF     		nop
 2265 002a 00BF     		nop
 2266 002c 1437     		adds	r7, r7, #20
 2267              	.LCFI59:
 2268              		.cfi_def_cfa_offset 4
 2269 002e BD46     		mov	sp, r7
 2270              	.LCFI60:
 2271              		.cfi_def_cfa_register 13
 2272              		@ sp needed
 2273 0030 80BC     		pop	{r7}
 2274              	.LCFI61:
 2275              		.cfi_restore 7
 2276              		.cfi_def_cfa_offset 0
 2277 0032 7047     		bx	lr
 2278              	.L155:
 2279              		.align	2
 2280              	.L154:
 2281 0034 00000000 		.word	SystemCoreClock
 2282 0038 D34D6210 		.word	274877907
 2283              		.cfi_endproc
 2284              	.LFE78:
 2286              		.section	.text.HAL_RCC_CSSCallback,"ax",%progbits
 2287              		.align	1
 2288              		.weak	HAL_RCC_CSSCallback
 2289              		.syntax unified
 2290              		.thumb
 2291              		.thumb_func
 2293              	HAL_RCC_CSSCallback:
 2294              	.LFB79:
1374:Drivers/STM32F1xx_HAL_Driver/Src/stm32f1xx_hal_rcc.c **** 
1375:Drivers/STM32F1xx_HAL_Driver/Src/stm32f1xx_hal_rcc.c **** /**
1376:Drivers/STM32F1xx_HAL_Driver/Src/stm32f1xx_hal_rcc.c ****   * @brief  RCC Clock Security System interrupt callback
1377:Drivers/STM32F1xx_HAL_Driver/Src/stm32f1xx_hal_rcc.c ****   * @retval none
1378:Drivers/STM32F1xx_HAL_Driver/Src/stm32f1xx_hal_rcc.c ****   */
1379:Drivers/STM32F1xx_HAL_Driver/Src/stm32f1xx_hal_rcc.c **** __weak void HAL_RCC_CSSCallback(void)
1380:Drivers/STM32F1xx_HAL_Driver/Src/stm32f1xx_hal_rcc.c **** {
 2295              		.loc 1 1380 1
 2296              		.cfi_startproc
 2297              		@ args = 0, pretend = 0, frame = 0
 2298              		@ frame_needed = 1, uses_anonymous_args = 0
 2299              		@ link register save eliminated.
 2300 0000 80B4     		push	{r7}
 2301              	.LCFI62:
 2302              		.cfi_def_cfa_offset 4
 2303              		.cfi_offset 7, -4
 2304 0002 00AF     		add	r7, sp, #0
 2305              	.LCFI63:
 2306              		.cfi_def_cfa_register 7
1381:Drivers/STM32F1xx_HAL_Driver/Src/stm32f1xx_hal_rcc.c ****   /* NOTE : This function Should not be modified, when the callback is needed,
1382:Drivers/STM32F1xx_HAL_Driver/Src/stm32f1xx_hal_rcc.c ****     the HAL_RCC_CSSCallback could be implemented in the user file
1383:Drivers/STM32F1xx_HAL_Driver/Src/stm32f1xx_hal_rcc.c ****     */
1384:Drivers/STM32F1xx_HAL_Driver/Src/stm32f1xx_hal_rcc.c **** }
 2307              		.loc 1 1384 1
 2308 0004 00BF     		nop
ARM GAS  C:\Users\57298\AppData\Local\Temp\ccq1CZ60.s 			page 66


 2309 0006 BD46     		mov	sp, r7
 2310              	.LCFI64:
 2311              		.cfi_def_cfa_register 13
 2312              		@ sp needed
 2313 0008 80BC     		pop	{r7}
 2314              	.LCFI65:
 2315              		.cfi_restore 7
 2316              		.cfi_def_cfa_offset 0
 2317 000a 7047     		bx	lr
 2318              		.cfi_endproc
 2319              	.LFE79:
 2321              		.text
 2322              	.Letext0:
 2323              		.file 2 "c:\\program files\\gcc-arm-none-eabi-10.3-2021.10\\arm-none-eabi\\include\\machine\\_defa
 2324              		.file 3 "c:\\program files\\gcc-arm-none-eabi-10.3-2021.10\\arm-none-eabi\\include\\sys\\_stdint.h
 2325              		.file 4 "Drivers/CMSIS/Device/ST/STM32F1xx/Include/system_stm32f1xx.h"
 2326              		.file 5 "Drivers/CMSIS/Device/ST/STM32F1xx/Include/stm32f103xb.h"
 2327              		.file 6 "Drivers/CMSIS/Device/ST/STM32F1xx/Include/stm32f1xx.h"
 2328              		.file 7 "Drivers/STM32F1xx_HAL_Driver/Inc/stm32f1xx_hal_def.h"
 2329              		.file 8 "Drivers/STM32F1xx_HAL_Driver/Inc/stm32f1xx_hal_rcc.h"
 2330              		.file 9 "Drivers/STM32F1xx_HAL_Driver/Inc/stm32f1xx_hal_rcc_ex.h"
 2331              		.file 10 "Drivers/STM32F1xx_HAL_Driver/Inc/stm32f1xx_hal_gpio.h"
 2332              		.file 11 "Drivers/STM32F1xx_HAL_Driver/Inc/stm32f1xx_hal.h"
ARM GAS  C:\Users\57298\AppData\Local\Temp\ccq1CZ60.s 			page 67

