ARM GAS  C:\Users\mason\AppData\Local\Temp\cc9opaHX.s 			page 1


   1              		.cpu cortex-m3
   2              		.arch armv7-m
   3              		.fpu softvfp
   4              		.eabi_attribute 20, 1
   5              		.eabi_attribute 21, 1
   6              		.eabi_attribute 23, 3
   7              		.eabi_attribute 24, 1
   8              		.eabi_attribute 25, 1
   9              		.eabi_attribute 26, 1
  10              		.eabi_attribute 30, 6
  11              		.eabi_attribute 34, 1
  12              		.eabi_attribute 18, 4
  13              		.file	"stm32f1xx_hal_dma.c"
  14              		.text
  15              	.Ltext0:
  16              		.cfi_sections	.debug_frame
  17              		.section	.text.HAL_DMA_Init,"ax",%progbits
  18              		.align	1
  19              		.global	HAL_DMA_Init
  20              		.syntax unified
  21              		.thumb
  22              		.thumb_func
  24              	HAL_DMA_Init:
  25              	.LFB65:
  26              		.file 1 "Drivers/STM32F1xx_HAL_Driver/Src/stm32f1xx_hal_dma.c"
   1:Drivers/STM32F1xx_HAL_Driver/Src/stm32f1xx_hal_dma.c **** /**
   2:Drivers/STM32F1xx_HAL_Driver/Src/stm32f1xx_hal_dma.c ****   ******************************************************************************
   3:Drivers/STM32F1xx_HAL_Driver/Src/stm32f1xx_hal_dma.c ****   * @file    stm32f1xx_hal_dma.c
   4:Drivers/STM32F1xx_HAL_Driver/Src/stm32f1xx_hal_dma.c ****   * @author  MCD Application Team
   5:Drivers/STM32F1xx_HAL_Driver/Src/stm32f1xx_hal_dma.c ****   * @brief   DMA HAL module driver.
   6:Drivers/STM32F1xx_HAL_Driver/Src/stm32f1xx_hal_dma.c ****   *         This file provides firmware functions to manage the following
   7:Drivers/STM32F1xx_HAL_Driver/Src/stm32f1xx_hal_dma.c ****   *         functionalities of the Direct Memory Access (DMA) peripheral:
   8:Drivers/STM32F1xx_HAL_Driver/Src/stm32f1xx_hal_dma.c ****   *           + Initialization and de-initialization functions
   9:Drivers/STM32F1xx_HAL_Driver/Src/stm32f1xx_hal_dma.c ****   *           + IO operation functions
  10:Drivers/STM32F1xx_HAL_Driver/Src/stm32f1xx_hal_dma.c ****   *           + Peripheral State and errors functions
  11:Drivers/STM32F1xx_HAL_Driver/Src/stm32f1xx_hal_dma.c ****   @verbatim
  12:Drivers/STM32F1xx_HAL_Driver/Src/stm32f1xx_hal_dma.c ****   ==============================================================================
  13:Drivers/STM32F1xx_HAL_Driver/Src/stm32f1xx_hal_dma.c ****                         ##### How to use this driver #####
  14:Drivers/STM32F1xx_HAL_Driver/Src/stm32f1xx_hal_dma.c ****   ==============================================================================
  15:Drivers/STM32F1xx_HAL_Driver/Src/stm32f1xx_hal_dma.c ****   [..]
  16:Drivers/STM32F1xx_HAL_Driver/Src/stm32f1xx_hal_dma.c ****    (#) Enable and configure the peripheral to be connected to the DMA Channel
  17:Drivers/STM32F1xx_HAL_Driver/Src/stm32f1xx_hal_dma.c ****        (except for internal SRAM / FLASH memories: no initialization is 
  18:Drivers/STM32F1xx_HAL_Driver/Src/stm32f1xx_hal_dma.c ****        necessary). Please refer to the Reference manual for connection between peripherals
  19:Drivers/STM32F1xx_HAL_Driver/Src/stm32f1xx_hal_dma.c ****        and DMA requests.
  20:Drivers/STM32F1xx_HAL_Driver/Src/stm32f1xx_hal_dma.c **** 
  21:Drivers/STM32F1xx_HAL_Driver/Src/stm32f1xx_hal_dma.c ****    (#) For a given Channel, program the required configuration through the following parameters:
  22:Drivers/STM32F1xx_HAL_Driver/Src/stm32f1xx_hal_dma.c ****        Channel request, Transfer Direction, Source and Destination data formats,
  23:Drivers/STM32F1xx_HAL_Driver/Src/stm32f1xx_hal_dma.c ****        Circular or Normal mode, Channel Priority level, Source and Destination Increment mode
  24:Drivers/STM32F1xx_HAL_Driver/Src/stm32f1xx_hal_dma.c ****        using HAL_DMA_Init() function.
  25:Drivers/STM32F1xx_HAL_Driver/Src/stm32f1xx_hal_dma.c **** 
  26:Drivers/STM32F1xx_HAL_Driver/Src/stm32f1xx_hal_dma.c ****    (#) Use HAL_DMA_GetState() function to return the DMA state and HAL_DMA_GetError() in case of er
  27:Drivers/STM32F1xx_HAL_Driver/Src/stm32f1xx_hal_dma.c ****        detection.
  28:Drivers/STM32F1xx_HAL_Driver/Src/stm32f1xx_hal_dma.c ****                     
  29:Drivers/STM32F1xx_HAL_Driver/Src/stm32f1xx_hal_dma.c ****    (#) Use HAL_DMA_Abort() function to abort the current transfer
  30:Drivers/STM32F1xx_HAL_Driver/Src/stm32f1xx_hal_dma.c ****                    
  31:Drivers/STM32F1xx_HAL_Driver/Src/stm32f1xx_hal_dma.c ****      -@-   In Memory-to-Memory transfer mode, Circular mode is not allowed.
  32:Drivers/STM32F1xx_HAL_Driver/Src/stm32f1xx_hal_dma.c ****      *** Polling mode IO operation ***
ARM GAS  C:\Users\mason\AppData\Local\Temp\cc9opaHX.s 			page 2


  33:Drivers/STM32F1xx_HAL_Driver/Src/stm32f1xx_hal_dma.c ****      =================================
  34:Drivers/STM32F1xx_HAL_Driver/Src/stm32f1xx_hal_dma.c ****     [..]
  35:Drivers/STM32F1xx_HAL_Driver/Src/stm32f1xx_hal_dma.c ****           (+) Use HAL_DMA_Start() to start DMA transfer after the configuration of Source
  36:Drivers/STM32F1xx_HAL_Driver/Src/stm32f1xx_hal_dma.c ****               address and destination address and the Length of data to be transferred
  37:Drivers/STM32F1xx_HAL_Driver/Src/stm32f1xx_hal_dma.c ****           (+) Use HAL_DMA_PollForTransfer() to poll for the end of current transfer, in this
  38:Drivers/STM32F1xx_HAL_Driver/Src/stm32f1xx_hal_dma.c ****               case a fixed Timeout can be configured by User depending from his application.
  39:Drivers/STM32F1xx_HAL_Driver/Src/stm32f1xx_hal_dma.c **** 
  40:Drivers/STM32F1xx_HAL_Driver/Src/stm32f1xx_hal_dma.c ****      *** Interrupt mode IO operation ***
  41:Drivers/STM32F1xx_HAL_Driver/Src/stm32f1xx_hal_dma.c ****      ===================================
  42:Drivers/STM32F1xx_HAL_Driver/Src/stm32f1xx_hal_dma.c ****     [..]
  43:Drivers/STM32F1xx_HAL_Driver/Src/stm32f1xx_hal_dma.c ****           (+) Configure the DMA interrupt priority using HAL_NVIC_SetPriority()
  44:Drivers/STM32F1xx_HAL_Driver/Src/stm32f1xx_hal_dma.c ****           (+) Enable the DMA IRQ handler using HAL_NVIC_EnableIRQ()
  45:Drivers/STM32F1xx_HAL_Driver/Src/stm32f1xx_hal_dma.c ****           (+) Use HAL_DMA_Start_IT() to start DMA transfer after the configuration of
  46:Drivers/STM32F1xx_HAL_Driver/Src/stm32f1xx_hal_dma.c ****               Source address and destination address and the Length of data to be transferred.
  47:Drivers/STM32F1xx_HAL_Driver/Src/stm32f1xx_hal_dma.c ****               In this case the DMA interrupt is configured
  48:Drivers/STM32F1xx_HAL_Driver/Src/stm32f1xx_hal_dma.c ****           (+) Use HAL_DMA_IRQHandler() called under DMA_IRQHandler() Interrupt subroutine
  49:Drivers/STM32F1xx_HAL_Driver/Src/stm32f1xx_hal_dma.c ****           (+) At the end of data transfer HAL_DMA_IRQHandler() function is executed and user can
  50:Drivers/STM32F1xx_HAL_Driver/Src/stm32f1xx_hal_dma.c ****               add his own function by customization of function pointer XferCpltCallback and
  51:Drivers/STM32F1xx_HAL_Driver/Src/stm32f1xx_hal_dma.c ****               XferErrorCallback (i.e. a member of DMA handle structure).
  52:Drivers/STM32F1xx_HAL_Driver/Src/stm32f1xx_hal_dma.c **** 
  53:Drivers/STM32F1xx_HAL_Driver/Src/stm32f1xx_hal_dma.c ****      *** DMA HAL driver macros list ***
  54:Drivers/STM32F1xx_HAL_Driver/Src/stm32f1xx_hal_dma.c ****      ============================================= 
  55:Drivers/STM32F1xx_HAL_Driver/Src/stm32f1xx_hal_dma.c ****       [..]
  56:Drivers/STM32F1xx_HAL_Driver/Src/stm32f1xx_hal_dma.c ****        Below the list of most used macros in DMA HAL driver.
  57:Drivers/STM32F1xx_HAL_Driver/Src/stm32f1xx_hal_dma.c **** 
  58:Drivers/STM32F1xx_HAL_Driver/Src/stm32f1xx_hal_dma.c ****        (+) __HAL_DMA_ENABLE: Enable the specified DMA Channel.
  59:Drivers/STM32F1xx_HAL_Driver/Src/stm32f1xx_hal_dma.c ****        (+) __HAL_DMA_DISABLE: Disable the specified DMA Channel.
  60:Drivers/STM32F1xx_HAL_Driver/Src/stm32f1xx_hal_dma.c ****        (+) __HAL_DMA_GET_FLAG: Get the DMA Channel pending flags.
  61:Drivers/STM32F1xx_HAL_Driver/Src/stm32f1xx_hal_dma.c ****        (+) __HAL_DMA_CLEAR_FLAG: Clear the DMA Channel pending flags.
  62:Drivers/STM32F1xx_HAL_Driver/Src/stm32f1xx_hal_dma.c ****        (+) __HAL_DMA_ENABLE_IT: Enable the specified DMA Channel interrupts.
  63:Drivers/STM32F1xx_HAL_Driver/Src/stm32f1xx_hal_dma.c ****        (+) __HAL_DMA_DISABLE_IT: Disable the specified DMA Channel interrupts.
  64:Drivers/STM32F1xx_HAL_Driver/Src/stm32f1xx_hal_dma.c ****        (+) __HAL_DMA_GET_IT_SOURCE: Check whether the specified DMA Channel interrupt has occurred 
  65:Drivers/STM32F1xx_HAL_Driver/Src/stm32f1xx_hal_dma.c **** 
  66:Drivers/STM32F1xx_HAL_Driver/Src/stm32f1xx_hal_dma.c ****      [..] 
  67:Drivers/STM32F1xx_HAL_Driver/Src/stm32f1xx_hal_dma.c ****       (@) You can refer to the DMA HAL driver header file for more useful macros  
  68:Drivers/STM32F1xx_HAL_Driver/Src/stm32f1xx_hal_dma.c **** 
  69:Drivers/STM32F1xx_HAL_Driver/Src/stm32f1xx_hal_dma.c ****   @endverbatim
  70:Drivers/STM32F1xx_HAL_Driver/Src/stm32f1xx_hal_dma.c ****   ******************************************************************************
  71:Drivers/STM32F1xx_HAL_Driver/Src/stm32f1xx_hal_dma.c ****   * @attention
  72:Drivers/STM32F1xx_HAL_Driver/Src/stm32f1xx_hal_dma.c ****   *
  73:Drivers/STM32F1xx_HAL_Driver/Src/stm32f1xx_hal_dma.c ****   * <h2><center>&copy; Copyright (c) 2016 STMicroelectronics.
  74:Drivers/STM32F1xx_HAL_Driver/Src/stm32f1xx_hal_dma.c ****   * All rights reserved.</center></h2>
  75:Drivers/STM32F1xx_HAL_Driver/Src/stm32f1xx_hal_dma.c ****   *
  76:Drivers/STM32F1xx_HAL_Driver/Src/stm32f1xx_hal_dma.c ****   * This software component is licensed by ST under BSD 3-Clause license,
  77:Drivers/STM32F1xx_HAL_Driver/Src/stm32f1xx_hal_dma.c ****   * the "License"; You may not use this file except in compliance with the
  78:Drivers/STM32F1xx_HAL_Driver/Src/stm32f1xx_hal_dma.c ****   * License. You may obtain a copy of the License at:
  79:Drivers/STM32F1xx_HAL_Driver/Src/stm32f1xx_hal_dma.c ****   *                        opensource.org/licenses/BSD-3-Clause
  80:Drivers/STM32F1xx_HAL_Driver/Src/stm32f1xx_hal_dma.c ****   *
  81:Drivers/STM32F1xx_HAL_Driver/Src/stm32f1xx_hal_dma.c ****   ******************************************************************************
  82:Drivers/STM32F1xx_HAL_Driver/Src/stm32f1xx_hal_dma.c ****   */
  83:Drivers/STM32F1xx_HAL_Driver/Src/stm32f1xx_hal_dma.c **** 
  84:Drivers/STM32F1xx_HAL_Driver/Src/stm32f1xx_hal_dma.c **** /* Includes ------------------------------------------------------------------*/
  85:Drivers/STM32F1xx_HAL_Driver/Src/stm32f1xx_hal_dma.c **** #include "stm32f1xx_hal.h"
  86:Drivers/STM32F1xx_HAL_Driver/Src/stm32f1xx_hal_dma.c **** 
  87:Drivers/STM32F1xx_HAL_Driver/Src/stm32f1xx_hal_dma.c **** /** @addtogroup STM32F1xx_HAL_Driver
  88:Drivers/STM32F1xx_HAL_Driver/Src/stm32f1xx_hal_dma.c ****   * @{
  89:Drivers/STM32F1xx_HAL_Driver/Src/stm32f1xx_hal_dma.c ****   */
ARM GAS  C:\Users\mason\AppData\Local\Temp\cc9opaHX.s 			page 3


  90:Drivers/STM32F1xx_HAL_Driver/Src/stm32f1xx_hal_dma.c **** 
  91:Drivers/STM32F1xx_HAL_Driver/Src/stm32f1xx_hal_dma.c **** /** @defgroup DMA DMA
  92:Drivers/STM32F1xx_HAL_Driver/Src/stm32f1xx_hal_dma.c ****   * @brief DMA HAL module driver
  93:Drivers/STM32F1xx_HAL_Driver/Src/stm32f1xx_hal_dma.c ****   * @{
  94:Drivers/STM32F1xx_HAL_Driver/Src/stm32f1xx_hal_dma.c ****   */
  95:Drivers/STM32F1xx_HAL_Driver/Src/stm32f1xx_hal_dma.c **** 
  96:Drivers/STM32F1xx_HAL_Driver/Src/stm32f1xx_hal_dma.c **** #ifdef HAL_DMA_MODULE_ENABLED
  97:Drivers/STM32F1xx_HAL_Driver/Src/stm32f1xx_hal_dma.c **** 
  98:Drivers/STM32F1xx_HAL_Driver/Src/stm32f1xx_hal_dma.c **** /* Private typedef -----------------------------------------------------------*/
  99:Drivers/STM32F1xx_HAL_Driver/Src/stm32f1xx_hal_dma.c **** /* Private define ------------------------------------------------------------*/
 100:Drivers/STM32F1xx_HAL_Driver/Src/stm32f1xx_hal_dma.c **** /* Private macro -------------------------------------------------------------*/
 101:Drivers/STM32F1xx_HAL_Driver/Src/stm32f1xx_hal_dma.c **** /* Private variables ---------------------------------------------------------*/
 102:Drivers/STM32F1xx_HAL_Driver/Src/stm32f1xx_hal_dma.c **** /* Private function prototypes -----------------------------------------------*/
 103:Drivers/STM32F1xx_HAL_Driver/Src/stm32f1xx_hal_dma.c **** /** @defgroup DMA_Private_Functions DMA Private Functions
 104:Drivers/STM32F1xx_HAL_Driver/Src/stm32f1xx_hal_dma.c ****   * @{
 105:Drivers/STM32F1xx_HAL_Driver/Src/stm32f1xx_hal_dma.c ****   */
 106:Drivers/STM32F1xx_HAL_Driver/Src/stm32f1xx_hal_dma.c **** static void DMA_SetConfig(DMA_HandleTypeDef *hdma, uint32_t SrcAddress, uint32_t DstAddress, uint32
 107:Drivers/STM32F1xx_HAL_Driver/Src/stm32f1xx_hal_dma.c **** /**
 108:Drivers/STM32F1xx_HAL_Driver/Src/stm32f1xx_hal_dma.c ****   * @}
 109:Drivers/STM32F1xx_HAL_Driver/Src/stm32f1xx_hal_dma.c ****   */
 110:Drivers/STM32F1xx_HAL_Driver/Src/stm32f1xx_hal_dma.c **** 
 111:Drivers/STM32F1xx_HAL_Driver/Src/stm32f1xx_hal_dma.c **** /* Exported functions ---------------------------------------------------------*/
 112:Drivers/STM32F1xx_HAL_Driver/Src/stm32f1xx_hal_dma.c **** 
 113:Drivers/STM32F1xx_HAL_Driver/Src/stm32f1xx_hal_dma.c **** /** @defgroup DMA_Exported_Functions DMA Exported Functions
 114:Drivers/STM32F1xx_HAL_Driver/Src/stm32f1xx_hal_dma.c ****   * @{
 115:Drivers/STM32F1xx_HAL_Driver/Src/stm32f1xx_hal_dma.c ****   */
 116:Drivers/STM32F1xx_HAL_Driver/Src/stm32f1xx_hal_dma.c **** 
 117:Drivers/STM32F1xx_HAL_Driver/Src/stm32f1xx_hal_dma.c **** /** @defgroup DMA_Exported_Functions_Group1 Initialization and de-initialization functions
 118:Drivers/STM32F1xx_HAL_Driver/Src/stm32f1xx_hal_dma.c ****   *  @brief   Initialization and de-initialization functions 
 119:Drivers/STM32F1xx_HAL_Driver/Src/stm32f1xx_hal_dma.c ****   *
 120:Drivers/STM32F1xx_HAL_Driver/Src/stm32f1xx_hal_dma.c **** @verbatim
 121:Drivers/STM32F1xx_HAL_Driver/Src/stm32f1xx_hal_dma.c ****  ===============================================================================
 122:Drivers/STM32F1xx_HAL_Driver/Src/stm32f1xx_hal_dma.c ****              ##### Initialization and de-initialization functions  #####
 123:Drivers/STM32F1xx_HAL_Driver/Src/stm32f1xx_hal_dma.c ****  ===============================================================================
 124:Drivers/STM32F1xx_HAL_Driver/Src/stm32f1xx_hal_dma.c ****     [..]
 125:Drivers/STM32F1xx_HAL_Driver/Src/stm32f1xx_hal_dma.c ****     This section provides functions allowing to initialize the DMA Channel source
 126:Drivers/STM32F1xx_HAL_Driver/Src/stm32f1xx_hal_dma.c ****     and destination addresses, incrementation and data sizes, transfer direction, 
 127:Drivers/STM32F1xx_HAL_Driver/Src/stm32f1xx_hal_dma.c ****     circular/normal mode selection, memory-to-memory mode selection and Channel priority value.
 128:Drivers/STM32F1xx_HAL_Driver/Src/stm32f1xx_hal_dma.c ****     [..]
 129:Drivers/STM32F1xx_HAL_Driver/Src/stm32f1xx_hal_dma.c ****     The HAL_DMA_Init() function follows the DMA configuration procedures as described in
 130:Drivers/STM32F1xx_HAL_Driver/Src/stm32f1xx_hal_dma.c ****     reference manual.  
 131:Drivers/STM32F1xx_HAL_Driver/Src/stm32f1xx_hal_dma.c **** 
 132:Drivers/STM32F1xx_HAL_Driver/Src/stm32f1xx_hal_dma.c **** @endverbatim
 133:Drivers/STM32F1xx_HAL_Driver/Src/stm32f1xx_hal_dma.c ****   * @{
 134:Drivers/STM32F1xx_HAL_Driver/Src/stm32f1xx_hal_dma.c ****   */
 135:Drivers/STM32F1xx_HAL_Driver/Src/stm32f1xx_hal_dma.c **** 
 136:Drivers/STM32F1xx_HAL_Driver/Src/stm32f1xx_hal_dma.c **** /**
 137:Drivers/STM32F1xx_HAL_Driver/Src/stm32f1xx_hal_dma.c ****   * @brief  Initialize the DMA according to the specified
 138:Drivers/STM32F1xx_HAL_Driver/Src/stm32f1xx_hal_dma.c ****   *         parameters in the DMA_InitTypeDef and initialize the associated handle.
 139:Drivers/STM32F1xx_HAL_Driver/Src/stm32f1xx_hal_dma.c ****   * @param  hdma: Pointer to a DMA_HandleTypeDef structure that contains
 140:Drivers/STM32F1xx_HAL_Driver/Src/stm32f1xx_hal_dma.c ****   *               the configuration information for the specified DMA Channel.
 141:Drivers/STM32F1xx_HAL_Driver/Src/stm32f1xx_hal_dma.c ****   * @retval HAL status
 142:Drivers/STM32F1xx_HAL_Driver/Src/stm32f1xx_hal_dma.c ****   */
 143:Drivers/STM32F1xx_HAL_Driver/Src/stm32f1xx_hal_dma.c **** HAL_StatusTypeDef HAL_DMA_Init(DMA_HandleTypeDef *hdma)
 144:Drivers/STM32F1xx_HAL_Driver/Src/stm32f1xx_hal_dma.c **** {
  27              		.loc 1 144 1
  28              		.cfi_startproc
ARM GAS  C:\Users\mason\AppData\Local\Temp\cc9opaHX.s 			page 4


  29              		@ args = 0, pretend = 0, frame = 16
  30              		@ frame_needed = 1, uses_anonymous_args = 0
  31              		@ link register save eliminated.
  32 0000 80B4     		push	{r7}
  33              	.LCFI0:
  34              		.cfi_def_cfa_offset 4
  35              		.cfi_offset 7, -4
  36 0002 85B0     		sub	sp, sp, #20
  37              	.LCFI1:
  38              		.cfi_def_cfa_offset 24
  39 0004 00AF     		add	r7, sp, #0
  40              	.LCFI2:
  41              		.cfi_def_cfa_register 7
  42 0006 7860     		str	r0, [r7, #4]
 145:Drivers/STM32F1xx_HAL_Driver/Src/stm32f1xx_hal_dma.c ****   uint32_t tmp = 0U;
  43              		.loc 1 145 12
  44 0008 0023     		movs	r3, #0
  45 000a FB60     		str	r3, [r7, #12]
 146:Drivers/STM32F1xx_HAL_Driver/Src/stm32f1xx_hal_dma.c **** 
 147:Drivers/STM32F1xx_HAL_Driver/Src/stm32f1xx_hal_dma.c ****   /* Check the DMA handle allocation */
 148:Drivers/STM32F1xx_HAL_Driver/Src/stm32f1xx_hal_dma.c ****   if(hdma == NULL)
  46              		.loc 1 148 5
  47 000c 7B68     		ldr	r3, [r7, #4]
  48 000e 002B     		cmp	r3, #0
  49 0010 01D1     		bne	.L2
 149:Drivers/STM32F1xx_HAL_Driver/Src/stm32f1xx_hal_dma.c ****   {
 150:Drivers/STM32F1xx_HAL_Driver/Src/stm32f1xx_hal_dma.c ****     return HAL_ERROR;
  50              		.loc 1 150 12
  51 0012 0123     		movs	r3, #1
  52 0014 43E0     		b	.L3
  53              	.L2:
 151:Drivers/STM32F1xx_HAL_Driver/Src/stm32f1xx_hal_dma.c ****   }
 152:Drivers/STM32F1xx_HAL_Driver/Src/stm32f1xx_hal_dma.c **** 
 153:Drivers/STM32F1xx_HAL_Driver/Src/stm32f1xx_hal_dma.c ****   /* Check the parameters */
 154:Drivers/STM32F1xx_HAL_Driver/Src/stm32f1xx_hal_dma.c ****   assert_param(IS_DMA_ALL_INSTANCE(hdma->Instance));
 155:Drivers/STM32F1xx_HAL_Driver/Src/stm32f1xx_hal_dma.c ****   assert_param(IS_DMA_DIRECTION(hdma->Init.Direction));
 156:Drivers/STM32F1xx_HAL_Driver/Src/stm32f1xx_hal_dma.c ****   assert_param(IS_DMA_PERIPHERAL_INC_STATE(hdma->Init.PeriphInc));
 157:Drivers/STM32F1xx_HAL_Driver/Src/stm32f1xx_hal_dma.c ****   assert_param(IS_DMA_MEMORY_INC_STATE(hdma->Init.MemInc));
 158:Drivers/STM32F1xx_HAL_Driver/Src/stm32f1xx_hal_dma.c ****   assert_param(IS_DMA_PERIPHERAL_DATA_SIZE(hdma->Init.PeriphDataAlignment));
 159:Drivers/STM32F1xx_HAL_Driver/Src/stm32f1xx_hal_dma.c ****   assert_param(IS_DMA_MEMORY_DATA_SIZE(hdma->Init.MemDataAlignment));
 160:Drivers/STM32F1xx_HAL_Driver/Src/stm32f1xx_hal_dma.c ****   assert_param(IS_DMA_MODE(hdma->Init.Mode));
 161:Drivers/STM32F1xx_HAL_Driver/Src/stm32f1xx_hal_dma.c ****   assert_param(IS_DMA_PRIORITY(hdma->Init.Priority));
 162:Drivers/STM32F1xx_HAL_Driver/Src/stm32f1xx_hal_dma.c **** 
 163:Drivers/STM32F1xx_HAL_Driver/Src/stm32f1xx_hal_dma.c **** #if defined (DMA2)
 164:Drivers/STM32F1xx_HAL_Driver/Src/stm32f1xx_hal_dma.c ****   /* calculation of the channel index */
 165:Drivers/STM32F1xx_HAL_Driver/Src/stm32f1xx_hal_dma.c ****   if ((uint32_t)(hdma->Instance) < (uint32_t)(DMA2_Channel1))
 166:Drivers/STM32F1xx_HAL_Driver/Src/stm32f1xx_hal_dma.c ****   {
 167:Drivers/STM32F1xx_HAL_Driver/Src/stm32f1xx_hal_dma.c ****     /* DMA1 */
 168:Drivers/STM32F1xx_HAL_Driver/Src/stm32f1xx_hal_dma.c ****     hdma->ChannelIndex = (((uint32_t)hdma->Instance - (uint32_t)DMA1_Channel1) / ((uint32_t)DMA1_Ch
 169:Drivers/STM32F1xx_HAL_Driver/Src/stm32f1xx_hal_dma.c ****     hdma->DmaBaseAddress = DMA1;
 170:Drivers/STM32F1xx_HAL_Driver/Src/stm32f1xx_hal_dma.c ****   }
 171:Drivers/STM32F1xx_HAL_Driver/Src/stm32f1xx_hal_dma.c ****   else 
 172:Drivers/STM32F1xx_HAL_Driver/Src/stm32f1xx_hal_dma.c ****   {
 173:Drivers/STM32F1xx_HAL_Driver/Src/stm32f1xx_hal_dma.c ****     /* DMA2 */
 174:Drivers/STM32F1xx_HAL_Driver/Src/stm32f1xx_hal_dma.c ****     hdma->ChannelIndex = (((uint32_t)hdma->Instance - (uint32_t)DMA2_Channel1) / ((uint32_t)DMA2_Ch
 175:Drivers/STM32F1xx_HAL_Driver/Src/stm32f1xx_hal_dma.c ****     hdma->DmaBaseAddress = DMA2;
 176:Drivers/STM32F1xx_HAL_Driver/Src/stm32f1xx_hal_dma.c ****   }
ARM GAS  C:\Users\mason\AppData\Local\Temp\cc9opaHX.s 			page 5


 177:Drivers/STM32F1xx_HAL_Driver/Src/stm32f1xx_hal_dma.c **** #else
 178:Drivers/STM32F1xx_HAL_Driver/Src/stm32f1xx_hal_dma.c ****   /* DMA1 */
 179:Drivers/STM32F1xx_HAL_Driver/Src/stm32f1xx_hal_dma.c ****   hdma->ChannelIndex = (((uint32_t)hdma->Instance - (uint32_t)DMA1_Channel1) / ((uint32_t)DMA1_Chan
  54              		.loc 1 179 40
  55 0016 7B68     		ldr	r3, [r7, #4]
  56 0018 1B68     		ldr	r3, [r3]
  57              		.loc 1 179 26
  58 001a 1A46     		mov	r2, r3
  59              		.loc 1 179 51
  60 001c 224B     		ldr	r3, .L4
  61 001e 1344     		add	r3, r3, r2
  62              		.loc 1 179 78
  63 0020 224A     		ldr	r2, .L4+4
  64 0022 A2FB0323 		umull	r2, r3, r2, r3
  65 0026 1B09     		lsrs	r3, r3, #4
  66              		.loc 1 179 133
  67 0028 9A00     		lsls	r2, r3, #2
  68              		.loc 1 179 22
  69 002a 7B68     		ldr	r3, [r7, #4]
  70 002c 1A64     		str	r2, [r3, #64]
 180:Drivers/STM32F1xx_HAL_Driver/Src/stm32f1xx_hal_dma.c ****   hdma->DmaBaseAddress = DMA1;
  71              		.loc 1 180 24
  72 002e 7B68     		ldr	r3, [r7, #4]
  73 0030 1F4A     		ldr	r2, .L4+8
  74 0032 DA63     		str	r2, [r3, #60]
 181:Drivers/STM32F1xx_HAL_Driver/Src/stm32f1xx_hal_dma.c **** #endif /* DMA2 */
 182:Drivers/STM32F1xx_HAL_Driver/Src/stm32f1xx_hal_dma.c **** 
 183:Drivers/STM32F1xx_HAL_Driver/Src/stm32f1xx_hal_dma.c ****   /* Change DMA peripheral state */
 184:Drivers/STM32F1xx_HAL_Driver/Src/stm32f1xx_hal_dma.c ****   hdma->State = HAL_DMA_STATE_BUSY;
  75              		.loc 1 184 15
  76 0034 7B68     		ldr	r3, [r7, #4]
  77 0036 0222     		movs	r2, #2
  78 0038 83F82120 		strb	r2, [r3, #33]
 185:Drivers/STM32F1xx_HAL_Driver/Src/stm32f1xx_hal_dma.c **** 
 186:Drivers/STM32F1xx_HAL_Driver/Src/stm32f1xx_hal_dma.c ****   /* Get the CR register value */
 187:Drivers/STM32F1xx_HAL_Driver/Src/stm32f1xx_hal_dma.c ****   tmp = hdma->Instance->CCR;
  79              		.loc 1 187 13
  80 003c 7B68     		ldr	r3, [r7, #4]
  81 003e 1B68     		ldr	r3, [r3]
  82              		.loc 1 187 7
  83 0040 1B68     		ldr	r3, [r3]
  84 0042 FB60     		str	r3, [r7, #12]
 188:Drivers/STM32F1xx_HAL_Driver/Src/stm32f1xx_hal_dma.c **** 
 189:Drivers/STM32F1xx_HAL_Driver/Src/stm32f1xx_hal_dma.c ****   /* Clear PL, MSIZE, PSIZE, MINC, PINC, CIRC and DIR bits */
 190:Drivers/STM32F1xx_HAL_Driver/Src/stm32f1xx_hal_dma.c ****   tmp &= ((uint32_t)~(DMA_CCR_PL    | DMA_CCR_MSIZE  | DMA_CCR_PSIZE  | \
  85              		.loc 1 190 7
  86 0044 FB68     		ldr	r3, [r7, #12]
  87 0046 23F47F53 		bic	r3, r3, #16320
  88 004a 23F03003 		bic	r3, r3, #48
  89 004e FB60     		str	r3, [r7, #12]
 191:Drivers/STM32F1xx_HAL_Driver/Src/stm32f1xx_hal_dma.c ****                       DMA_CCR_MINC  | DMA_CCR_PINC   | DMA_CCR_CIRC   | \
 192:Drivers/STM32F1xx_HAL_Driver/Src/stm32f1xx_hal_dma.c ****                       DMA_CCR_DIR));
 193:Drivers/STM32F1xx_HAL_Driver/Src/stm32f1xx_hal_dma.c **** 
 194:Drivers/STM32F1xx_HAL_Driver/Src/stm32f1xx_hal_dma.c ****   /* Prepare the DMA Channel configuration */
 195:Drivers/STM32F1xx_HAL_Driver/Src/stm32f1xx_hal_dma.c ****   tmp |=  hdma->Init.Direction        |
  90              		.loc 1 195 21
  91 0050 7B68     		ldr	r3, [r7, #4]
ARM GAS  C:\Users\mason\AppData\Local\Temp\cc9opaHX.s 			page 6


  92 0052 5A68     		ldr	r2, [r3, #4]
 196:Drivers/STM32F1xx_HAL_Driver/Src/stm32f1xx_hal_dma.c ****           hdma->Init.PeriphInc           | hdma->Init.MemInc           |
  93              		.loc 1 196 21
  94 0054 7B68     		ldr	r3, [r7, #4]
  95 0056 9B68     		ldr	r3, [r3, #8]
 195:Drivers/STM32F1xx_HAL_Driver/Src/stm32f1xx_hal_dma.c ****           hdma->Init.PeriphInc           | hdma->Init.MemInc           |
  96              		.loc 1 195 39
  97 0058 1A43     		orrs	r2, r2, r3
  98              		.loc 1 196 54
  99 005a 7B68     		ldr	r3, [r7, #4]
 100 005c DB68     		ldr	r3, [r3, #12]
 101              		.loc 1 196 42
 102 005e 1A43     		orrs	r2, r2, r3
 197:Drivers/STM32F1xx_HAL_Driver/Src/stm32f1xx_hal_dma.c ****           hdma->Init.PeriphDataAlignment | hdma->Init.MemDataAlignment |
 103              		.loc 1 197 21
 104 0060 7B68     		ldr	r3, [r7, #4]
 105 0062 1B69     		ldr	r3, [r3, #16]
 196:Drivers/STM32F1xx_HAL_Driver/Src/stm32f1xx_hal_dma.c ****           hdma->Init.PeriphInc           | hdma->Init.MemInc           |
 106              		.loc 1 196 72
 107 0064 1A43     		orrs	r2, r2, r3
 108              		.loc 1 197 54
 109 0066 7B68     		ldr	r3, [r7, #4]
 110 0068 5B69     		ldr	r3, [r3, #20]
 111              		.loc 1 197 42
 112 006a 1A43     		orrs	r2, r2, r3
 198:Drivers/STM32F1xx_HAL_Driver/Src/stm32f1xx_hal_dma.c ****           hdma->Init.Mode                | hdma->Init.Priority;
 113              		.loc 1 198 21
 114 006c 7B68     		ldr	r3, [r7, #4]
 115 006e 9B69     		ldr	r3, [r3, #24]
 197:Drivers/STM32F1xx_HAL_Driver/Src/stm32f1xx_hal_dma.c ****           hdma->Init.PeriphDataAlignment | hdma->Init.MemDataAlignment |
 116              		.loc 1 197 72
 117 0070 1A43     		orrs	r2, r2, r3
 118              		.loc 1 198 54
 119 0072 7B68     		ldr	r3, [r7, #4]
 120 0074 DB69     		ldr	r3, [r3, #28]
 121              		.loc 1 198 42
 122 0076 1343     		orrs	r3, r3, r2
 195:Drivers/STM32F1xx_HAL_Driver/Src/stm32f1xx_hal_dma.c ****           hdma->Init.PeriphInc           | hdma->Init.MemInc           |
 123              		.loc 1 195 7
 124 0078 FA68     		ldr	r2, [r7, #12]
 125 007a 1343     		orrs	r3, r3, r2
 126 007c FB60     		str	r3, [r7, #12]
 199:Drivers/STM32F1xx_HAL_Driver/Src/stm32f1xx_hal_dma.c **** 
 200:Drivers/STM32F1xx_HAL_Driver/Src/stm32f1xx_hal_dma.c ****   /* Write to DMA Channel CR register */
 201:Drivers/STM32F1xx_HAL_Driver/Src/stm32f1xx_hal_dma.c ****   hdma->Instance->CCR = tmp;
 127              		.loc 1 201 7
 128 007e 7B68     		ldr	r3, [r7, #4]
 129 0080 1B68     		ldr	r3, [r3]
 130              		.loc 1 201 23
 131 0082 FA68     		ldr	r2, [r7, #12]
 132 0084 1A60     		str	r2, [r3]
 202:Drivers/STM32F1xx_HAL_Driver/Src/stm32f1xx_hal_dma.c **** 
 203:Drivers/STM32F1xx_HAL_Driver/Src/stm32f1xx_hal_dma.c ****   /* Initialise the error code */
 204:Drivers/STM32F1xx_HAL_Driver/Src/stm32f1xx_hal_dma.c ****   hdma->ErrorCode = HAL_DMA_ERROR_NONE;
 133              		.loc 1 204 19
 134 0086 7B68     		ldr	r3, [r7, #4]
 135 0088 0022     		movs	r2, #0
ARM GAS  C:\Users\mason\AppData\Local\Temp\cc9opaHX.s 			page 7


 136 008a 9A63     		str	r2, [r3, #56]
 205:Drivers/STM32F1xx_HAL_Driver/Src/stm32f1xx_hal_dma.c **** 
 206:Drivers/STM32F1xx_HAL_Driver/Src/stm32f1xx_hal_dma.c ****   /* Initialize the DMA state*/
 207:Drivers/STM32F1xx_HAL_Driver/Src/stm32f1xx_hal_dma.c ****   hdma->State = HAL_DMA_STATE_READY;
 137              		.loc 1 207 15
 138 008c 7B68     		ldr	r3, [r7, #4]
 139 008e 0122     		movs	r2, #1
 140 0090 83F82120 		strb	r2, [r3, #33]
 208:Drivers/STM32F1xx_HAL_Driver/Src/stm32f1xx_hal_dma.c ****   /* Allocate lock resource and initialize it */
 209:Drivers/STM32F1xx_HAL_Driver/Src/stm32f1xx_hal_dma.c ****   hdma->Lock = HAL_UNLOCKED;
 141              		.loc 1 209 14
 142 0094 7B68     		ldr	r3, [r7, #4]
 143 0096 0022     		movs	r2, #0
 144 0098 83F82020 		strb	r2, [r3, #32]
 210:Drivers/STM32F1xx_HAL_Driver/Src/stm32f1xx_hal_dma.c **** 
 211:Drivers/STM32F1xx_HAL_Driver/Src/stm32f1xx_hal_dma.c ****   return HAL_OK;
 145              		.loc 1 211 10
 146 009c 0023     		movs	r3, #0
 147              	.L3:
 212:Drivers/STM32F1xx_HAL_Driver/Src/stm32f1xx_hal_dma.c **** }
 148              		.loc 1 212 1
 149 009e 1846     		mov	r0, r3
 150 00a0 1437     		adds	r7, r7, #20
 151              	.LCFI3:
 152              		.cfi_def_cfa_offset 4
 153 00a2 BD46     		mov	sp, r7
 154              	.LCFI4:
 155              		.cfi_def_cfa_register 13
 156              		@ sp needed
 157 00a4 80BC     		pop	{r7}
 158              	.LCFI5:
 159              		.cfi_restore 7
 160              		.cfi_def_cfa_offset 0
 161 00a6 7047     		bx	lr
 162              	.L5:
 163              		.align	2
 164              	.L4:
 165 00a8 F8FFFDBF 		.word	-1073872904
 166 00ac CDCCCCCC 		.word	-858993459
 167 00b0 00000240 		.word	1073872896
 168              		.cfi_endproc
 169              	.LFE65:
 171              		.section	.text.HAL_DMA_DeInit,"ax",%progbits
 172              		.align	1
 173              		.global	HAL_DMA_DeInit
 174              		.syntax unified
 175              		.thumb
 176              		.thumb_func
 178              	HAL_DMA_DeInit:
 179              	.LFB66:
 213:Drivers/STM32F1xx_HAL_Driver/Src/stm32f1xx_hal_dma.c **** 
 214:Drivers/STM32F1xx_HAL_Driver/Src/stm32f1xx_hal_dma.c **** /**
 215:Drivers/STM32F1xx_HAL_Driver/Src/stm32f1xx_hal_dma.c ****   * @brief  DeInitialize the DMA peripheral.
 216:Drivers/STM32F1xx_HAL_Driver/Src/stm32f1xx_hal_dma.c ****   * @param  hdma: pointer to a DMA_HandleTypeDef structure that contains
 217:Drivers/STM32F1xx_HAL_Driver/Src/stm32f1xx_hal_dma.c ****   *               the configuration information for the specified DMA Channel.
 218:Drivers/STM32F1xx_HAL_Driver/Src/stm32f1xx_hal_dma.c ****   * @retval HAL status
 219:Drivers/STM32F1xx_HAL_Driver/Src/stm32f1xx_hal_dma.c ****   */
ARM GAS  C:\Users\mason\AppData\Local\Temp\cc9opaHX.s 			page 8


 220:Drivers/STM32F1xx_HAL_Driver/Src/stm32f1xx_hal_dma.c **** HAL_StatusTypeDef HAL_DMA_DeInit(DMA_HandleTypeDef *hdma)
 221:Drivers/STM32F1xx_HAL_Driver/Src/stm32f1xx_hal_dma.c **** {
 180              		.loc 1 221 1
 181              		.cfi_startproc
 182              		@ args = 0, pretend = 0, frame = 8
 183              		@ frame_needed = 1, uses_anonymous_args = 0
 184              		@ link register save eliminated.
 185 0000 80B4     		push	{r7}
 186              	.LCFI6:
 187              		.cfi_def_cfa_offset 4
 188              		.cfi_offset 7, -4
 189 0002 83B0     		sub	sp, sp, #12
 190              	.LCFI7:
 191              		.cfi_def_cfa_offset 16
 192 0004 00AF     		add	r7, sp, #0
 193              	.LCFI8:
 194              		.cfi_def_cfa_register 7
 195 0006 7860     		str	r0, [r7, #4]
 222:Drivers/STM32F1xx_HAL_Driver/Src/stm32f1xx_hal_dma.c ****   /* Check the DMA handle allocation */
 223:Drivers/STM32F1xx_HAL_Driver/Src/stm32f1xx_hal_dma.c ****   if(hdma == NULL)
 196              		.loc 1 223 5
 197 0008 7B68     		ldr	r3, [r7, #4]
 198 000a 002B     		cmp	r3, #0
 199 000c 01D1     		bne	.L7
 224:Drivers/STM32F1xx_HAL_Driver/Src/stm32f1xx_hal_dma.c ****   {
 225:Drivers/STM32F1xx_HAL_Driver/Src/stm32f1xx_hal_dma.c ****     return HAL_ERROR;
 200              		.loc 1 225 12
 201 000e 0123     		movs	r3, #1
 202 0010 46E0     		b	.L8
 203              	.L7:
 226:Drivers/STM32F1xx_HAL_Driver/Src/stm32f1xx_hal_dma.c ****   }
 227:Drivers/STM32F1xx_HAL_Driver/Src/stm32f1xx_hal_dma.c **** 
 228:Drivers/STM32F1xx_HAL_Driver/Src/stm32f1xx_hal_dma.c ****   /* Check the parameters */
 229:Drivers/STM32F1xx_HAL_Driver/Src/stm32f1xx_hal_dma.c ****   assert_param(IS_DMA_ALL_INSTANCE(hdma->Instance));
 230:Drivers/STM32F1xx_HAL_Driver/Src/stm32f1xx_hal_dma.c **** 
 231:Drivers/STM32F1xx_HAL_Driver/Src/stm32f1xx_hal_dma.c ****   /* Disable the selected DMA Channelx */
 232:Drivers/STM32F1xx_HAL_Driver/Src/stm32f1xx_hal_dma.c ****   __HAL_DMA_DISABLE(hdma);
 204              		.loc 1 232 3
 205 0012 7B68     		ldr	r3, [r7, #4]
 206 0014 1B68     		ldr	r3, [r3]
 207 0016 1A68     		ldr	r2, [r3]
 208 0018 7B68     		ldr	r3, [r7, #4]
 209 001a 1B68     		ldr	r3, [r3]
 210 001c 22F00102 		bic	r2, r2, #1
 211 0020 1A60     		str	r2, [r3]
 233:Drivers/STM32F1xx_HAL_Driver/Src/stm32f1xx_hal_dma.c **** 
 234:Drivers/STM32F1xx_HAL_Driver/Src/stm32f1xx_hal_dma.c ****   /* Reset DMA Channel control register */
 235:Drivers/STM32F1xx_HAL_Driver/Src/stm32f1xx_hal_dma.c ****   hdma->Instance->CCR  = 0U;
 212              		.loc 1 235 7
 213 0022 7B68     		ldr	r3, [r7, #4]
 214 0024 1B68     		ldr	r3, [r3]
 215              		.loc 1 235 24
 216 0026 0022     		movs	r2, #0
 217 0028 1A60     		str	r2, [r3]
 236:Drivers/STM32F1xx_HAL_Driver/Src/stm32f1xx_hal_dma.c **** 
 237:Drivers/STM32F1xx_HAL_Driver/Src/stm32f1xx_hal_dma.c ****   /* Reset DMA Channel Number of Data to Transfer register */
 238:Drivers/STM32F1xx_HAL_Driver/Src/stm32f1xx_hal_dma.c ****   hdma->Instance->CNDTR = 0U;
ARM GAS  C:\Users\mason\AppData\Local\Temp\cc9opaHX.s 			page 9


 218              		.loc 1 238 7
 219 002a 7B68     		ldr	r3, [r7, #4]
 220 002c 1B68     		ldr	r3, [r3]
 221              		.loc 1 238 25
 222 002e 0022     		movs	r2, #0
 223 0030 5A60     		str	r2, [r3, #4]
 239:Drivers/STM32F1xx_HAL_Driver/Src/stm32f1xx_hal_dma.c **** 
 240:Drivers/STM32F1xx_HAL_Driver/Src/stm32f1xx_hal_dma.c ****   /* Reset DMA Channel peripheral address register */
 241:Drivers/STM32F1xx_HAL_Driver/Src/stm32f1xx_hal_dma.c ****   hdma->Instance->CPAR  = 0U;
 224              		.loc 1 241 7
 225 0032 7B68     		ldr	r3, [r7, #4]
 226 0034 1B68     		ldr	r3, [r3]
 227              		.loc 1 241 25
 228 0036 0022     		movs	r2, #0
 229 0038 9A60     		str	r2, [r3, #8]
 242:Drivers/STM32F1xx_HAL_Driver/Src/stm32f1xx_hal_dma.c **** 
 243:Drivers/STM32F1xx_HAL_Driver/Src/stm32f1xx_hal_dma.c ****   /* Reset DMA Channel memory address register */
 244:Drivers/STM32F1xx_HAL_Driver/Src/stm32f1xx_hal_dma.c ****   hdma->Instance->CMAR = 0U;
 230              		.loc 1 244 7
 231 003a 7B68     		ldr	r3, [r7, #4]
 232 003c 1B68     		ldr	r3, [r3]
 233              		.loc 1 244 24
 234 003e 0022     		movs	r2, #0
 235 0040 DA60     		str	r2, [r3, #12]
 245:Drivers/STM32F1xx_HAL_Driver/Src/stm32f1xx_hal_dma.c **** 
 246:Drivers/STM32F1xx_HAL_Driver/Src/stm32f1xx_hal_dma.c **** #if defined (DMA2)
 247:Drivers/STM32F1xx_HAL_Driver/Src/stm32f1xx_hal_dma.c ****   /* calculation of the channel index */
 248:Drivers/STM32F1xx_HAL_Driver/Src/stm32f1xx_hal_dma.c ****   if ((uint32_t)(hdma->Instance) < (uint32_t)(DMA2_Channel1))
 249:Drivers/STM32F1xx_HAL_Driver/Src/stm32f1xx_hal_dma.c ****   {
 250:Drivers/STM32F1xx_HAL_Driver/Src/stm32f1xx_hal_dma.c ****     /* DMA1 */
 251:Drivers/STM32F1xx_HAL_Driver/Src/stm32f1xx_hal_dma.c ****     hdma->ChannelIndex = (((uint32_t)hdma->Instance - (uint32_t)DMA1_Channel1) / ((uint32_t)DMA1_Ch
 252:Drivers/STM32F1xx_HAL_Driver/Src/stm32f1xx_hal_dma.c ****     hdma->DmaBaseAddress = DMA1;
 253:Drivers/STM32F1xx_HAL_Driver/Src/stm32f1xx_hal_dma.c ****   }
 254:Drivers/STM32F1xx_HAL_Driver/Src/stm32f1xx_hal_dma.c ****   else
 255:Drivers/STM32F1xx_HAL_Driver/Src/stm32f1xx_hal_dma.c ****   {
 256:Drivers/STM32F1xx_HAL_Driver/Src/stm32f1xx_hal_dma.c ****     /* DMA2 */
 257:Drivers/STM32F1xx_HAL_Driver/Src/stm32f1xx_hal_dma.c ****     hdma->ChannelIndex = (((uint32_t)hdma->Instance - (uint32_t)DMA2_Channel1) / ((uint32_t)DMA2_Ch
 258:Drivers/STM32F1xx_HAL_Driver/Src/stm32f1xx_hal_dma.c ****     hdma->DmaBaseAddress = DMA2;
 259:Drivers/STM32F1xx_HAL_Driver/Src/stm32f1xx_hal_dma.c ****   }
 260:Drivers/STM32F1xx_HAL_Driver/Src/stm32f1xx_hal_dma.c **** #else
 261:Drivers/STM32F1xx_HAL_Driver/Src/stm32f1xx_hal_dma.c ****   /* DMA1 */
 262:Drivers/STM32F1xx_HAL_Driver/Src/stm32f1xx_hal_dma.c ****   hdma->ChannelIndex = (((uint32_t)hdma->Instance - (uint32_t)DMA1_Channel1) / ((uint32_t)DMA1_Chan
 236              		.loc 1 262 40
 237 0042 7B68     		ldr	r3, [r7, #4]
 238 0044 1B68     		ldr	r3, [r3]
 239              		.loc 1 262 26
 240 0046 1A46     		mov	r2, r3
 241              		.loc 1 262 51
 242 0048 184B     		ldr	r3, .L9
 243 004a 1344     		add	r3, r3, r2
 244              		.loc 1 262 78
 245 004c 184A     		ldr	r2, .L9+4
 246 004e A2FB0323 		umull	r2, r3, r2, r3
 247 0052 1B09     		lsrs	r3, r3, #4
 248              		.loc 1 262 133
 249 0054 9A00     		lsls	r2, r3, #2
 250              		.loc 1 262 22
ARM GAS  C:\Users\mason\AppData\Local\Temp\cc9opaHX.s 			page 10


 251 0056 7B68     		ldr	r3, [r7, #4]
 252 0058 1A64     		str	r2, [r3, #64]
 263:Drivers/STM32F1xx_HAL_Driver/Src/stm32f1xx_hal_dma.c ****   hdma->DmaBaseAddress = DMA1;
 253              		.loc 1 263 24
 254 005a 7B68     		ldr	r3, [r7, #4]
 255 005c 154A     		ldr	r2, .L9+8
 256 005e DA63     		str	r2, [r3, #60]
 264:Drivers/STM32F1xx_HAL_Driver/Src/stm32f1xx_hal_dma.c **** #endif /* DMA2 */
 265:Drivers/STM32F1xx_HAL_Driver/Src/stm32f1xx_hal_dma.c **** 
 266:Drivers/STM32F1xx_HAL_Driver/Src/stm32f1xx_hal_dma.c ****   /* Clear all flags */
 267:Drivers/STM32F1xx_HAL_Driver/Src/stm32f1xx_hal_dma.c ****   hdma->DmaBaseAddress->IFCR = (DMA_ISR_GIF1 << (hdma->ChannelIndex));
 257              		.loc 1 267 54
 258 0060 7B68     		ldr	r3, [r7, #4]
 259 0062 1A6C     		ldr	r2, [r3, #64]
 260              		.loc 1 267 7
 261 0064 7B68     		ldr	r3, [r7, #4]
 262 0066 DB6B     		ldr	r3, [r3, #60]
 263              		.loc 1 267 46
 264 0068 0121     		movs	r1, #1
 265 006a 01FA02F2 		lsl	r2, r1, r2
 266              		.loc 1 267 30
 267 006e 5A60     		str	r2, [r3, #4]
 268:Drivers/STM32F1xx_HAL_Driver/Src/stm32f1xx_hal_dma.c **** 
 269:Drivers/STM32F1xx_HAL_Driver/Src/stm32f1xx_hal_dma.c ****   /* Clean all callbacks */
 270:Drivers/STM32F1xx_HAL_Driver/Src/stm32f1xx_hal_dma.c ****   hdma->XferCpltCallback = NULL;
 268              		.loc 1 270 26
 269 0070 7B68     		ldr	r3, [r7, #4]
 270 0072 0022     		movs	r2, #0
 271 0074 9A62     		str	r2, [r3, #40]
 271:Drivers/STM32F1xx_HAL_Driver/Src/stm32f1xx_hal_dma.c ****   hdma->XferHalfCpltCallback = NULL;
 272              		.loc 1 271 30
 273 0076 7B68     		ldr	r3, [r7, #4]
 274 0078 0022     		movs	r2, #0
 275 007a DA62     		str	r2, [r3, #44]
 272:Drivers/STM32F1xx_HAL_Driver/Src/stm32f1xx_hal_dma.c ****   hdma->XferErrorCallback = NULL;
 276              		.loc 1 272 27
 277 007c 7B68     		ldr	r3, [r7, #4]
 278 007e 0022     		movs	r2, #0
 279 0080 1A63     		str	r2, [r3, #48]
 273:Drivers/STM32F1xx_HAL_Driver/Src/stm32f1xx_hal_dma.c ****   hdma->XferAbortCallback = NULL;
 280              		.loc 1 273 27
 281 0082 7B68     		ldr	r3, [r7, #4]
 282 0084 0022     		movs	r2, #0
 283 0086 5A63     		str	r2, [r3, #52]
 274:Drivers/STM32F1xx_HAL_Driver/Src/stm32f1xx_hal_dma.c **** 
 275:Drivers/STM32F1xx_HAL_Driver/Src/stm32f1xx_hal_dma.c ****   /* Reset the error code */
 276:Drivers/STM32F1xx_HAL_Driver/Src/stm32f1xx_hal_dma.c ****   hdma->ErrorCode = HAL_DMA_ERROR_NONE;
 284              		.loc 1 276 19
 285 0088 7B68     		ldr	r3, [r7, #4]
 286 008a 0022     		movs	r2, #0
 287 008c 9A63     		str	r2, [r3, #56]
 277:Drivers/STM32F1xx_HAL_Driver/Src/stm32f1xx_hal_dma.c **** 
 278:Drivers/STM32F1xx_HAL_Driver/Src/stm32f1xx_hal_dma.c ****   /* Reset the DMA state */
 279:Drivers/STM32F1xx_HAL_Driver/Src/stm32f1xx_hal_dma.c ****   hdma->State = HAL_DMA_STATE_RESET;
 288              		.loc 1 279 15
 289 008e 7B68     		ldr	r3, [r7, #4]
 290 0090 0022     		movs	r2, #0
ARM GAS  C:\Users\mason\AppData\Local\Temp\cc9opaHX.s 			page 11


 291 0092 83F82120 		strb	r2, [r3, #33]
 280:Drivers/STM32F1xx_HAL_Driver/Src/stm32f1xx_hal_dma.c **** 
 281:Drivers/STM32F1xx_HAL_Driver/Src/stm32f1xx_hal_dma.c ****   /* Release Lock */
 282:Drivers/STM32F1xx_HAL_Driver/Src/stm32f1xx_hal_dma.c ****   __HAL_UNLOCK(hdma);
 292              		.loc 1 282 3
 293 0096 7B68     		ldr	r3, [r7, #4]
 294 0098 0022     		movs	r2, #0
 295 009a 83F82020 		strb	r2, [r3, #32]
 283:Drivers/STM32F1xx_HAL_Driver/Src/stm32f1xx_hal_dma.c **** 
 284:Drivers/STM32F1xx_HAL_Driver/Src/stm32f1xx_hal_dma.c ****   return HAL_OK;
 296              		.loc 1 284 10
 297 009e 0023     		movs	r3, #0
 298              	.L8:
 285:Drivers/STM32F1xx_HAL_Driver/Src/stm32f1xx_hal_dma.c **** }
 299              		.loc 1 285 1
 300 00a0 1846     		mov	r0, r3
 301 00a2 0C37     		adds	r7, r7, #12
 302              	.LCFI9:
 303              		.cfi_def_cfa_offset 4
 304 00a4 BD46     		mov	sp, r7
 305              	.LCFI10:
 306              		.cfi_def_cfa_register 13
 307              		@ sp needed
 308 00a6 80BC     		pop	{r7}
 309              	.LCFI11:
 310              		.cfi_restore 7
 311              		.cfi_def_cfa_offset 0
 312 00a8 7047     		bx	lr
 313              	.L10:
 314 00aa 00BF     		.align	2
 315              	.L9:
 316 00ac F8FFFDBF 		.word	-1073872904
 317 00b0 CDCCCCCC 		.word	-858993459
 318 00b4 00000240 		.word	1073872896
 319              		.cfi_endproc
 320              	.LFE66:
 322              		.section	.text.HAL_DMA_Start,"ax",%progbits
 323              		.align	1
 324              		.global	HAL_DMA_Start
 325              		.syntax unified
 326              		.thumb
 327              		.thumb_func
 329              	HAL_DMA_Start:
 330              	.LFB67:
 286:Drivers/STM32F1xx_HAL_Driver/Src/stm32f1xx_hal_dma.c **** 
 287:Drivers/STM32F1xx_HAL_Driver/Src/stm32f1xx_hal_dma.c **** /**
 288:Drivers/STM32F1xx_HAL_Driver/Src/stm32f1xx_hal_dma.c ****   * @}
 289:Drivers/STM32F1xx_HAL_Driver/Src/stm32f1xx_hal_dma.c ****   */
 290:Drivers/STM32F1xx_HAL_Driver/Src/stm32f1xx_hal_dma.c **** 
 291:Drivers/STM32F1xx_HAL_Driver/Src/stm32f1xx_hal_dma.c **** /** @defgroup DMA_Exported_Functions_Group2 Input and Output operation functions
 292:Drivers/STM32F1xx_HAL_Driver/Src/stm32f1xx_hal_dma.c ****   *  @brief   Input and Output operation functions
 293:Drivers/STM32F1xx_HAL_Driver/Src/stm32f1xx_hal_dma.c ****   *
 294:Drivers/STM32F1xx_HAL_Driver/Src/stm32f1xx_hal_dma.c **** @verbatim
 295:Drivers/STM32F1xx_HAL_Driver/Src/stm32f1xx_hal_dma.c ****  ===============================================================================
 296:Drivers/STM32F1xx_HAL_Driver/Src/stm32f1xx_hal_dma.c ****                       #####  IO operation functions  #####
 297:Drivers/STM32F1xx_HAL_Driver/Src/stm32f1xx_hal_dma.c ****  ===============================================================================
 298:Drivers/STM32F1xx_HAL_Driver/Src/stm32f1xx_hal_dma.c ****     [..]  This section provides functions allowing to:
ARM GAS  C:\Users\mason\AppData\Local\Temp\cc9opaHX.s 			page 12


 299:Drivers/STM32F1xx_HAL_Driver/Src/stm32f1xx_hal_dma.c ****       (+) Configure the source, destination address and data length and Start DMA transfer
 300:Drivers/STM32F1xx_HAL_Driver/Src/stm32f1xx_hal_dma.c ****       (+) Configure the source, destination address and data length and
 301:Drivers/STM32F1xx_HAL_Driver/Src/stm32f1xx_hal_dma.c ****           Start DMA transfer with interrupt
 302:Drivers/STM32F1xx_HAL_Driver/Src/stm32f1xx_hal_dma.c ****       (+) Abort DMA transfer
 303:Drivers/STM32F1xx_HAL_Driver/Src/stm32f1xx_hal_dma.c ****       (+) Poll for transfer complete
 304:Drivers/STM32F1xx_HAL_Driver/Src/stm32f1xx_hal_dma.c ****       (+) Handle DMA interrupt request
 305:Drivers/STM32F1xx_HAL_Driver/Src/stm32f1xx_hal_dma.c **** 
 306:Drivers/STM32F1xx_HAL_Driver/Src/stm32f1xx_hal_dma.c **** @endverbatim
 307:Drivers/STM32F1xx_HAL_Driver/Src/stm32f1xx_hal_dma.c ****   * @{
 308:Drivers/STM32F1xx_HAL_Driver/Src/stm32f1xx_hal_dma.c ****   */
 309:Drivers/STM32F1xx_HAL_Driver/Src/stm32f1xx_hal_dma.c **** 
 310:Drivers/STM32F1xx_HAL_Driver/Src/stm32f1xx_hal_dma.c **** /**
 311:Drivers/STM32F1xx_HAL_Driver/Src/stm32f1xx_hal_dma.c ****   * @brief  Start the DMA Transfer.
 312:Drivers/STM32F1xx_HAL_Driver/Src/stm32f1xx_hal_dma.c ****   * @param  hdma: pointer to a DMA_HandleTypeDef structure that contains
 313:Drivers/STM32F1xx_HAL_Driver/Src/stm32f1xx_hal_dma.c ****   *               the configuration information for the specified DMA Channel.
 314:Drivers/STM32F1xx_HAL_Driver/Src/stm32f1xx_hal_dma.c ****   * @param  SrcAddress: The source memory Buffer address
 315:Drivers/STM32F1xx_HAL_Driver/Src/stm32f1xx_hal_dma.c ****   * @param  DstAddress: The destination memory Buffer address
 316:Drivers/STM32F1xx_HAL_Driver/Src/stm32f1xx_hal_dma.c ****   * @param  DataLength: The length of data to be transferred from source to destination
 317:Drivers/STM32F1xx_HAL_Driver/Src/stm32f1xx_hal_dma.c ****   * @retval HAL status
 318:Drivers/STM32F1xx_HAL_Driver/Src/stm32f1xx_hal_dma.c ****   */
 319:Drivers/STM32F1xx_HAL_Driver/Src/stm32f1xx_hal_dma.c **** HAL_StatusTypeDef HAL_DMA_Start(DMA_HandleTypeDef *hdma, uint32_t SrcAddress, uint32_t DstAddress, 
 320:Drivers/STM32F1xx_HAL_Driver/Src/stm32f1xx_hal_dma.c **** {
 331              		.loc 1 320 1
 332              		.cfi_startproc
 333              		@ args = 0, pretend = 0, frame = 24
 334              		@ frame_needed = 1, uses_anonymous_args = 0
 335 0000 80B5     		push	{r7, lr}
 336              	.LCFI12:
 337              		.cfi_def_cfa_offset 8
 338              		.cfi_offset 7, -8
 339              		.cfi_offset 14, -4
 340 0002 86B0     		sub	sp, sp, #24
 341              	.LCFI13:
 342              		.cfi_def_cfa_offset 32
 343 0004 00AF     		add	r7, sp, #0
 344              	.LCFI14:
 345              		.cfi_def_cfa_register 7
 346 0006 F860     		str	r0, [r7, #12]
 347 0008 B960     		str	r1, [r7, #8]
 348 000a 7A60     		str	r2, [r7, #4]
 349 000c 3B60     		str	r3, [r7]
 321:Drivers/STM32F1xx_HAL_Driver/Src/stm32f1xx_hal_dma.c ****   HAL_StatusTypeDef status = HAL_OK;
 350              		.loc 1 321 21
 351 000e 0023     		movs	r3, #0
 352 0010 FB75     		strb	r3, [r7, #23]
 322:Drivers/STM32F1xx_HAL_Driver/Src/stm32f1xx_hal_dma.c **** 
 323:Drivers/STM32F1xx_HAL_Driver/Src/stm32f1xx_hal_dma.c ****   /* Check the parameters */
 324:Drivers/STM32F1xx_HAL_Driver/Src/stm32f1xx_hal_dma.c ****   assert_param(IS_DMA_BUFFER_SIZE(DataLength));
 325:Drivers/STM32F1xx_HAL_Driver/Src/stm32f1xx_hal_dma.c **** 
 326:Drivers/STM32F1xx_HAL_Driver/Src/stm32f1xx_hal_dma.c ****   /* Process locked */
 327:Drivers/STM32F1xx_HAL_Driver/Src/stm32f1xx_hal_dma.c ****   __HAL_LOCK(hdma);
 353              		.loc 1 327 3
 354 0012 FB68     		ldr	r3, [r7, #12]
 355 0014 93F82030 		ldrb	r3, [r3, #32]	@ zero_extendqisi2
 356 0018 012B     		cmp	r3, #1
 357 001a 01D1     		bne	.L12
 358              		.loc 1 327 3 is_stmt 0 discriminator 1
ARM GAS  C:\Users\mason\AppData\Local\Temp\cc9opaHX.s 			page 13


 359 001c 0223     		movs	r3, #2
 360 001e 2DE0     		b	.L13
 361              	.L12:
 362              		.loc 1 327 3 discriminator 2
 363 0020 FB68     		ldr	r3, [r7, #12]
 364 0022 0122     		movs	r2, #1
 365 0024 83F82020 		strb	r2, [r3, #32]
 328:Drivers/STM32F1xx_HAL_Driver/Src/stm32f1xx_hal_dma.c **** 
 329:Drivers/STM32F1xx_HAL_Driver/Src/stm32f1xx_hal_dma.c ****   if(HAL_DMA_STATE_READY == hdma->State)
 366              		.loc 1 329 33 is_stmt 1 discriminator 2
 367 0028 FB68     		ldr	r3, [r7, #12]
 368 002a 93F82130 		ldrb	r3, [r3, #33]	@ zero_extendqisi2
 369              		.loc 1 329 5 discriminator 2
 370 002e 012B     		cmp	r3, #1
 371 0030 1DD1     		bne	.L14
 330:Drivers/STM32F1xx_HAL_Driver/Src/stm32f1xx_hal_dma.c ****   {
 331:Drivers/STM32F1xx_HAL_Driver/Src/stm32f1xx_hal_dma.c ****     /* Change DMA peripheral state */
 332:Drivers/STM32F1xx_HAL_Driver/Src/stm32f1xx_hal_dma.c ****     hdma->State = HAL_DMA_STATE_BUSY;
 372              		.loc 1 332 17
 373 0032 FB68     		ldr	r3, [r7, #12]
 374 0034 0222     		movs	r2, #2
 375 0036 83F82120 		strb	r2, [r3, #33]
 333:Drivers/STM32F1xx_HAL_Driver/Src/stm32f1xx_hal_dma.c ****     hdma->ErrorCode = HAL_DMA_ERROR_NONE;
 376              		.loc 1 333 21
 377 003a FB68     		ldr	r3, [r7, #12]
 378 003c 0022     		movs	r2, #0
 379 003e 9A63     		str	r2, [r3, #56]
 334:Drivers/STM32F1xx_HAL_Driver/Src/stm32f1xx_hal_dma.c ****             
 335:Drivers/STM32F1xx_HAL_Driver/Src/stm32f1xx_hal_dma.c ****     /* Disable the peripheral */
 336:Drivers/STM32F1xx_HAL_Driver/Src/stm32f1xx_hal_dma.c ****     __HAL_DMA_DISABLE(hdma);
 380              		.loc 1 336 5
 381 0040 FB68     		ldr	r3, [r7, #12]
 382 0042 1B68     		ldr	r3, [r3]
 383 0044 1A68     		ldr	r2, [r3]
 384 0046 FB68     		ldr	r3, [r7, #12]
 385 0048 1B68     		ldr	r3, [r3]
 386 004a 22F00102 		bic	r2, r2, #1
 387 004e 1A60     		str	r2, [r3]
 337:Drivers/STM32F1xx_HAL_Driver/Src/stm32f1xx_hal_dma.c ****     
 338:Drivers/STM32F1xx_HAL_Driver/Src/stm32f1xx_hal_dma.c ****     /* Configure the source, destination address and the data length & clear flags*/
 339:Drivers/STM32F1xx_HAL_Driver/Src/stm32f1xx_hal_dma.c ****     DMA_SetConfig(hdma, SrcAddress, DstAddress, DataLength);
 388              		.loc 1 339 5
 389 0050 3B68     		ldr	r3, [r7]
 390 0052 7A68     		ldr	r2, [r7, #4]
 391 0054 B968     		ldr	r1, [r7, #8]
 392 0056 F868     		ldr	r0, [r7, #12]
 393 0058 FFF7FEFF 		bl	DMA_SetConfig
 340:Drivers/STM32F1xx_HAL_Driver/Src/stm32f1xx_hal_dma.c ****     
 341:Drivers/STM32F1xx_HAL_Driver/Src/stm32f1xx_hal_dma.c ****     /* Enable the Peripheral */
 342:Drivers/STM32F1xx_HAL_Driver/Src/stm32f1xx_hal_dma.c ****     __HAL_DMA_ENABLE(hdma);
 394              		.loc 1 342 5
 395 005c FB68     		ldr	r3, [r7, #12]
 396 005e 1B68     		ldr	r3, [r3]
 397 0060 1A68     		ldr	r2, [r3]
 398 0062 FB68     		ldr	r3, [r7, #12]
 399 0064 1B68     		ldr	r3, [r3]
 400 0066 42F00102 		orr	r2, r2, #1
ARM GAS  C:\Users\mason\AppData\Local\Temp\cc9opaHX.s 			page 14


 401 006a 1A60     		str	r2, [r3]
 402 006c 05E0     		b	.L15
 403              	.L14:
 343:Drivers/STM32F1xx_HAL_Driver/Src/stm32f1xx_hal_dma.c ****   }
 344:Drivers/STM32F1xx_HAL_Driver/Src/stm32f1xx_hal_dma.c ****   else
 345:Drivers/STM32F1xx_HAL_Driver/Src/stm32f1xx_hal_dma.c ****   {
 346:Drivers/STM32F1xx_HAL_Driver/Src/stm32f1xx_hal_dma.c ****    /* Process Unlocked */
 347:Drivers/STM32F1xx_HAL_Driver/Src/stm32f1xx_hal_dma.c ****    __HAL_UNLOCK(hdma);  
 404              		.loc 1 347 4
 405 006e FB68     		ldr	r3, [r7, #12]
 406 0070 0022     		movs	r2, #0
 407 0072 83F82020 		strb	r2, [r3, #32]
 348:Drivers/STM32F1xx_HAL_Driver/Src/stm32f1xx_hal_dma.c ****    status = HAL_BUSY;
 408              		.loc 1 348 11
 409 0076 0223     		movs	r3, #2
 410 0078 FB75     		strb	r3, [r7, #23]
 411              	.L15:
 349:Drivers/STM32F1xx_HAL_Driver/Src/stm32f1xx_hal_dma.c ****   }  
 350:Drivers/STM32F1xx_HAL_Driver/Src/stm32f1xx_hal_dma.c ****   return status;
 412              		.loc 1 350 10
 413 007a FB7D     		ldrb	r3, [r7, #23]	@ zero_extendqisi2
 414              	.L13:
 351:Drivers/STM32F1xx_HAL_Driver/Src/stm32f1xx_hal_dma.c **** }
 415              		.loc 1 351 1
 416 007c 1846     		mov	r0, r3
 417 007e 1837     		adds	r7, r7, #24
 418              	.LCFI15:
 419              		.cfi_def_cfa_offset 8
 420 0080 BD46     		mov	sp, r7
 421              	.LCFI16:
 422              		.cfi_def_cfa_register 13
 423              		@ sp needed
 424 0082 80BD     		pop	{r7, pc}
 425              		.cfi_endproc
 426              	.LFE67:
 428              		.section	.text.HAL_DMA_Start_IT,"ax",%progbits
 429              		.align	1
 430              		.global	HAL_DMA_Start_IT
 431              		.syntax unified
 432              		.thumb
 433              		.thumb_func
 435              	HAL_DMA_Start_IT:
 436              	.LFB68:
 352:Drivers/STM32F1xx_HAL_Driver/Src/stm32f1xx_hal_dma.c **** 
 353:Drivers/STM32F1xx_HAL_Driver/Src/stm32f1xx_hal_dma.c **** /**
 354:Drivers/STM32F1xx_HAL_Driver/Src/stm32f1xx_hal_dma.c ****   * @brief  Start the DMA Transfer with interrupt enabled.
 355:Drivers/STM32F1xx_HAL_Driver/Src/stm32f1xx_hal_dma.c ****   * @param  hdma: pointer to a DMA_HandleTypeDef structure that contains
 356:Drivers/STM32F1xx_HAL_Driver/Src/stm32f1xx_hal_dma.c ****   *               the configuration information for the specified DMA Channel.
 357:Drivers/STM32F1xx_HAL_Driver/Src/stm32f1xx_hal_dma.c ****   * @param  SrcAddress: The source memory Buffer address
 358:Drivers/STM32F1xx_HAL_Driver/Src/stm32f1xx_hal_dma.c ****   * @param  DstAddress: The destination memory Buffer address
 359:Drivers/STM32F1xx_HAL_Driver/Src/stm32f1xx_hal_dma.c ****   * @param  DataLength: The length of data to be transferred from source to destination
 360:Drivers/STM32F1xx_HAL_Driver/Src/stm32f1xx_hal_dma.c ****   * @retval HAL status
 361:Drivers/STM32F1xx_HAL_Driver/Src/stm32f1xx_hal_dma.c ****   */
 362:Drivers/STM32F1xx_HAL_Driver/Src/stm32f1xx_hal_dma.c **** HAL_StatusTypeDef HAL_DMA_Start_IT(DMA_HandleTypeDef *hdma, uint32_t SrcAddress, uint32_t DstAddres
 363:Drivers/STM32F1xx_HAL_Driver/Src/stm32f1xx_hal_dma.c **** {
 437              		.loc 1 363 1
 438              		.cfi_startproc
ARM GAS  C:\Users\mason\AppData\Local\Temp\cc9opaHX.s 			page 15


 439              		@ args = 0, pretend = 0, frame = 24
 440              		@ frame_needed = 1, uses_anonymous_args = 0
 441 0000 80B5     		push	{r7, lr}
 442              	.LCFI17:
 443              		.cfi_def_cfa_offset 8
 444              		.cfi_offset 7, -8
 445              		.cfi_offset 14, -4
 446 0002 86B0     		sub	sp, sp, #24
 447              	.LCFI18:
 448              		.cfi_def_cfa_offset 32
 449 0004 00AF     		add	r7, sp, #0
 450              	.LCFI19:
 451              		.cfi_def_cfa_register 7
 452 0006 F860     		str	r0, [r7, #12]
 453 0008 B960     		str	r1, [r7, #8]
 454 000a 7A60     		str	r2, [r7, #4]
 455 000c 3B60     		str	r3, [r7]
 364:Drivers/STM32F1xx_HAL_Driver/Src/stm32f1xx_hal_dma.c ****   HAL_StatusTypeDef status = HAL_OK;
 456              		.loc 1 364 21
 457 000e 0023     		movs	r3, #0
 458 0010 FB75     		strb	r3, [r7, #23]
 365:Drivers/STM32F1xx_HAL_Driver/Src/stm32f1xx_hal_dma.c **** 
 366:Drivers/STM32F1xx_HAL_Driver/Src/stm32f1xx_hal_dma.c ****   /* Check the parameters */
 367:Drivers/STM32F1xx_HAL_Driver/Src/stm32f1xx_hal_dma.c ****   assert_param(IS_DMA_BUFFER_SIZE(DataLength));
 368:Drivers/STM32F1xx_HAL_Driver/Src/stm32f1xx_hal_dma.c **** 
 369:Drivers/STM32F1xx_HAL_Driver/Src/stm32f1xx_hal_dma.c ****   /* Process locked */
 370:Drivers/STM32F1xx_HAL_Driver/Src/stm32f1xx_hal_dma.c ****   __HAL_LOCK(hdma);
 459              		.loc 1 370 3
 460 0012 FB68     		ldr	r3, [r7, #12]
 461 0014 93F82030 		ldrb	r3, [r3, #32]	@ zero_extendqisi2
 462 0018 012B     		cmp	r3, #1
 463 001a 01D1     		bne	.L17
 464              		.loc 1 370 3 is_stmt 0 discriminator 1
 465 001c 0223     		movs	r3, #2
 466 001e 4AE0     		b	.L18
 467              	.L17:
 468              		.loc 1 370 3 discriminator 2
 469 0020 FB68     		ldr	r3, [r7, #12]
 470 0022 0122     		movs	r2, #1
 471 0024 83F82020 		strb	r2, [r3, #32]
 371:Drivers/STM32F1xx_HAL_Driver/Src/stm32f1xx_hal_dma.c ****   
 372:Drivers/STM32F1xx_HAL_Driver/Src/stm32f1xx_hal_dma.c ****   if(HAL_DMA_STATE_READY == hdma->State)
 472              		.loc 1 372 33 is_stmt 1 discriminator 2
 473 0028 FB68     		ldr	r3, [r7, #12]
 474 002a 93F82130 		ldrb	r3, [r3, #33]	@ zero_extendqisi2
 475              		.loc 1 372 5 discriminator 2
 476 002e 012B     		cmp	r3, #1
 477 0030 3AD1     		bne	.L19
 373:Drivers/STM32F1xx_HAL_Driver/Src/stm32f1xx_hal_dma.c ****   {
 374:Drivers/STM32F1xx_HAL_Driver/Src/stm32f1xx_hal_dma.c ****     /* Change DMA peripheral state */
 375:Drivers/STM32F1xx_HAL_Driver/Src/stm32f1xx_hal_dma.c ****     hdma->State = HAL_DMA_STATE_BUSY;
 478              		.loc 1 375 17
 479 0032 FB68     		ldr	r3, [r7, #12]
 480 0034 0222     		movs	r2, #2
 481 0036 83F82120 		strb	r2, [r3, #33]
 376:Drivers/STM32F1xx_HAL_Driver/Src/stm32f1xx_hal_dma.c ****     hdma->ErrorCode = HAL_DMA_ERROR_NONE;
 482              		.loc 1 376 21
ARM GAS  C:\Users\mason\AppData\Local\Temp\cc9opaHX.s 			page 16


 483 003a FB68     		ldr	r3, [r7, #12]
 484 003c 0022     		movs	r2, #0
 485 003e 9A63     		str	r2, [r3, #56]
 377:Drivers/STM32F1xx_HAL_Driver/Src/stm32f1xx_hal_dma.c ****     
 378:Drivers/STM32F1xx_HAL_Driver/Src/stm32f1xx_hal_dma.c ****     /* Disable the peripheral */
 379:Drivers/STM32F1xx_HAL_Driver/Src/stm32f1xx_hal_dma.c ****     __HAL_DMA_DISABLE(hdma);
 486              		.loc 1 379 5
 487 0040 FB68     		ldr	r3, [r7, #12]
 488 0042 1B68     		ldr	r3, [r3]
 489 0044 1A68     		ldr	r2, [r3]
 490 0046 FB68     		ldr	r3, [r7, #12]
 491 0048 1B68     		ldr	r3, [r3]
 492 004a 22F00102 		bic	r2, r2, #1
 493 004e 1A60     		str	r2, [r3]
 380:Drivers/STM32F1xx_HAL_Driver/Src/stm32f1xx_hal_dma.c ****     
 381:Drivers/STM32F1xx_HAL_Driver/Src/stm32f1xx_hal_dma.c ****     /* Configure the source, destination address and the data length & clear flags*/
 382:Drivers/STM32F1xx_HAL_Driver/Src/stm32f1xx_hal_dma.c ****     DMA_SetConfig(hdma, SrcAddress, DstAddress, DataLength);
 494              		.loc 1 382 5
 495 0050 3B68     		ldr	r3, [r7]
 496 0052 7A68     		ldr	r2, [r7, #4]
 497 0054 B968     		ldr	r1, [r7, #8]
 498 0056 F868     		ldr	r0, [r7, #12]
 499 0058 FFF7FEFF 		bl	DMA_SetConfig
 383:Drivers/STM32F1xx_HAL_Driver/Src/stm32f1xx_hal_dma.c ****     
 384:Drivers/STM32F1xx_HAL_Driver/Src/stm32f1xx_hal_dma.c ****     /* Enable the transfer complete interrupt */
 385:Drivers/STM32F1xx_HAL_Driver/Src/stm32f1xx_hal_dma.c ****     /* Enable the transfer Error interrupt */
 386:Drivers/STM32F1xx_HAL_Driver/Src/stm32f1xx_hal_dma.c ****     if(NULL != hdma->XferHalfCpltCallback)
 500              		.loc 1 386 20
 501 005c FB68     		ldr	r3, [r7, #12]
 502 005e DB6A     		ldr	r3, [r3, #44]
 503              		.loc 1 386 7
 504 0060 002B     		cmp	r3, #0
 505 0062 08D0     		beq	.L20
 387:Drivers/STM32F1xx_HAL_Driver/Src/stm32f1xx_hal_dma.c ****     {
 388:Drivers/STM32F1xx_HAL_Driver/Src/stm32f1xx_hal_dma.c ****       /* Enable the Half transfer complete interrupt as well */
 389:Drivers/STM32F1xx_HAL_Driver/Src/stm32f1xx_hal_dma.c ****       __HAL_DMA_ENABLE_IT(hdma, (DMA_IT_TC | DMA_IT_HT | DMA_IT_TE));
 506              		.loc 1 389 7
 507 0064 FB68     		ldr	r3, [r7, #12]
 508 0066 1B68     		ldr	r3, [r3]
 509 0068 1A68     		ldr	r2, [r3]
 510 006a FB68     		ldr	r3, [r7, #12]
 511 006c 1B68     		ldr	r3, [r3]
 512 006e 42F00E02 		orr	r2, r2, #14
 513 0072 1A60     		str	r2, [r3]
 514 0074 0FE0     		b	.L21
 515              	.L20:
 390:Drivers/STM32F1xx_HAL_Driver/Src/stm32f1xx_hal_dma.c ****     }
 391:Drivers/STM32F1xx_HAL_Driver/Src/stm32f1xx_hal_dma.c ****     else
 392:Drivers/STM32F1xx_HAL_Driver/Src/stm32f1xx_hal_dma.c ****     {
 393:Drivers/STM32F1xx_HAL_Driver/Src/stm32f1xx_hal_dma.c ****       __HAL_DMA_DISABLE_IT(hdma, DMA_IT_HT);
 516              		.loc 1 393 7
 517 0076 FB68     		ldr	r3, [r7, #12]
 518 0078 1B68     		ldr	r3, [r3]
 519 007a 1A68     		ldr	r2, [r3]
 520 007c FB68     		ldr	r3, [r7, #12]
 521 007e 1B68     		ldr	r3, [r3]
 522 0080 22F00402 		bic	r2, r2, #4
ARM GAS  C:\Users\mason\AppData\Local\Temp\cc9opaHX.s 			page 17


 523 0084 1A60     		str	r2, [r3]
 394:Drivers/STM32F1xx_HAL_Driver/Src/stm32f1xx_hal_dma.c ****       __HAL_DMA_ENABLE_IT(hdma, (DMA_IT_TC | DMA_IT_TE));
 524              		.loc 1 394 7
 525 0086 FB68     		ldr	r3, [r7, #12]
 526 0088 1B68     		ldr	r3, [r3]
 527 008a 1A68     		ldr	r2, [r3]
 528 008c FB68     		ldr	r3, [r7, #12]
 529 008e 1B68     		ldr	r3, [r3]
 530 0090 42F00A02 		orr	r2, r2, #10
 531 0094 1A60     		str	r2, [r3]
 532              	.L21:
 395:Drivers/STM32F1xx_HAL_Driver/Src/stm32f1xx_hal_dma.c ****     }
 396:Drivers/STM32F1xx_HAL_Driver/Src/stm32f1xx_hal_dma.c ****     /* Enable the Peripheral */
 397:Drivers/STM32F1xx_HAL_Driver/Src/stm32f1xx_hal_dma.c ****     __HAL_DMA_ENABLE(hdma);
 533              		.loc 1 397 5
 534 0096 FB68     		ldr	r3, [r7, #12]
 535 0098 1B68     		ldr	r3, [r3]
 536 009a 1A68     		ldr	r2, [r3]
 537 009c FB68     		ldr	r3, [r7, #12]
 538 009e 1B68     		ldr	r3, [r3]
 539 00a0 42F00102 		orr	r2, r2, #1
 540 00a4 1A60     		str	r2, [r3]
 541 00a6 05E0     		b	.L22
 542              	.L19:
 398:Drivers/STM32F1xx_HAL_Driver/Src/stm32f1xx_hal_dma.c ****   }
 399:Drivers/STM32F1xx_HAL_Driver/Src/stm32f1xx_hal_dma.c ****   else
 400:Drivers/STM32F1xx_HAL_Driver/Src/stm32f1xx_hal_dma.c ****   {      
 401:Drivers/STM32F1xx_HAL_Driver/Src/stm32f1xx_hal_dma.c ****     /* Process Unlocked */
 402:Drivers/STM32F1xx_HAL_Driver/Src/stm32f1xx_hal_dma.c ****     __HAL_UNLOCK(hdma); 
 543              		.loc 1 402 5
 544 00a8 FB68     		ldr	r3, [r7, #12]
 545 00aa 0022     		movs	r2, #0
 546 00ac 83F82020 		strb	r2, [r3, #32]
 403:Drivers/STM32F1xx_HAL_Driver/Src/stm32f1xx_hal_dma.c **** 
 404:Drivers/STM32F1xx_HAL_Driver/Src/stm32f1xx_hal_dma.c ****     /* Remain BUSY */
 405:Drivers/STM32F1xx_HAL_Driver/Src/stm32f1xx_hal_dma.c ****     status = HAL_BUSY;
 547              		.loc 1 405 12
 548 00b0 0223     		movs	r3, #2
 549 00b2 FB75     		strb	r3, [r7, #23]
 550              	.L22:
 406:Drivers/STM32F1xx_HAL_Driver/Src/stm32f1xx_hal_dma.c ****   }    
 407:Drivers/STM32F1xx_HAL_Driver/Src/stm32f1xx_hal_dma.c ****   return status;
 551              		.loc 1 407 10
 552 00b4 FB7D     		ldrb	r3, [r7, #23]	@ zero_extendqisi2
 553              	.L18:
 408:Drivers/STM32F1xx_HAL_Driver/Src/stm32f1xx_hal_dma.c **** }
 554              		.loc 1 408 1
 555 00b6 1846     		mov	r0, r3
 556 00b8 1837     		adds	r7, r7, #24
 557              	.LCFI20:
 558              		.cfi_def_cfa_offset 8
 559 00ba BD46     		mov	sp, r7
 560              	.LCFI21:
 561              		.cfi_def_cfa_register 13
 562              		@ sp needed
 563 00bc 80BD     		pop	{r7, pc}
 564              		.cfi_endproc
ARM GAS  C:\Users\mason\AppData\Local\Temp\cc9opaHX.s 			page 18


 565              	.LFE68:
 567              		.section	.text.HAL_DMA_Abort,"ax",%progbits
 568              		.align	1
 569              		.global	HAL_DMA_Abort
 570              		.syntax unified
 571              		.thumb
 572              		.thumb_func
 574              	HAL_DMA_Abort:
 575              	.LFB69:
 409:Drivers/STM32F1xx_HAL_Driver/Src/stm32f1xx_hal_dma.c **** 
 410:Drivers/STM32F1xx_HAL_Driver/Src/stm32f1xx_hal_dma.c **** /**
 411:Drivers/STM32F1xx_HAL_Driver/Src/stm32f1xx_hal_dma.c ****   * @brief  Abort the DMA Transfer.
 412:Drivers/STM32F1xx_HAL_Driver/Src/stm32f1xx_hal_dma.c ****   * @param  hdma: pointer to a DMA_HandleTypeDef structure that contains
 413:Drivers/STM32F1xx_HAL_Driver/Src/stm32f1xx_hal_dma.c ****   *               the configuration information for the specified DMA Channel.
 414:Drivers/STM32F1xx_HAL_Driver/Src/stm32f1xx_hal_dma.c ****   * @retval HAL status
 415:Drivers/STM32F1xx_HAL_Driver/Src/stm32f1xx_hal_dma.c ****   */
 416:Drivers/STM32F1xx_HAL_Driver/Src/stm32f1xx_hal_dma.c **** HAL_StatusTypeDef HAL_DMA_Abort(DMA_HandleTypeDef *hdma)
 417:Drivers/STM32F1xx_HAL_Driver/Src/stm32f1xx_hal_dma.c **** {
 576              		.loc 1 417 1
 577              		.cfi_startproc
 578              		@ args = 0, pretend = 0, frame = 16
 579              		@ frame_needed = 1, uses_anonymous_args = 0
 580              		@ link register save eliminated.
 581 0000 80B4     		push	{r7}
 582              	.LCFI22:
 583              		.cfi_def_cfa_offset 4
 584              		.cfi_offset 7, -4
 585 0002 85B0     		sub	sp, sp, #20
 586              	.LCFI23:
 587              		.cfi_def_cfa_offset 24
 588 0004 00AF     		add	r7, sp, #0
 589              	.LCFI24:
 590              		.cfi_def_cfa_register 7
 591 0006 7860     		str	r0, [r7, #4]
 418:Drivers/STM32F1xx_HAL_Driver/Src/stm32f1xx_hal_dma.c ****   HAL_StatusTypeDef status = HAL_OK;
 592              		.loc 1 418 21
 593 0008 0023     		movs	r3, #0
 594 000a FB73     		strb	r3, [r7, #15]
 419:Drivers/STM32F1xx_HAL_Driver/Src/stm32f1xx_hal_dma.c ****   
 420:Drivers/STM32F1xx_HAL_Driver/Src/stm32f1xx_hal_dma.c ****   if(hdma->State != HAL_DMA_STATE_BUSY)
 595              		.loc 1 420 10
 596 000c 7B68     		ldr	r3, [r7, #4]
 597 000e 93F82130 		ldrb	r3, [r3, #33]	@ zero_extendqisi2
 598              		.loc 1 420 5
 599 0012 022B     		cmp	r3, #2
 600 0014 08D0     		beq	.L24
 421:Drivers/STM32F1xx_HAL_Driver/Src/stm32f1xx_hal_dma.c ****   {
 422:Drivers/STM32F1xx_HAL_Driver/Src/stm32f1xx_hal_dma.c ****     /* no transfer ongoing */
 423:Drivers/STM32F1xx_HAL_Driver/Src/stm32f1xx_hal_dma.c ****     hdma->ErrorCode = HAL_DMA_ERROR_NO_XFER;
 601              		.loc 1 423 21
 602 0016 7B68     		ldr	r3, [r7, #4]
 603 0018 0422     		movs	r2, #4
 604 001a 9A63     		str	r2, [r3, #56]
 424:Drivers/STM32F1xx_HAL_Driver/Src/stm32f1xx_hal_dma.c ****     
 425:Drivers/STM32F1xx_HAL_Driver/Src/stm32f1xx_hal_dma.c ****     /* Process Unlocked */
 426:Drivers/STM32F1xx_HAL_Driver/Src/stm32f1xx_hal_dma.c ****     __HAL_UNLOCK(hdma);
 605              		.loc 1 426 5
ARM GAS  C:\Users\mason\AppData\Local\Temp\cc9opaHX.s 			page 19


 606 001c 7B68     		ldr	r3, [r7, #4]
 607 001e 0022     		movs	r2, #0
 608 0020 83F82020 		strb	r2, [r3, #32]
 427:Drivers/STM32F1xx_HAL_Driver/Src/stm32f1xx_hal_dma.c ****     
 428:Drivers/STM32F1xx_HAL_Driver/Src/stm32f1xx_hal_dma.c ****     return HAL_ERROR;
 609              		.loc 1 428 12
 610 0024 0123     		movs	r3, #1
 611 0026 20E0     		b	.L25
 612              	.L24:
 429:Drivers/STM32F1xx_HAL_Driver/Src/stm32f1xx_hal_dma.c ****   }
 430:Drivers/STM32F1xx_HAL_Driver/Src/stm32f1xx_hal_dma.c ****   else
 431:Drivers/STM32F1xx_HAL_Driver/Src/stm32f1xx_hal_dma.c **** 
 432:Drivers/STM32F1xx_HAL_Driver/Src/stm32f1xx_hal_dma.c ****   {
 433:Drivers/STM32F1xx_HAL_Driver/Src/stm32f1xx_hal_dma.c ****     /* Disable DMA IT */
 434:Drivers/STM32F1xx_HAL_Driver/Src/stm32f1xx_hal_dma.c ****     __HAL_DMA_DISABLE_IT(hdma, (DMA_IT_TC | DMA_IT_HT | DMA_IT_TE));
 613              		.loc 1 434 5
 614 0028 7B68     		ldr	r3, [r7, #4]
 615 002a 1B68     		ldr	r3, [r3]
 616 002c 1A68     		ldr	r2, [r3]
 617 002e 7B68     		ldr	r3, [r7, #4]
 618 0030 1B68     		ldr	r3, [r3]
 619 0032 22F00E02 		bic	r2, r2, #14
 620 0036 1A60     		str	r2, [r3]
 435:Drivers/STM32F1xx_HAL_Driver/Src/stm32f1xx_hal_dma.c ****       
 436:Drivers/STM32F1xx_HAL_Driver/Src/stm32f1xx_hal_dma.c ****     /* Disable the channel */
 437:Drivers/STM32F1xx_HAL_Driver/Src/stm32f1xx_hal_dma.c ****     __HAL_DMA_DISABLE(hdma);
 621              		.loc 1 437 5
 622 0038 7B68     		ldr	r3, [r7, #4]
 623 003a 1B68     		ldr	r3, [r3]
 624 003c 1A68     		ldr	r2, [r3]
 625 003e 7B68     		ldr	r3, [r7, #4]
 626 0040 1B68     		ldr	r3, [r3]
 627 0042 22F00102 		bic	r2, r2, #1
 628 0046 1A60     		str	r2, [r3]
 438:Drivers/STM32F1xx_HAL_Driver/Src/stm32f1xx_hal_dma.c ****       
 439:Drivers/STM32F1xx_HAL_Driver/Src/stm32f1xx_hal_dma.c ****     /* Clear all flags */
 440:Drivers/STM32F1xx_HAL_Driver/Src/stm32f1xx_hal_dma.c ****     hdma->DmaBaseAddress->IFCR = (DMA_ISR_GIF1 << hdma->ChannelIndex);
 629              		.loc 1 440 55
 630 0048 7B68     		ldr	r3, [r7, #4]
 631 004a 1A6C     		ldr	r2, [r3, #64]
 632              		.loc 1 440 9
 633 004c 7B68     		ldr	r3, [r7, #4]
 634 004e DB6B     		ldr	r3, [r3, #60]
 635              		.loc 1 440 48
 636 0050 0121     		movs	r1, #1
 637 0052 01FA02F2 		lsl	r2, r1, r2
 638              		.loc 1 440 32
 639 0056 5A60     		str	r2, [r3, #4]
 441:Drivers/STM32F1xx_HAL_Driver/Src/stm32f1xx_hal_dma.c ****   }
 442:Drivers/STM32F1xx_HAL_Driver/Src/stm32f1xx_hal_dma.c ****   /* Change the DMA state */
 443:Drivers/STM32F1xx_HAL_Driver/Src/stm32f1xx_hal_dma.c ****   hdma->State = HAL_DMA_STATE_READY;
 640              		.loc 1 443 15
 641 0058 7B68     		ldr	r3, [r7, #4]
 642 005a 0122     		movs	r2, #1
 643 005c 83F82120 		strb	r2, [r3, #33]
 444:Drivers/STM32F1xx_HAL_Driver/Src/stm32f1xx_hal_dma.c **** 
 445:Drivers/STM32F1xx_HAL_Driver/Src/stm32f1xx_hal_dma.c ****   /* Process Unlocked */
ARM GAS  C:\Users\mason\AppData\Local\Temp\cc9opaHX.s 			page 20


 446:Drivers/STM32F1xx_HAL_Driver/Src/stm32f1xx_hal_dma.c ****   __HAL_UNLOCK(hdma);      
 644              		.loc 1 446 3
 645 0060 7B68     		ldr	r3, [r7, #4]
 646 0062 0022     		movs	r2, #0
 647 0064 83F82020 		strb	r2, [r3, #32]
 447:Drivers/STM32F1xx_HAL_Driver/Src/stm32f1xx_hal_dma.c ****   
 448:Drivers/STM32F1xx_HAL_Driver/Src/stm32f1xx_hal_dma.c ****   return status; 
 648              		.loc 1 448 10
 649 0068 FB7B     		ldrb	r3, [r7, #15]	@ zero_extendqisi2
 650              	.L25:
 449:Drivers/STM32F1xx_HAL_Driver/Src/stm32f1xx_hal_dma.c **** }
 651              		.loc 1 449 1
 652 006a 1846     		mov	r0, r3
 653 006c 1437     		adds	r7, r7, #20
 654              	.LCFI25:
 655              		.cfi_def_cfa_offset 4
 656 006e BD46     		mov	sp, r7
 657              	.LCFI26:
 658              		.cfi_def_cfa_register 13
 659              		@ sp needed
 660 0070 80BC     		pop	{r7}
 661              	.LCFI27:
 662              		.cfi_restore 7
 663              		.cfi_def_cfa_offset 0
 664 0072 7047     		bx	lr
 665              		.cfi_endproc
 666              	.LFE69:
 668              		.section	.text.HAL_DMA_Abort_IT,"ax",%progbits
 669              		.align	1
 670              		.global	HAL_DMA_Abort_IT
 671              		.syntax unified
 672              		.thumb
 673              		.thumb_func
 675              	HAL_DMA_Abort_IT:
 676              	.LFB70:
 450:Drivers/STM32F1xx_HAL_Driver/Src/stm32f1xx_hal_dma.c **** 
 451:Drivers/STM32F1xx_HAL_Driver/Src/stm32f1xx_hal_dma.c **** /**
 452:Drivers/STM32F1xx_HAL_Driver/Src/stm32f1xx_hal_dma.c ****   * @brief  Aborts the DMA Transfer in Interrupt mode.
 453:Drivers/STM32F1xx_HAL_Driver/Src/stm32f1xx_hal_dma.c ****   * @param  hdma  : pointer to a DMA_HandleTypeDef structure that contains
 454:Drivers/STM32F1xx_HAL_Driver/Src/stm32f1xx_hal_dma.c ****   *                 the configuration information for the specified DMA Channel.
 455:Drivers/STM32F1xx_HAL_Driver/Src/stm32f1xx_hal_dma.c ****   * @retval HAL status
 456:Drivers/STM32F1xx_HAL_Driver/Src/stm32f1xx_hal_dma.c ****   */
 457:Drivers/STM32F1xx_HAL_Driver/Src/stm32f1xx_hal_dma.c **** HAL_StatusTypeDef HAL_DMA_Abort_IT(DMA_HandleTypeDef *hdma)
 458:Drivers/STM32F1xx_HAL_Driver/Src/stm32f1xx_hal_dma.c **** {  
 677              		.loc 1 458 1
 678              		.cfi_startproc
 679              		@ args = 0, pretend = 0, frame = 16
 680              		@ frame_needed = 1, uses_anonymous_args = 0
 681 0000 80B5     		push	{r7, lr}
 682              	.LCFI28:
 683              		.cfi_def_cfa_offset 8
 684              		.cfi_offset 7, -8
 685              		.cfi_offset 14, -4
 686 0002 84B0     		sub	sp, sp, #16
 687              	.LCFI29:
 688              		.cfi_def_cfa_offset 24
 689 0004 00AF     		add	r7, sp, #0
ARM GAS  C:\Users\mason\AppData\Local\Temp\cc9opaHX.s 			page 21


 690              	.LCFI30:
 691              		.cfi_def_cfa_register 7
 692 0006 7860     		str	r0, [r7, #4]
 459:Drivers/STM32F1xx_HAL_Driver/Src/stm32f1xx_hal_dma.c ****   HAL_StatusTypeDef status = HAL_OK;
 693              		.loc 1 459 21
 694 0008 0023     		movs	r3, #0
 695 000a FB73     		strb	r3, [r7, #15]
 460:Drivers/STM32F1xx_HAL_Driver/Src/stm32f1xx_hal_dma.c ****   
 461:Drivers/STM32F1xx_HAL_Driver/Src/stm32f1xx_hal_dma.c ****   if(HAL_DMA_STATE_BUSY != hdma->State)
 696              		.loc 1 461 32
 697 000c 7B68     		ldr	r3, [r7, #4]
 698 000e 93F82130 		ldrb	r3, [r3, #33]	@ zero_extendqisi2
 699              		.loc 1 461 5
 700 0012 022B     		cmp	r3, #2
 701 0014 05D0     		beq	.L27
 462:Drivers/STM32F1xx_HAL_Driver/Src/stm32f1xx_hal_dma.c ****   {
 463:Drivers/STM32F1xx_HAL_Driver/Src/stm32f1xx_hal_dma.c ****     /* no transfer ongoing */
 464:Drivers/STM32F1xx_HAL_Driver/Src/stm32f1xx_hal_dma.c ****     hdma->ErrorCode = HAL_DMA_ERROR_NO_XFER;
 702              		.loc 1 464 21
 703 0016 7B68     		ldr	r3, [r7, #4]
 704 0018 0422     		movs	r2, #4
 705 001a 9A63     		str	r2, [r3, #56]
 465:Drivers/STM32F1xx_HAL_Driver/Src/stm32f1xx_hal_dma.c ****         
 466:Drivers/STM32F1xx_HAL_Driver/Src/stm32f1xx_hal_dma.c ****     status = HAL_ERROR;
 706              		.loc 1 466 12
 707 001c 0123     		movs	r3, #1
 708 001e FB73     		strb	r3, [r7, #15]
 709 0020 51E0     		b	.L28
 710              	.L27:
 467:Drivers/STM32F1xx_HAL_Driver/Src/stm32f1xx_hal_dma.c ****   }
 468:Drivers/STM32F1xx_HAL_Driver/Src/stm32f1xx_hal_dma.c ****   else
 469:Drivers/STM32F1xx_HAL_Driver/Src/stm32f1xx_hal_dma.c ****   { 
 470:Drivers/STM32F1xx_HAL_Driver/Src/stm32f1xx_hal_dma.c ****     /* Disable DMA IT */
 471:Drivers/STM32F1xx_HAL_Driver/Src/stm32f1xx_hal_dma.c ****     __HAL_DMA_DISABLE_IT(hdma, (DMA_IT_TC | DMA_IT_HT | DMA_IT_TE));
 711              		.loc 1 471 5
 712 0022 7B68     		ldr	r3, [r7, #4]
 713 0024 1B68     		ldr	r3, [r3]
 714 0026 1A68     		ldr	r2, [r3]
 715 0028 7B68     		ldr	r3, [r7, #4]
 716 002a 1B68     		ldr	r3, [r3]
 717 002c 22F00E02 		bic	r2, r2, #14
 718 0030 1A60     		str	r2, [r3]
 472:Drivers/STM32F1xx_HAL_Driver/Src/stm32f1xx_hal_dma.c **** 
 473:Drivers/STM32F1xx_HAL_Driver/Src/stm32f1xx_hal_dma.c ****     /* Disable the channel */
 474:Drivers/STM32F1xx_HAL_Driver/Src/stm32f1xx_hal_dma.c ****     __HAL_DMA_DISABLE(hdma);
 719              		.loc 1 474 5
 720 0032 7B68     		ldr	r3, [r7, #4]
 721 0034 1B68     		ldr	r3, [r3]
 722 0036 1A68     		ldr	r2, [r3]
 723 0038 7B68     		ldr	r3, [r7, #4]
 724 003a 1B68     		ldr	r3, [r3]
 725 003c 22F00102 		bic	r2, r2, #1
 726 0040 1A60     		str	r2, [r3]
 475:Drivers/STM32F1xx_HAL_Driver/Src/stm32f1xx_hal_dma.c **** 
 476:Drivers/STM32F1xx_HAL_Driver/Src/stm32f1xx_hal_dma.c ****     /* Clear all flags */
 477:Drivers/STM32F1xx_HAL_Driver/Src/stm32f1xx_hal_dma.c ****     __HAL_DMA_CLEAR_FLAG(hdma, __HAL_DMA_GET_GI_FLAG_INDEX(hdma));
 727              		.loc 1 477 5
ARM GAS  C:\Users\mason\AppData\Local\Temp\cc9opaHX.s 			page 22


 728 0042 7B68     		ldr	r3, [r7, #4]
 729 0044 1B68     		ldr	r3, [r3]
 730 0046 224A     		ldr	r2, .L42
 731 0048 9342     		cmp	r3, r2
 732 004a 29D0     		beq	.L29
 733              		.loc 1 477 5 is_stmt 0 discriminator 1
 734 004c 7B68     		ldr	r3, [r7, #4]
 735 004e 1B68     		ldr	r3, [r3]
 736 0050 204A     		ldr	r2, .L42+4
 737 0052 9342     		cmp	r3, r2
 738 0054 22D0     		beq	.L30
 739              		.loc 1 477 5 discriminator 3
 740 0056 7B68     		ldr	r3, [r7, #4]
 741 0058 1B68     		ldr	r3, [r3]
 742 005a 1F4A     		ldr	r2, .L42+8
 743 005c 9342     		cmp	r3, r2
 744 005e 1AD0     		beq	.L31
 745              		.loc 1 477 5 discriminator 5
 746 0060 7B68     		ldr	r3, [r7, #4]
 747 0062 1B68     		ldr	r3, [r3]
 748 0064 1D4A     		ldr	r2, .L42+12
 749 0066 9342     		cmp	r3, r2
 750 0068 12D0     		beq	.L32
 751              		.loc 1 477 5 discriminator 7
 752 006a 7B68     		ldr	r3, [r7, #4]
 753 006c 1B68     		ldr	r3, [r3]
 754 006e 1C4A     		ldr	r2, .L42+16
 755 0070 9342     		cmp	r3, r2
 756 0072 0AD0     		beq	.L33
 757              		.loc 1 477 5 discriminator 9
 758 0074 7B68     		ldr	r3, [r7, #4]
 759 0076 1B68     		ldr	r3, [r3]
 760 0078 1A4A     		ldr	r2, .L42+20
 761 007a 9342     		cmp	r3, r2
 762 007c 02D1     		bne	.L34
 763              		.loc 1 477 5 discriminator 11
 764 007e 4FF48013 		mov	r3, #1048576
 765 0082 0EE0     		b	.L40
 766              	.L34:
 767              		.loc 1 477 5 discriminator 12
 768 0084 4FF08073 		mov	r3, #16777216
 769 0088 0BE0     		b	.L40
 770              	.L33:
 771              		.loc 1 477 5 discriminator 10
 772 008a 4FF48033 		mov	r3, #65536
 773 008e 08E0     		b	.L40
 774              	.L32:
 775              		.loc 1 477 5 discriminator 8
 776 0090 4FF48053 		mov	r3, #4096
 777 0094 05E0     		b	.L40
 778              	.L31:
 779              		.loc 1 477 5 discriminator 6
 780 0096 4FF48073 		mov	r3, #256
 781 009a 02E0     		b	.L40
 782              	.L30:
 783              		.loc 1 477 5 discriminator 4
 784 009c 1023     		movs	r3, #16
ARM GAS  C:\Users\mason\AppData\Local\Temp\cc9opaHX.s 			page 23


 785 009e 00E0     		b	.L40
 786              	.L29:
 787              		.loc 1 477 5 discriminator 2
 788 00a0 0123     		movs	r3, #1
 789              	.L40:
 790              		.loc 1 477 5 discriminator 24
 791 00a2 114A     		ldr	r2, .L42+24
 792 00a4 5360     		str	r3, [r2, #4]
 478:Drivers/STM32F1xx_HAL_Driver/Src/stm32f1xx_hal_dma.c **** 
 479:Drivers/STM32F1xx_HAL_Driver/Src/stm32f1xx_hal_dma.c ****     /* Change the DMA state */
 480:Drivers/STM32F1xx_HAL_Driver/Src/stm32f1xx_hal_dma.c ****     hdma->State = HAL_DMA_STATE_READY;
 793              		.loc 1 480 17 is_stmt 1 discriminator 24
 794 00a6 7B68     		ldr	r3, [r7, #4]
 795 00a8 0122     		movs	r2, #1
 796 00aa 83F82120 		strb	r2, [r3, #33]
 481:Drivers/STM32F1xx_HAL_Driver/Src/stm32f1xx_hal_dma.c **** 
 482:Drivers/STM32F1xx_HAL_Driver/Src/stm32f1xx_hal_dma.c ****     /* Process Unlocked */
 483:Drivers/STM32F1xx_HAL_Driver/Src/stm32f1xx_hal_dma.c ****     __HAL_UNLOCK(hdma);
 797              		.loc 1 483 5 discriminator 24
 798 00ae 7B68     		ldr	r3, [r7, #4]
 799 00b0 0022     		movs	r2, #0
 800 00b2 83F82020 		strb	r2, [r3, #32]
 484:Drivers/STM32F1xx_HAL_Driver/Src/stm32f1xx_hal_dma.c **** 
 485:Drivers/STM32F1xx_HAL_Driver/Src/stm32f1xx_hal_dma.c ****     /* Call User Abort callback */
 486:Drivers/STM32F1xx_HAL_Driver/Src/stm32f1xx_hal_dma.c ****     if(hdma->XferAbortCallback != NULL)
 801              		.loc 1 486 12 discriminator 24
 802 00b6 7B68     		ldr	r3, [r7, #4]
 803 00b8 5B6B     		ldr	r3, [r3, #52]
 804              		.loc 1 486 7 discriminator 24
 805 00ba 002B     		cmp	r3, #0
 806 00bc 03D0     		beq	.L28
 487:Drivers/STM32F1xx_HAL_Driver/Src/stm32f1xx_hal_dma.c ****     {
 488:Drivers/STM32F1xx_HAL_Driver/Src/stm32f1xx_hal_dma.c ****       hdma->XferAbortCallback(hdma);
 807              		.loc 1 488 11
 808 00be 7B68     		ldr	r3, [r7, #4]
 809 00c0 5B6B     		ldr	r3, [r3, #52]
 810              		.loc 1 488 7
 811 00c2 7868     		ldr	r0, [r7, #4]
 812 00c4 9847     		blx	r3
 813              	.LVL0:
 814              	.L28:
 489:Drivers/STM32F1xx_HAL_Driver/Src/stm32f1xx_hal_dma.c ****     } 
 490:Drivers/STM32F1xx_HAL_Driver/Src/stm32f1xx_hal_dma.c ****   }
 491:Drivers/STM32F1xx_HAL_Driver/Src/stm32f1xx_hal_dma.c ****   return status;
 815              		.loc 1 491 10
 816 00c6 FB7B     		ldrb	r3, [r7, #15]	@ zero_extendqisi2
 492:Drivers/STM32F1xx_HAL_Driver/Src/stm32f1xx_hal_dma.c **** }
 817              		.loc 1 492 1
 818 00c8 1846     		mov	r0, r3
 819 00ca 1037     		adds	r7, r7, #16
 820              	.LCFI31:
 821              		.cfi_def_cfa_offset 8
 822 00cc BD46     		mov	sp, r7
 823              	.LCFI32:
 824              		.cfi_def_cfa_register 13
 825              		@ sp needed
 826 00ce 80BD     		pop	{r7, pc}
ARM GAS  C:\Users\mason\AppData\Local\Temp\cc9opaHX.s 			page 24


 827              	.L43:
 828              		.align	2
 829              	.L42:
 830 00d0 08000240 		.word	1073872904
 831 00d4 1C000240 		.word	1073872924
 832 00d8 30000240 		.word	1073872944
 833 00dc 44000240 		.word	1073872964
 834 00e0 58000240 		.word	1073872984
 835 00e4 6C000240 		.word	1073873004
 836 00e8 00000240 		.word	1073872896
 837              		.cfi_endproc
 838              	.LFE70:
 840              		.section	.text.HAL_DMA_PollForTransfer,"ax",%progbits
 841              		.align	1
 842              		.global	HAL_DMA_PollForTransfer
 843              		.syntax unified
 844              		.thumb
 845              		.thumb_func
 847              	HAL_DMA_PollForTransfer:
 848              	.LFB71:
 493:Drivers/STM32F1xx_HAL_Driver/Src/stm32f1xx_hal_dma.c **** 
 494:Drivers/STM32F1xx_HAL_Driver/Src/stm32f1xx_hal_dma.c **** /**
 495:Drivers/STM32F1xx_HAL_Driver/Src/stm32f1xx_hal_dma.c ****   * @brief  Polling for transfer complete.
 496:Drivers/STM32F1xx_HAL_Driver/Src/stm32f1xx_hal_dma.c ****   * @param  hdma:    pointer to a DMA_HandleTypeDef structure that contains
 497:Drivers/STM32F1xx_HAL_Driver/Src/stm32f1xx_hal_dma.c ****   *                  the configuration information for the specified DMA Channel.
 498:Drivers/STM32F1xx_HAL_Driver/Src/stm32f1xx_hal_dma.c ****   * @param  CompleteLevel: Specifies the DMA level complete.
 499:Drivers/STM32F1xx_HAL_Driver/Src/stm32f1xx_hal_dma.c ****   * @param  Timeout:       Timeout duration.
 500:Drivers/STM32F1xx_HAL_Driver/Src/stm32f1xx_hal_dma.c ****   * @retval HAL status
 501:Drivers/STM32F1xx_HAL_Driver/Src/stm32f1xx_hal_dma.c ****   */
 502:Drivers/STM32F1xx_HAL_Driver/Src/stm32f1xx_hal_dma.c **** HAL_StatusTypeDef HAL_DMA_PollForTransfer(DMA_HandleTypeDef *hdma, uint32_t CompleteLevel, uint32_t
 503:Drivers/STM32F1xx_HAL_Driver/Src/stm32f1xx_hal_dma.c **** {
 849              		.loc 1 503 1
 850              		.cfi_startproc
 851              		@ args = 0, pretend = 0, frame = 24
 852              		@ frame_needed = 1, uses_anonymous_args = 0
 853 0000 80B5     		push	{r7, lr}
 854              	.LCFI33:
 855              		.cfi_def_cfa_offset 8
 856              		.cfi_offset 7, -8
 857              		.cfi_offset 14, -4
 858 0002 86B0     		sub	sp, sp, #24
 859              	.LCFI34:
 860              		.cfi_def_cfa_offset 32
 861 0004 00AF     		add	r7, sp, #0
 862              	.LCFI35:
 863              		.cfi_def_cfa_register 7
 864 0006 F860     		str	r0, [r7, #12]
 865 0008 B960     		str	r1, [r7, #8]
 866 000a 7A60     		str	r2, [r7, #4]
 504:Drivers/STM32F1xx_HAL_Driver/Src/stm32f1xx_hal_dma.c ****   uint32_t temp;
 505:Drivers/STM32F1xx_HAL_Driver/Src/stm32f1xx_hal_dma.c ****   uint32_t tickstart = 0U;
 867              		.loc 1 505 12
 868 000c 0023     		movs	r3, #0
 869 000e 3B61     		str	r3, [r7, #16]
 506:Drivers/STM32F1xx_HAL_Driver/Src/stm32f1xx_hal_dma.c **** 
 507:Drivers/STM32F1xx_HAL_Driver/Src/stm32f1xx_hal_dma.c ****   if(HAL_DMA_STATE_BUSY != hdma->State)
 870              		.loc 1 507 32
ARM GAS  C:\Users\mason\AppData\Local\Temp\cc9opaHX.s 			page 25


 871 0010 FB68     		ldr	r3, [r7, #12]
 872 0012 93F82130 		ldrb	r3, [r3, #33]	@ zero_extendqisi2
 873              		.loc 1 507 5
 874 0016 022B     		cmp	r3, #2
 875 0018 08D0     		beq	.L45
 508:Drivers/STM32F1xx_HAL_Driver/Src/stm32f1xx_hal_dma.c ****   {
 509:Drivers/STM32F1xx_HAL_Driver/Src/stm32f1xx_hal_dma.c ****     /* no transfer ongoing */
 510:Drivers/STM32F1xx_HAL_Driver/Src/stm32f1xx_hal_dma.c ****     hdma->ErrorCode = HAL_DMA_ERROR_NO_XFER;
 876              		.loc 1 510 21
 877 001a FB68     		ldr	r3, [r7, #12]
 878 001c 0422     		movs	r2, #4
 879 001e 9A63     		str	r2, [r3, #56]
 511:Drivers/STM32F1xx_HAL_Driver/Src/stm32f1xx_hal_dma.c ****     __HAL_UNLOCK(hdma);
 880              		.loc 1 511 5
 881 0020 FB68     		ldr	r3, [r7, #12]
 882 0022 0022     		movs	r2, #0
 883 0024 83F82020 		strb	r2, [r3, #32]
 512:Drivers/STM32F1xx_HAL_Driver/Src/stm32f1xx_hal_dma.c ****     return HAL_ERROR;
 884              		.loc 1 512 12
 885 0028 0123     		movs	r3, #1
 886 002a 68E1     		b	.L46
 887              	.L45:
 513:Drivers/STM32F1xx_HAL_Driver/Src/stm32f1xx_hal_dma.c ****   }
 514:Drivers/STM32F1xx_HAL_Driver/Src/stm32f1xx_hal_dma.c **** 
 515:Drivers/STM32F1xx_HAL_Driver/Src/stm32f1xx_hal_dma.c ****   /* Polling mode not supported in circular mode */
 516:Drivers/STM32F1xx_HAL_Driver/Src/stm32f1xx_hal_dma.c ****   if (RESET != (hdma->Instance->CCR & DMA_CCR_CIRC))
 888              		.loc 1 516 21
 889 002c FB68     		ldr	r3, [r7, #12]
 890 002e 1B68     		ldr	r3, [r3]
 891              		.loc 1 516 31
 892 0030 1B68     		ldr	r3, [r3]
 893              		.loc 1 516 37
 894 0032 03F02003 		and	r3, r3, #32
 895              		.loc 1 516 6
 896 0036 002B     		cmp	r3, #0
 897 0038 05D0     		beq	.L47
 517:Drivers/STM32F1xx_HAL_Driver/Src/stm32f1xx_hal_dma.c ****   {
 518:Drivers/STM32F1xx_HAL_Driver/Src/stm32f1xx_hal_dma.c ****     hdma->ErrorCode = HAL_DMA_ERROR_NOT_SUPPORTED;
 898              		.loc 1 518 21
 899 003a FB68     		ldr	r3, [r7, #12]
 900 003c 4FF48072 		mov	r2, #256
 901 0040 9A63     		str	r2, [r3, #56]
 519:Drivers/STM32F1xx_HAL_Driver/Src/stm32f1xx_hal_dma.c ****     return HAL_ERROR;
 902              		.loc 1 519 12
 903 0042 0123     		movs	r3, #1
 904 0044 5BE1     		b	.L46
 905              	.L47:
 520:Drivers/STM32F1xx_HAL_Driver/Src/stm32f1xx_hal_dma.c ****   }
 521:Drivers/STM32F1xx_HAL_Driver/Src/stm32f1xx_hal_dma.c ****   
 522:Drivers/STM32F1xx_HAL_Driver/Src/stm32f1xx_hal_dma.c ****   /* Get the level transfer complete flag */
 523:Drivers/STM32F1xx_HAL_Driver/Src/stm32f1xx_hal_dma.c ****   if(CompleteLevel == HAL_DMA_FULL_TRANSFER)
 906              		.loc 1 523 5
 907 0046 BB68     		ldr	r3, [r7, #8]
 908 0048 002B     		cmp	r3, #0
 909 004a 31D1     		bne	.L48
 524:Drivers/STM32F1xx_HAL_Driver/Src/stm32f1xx_hal_dma.c ****   {
 525:Drivers/STM32F1xx_HAL_Driver/Src/stm32f1xx_hal_dma.c ****     /* Transfer Complete flag */
ARM GAS  C:\Users\mason\AppData\Local\Temp\cc9opaHX.s 			page 26


 526:Drivers/STM32F1xx_HAL_Driver/Src/stm32f1xx_hal_dma.c ****     temp = __HAL_DMA_GET_TC_FLAG_INDEX(hdma);
 910              		.loc 1 526 12
 911 004c FB68     		ldr	r3, [r7, #12]
 912 004e 1B68     		ldr	r3, [r3]
 913 0050 884A     		ldr	r2, .L116
 914 0052 9342     		cmp	r3, r2
 915 0054 29D0     		beq	.L49
 916              		.loc 1 526 12 is_stmt 0 discriminator 1
 917 0056 FB68     		ldr	r3, [r7, #12]
 918 0058 1B68     		ldr	r3, [r3]
 919 005a 874A     		ldr	r2, .L116+4
 920 005c 9342     		cmp	r3, r2
 921 005e 22D0     		beq	.L50
 922              		.loc 1 526 12 discriminator 3
 923 0060 FB68     		ldr	r3, [r7, #12]
 924 0062 1B68     		ldr	r3, [r3]
 925 0064 854A     		ldr	r2, .L116+8
 926 0066 9342     		cmp	r3, r2
 927 0068 1AD0     		beq	.L51
 928              		.loc 1 526 12 discriminator 5
 929 006a FB68     		ldr	r3, [r7, #12]
 930 006c 1B68     		ldr	r3, [r3]
 931 006e 844A     		ldr	r2, .L116+12
 932 0070 9342     		cmp	r3, r2
 933 0072 12D0     		beq	.L52
 934              		.loc 1 526 12 discriminator 7
 935 0074 FB68     		ldr	r3, [r7, #12]
 936 0076 1B68     		ldr	r3, [r3]
 937 0078 824A     		ldr	r2, .L116+16
 938 007a 9342     		cmp	r3, r2
 939 007c 0AD0     		beq	.L53
 940              		.loc 1 526 12 discriminator 9
 941 007e FB68     		ldr	r3, [r7, #12]
 942 0080 1B68     		ldr	r3, [r3]
 943 0082 814A     		ldr	r2, .L116+20
 944 0084 9342     		cmp	r3, r2
 945 0086 02D1     		bne	.L54
 946              		.loc 1 526 12 discriminator 11
 947 0088 4FF40013 		mov	r3, #2097152
 948 008c 0EE0     		b	.L60
 949              	.L54:
 950              		.loc 1 526 12 discriminator 12
 951 008e 4FF00073 		mov	r3, #33554432
 952 0092 0BE0     		b	.L60
 953              	.L53:
 954              		.loc 1 526 12 discriminator 10
 955 0094 4FF40033 		mov	r3, #131072
 956 0098 08E0     		b	.L60
 957              	.L52:
 958              		.loc 1 526 12 discriminator 8
 959 009a 4FF40053 		mov	r3, #8192
 960 009e 05E0     		b	.L60
 961              	.L51:
 962              		.loc 1 526 12 discriminator 6
 963 00a0 4FF40073 		mov	r3, #512
 964 00a4 02E0     		b	.L60
 965              	.L50:
ARM GAS  C:\Users\mason\AppData\Local\Temp\cc9opaHX.s 			page 27


 966              		.loc 1 526 12 discriminator 4
 967 00a6 2023     		movs	r3, #32
 968 00a8 00E0     		b	.L60
 969              	.L49:
 970              		.loc 1 526 12 discriminator 2
 971 00aa 0223     		movs	r3, #2
 972              	.L60:
 973              		.loc 1 526 10 is_stmt 1 discriminator 24
 974 00ac 7B61     		str	r3, [r7, #20]
 975 00ae 30E0     		b	.L61
 976              	.L48:
 527:Drivers/STM32F1xx_HAL_Driver/Src/stm32f1xx_hal_dma.c ****   }
 528:Drivers/STM32F1xx_HAL_Driver/Src/stm32f1xx_hal_dma.c ****   else
 529:Drivers/STM32F1xx_HAL_Driver/Src/stm32f1xx_hal_dma.c ****   {
 530:Drivers/STM32F1xx_HAL_Driver/Src/stm32f1xx_hal_dma.c ****     /* Half Transfer Complete flag */
 531:Drivers/STM32F1xx_HAL_Driver/Src/stm32f1xx_hal_dma.c ****     temp = __HAL_DMA_GET_HT_FLAG_INDEX(hdma);
 977              		.loc 1 531 12
 978 00b0 FB68     		ldr	r3, [r7, #12]
 979 00b2 1B68     		ldr	r3, [r3]
 980 00b4 6F4A     		ldr	r2, .L116
 981 00b6 9342     		cmp	r3, r2
 982 00b8 29D0     		beq	.L62
 983              		.loc 1 531 12 is_stmt 0 discriminator 1
 984 00ba FB68     		ldr	r3, [r7, #12]
 985 00bc 1B68     		ldr	r3, [r3]
 986 00be 6E4A     		ldr	r2, .L116+4
 987 00c0 9342     		cmp	r3, r2
 988 00c2 22D0     		beq	.L63
 989              		.loc 1 531 12 discriminator 3
 990 00c4 FB68     		ldr	r3, [r7, #12]
 991 00c6 1B68     		ldr	r3, [r3]
 992 00c8 6C4A     		ldr	r2, .L116+8
 993 00ca 9342     		cmp	r3, r2
 994 00cc 1AD0     		beq	.L64
 995              		.loc 1 531 12 discriminator 5
 996 00ce FB68     		ldr	r3, [r7, #12]
 997 00d0 1B68     		ldr	r3, [r3]
 998 00d2 6B4A     		ldr	r2, .L116+12
 999 00d4 9342     		cmp	r3, r2
 1000 00d6 12D0     		beq	.L65
 1001              		.loc 1 531 12 discriminator 7
 1002 00d8 FB68     		ldr	r3, [r7, #12]
 1003 00da 1B68     		ldr	r3, [r3]
 1004 00dc 694A     		ldr	r2, .L116+16
 1005 00de 9342     		cmp	r3, r2
 1006 00e0 0AD0     		beq	.L66
 1007              		.loc 1 531 12 discriminator 9
 1008 00e2 FB68     		ldr	r3, [r7, #12]
 1009 00e4 1B68     		ldr	r3, [r3]
 1010 00e6 684A     		ldr	r2, .L116+20
 1011 00e8 9342     		cmp	r3, r2
 1012 00ea 02D1     		bne	.L67
 1013              		.loc 1 531 12 discriminator 11
 1014 00ec 4FF48003 		mov	r3, #4194304
 1015 00f0 0EE0     		b	.L73
 1016              	.L67:
 1017              		.loc 1 531 12 discriminator 12
ARM GAS  C:\Users\mason\AppData\Local\Temp\cc9opaHX.s 			page 28


 1018 00f2 4FF08063 		mov	r3, #67108864
 1019 00f6 0BE0     		b	.L73
 1020              	.L66:
 1021              		.loc 1 531 12 discriminator 10
 1022 00f8 4FF48023 		mov	r3, #262144
 1023 00fc 08E0     		b	.L73
 1024              	.L65:
 1025              		.loc 1 531 12 discriminator 8
 1026 00fe 4FF48043 		mov	r3, #16384
 1027 0102 05E0     		b	.L73
 1028              	.L64:
 1029              		.loc 1 531 12 discriminator 6
 1030 0104 4FF48063 		mov	r3, #1024
 1031 0108 02E0     		b	.L73
 1032              	.L63:
 1033              		.loc 1 531 12 discriminator 4
 1034 010a 4023     		movs	r3, #64
 1035 010c 00E0     		b	.L73
 1036              	.L62:
 1037              		.loc 1 531 12 discriminator 2
 1038 010e 0423     		movs	r3, #4
 1039              	.L73:
 1040              		.loc 1 531 10 is_stmt 1 discriminator 24
 1041 0110 7B61     		str	r3, [r7, #20]
 1042              	.L61:
 532:Drivers/STM32F1xx_HAL_Driver/Src/stm32f1xx_hal_dma.c ****   }
 533:Drivers/STM32F1xx_HAL_Driver/Src/stm32f1xx_hal_dma.c **** 
 534:Drivers/STM32F1xx_HAL_Driver/Src/stm32f1xx_hal_dma.c ****   /* Get tick */
 535:Drivers/STM32F1xx_HAL_Driver/Src/stm32f1xx_hal_dma.c ****   tickstart = HAL_GetTick();
 1043              		.loc 1 535 15
 1044 0112 FFF7FEFF 		bl	HAL_GetTick
 1045 0116 3861     		str	r0, [r7, #16]
 536:Drivers/STM32F1xx_HAL_Driver/Src/stm32f1xx_hal_dma.c **** 
 537:Drivers/STM32F1xx_HAL_Driver/Src/stm32f1xx_hal_dma.c ****   while(__HAL_DMA_GET_FLAG(hdma, temp) == RESET)
 1046              		.loc 1 537 8
 1047 0118 6BE0     		b	.L74
 1048              	.L89:
 538:Drivers/STM32F1xx_HAL_Driver/Src/stm32f1xx_hal_dma.c ****   {
 539:Drivers/STM32F1xx_HAL_Driver/Src/stm32f1xx_hal_dma.c ****     if((__HAL_DMA_GET_FLAG(hdma, __HAL_DMA_GET_TE_FLAG_INDEX(hdma)) != RESET))
 1049              		.loc 1 539 9
 1050 011a 5C4B     		ldr	r3, .L116+24
 1051 011c 1A68     		ldr	r2, [r3]
 1052 011e FB68     		ldr	r3, [r7, #12]
 1053 0120 1B68     		ldr	r3, [r3]
 1054 0122 5449     		ldr	r1, .L116
 1055 0124 8B42     		cmp	r3, r1
 1056 0126 29D0     		beq	.L75
 1057              		.loc 1 539 9 is_stmt 0 discriminator 1
 1058 0128 FB68     		ldr	r3, [r7, #12]
 1059 012a 1B68     		ldr	r3, [r3]
 1060 012c 5249     		ldr	r1, .L116+4
 1061 012e 8B42     		cmp	r3, r1
 1062 0130 22D0     		beq	.L76
 1063              		.loc 1 539 9 discriminator 3
 1064 0132 FB68     		ldr	r3, [r7, #12]
 1065 0134 1B68     		ldr	r3, [r3]
 1066 0136 5149     		ldr	r1, .L116+8
ARM GAS  C:\Users\mason\AppData\Local\Temp\cc9opaHX.s 			page 29


 1067 0138 8B42     		cmp	r3, r1
 1068 013a 1AD0     		beq	.L77
 1069              		.loc 1 539 9 discriminator 5
 1070 013c FB68     		ldr	r3, [r7, #12]
 1071 013e 1B68     		ldr	r3, [r3]
 1072 0140 4F49     		ldr	r1, .L116+12
 1073 0142 8B42     		cmp	r3, r1
 1074 0144 12D0     		beq	.L78
 1075              		.loc 1 539 9 discriminator 7
 1076 0146 FB68     		ldr	r3, [r7, #12]
 1077 0148 1B68     		ldr	r3, [r3]
 1078 014a 4E49     		ldr	r1, .L116+16
 1079 014c 8B42     		cmp	r3, r1
 1080 014e 0AD0     		beq	.L79
 1081              		.loc 1 539 9 discriminator 9
 1082 0150 FB68     		ldr	r3, [r7, #12]
 1083 0152 1B68     		ldr	r3, [r3]
 1084 0154 4C49     		ldr	r1, .L116+20
 1085 0156 8B42     		cmp	r3, r1
 1086 0158 02D1     		bne	.L80
 1087              		.loc 1 539 9 discriminator 11
 1088 015a 4FF40003 		mov	r3, #8388608
 1089 015e 0EE0     		b	.L86
 1090              	.L80:
 1091              		.loc 1 539 9 discriminator 12
 1092 0160 4FF00063 		mov	r3, #134217728
 1093 0164 0BE0     		b	.L86
 1094              	.L79:
 1095              		.loc 1 539 9 discriminator 10
 1096 0166 4FF40023 		mov	r3, #524288
 1097 016a 08E0     		b	.L86
 1098              	.L78:
 1099              		.loc 1 539 9 discriminator 8
 1100 016c 4FF40043 		mov	r3, #32768
 1101 0170 05E0     		b	.L86
 1102              	.L77:
 1103              		.loc 1 539 9 discriminator 6
 1104 0172 4FF40063 		mov	r3, #2048
 1105 0176 02E0     		b	.L86
 1106              	.L76:
 1107              		.loc 1 539 9 discriminator 4
 1108 0178 8023     		movs	r3, #128
 1109 017a 00E0     		b	.L86
 1110              	.L75:
 1111              		.loc 1 539 9 discriminator 2
 1112 017c 0823     		movs	r3, #8
 1113              	.L86:
 1114              		.loc 1 539 9 discriminator 24
 1115 017e 1340     		ands	r3, r3, r2
 1116              		.loc 1 539 7 is_stmt 1 discriminator 24
 1117 0180 002B     		cmp	r3, #0
 1118 0182 17D0     		beq	.L87
 540:Drivers/STM32F1xx_HAL_Driver/Src/stm32f1xx_hal_dma.c ****     {
 541:Drivers/STM32F1xx_HAL_Driver/Src/stm32f1xx_hal_dma.c ****       /* When a DMA transfer error occurs */
 542:Drivers/STM32F1xx_HAL_Driver/Src/stm32f1xx_hal_dma.c ****       /* A hardware clear of its EN bits is performed */
 543:Drivers/STM32F1xx_HAL_Driver/Src/stm32f1xx_hal_dma.c ****       /* Clear all flags */
 544:Drivers/STM32F1xx_HAL_Driver/Src/stm32f1xx_hal_dma.c ****       hdma->DmaBaseAddress->IFCR = (DMA_ISR_GIF1 << hdma->ChannelIndex);
ARM GAS  C:\Users\mason\AppData\Local\Temp\cc9opaHX.s 			page 30


 1119              		.loc 1 544 57
 1120 0184 FB68     		ldr	r3, [r7, #12]
 1121 0186 1A6C     		ldr	r2, [r3, #64]
 1122              		.loc 1 544 11
 1123 0188 FB68     		ldr	r3, [r7, #12]
 1124 018a DB6B     		ldr	r3, [r3, #60]
 1125              		.loc 1 544 50
 1126 018c 0121     		movs	r1, #1
 1127 018e 01FA02F2 		lsl	r2, r1, r2
 1128              		.loc 1 544 34
 1129 0192 5A60     		str	r2, [r3, #4]
 545:Drivers/STM32F1xx_HAL_Driver/Src/stm32f1xx_hal_dma.c **** 
 546:Drivers/STM32F1xx_HAL_Driver/Src/stm32f1xx_hal_dma.c ****       /* Update error code */
 547:Drivers/STM32F1xx_HAL_Driver/Src/stm32f1xx_hal_dma.c ****       SET_BIT(hdma->ErrorCode, HAL_DMA_ERROR_TE);
 1130              		.loc 1 547 7
 1131 0194 FB68     		ldr	r3, [r7, #12]
 1132 0196 9B6B     		ldr	r3, [r3, #56]
 1133 0198 43F00102 		orr	r2, r3, #1
 1134 019c FB68     		ldr	r3, [r7, #12]
 1135 019e 9A63     		str	r2, [r3, #56]
 548:Drivers/STM32F1xx_HAL_Driver/Src/stm32f1xx_hal_dma.c **** 
 549:Drivers/STM32F1xx_HAL_Driver/Src/stm32f1xx_hal_dma.c ****       /* Change the DMA state */
 550:Drivers/STM32F1xx_HAL_Driver/Src/stm32f1xx_hal_dma.c ****       hdma->State= HAL_DMA_STATE_READY;
 1136              		.loc 1 550 18
 1137 01a0 FB68     		ldr	r3, [r7, #12]
 1138 01a2 0122     		movs	r2, #1
 1139 01a4 83F82120 		strb	r2, [r3, #33]
 551:Drivers/STM32F1xx_HAL_Driver/Src/stm32f1xx_hal_dma.c **** 
 552:Drivers/STM32F1xx_HAL_Driver/Src/stm32f1xx_hal_dma.c ****       /* Process Unlocked */
 553:Drivers/STM32F1xx_HAL_Driver/Src/stm32f1xx_hal_dma.c ****       __HAL_UNLOCK(hdma);
 1140              		.loc 1 553 7
 1141 01a8 FB68     		ldr	r3, [r7, #12]
 1142 01aa 0022     		movs	r2, #0
 1143 01ac 83F82020 		strb	r2, [r3, #32]
 554:Drivers/STM32F1xx_HAL_Driver/Src/stm32f1xx_hal_dma.c **** 
 555:Drivers/STM32F1xx_HAL_Driver/Src/stm32f1xx_hal_dma.c ****       return HAL_ERROR;
 1144              		.loc 1 555 14
 1145 01b0 0123     		movs	r3, #1
 1146 01b2 A4E0     		b	.L46
 1147              	.L87:
 556:Drivers/STM32F1xx_HAL_Driver/Src/stm32f1xx_hal_dma.c ****     }
 557:Drivers/STM32F1xx_HAL_Driver/Src/stm32f1xx_hal_dma.c ****     /* Check for the Timeout */
 558:Drivers/STM32F1xx_HAL_Driver/Src/stm32f1xx_hal_dma.c ****     if(Timeout != HAL_MAX_DELAY)
 1148              		.loc 1 558 7
 1149 01b4 7B68     		ldr	r3, [r7, #4]
 1150 01b6 B3F1FF3F 		cmp	r3, #-1
 1151 01ba 1AD0     		beq	.L74
 559:Drivers/STM32F1xx_HAL_Driver/Src/stm32f1xx_hal_dma.c ****     {
 560:Drivers/STM32F1xx_HAL_Driver/Src/stm32f1xx_hal_dma.c ****       if((Timeout == 0U) || ((HAL_GetTick() - tickstart) > Timeout))
 1152              		.loc 1 560 9
 1153 01bc 7B68     		ldr	r3, [r7, #4]
 1154 01be 002B     		cmp	r3, #0
 1155 01c0 07D0     		beq	.L88
 1156              		.loc 1 560 31 discriminator 1
 1157 01c2 FFF7FEFF 		bl	HAL_GetTick
 1158 01c6 0246     		mov	r2, r0
 1159              		.loc 1 560 45 discriminator 1
ARM GAS  C:\Users\mason\AppData\Local\Temp\cc9opaHX.s 			page 31


 1160 01c8 3B69     		ldr	r3, [r7, #16]
 1161 01ca D31A     		subs	r3, r2, r3
 1162              		.loc 1 560 26 discriminator 1
 1163 01cc 7A68     		ldr	r2, [r7, #4]
 1164 01ce 9A42     		cmp	r2, r3
 1165 01d0 0FD2     		bcs	.L74
 1166              	.L88:
 561:Drivers/STM32F1xx_HAL_Driver/Src/stm32f1xx_hal_dma.c ****       {
 562:Drivers/STM32F1xx_HAL_Driver/Src/stm32f1xx_hal_dma.c ****         /* Update error code */
 563:Drivers/STM32F1xx_HAL_Driver/Src/stm32f1xx_hal_dma.c ****         SET_BIT(hdma->ErrorCode, HAL_DMA_ERROR_TIMEOUT);
 1167              		.loc 1 563 9
 1168 01d2 FB68     		ldr	r3, [r7, #12]
 1169 01d4 9B6B     		ldr	r3, [r3, #56]
 1170 01d6 43F02002 		orr	r2, r3, #32
 1171 01da FB68     		ldr	r3, [r7, #12]
 1172 01dc 9A63     		str	r2, [r3, #56]
 564:Drivers/STM32F1xx_HAL_Driver/Src/stm32f1xx_hal_dma.c **** 
 565:Drivers/STM32F1xx_HAL_Driver/Src/stm32f1xx_hal_dma.c ****         /* Change the DMA state */
 566:Drivers/STM32F1xx_HAL_Driver/Src/stm32f1xx_hal_dma.c ****         hdma->State = HAL_DMA_STATE_READY;
 1173              		.loc 1 566 21
 1174 01de FB68     		ldr	r3, [r7, #12]
 1175 01e0 0122     		movs	r2, #1
 1176 01e2 83F82120 		strb	r2, [r3, #33]
 567:Drivers/STM32F1xx_HAL_Driver/Src/stm32f1xx_hal_dma.c **** 
 568:Drivers/STM32F1xx_HAL_Driver/Src/stm32f1xx_hal_dma.c ****         /* Process Unlocked */
 569:Drivers/STM32F1xx_HAL_Driver/Src/stm32f1xx_hal_dma.c ****         __HAL_UNLOCK(hdma);
 1177              		.loc 1 569 9
 1178 01e6 FB68     		ldr	r3, [r7, #12]
 1179 01e8 0022     		movs	r2, #0
 1180 01ea 83F82020 		strb	r2, [r3, #32]
 570:Drivers/STM32F1xx_HAL_Driver/Src/stm32f1xx_hal_dma.c **** 
 571:Drivers/STM32F1xx_HAL_Driver/Src/stm32f1xx_hal_dma.c ****         return HAL_ERROR;
 1181              		.loc 1 571 16
 1182 01ee 0123     		movs	r3, #1
 1183 01f0 85E0     		b	.L46
 1184              	.L74:
 537:Drivers/STM32F1xx_HAL_Driver/Src/stm32f1xx_hal_dma.c ****   {
 1185              		.loc 1 537 9
 1186 01f2 264B     		ldr	r3, .L116+24
 1187 01f4 1A68     		ldr	r2, [r3]
 1188 01f6 7B69     		ldr	r3, [r7, #20]
 1189 01f8 1340     		ands	r3, r3, r2
 537:Drivers/STM32F1xx_HAL_Driver/Src/stm32f1xx_hal_dma.c ****   {
 1190              		.loc 1 537 8
 1191 01fa 002B     		cmp	r3, #0
 1192 01fc 8DD0     		beq	.L89
 572:Drivers/STM32F1xx_HAL_Driver/Src/stm32f1xx_hal_dma.c ****       }
 573:Drivers/STM32F1xx_HAL_Driver/Src/stm32f1xx_hal_dma.c ****     }
 574:Drivers/STM32F1xx_HAL_Driver/Src/stm32f1xx_hal_dma.c ****   }
 575:Drivers/STM32F1xx_HAL_Driver/Src/stm32f1xx_hal_dma.c **** 
 576:Drivers/STM32F1xx_HAL_Driver/Src/stm32f1xx_hal_dma.c ****   if(CompleteLevel == HAL_DMA_FULL_TRANSFER)
 1193              		.loc 1 576 5
 1194 01fe BB68     		ldr	r3, [r7, #8]
 1195 0200 002B     		cmp	r3, #0
 1196 0202 45D1     		bne	.L90
 577:Drivers/STM32F1xx_HAL_Driver/Src/stm32f1xx_hal_dma.c ****   {
 578:Drivers/STM32F1xx_HAL_Driver/Src/stm32f1xx_hal_dma.c ****     /* Clear the transfer complete flag */
ARM GAS  C:\Users\mason\AppData\Local\Temp\cc9opaHX.s 			page 32


 579:Drivers/STM32F1xx_HAL_Driver/Src/stm32f1xx_hal_dma.c ****     __HAL_DMA_CLEAR_FLAG(hdma, __HAL_DMA_GET_TC_FLAG_INDEX(hdma));
 1197              		.loc 1 579 5
 1198 0204 FB68     		ldr	r3, [r7, #12]
 1199 0206 1B68     		ldr	r3, [r3]
 1200 0208 1A4A     		ldr	r2, .L116
 1201 020a 9342     		cmp	r3, r2
 1202 020c 29D0     		beq	.L91
 1203              		.loc 1 579 5 is_stmt 0 discriminator 1
 1204 020e FB68     		ldr	r3, [r7, #12]
 1205 0210 1B68     		ldr	r3, [r3]
 1206 0212 194A     		ldr	r2, .L116+4
 1207 0214 9342     		cmp	r3, r2
 1208 0216 22D0     		beq	.L92
 1209              		.loc 1 579 5 discriminator 3
 1210 0218 FB68     		ldr	r3, [r7, #12]
 1211 021a 1B68     		ldr	r3, [r3]
 1212 021c 174A     		ldr	r2, .L116+8
 1213 021e 9342     		cmp	r3, r2
 1214 0220 1AD0     		beq	.L93
 1215              		.loc 1 579 5 discriminator 5
 1216 0222 FB68     		ldr	r3, [r7, #12]
 1217 0224 1B68     		ldr	r3, [r3]
 1218 0226 164A     		ldr	r2, .L116+12
 1219 0228 9342     		cmp	r3, r2
 1220 022a 12D0     		beq	.L94
 1221              		.loc 1 579 5 discriminator 7
 1222 022c FB68     		ldr	r3, [r7, #12]
 1223 022e 1B68     		ldr	r3, [r3]
 1224 0230 144A     		ldr	r2, .L116+16
 1225 0232 9342     		cmp	r3, r2
 1226 0234 0AD0     		beq	.L95
 1227              		.loc 1 579 5 discriminator 9
 1228 0236 FB68     		ldr	r3, [r7, #12]
 1229 0238 1B68     		ldr	r3, [r3]
 1230 023a 134A     		ldr	r2, .L116+20
 1231 023c 9342     		cmp	r3, r2
 1232 023e 02D1     		bne	.L96
 1233              		.loc 1 579 5 discriminator 11
 1234 0240 4FF40013 		mov	r3, #2097152
 1235 0244 0EE0     		b	.L102
 1236              	.L96:
 1237              		.loc 1 579 5 discriminator 12
 1238 0246 4FF00073 		mov	r3, #33554432
 1239 024a 0BE0     		b	.L102
 1240              	.L95:
 1241              		.loc 1 579 5 discriminator 10
 1242 024c 4FF40033 		mov	r3, #131072
 1243 0250 08E0     		b	.L102
 1244              	.L94:
 1245              		.loc 1 579 5 discriminator 8
 1246 0252 4FF40053 		mov	r3, #8192
 1247 0256 05E0     		b	.L102
 1248              	.L93:
 1249              		.loc 1 579 5 discriminator 6
 1250 0258 4FF40073 		mov	r3, #512
 1251 025c 02E0     		b	.L102
 1252              	.L92:
ARM GAS  C:\Users\mason\AppData\Local\Temp\cc9opaHX.s 			page 33


 1253              		.loc 1 579 5 discriminator 4
 1254 025e 2023     		movs	r3, #32
 1255 0260 00E0     		b	.L102
 1256              	.L91:
 1257              		.loc 1 579 5 discriminator 2
 1258 0262 0223     		movs	r3, #2
 1259              	.L102:
 1260              		.loc 1 579 5 discriminator 24
 1261 0264 094A     		ldr	r2, .L116+24
 1262 0266 5360     		str	r3, [r2, #4]
 580:Drivers/STM32F1xx_HAL_Driver/Src/stm32f1xx_hal_dma.c **** 
 581:Drivers/STM32F1xx_HAL_Driver/Src/stm32f1xx_hal_dma.c ****     /* The selected Channelx EN bit is cleared (DMA is disabled and
 582:Drivers/STM32F1xx_HAL_Driver/Src/stm32f1xx_hal_dma.c ****     all transfers are complete) */
 583:Drivers/STM32F1xx_HAL_Driver/Src/stm32f1xx_hal_dma.c ****     hdma->State = HAL_DMA_STATE_READY;
 1263              		.loc 1 583 17 is_stmt 1 discriminator 24
 1264 0268 FB68     		ldr	r3, [r7, #12]
 1265 026a 0122     		movs	r2, #1
 1266 026c 83F82120 		strb	r2, [r3, #33]
 1267 0270 40E0     		b	.L103
 1268              	.L117:
 1269 0272 00BF     		.align	2
 1270              	.L116:
 1271 0274 08000240 		.word	1073872904
 1272 0278 1C000240 		.word	1073872924
 1273 027c 30000240 		.word	1073872944
 1274 0280 44000240 		.word	1073872964
 1275 0284 58000240 		.word	1073872984
 1276 0288 6C000240 		.word	1073873004
 1277 028c 00000240 		.word	1073872896
 1278              	.L90:
 584:Drivers/STM32F1xx_HAL_Driver/Src/stm32f1xx_hal_dma.c ****   }
 585:Drivers/STM32F1xx_HAL_Driver/Src/stm32f1xx_hal_dma.c ****   else
 586:Drivers/STM32F1xx_HAL_Driver/Src/stm32f1xx_hal_dma.c ****   {
 587:Drivers/STM32F1xx_HAL_Driver/Src/stm32f1xx_hal_dma.c ****     /* Clear the half transfer complete flag */
 588:Drivers/STM32F1xx_HAL_Driver/Src/stm32f1xx_hal_dma.c ****     __HAL_DMA_CLEAR_FLAG(hdma, __HAL_DMA_GET_HT_FLAG_INDEX(hdma));
 1279              		.loc 1 588 5
 1280 0290 FB68     		ldr	r3, [r7, #12]
 1281 0292 1B68     		ldr	r3, [r3]
 1282 0294 1C4A     		ldr	r2, .L118
 1283 0296 9342     		cmp	r3, r2
 1284 0298 29D0     		beq	.L104
 1285              		.loc 1 588 5 is_stmt 0 discriminator 1
 1286 029a FB68     		ldr	r3, [r7, #12]
 1287 029c 1B68     		ldr	r3, [r3]
 1288 029e 1B4A     		ldr	r2, .L118+4
 1289 02a0 9342     		cmp	r3, r2
 1290 02a2 22D0     		beq	.L105
 1291              		.loc 1 588 5 discriminator 3
 1292 02a4 FB68     		ldr	r3, [r7, #12]
 1293 02a6 1B68     		ldr	r3, [r3]
 1294 02a8 194A     		ldr	r2, .L118+8
 1295 02aa 9342     		cmp	r3, r2
 1296 02ac 1AD0     		beq	.L106
 1297              		.loc 1 588 5 discriminator 5
 1298 02ae FB68     		ldr	r3, [r7, #12]
 1299 02b0 1B68     		ldr	r3, [r3]
 1300 02b2 184A     		ldr	r2, .L118+12
ARM GAS  C:\Users\mason\AppData\Local\Temp\cc9opaHX.s 			page 34


 1301 02b4 9342     		cmp	r3, r2
 1302 02b6 12D0     		beq	.L107
 1303              		.loc 1 588 5 discriminator 7
 1304 02b8 FB68     		ldr	r3, [r7, #12]
 1305 02ba 1B68     		ldr	r3, [r3]
 1306 02bc 164A     		ldr	r2, .L118+16
 1307 02be 9342     		cmp	r3, r2
 1308 02c0 0AD0     		beq	.L108
 1309              		.loc 1 588 5 discriminator 9
 1310 02c2 FB68     		ldr	r3, [r7, #12]
 1311 02c4 1B68     		ldr	r3, [r3]
 1312 02c6 154A     		ldr	r2, .L118+20
 1313 02c8 9342     		cmp	r3, r2
 1314 02ca 02D1     		bne	.L109
 1315              		.loc 1 588 5 discriminator 11
 1316 02cc 4FF48003 		mov	r3, #4194304
 1317 02d0 0EE0     		b	.L115
 1318              	.L109:
 1319              		.loc 1 588 5 discriminator 12
 1320 02d2 4FF08063 		mov	r3, #67108864
 1321 02d6 0BE0     		b	.L115
 1322              	.L108:
 1323              		.loc 1 588 5 discriminator 10
 1324 02d8 4FF48023 		mov	r3, #262144
 1325 02dc 08E0     		b	.L115
 1326              	.L107:
 1327              		.loc 1 588 5 discriminator 8
 1328 02de 4FF48043 		mov	r3, #16384
 1329 02e2 05E0     		b	.L115
 1330              	.L106:
 1331              		.loc 1 588 5 discriminator 6
 1332 02e4 4FF48063 		mov	r3, #1024
 1333 02e8 02E0     		b	.L115
 1334              	.L105:
 1335              		.loc 1 588 5 discriminator 4
 1336 02ea 4023     		movs	r3, #64
 1337 02ec 00E0     		b	.L115
 1338              	.L104:
 1339              		.loc 1 588 5 discriminator 2
 1340 02ee 0423     		movs	r3, #4
 1341              	.L115:
 1342              		.loc 1 588 5 discriminator 24
 1343 02f0 0B4A     		ldr	r2, .L118+24
 1344 02f2 5360     		str	r3, [r2, #4]
 1345              	.L103:
 589:Drivers/STM32F1xx_HAL_Driver/Src/stm32f1xx_hal_dma.c ****   }
 590:Drivers/STM32F1xx_HAL_Driver/Src/stm32f1xx_hal_dma.c ****   
 591:Drivers/STM32F1xx_HAL_Driver/Src/stm32f1xx_hal_dma.c ****   /* Process unlocked */
 592:Drivers/STM32F1xx_HAL_Driver/Src/stm32f1xx_hal_dma.c ****   __HAL_UNLOCK(hdma);
 1346              		.loc 1 592 3 is_stmt 1
 1347 02f4 FB68     		ldr	r3, [r7, #12]
 1348 02f6 0022     		movs	r2, #0
 1349 02f8 83F82020 		strb	r2, [r3, #32]
 593:Drivers/STM32F1xx_HAL_Driver/Src/stm32f1xx_hal_dma.c **** 
 594:Drivers/STM32F1xx_HAL_Driver/Src/stm32f1xx_hal_dma.c ****   return HAL_OK;
 1350              		.loc 1 594 10
 1351 02fc 0023     		movs	r3, #0
ARM GAS  C:\Users\mason\AppData\Local\Temp\cc9opaHX.s 			page 35


 1352              	.L46:
 595:Drivers/STM32F1xx_HAL_Driver/Src/stm32f1xx_hal_dma.c **** }
 1353              		.loc 1 595 1
 1354 02fe 1846     		mov	r0, r3
 1355 0300 1837     		adds	r7, r7, #24
 1356              	.LCFI36:
 1357              		.cfi_def_cfa_offset 8
 1358 0302 BD46     		mov	sp, r7
 1359              	.LCFI37:
 1360              		.cfi_def_cfa_register 13
 1361              		@ sp needed
 1362 0304 80BD     		pop	{r7, pc}
 1363              	.L119:
 1364 0306 00BF     		.align	2
 1365              	.L118:
 1366 0308 08000240 		.word	1073872904
 1367 030c 1C000240 		.word	1073872924
 1368 0310 30000240 		.word	1073872944
 1369 0314 44000240 		.word	1073872964
 1370 0318 58000240 		.word	1073872984
 1371 031c 6C000240 		.word	1073873004
 1372 0320 00000240 		.word	1073872896
 1373              		.cfi_endproc
 1374              	.LFE71:
 1376              		.section	.text.HAL_DMA_IRQHandler,"ax",%progbits
 1377              		.align	1
 1378              		.global	HAL_DMA_IRQHandler
 1379              		.syntax unified
 1380              		.thumb
 1381              		.thumb_func
 1383              	HAL_DMA_IRQHandler:
 1384              	.LFB72:
 596:Drivers/STM32F1xx_HAL_Driver/Src/stm32f1xx_hal_dma.c **** 
 597:Drivers/STM32F1xx_HAL_Driver/Src/stm32f1xx_hal_dma.c **** /**
 598:Drivers/STM32F1xx_HAL_Driver/Src/stm32f1xx_hal_dma.c ****   * @brief  Handles DMA interrupt request.
 599:Drivers/STM32F1xx_HAL_Driver/Src/stm32f1xx_hal_dma.c ****   * @param  hdma: pointer to a DMA_HandleTypeDef structure that contains
 600:Drivers/STM32F1xx_HAL_Driver/Src/stm32f1xx_hal_dma.c ****   *               the configuration information for the specified DMA Channel.  
 601:Drivers/STM32F1xx_HAL_Driver/Src/stm32f1xx_hal_dma.c ****   * @retval None
 602:Drivers/STM32F1xx_HAL_Driver/Src/stm32f1xx_hal_dma.c ****   */
 603:Drivers/STM32F1xx_HAL_Driver/Src/stm32f1xx_hal_dma.c **** void HAL_DMA_IRQHandler(DMA_HandleTypeDef *hdma)
 604:Drivers/STM32F1xx_HAL_Driver/Src/stm32f1xx_hal_dma.c **** {
 1385              		.loc 1 604 1
 1386              		.cfi_startproc
 1387              		@ args = 0, pretend = 0, frame = 16
 1388              		@ frame_needed = 1, uses_anonymous_args = 0
 1389 0000 80B5     		push	{r7, lr}
 1390              	.LCFI38:
 1391              		.cfi_def_cfa_offset 8
 1392              		.cfi_offset 7, -8
 1393              		.cfi_offset 14, -4
 1394 0002 84B0     		sub	sp, sp, #16
 1395              	.LCFI39:
 1396              		.cfi_def_cfa_offset 24
 1397 0004 00AF     		add	r7, sp, #0
 1398              	.LCFI40:
 1399              		.cfi_def_cfa_register 7
 1400 0006 7860     		str	r0, [r7, #4]
ARM GAS  C:\Users\mason\AppData\Local\Temp\cc9opaHX.s 			page 36


 605:Drivers/STM32F1xx_HAL_Driver/Src/stm32f1xx_hal_dma.c ****   uint32_t flag_it = hdma->DmaBaseAddress->ISR;
 1401              		.loc 1 605 26
 1402 0008 7B68     		ldr	r3, [r7, #4]
 1403 000a DB6B     		ldr	r3, [r3, #60]
 1404              		.loc 1 605 12
 1405 000c 1B68     		ldr	r3, [r3]
 1406 000e FB60     		str	r3, [r7, #12]
 606:Drivers/STM32F1xx_HAL_Driver/Src/stm32f1xx_hal_dma.c ****   uint32_t source_it = hdma->Instance->CCR;
 1407              		.loc 1 606 28
 1408 0010 7B68     		ldr	r3, [r7, #4]
 1409 0012 1B68     		ldr	r3, [r3]
 1410              		.loc 1 606 12
 1411 0014 1B68     		ldr	r3, [r3]
 1412 0016 BB60     		str	r3, [r7, #8]
 607:Drivers/STM32F1xx_HAL_Driver/Src/stm32f1xx_hal_dma.c ****   
 608:Drivers/STM32F1xx_HAL_Driver/Src/stm32f1xx_hal_dma.c ****   /* Half Transfer Complete Interrupt management ******************************/
 609:Drivers/STM32F1xx_HAL_Driver/Src/stm32f1xx_hal_dma.c ****   if (((flag_it & (DMA_FLAG_HT1 << hdma->ChannelIndex)) != RESET) && ((source_it & DMA_IT_HT) != RE
 1413              		.loc 1 609 40
 1414 0018 7B68     		ldr	r3, [r7, #4]
 1415 001a 1B6C     		ldr	r3, [r3, #64]
 1416              		.loc 1 609 33
 1417 001c 0422     		movs	r2, #4
 1418 001e 9A40     		lsls	r2, r2, r3
 1419              		.loc 1 609 17
 1420 0020 FB68     		ldr	r3, [r7, #12]
 1421 0022 1340     		ands	r3, r3, r2
 1422              		.loc 1 609 6
 1423 0024 002B     		cmp	r3, #0
 1424 0026 4FD0     		beq	.L121
 1425              		.loc 1 609 82 discriminator 1
 1426 0028 BB68     		ldr	r3, [r7, #8]
 1427 002a 03F00403 		and	r3, r3, #4
 1428              		.loc 1 609 67 discriminator 1
 1429 002e 002B     		cmp	r3, #0
 1430 0030 4AD0     		beq	.L121
 610:Drivers/STM32F1xx_HAL_Driver/Src/stm32f1xx_hal_dma.c ****   {
 611:Drivers/STM32F1xx_HAL_Driver/Src/stm32f1xx_hal_dma.c ****     /* Disable the half transfer interrupt if the DMA mode is not CIRCULAR */
 612:Drivers/STM32F1xx_HAL_Driver/Src/stm32f1xx_hal_dma.c ****     if((hdma->Instance->CCR & DMA_CCR_CIRC) == 0U)
 1431              		.loc 1 612 13
 1432 0032 7B68     		ldr	r3, [r7, #4]
 1433 0034 1B68     		ldr	r3, [r3]
 1434              		.loc 1 612 23
 1435 0036 1B68     		ldr	r3, [r3]
 1436              		.loc 1 612 29
 1437 0038 03F02003 		and	r3, r3, #32
 1438              		.loc 1 612 7
 1439 003c 002B     		cmp	r3, #0
 1440 003e 07D1     		bne	.L122
 613:Drivers/STM32F1xx_HAL_Driver/Src/stm32f1xx_hal_dma.c ****     {
 614:Drivers/STM32F1xx_HAL_Driver/Src/stm32f1xx_hal_dma.c ****       /* Disable the half transfer interrupt */
 615:Drivers/STM32F1xx_HAL_Driver/Src/stm32f1xx_hal_dma.c ****       __HAL_DMA_DISABLE_IT(hdma, DMA_IT_HT);
 1441              		.loc 1 615 7
 1442 0040 7B68     		ldr	r3, [r7, #4]
 1443 0042 1B68     		ldr	r3, [r3]
 1444 0044 1A68     		ldr	r2, [r3]
 1445 0046 7B68     		ldr	r3, [r7, #4]
 1446 0048 1B68     		ldr	r3, [r3]
ARM GAS  C:\Users\mason\AppData\Local\Temp\cc9opaHX.s 			page 37


 1447 004a 22F00402 		bic	r2, r2, #4
 1448 004e 1A60     		str	r2, [r3]
 1449              	.L122:
 616:Drivers/STM32F1xx_HAL_Driver/Src/stm32f1xx_hal_dma.c ****     }
 617:Drivers/STM32F1xx_HAL_Driver/Src/stm32f1xx_hal_dma.c ****     /* Clear the half transfer complete flag */
 618:Drivers/STM32F1xx_HAL_Driver/Src/stm32f1xx_hal_dma.c ****     __HAL_DMA_CLEAR_FLAG(hdma, __HAL_DMA_GET_HT_FLAG_INDEX(hdma));
 1450              		.loc 1 618 5
 1451 0050 7B68     		ldr	r3, [r7, #4]
 1452 0052 1B68     		ldr	r3, [r3]
 1453 0054 664A     		ldr	r2, .L154
 1454 0056 9342     		cmp	r3, r2
 1455 0058 29D0     		beq	.L123
 1456              		.loc 1 618 5 is_stmt 0 discriminator 1
 1457 005a 7B68     		ldr	r3, [r7, #4]
 1458 005c 1B68     		ldr	r3, [r3]
 1459 005e 654A     		ldr	r2, .L154+4
 1460 0060 9342     		cmp	r3, r2
 1461 0062 22D0     		beq	.L124
 1462              		.loc 1 618 5 discriminator 3
 1463 0064 7B68     		ldr	r3, [r7, #4]
 1464 0066 1B68     		ldr	r3, [r3]
 1465 0068 634A     		ldr	r2, .L154+8
 1466 006a 9342     		cmp	r3, r2
 1467 006c 1AD0     		beq	.L125
 1468              		.loc 1 618 5 discriminator 5
 1469 006e 7B68     		ldr	r3, [r7, #4]
 1470 0070 1B68     		ldr	r3, [r3]
 1471 0072 624A     		ldr	r2, .L154+12
 1472 0074 9342     		cmp	r3, r2
 1473 0076 12D0     		beq	.L126
 1474              		.loc 1 618 5 discriminator 7
 1475 0078 7B68     		ldr	r3, [r7, #4]
 1476 007a 1B68     		ldr	r3, [r3]
 1477 007c 604A     		ldr	r2, .L154+16
 1478 007e 9342     		cmp	r3, r2
 1479 0080 0AD0     		beq	.L127
 1480              		.loc 1 618 5 discriminator 9
 1481 0082 7B68     		ldr	r3, [r7, #4]
 1482 0084 1B68     		ldr	r3, [r3]
 1483 0086 5F4A     		ldr	r2, .L154+20
 1484 0088 9342     		cmp	r3, r2
 1485 008a 02D1     		bne	.L128
 1486              		.loc 1 618 5 discriminator 11
 1487 008c 4FF48003 		mov	r3, #4194304
 1488 0090 0EE0     		b	.L134
 1489              	.L128:
 1490              		.loc 1 618 5 discriminator 12
 1491 0092 4FF08063 		mov	r3, #67108864
 1492 0096 0BE0     		b	.L134
 1493              	.L127:
 1494              		.loc 1 618 5 discriminator 10
 1495 0098 4FF48023 		mov	r3, #262144
 1496 009c 08E0     		b	.L134
 1497              	.L126:
 1498              		.loc 1 618 5 discriminator 8
 1499 009e 4FF48043 		mov	r3, #16384
 1500 00a2 05E0     		b	.L134
ARM GAS  C:\Users\mason\AppData\Local\Temp\cc9opaHX.s 			page 38


 1501              	.L125:
 1502              		.loc 1 618 5 discriminator 6
 1503 00a4 4FF48063 		mov	r3, #1024
 1504 00a8 02E0     		b	.L134
 1505              	.L124:
 1506              		.loc 1 618 5 discriminator 4
 1507 00aa 4023     		movs	r3, #64
 1508 00ac 00E0     		b	.L134
 1509              	.L123:
 1510              		.loc 1 618 5 discriminator 2
 1511 00ae 0423     		movs	r3, #4
 1512              	.L134:
 1513              		.loc 1 618 5 discriminator 24
 1514 00b0 554A     		ldr	r2, .L154+24
 1515 00b2 5360     		str	r3, [r2, #4]
 619:Drivers/STM32F1xx_HAL_Driver/Src/stm32f1xx_hal_dma.c **** 
 620:Drivers/STM32F1xx_HAL_Driver/Src/stm32f1xx_hal_dma.c ****     /* DMA peripheral state is not updated in Half Transfer */
 621:Drivers/STM32F1xx_HAL_Driver/Src/stm32f1xx_hal_dma.c ****     /* but in Transfer Complete case */
 622:Drivers/STM32F1xx_HAL_Driver/Src/stm32f1xx_hal_dma.c **** 
 623:Drivers/STM32F1xx_HAL_Driver/Src/stm32f1xx_hal_dma.c ****     if(hdma->XferHalfCpltCallback != NULL)
 1516              		.loc 1 623 12 is_stmt 1 discriminator 24
 1517 00b4 7B68     		ldr	r3, [r7, #4]
 1518 00b6 DB6A     		ldr	r3, [r3, #44]
 1519              		.loc 1 623 7 discriminator 24
 1520 00b8 002B     		cmp	r3, #0
 1521 00ba 00F09480 		beq	.L136
 624:Drivers/STM32F1xx_HAL_Driver/Src/stm32f1xx_hal_dma.c ****     {
 625:Drivers/STM32F1xx_HAL_Driver/Src/stm32f1xx_hal_dma.c ****       /* Half transfer callback */
 626:Drivers/STM32F1xx_HAL_Driver/Src/stm32f1xx_hal_dma.c ****       hdma->XferHalfCpltCallback(hdma);
 1522              		.loc 1 626 11
 1523 00be 7B68     		ldr	r3, [r7, #4]
 1524 00c0 DB6A     		ldr	r3, [r3, #44]
 1525              		.loc 1 626 7
 1526 00c2 7868     		ldr	r0, [r7, #4]
 1527 00c4 9847     		blx	r3
 1528              	.LVL1:
 623:Drivers/STM32F1xx_HAL_Driver/Src/stm32f1xx_hal_dma.c ****     {
 1529              		.loc 1 623 7
 1530 00c6 8EE0     		b	.L136
 1531              	.L121:
 627:Drivers/STM32F1xx_HAL_Driver/Src/stm32f1xx_hal_dma.c ****     }
 628:Drivers/STM32F1xx_HAL_Driver/Src/stm32f1xx_hal_dma.c ****   }
 629:Drivers/STM32F1xx_HAL_Driver/Src/stm32f1xx_hal_dma.c **** 
 630:Drivers/STM32F1xx_HAL_Driver/Src/stm32f1xx_hal_dma.c ****   /* Transfer Complete Interrupt management ***********************************/
 631:Drivers/STM32F1xx_HAL_Driver/Src/stm32f1xx_hal_dma.c ****   else if (((flag_it & (DMA_FLAG_TC1 << hdma->ChannelIndex)) != RESET) && ((source_it & DMA_IT_TC) 
 1532              		.loc 1 631 45
 1533 00c8 7B68     		ldr	r3, [r7, #4]
 1534 00ca 1B6C     		ldr	r3, [r3, #64]
 1535              		.loc 1 631 38
 1536 00cc 0222     		movs	r2, #2
 1537 00ce 9A40     		lsls	r2, r2, r3
 1538              		.loc 1 631 22
 1539 00d0 FB68     		ldr	r3, [r7, #12]
 1540 00d2 1340     		ands	r3, r3, r2
 1541              		.loc 1 631 11
 1542 00d4 002B     		cmp	r3, #0
 1543 00d6 56D0     		beq	.L137
ARM GAS  C:\Users\mason\AppData\Local\Temp\cc9opaHX.s 			page 39


 1544              		.loc 1 631 87 discriminator 1
 1545 00d8 BB68     		ldr	r3, [r7, #8]
 1546 00da 03F00203 		and	r3, r3, #2
 1547              		.loc 1 631 72 discriminator 1
 1548 00de 002B     		cmp	r3, #0
 1549 00e0 51D0     		beq	.L137
 632:Drivers/STM32F1xx_HAL_Driver/Src/stm32f1xx_hal_dma.c ****   {
 633:Drivers/STM32F1xx_HAL_Driver/Src/stm32f1xx_hal_dma.c ****     if((hdma->Instance->CCR & DMA_CCR_CIRC) == 0U)
 1550              		.loc 1 633 13
 1551 00e2 7B68     		ldr	r3, [r7, #4]
 1552 00e4 1B68     		ldr	r3, [r3]
 1553              		.loc 1 633 23
 1554 00e6 1B68     		ldr	r3, [r3]
 1555              		.loc 1 633 29
 1556 00e8 03F02003 		and	r3, r3, #32
 1557              		.loc 1 633 7
 1558 00ec 002B     		cmp	r3, #0
 1559 00ee 0BD1     		bne	.L138
 634:Drivers/STM32F1xx_HAL_Driver/Src/stm32f1xx_hal_dma.c ****     {
 635:Drivers/STM32F1xx_HAL_Driver/Src/stm32f1xx_hal_dma.c ****       /* Disable the transfer complete and error interrupt */
 636:Drivers/STM32F1xx_HAL_Driver/Src/stm32f1xx_hal_dma.c ****       __HAL_DMA_DISABLE_IT(hdma, DMA_IT_TE | DMA_IT_TC);  
 1560              		.loc 1 636 7
 1561 00f0 7B68     		ldr	r3, [r7, #4]
 1562 00f2 1B68     		ldr	r3, [r3]
 1563 00f4 1A68     		ldr	r2, [r3]
 1564 00f6 7B68     		ldr	r3, [r7, #4]
 1565 00f8 1B68     		ldr	r3, [r3]
 1566 00fa 22F00A02 		bic	r2, r2, #10
 1567 00fe 1A60     		str	r2, [r3]
 637:Drivers/STM32F1xx_HAL_Driver/Src/stm32f1xx_hal_dma.c **** 
 638:Drivers/STM32F1xx_HAL_Driver/Src/stm32f1xx_hal_dma.c ****       /* Change the DMA state */
 639:Drivers/STM32F1xx_HAL_Driver/Src/stm32f1xx_hal_dma.c ****       hdma->State = HAL_DMA_STATE_READY;
 1568              		.loc 1 639 19
 1569 0100 7B68     		ldr	r3, [r7, #4]
 1570 0102 0122     		movs	r2, #1
 1571 0104 83F82120 		strb	r2, [r3, #33]
 1572              	.L138:
 640:Drivers/STM32F1xx_HAL_Driver/Src/stm32f1xx_hal_dma.c ****     }
 641:Drivers/STM32F1xx_HAL_Driver/Src/stm32f1xx_hal_dma.c ****     /* Clear the transfer complete flag */
 642:Drivers/STM32F1xx_HAL_Driver/Src/stm32f1xx_hal_dma.c ****       __HAL_DMA_CLEAR_FLAG(hdma, __HAL_DMA_GET_TC_FLAG_INDEX(hdma));
 1573              		.loc 1 642 7
 1574 0108 7B68     		ldr	r3, [r7, #4]
 1575 010a 1B68     		ldr	r3, [r3]
 1576 010c 384A     		ldr	r2, .L154
 1577 010e 9342     		cmp	r3, r2
 1578 0110 29D0     		beq	.L139
 1579              		.loc 1 642 7 is_stmt 0 discriminator 1
 1580 0112 7B68     		ldr	r3, [r7, #4]
 1581 0114 1B68     		ldr	r3, [r3]
 1582 0116 374A     		ldr	r2, .L154+4
 1583 0118 9342     		cmp	r3, r2
 1584 011a 22D0     		beq	.L140
 1585              		.loc 1 642 7 discriminator 3
 1586 011c 7B68     		ldr	r3, [r7, #4]
 1587 011e 1B68     		ldr	r3, [r3]
 1588 0120 354A     		ldr	r2, .L154+8
 1589 0122 9342     		cmp	r3, r2
ARM GAS  C:\Users\mason\AppData\Local\Temp\cc9opaHX.s 			page 40


 1590 0124 1AD0     		beq	.L141
 1591              		.loc 1 642 7 discriminator 5
 1592 0126 7B68     		ldr	r3, [r7, #4]
 1593 0128 1B68     		ldr	r3, [r3]
 1594 012a 344A     		ldr	r2, .L154+12
 1595 012c 9342     		cmp	r3, r2
 1596 012e 12D0     		beq	.L142
 1597              		.loc 1 642 7 discriminator 7
 1598 0130 7B68     		ldr	r3, [r7, #4]
 1599 0132 1B68     		ldr	r3, [r3]
 1600 0134 324A     		ldr	r2, .L154+16
 1601 0136 9342     		cmp	r3, r2
 1602 0138 0AD0     		beq	.L143
 1603              		.loc 1 642 7 discriminator 9
 1604 013a 7B68     		ldr	r3, [r7, #4]
 1605 013c 1B68     		ldr	r3, [r3]
 1606 013e 314A     		ldr	r2, .L154+20
 1607 0140 9342     		cmp	r3, r2
 1608 0142 02D1     		bne	.L144
 1609              		.loc 1 642 7 discriminator 11
 1610 0144 4FF40013 		mov	r3, #2097152
 1611 0148 0EE0     		b	.L150
 1612              	.L144:
 1613              		.loc 1 642 7 discriminator 12
 1614 014a 4FF00073 		mov	r3, #33554432
 1615 014e 0BE0     		b	.L150
 1616              	.L143:
 1617              		.loc 1 642 7 discriminator 10
 1618 0150 4FF40033 		mov	r3, #131072
 1619 0154 08E0     		b	.L150
 1620              	.L142:
 1621              		.loc 1 642 7 discriminator 8
 1622 0156 4FF40053 		mov	r3, #8192
 1623 015a 05E0     		b	.L150
 1624              	.L141:
 1625              		.loc 1 642 7 discriminator 6
 1626 015c 4FF40073 		mov	r3, #512
 1627 0160 02E0     		b	.L150
 1628              	.L140:
 1629              		.loc 1 642 7 discriminator 4
 1630 0162 2023     		movs	r3, #32
 1631 0164 00E0     		b	.L150
 1632              	.L139:
 1633              		.loc 1 642 7 discriminator 2
 1634 0166 0223     		movs	r3, #2
 1635              	.L150:
 1636              		.loc 1 642 7 discriminator 24
 1637 0168 274A     		ldr	r2, .L154+24
 1638 016a 5360     		str	r3, [r2, #4]
 643:Drivers/STM32F1xx_HAL_Driver/Src/stm32f1xx_hal_dma.c **** 
 644:Drivers/STM32F1xx_HAL_Driver/Src/stm32f1xx_hal_dma.c ****     /* Process Unlocked */
 645:Drivers/STM32F1xx_HAL_Driver/Src/stm32f1xx_hal_dma.c ****     __HAL_UNLOCK(hdma);
 1639              		.loc 1 645 5 is_stmt 1 discriminator 24
 1640 016c 7B68     		ldr	r3, [r7, #4]
 1641 016e 0022     		movs	r2, #0
 1642 0170 83F82020 		strb	r2, [r3, #32]
 646:Drivers/STM32F1xx_HAL_Driver/Src/stm32f1xx_hal_dma.c **** 
ARM GAS  C:\Users\mason\AppData\Local\Temp\cc9opaHX.s 			page 41


 647:Drivers/STM32F1xx_HAL_Driver/Src/stm32f1xx_hal_dma.c ****     if(hdma->XferCpltCallback != NULL)
 1643              		.loc 1 647 12 discriminator 24
 1644 0174 7B68     		ldr	r3, [r7, #4]
 1645 0176 9B6A     		ldr	r3, [r3, #40]
 1646              		.loc 1 647 7 discriminator 24
 1647 0178 002B     		cmp	r3, #0
 1648 017a 34D0     		beq	.L136
 648:Drivers/STM32F1xx_HAL_Driver/Src/stm32f1xx_hal_dma.c ****     {
 649:Drivers/STM32F1xx_HAL_Driver/Src/stm32f1xx_hal_dma.c ****       /* Transfer complete callback */
 650:Drivers/STM32F1xx_HAL_Driver/Src/stm32f1xx_hal_dma.c ****       hdma->XferCpltCallback(hdma);
 1649              		.loc 1 650 11
 1650 017c 7B68     		ldr	r3, [r7, #4]
 1651 017e 9B6A     		ldr	r3, [r3, #40]
 1652              		.loc 1 650 7
 1653 0180 7868     		ldr	r0, [r7, #4]
 1654 0182 9847     		blx	r3
 1655              	.LVL2:
 647:Drivers/STM32F1xx_HAL_Driver/Src/stm32f1xx_hal_dma.c ****     {
 1656              		.loc 1 647 7
 1657 0184 2FE0     		b	.L136
 1658              	.L137:
 651:Drivers/STM32F1xx_HAL_Driver/Src/stm32f1xx_hal_dma.c ****     }
 652:Drivers/STM32F1xx_HAL_Driver/Src/stm32f1xx_hal_dma.c ****   }
 653:Drivers/STM32F1xx_HAL_Driver/Src/stm32f1xx_hal_dma.c **** 
 654:Drivers/STM32F1xx_HAL_Driver/Src/stm32f1xx_hal_dma.c ****   /* Transfer Error Interrupt management **************************************/
 655:Drivers/STM32F1xx_HAL_Driver/Src/stm32f1xx_hal_dma.c ****   else if (( RESET != (flag_it & (DMA_FLAG_TE1 << hdma->ChannelIndex))) && (RESET != (source_it & D
 1659              		.loc 1 655 55
 1660 0186 7B68     		ldr	r3, [r7, #4]
 1661 0188 1B6C     		ldr	r3, [r3, #64]
 1662              		.loc 1 655 48
 1663 018a 0822     		movs	r2, #8
 1664 018c 9A40     		lsls	r2, r2, r3
 1665              		.loc 1 655 32
 1666 018e FB68     		ldr	r3, [r7, #12]
 1667 0190 1340     		ands	r3, r3, r2
 1668              		.loc 1 655 11
 1669 0192 002B     		cmp	r3, #0
 1670 0194 28D0     		beq	.L153
 1671              		.loc 1 655 97 discriminator 1
 1672 0196 BB68     		ldr	r3, [r7, #8]
 1673 0198 03F00803 		and	r3, r3, #8
 1674              		.loc 1 655 73 discriminator 1
 1675 019c 002B     		cmp	r3, #0
 1676 019e 23D0     		beq	.L153
 656:Drivers/STM32F1xx_HAL_Driver/Src/stm32f1xx_hal_dma.c ****   {
 657:Drivers/STM32F1xx_HAL_Driver/Src/stm32f1xx_hal_dma.c ****     /* When a DMA transfer error occurs */
 658:Drivers/STM32F1xx_HAL_Driver/Src/stm32f1xx_hal_dma.c ****     /* A hardware clear of its EN bits is performed */
 659:Drivers/STM32F1xx_HAL_Driver/Src/stm32f1xx_hal_dma.c ****     /* Disable ALL DMA IT */
 660:Drivers/STM32F1xx_HAL_Driver/Src/stm32f1xx_hal_dma.c ****     __HAL_DMA_DISABLE_IT(hdma, (DMA_IT_TC | DMA_IT_HT | DMA_IT_TE));
 1677              		.loc 1 660 5
 1678 01a0 7B68     		ldr	r3, [r7, #4]
 1679 01a2 1B68     		ldr	r3, [r3]
 1680 01a4 1A68     		ldr	r2, [r3]
 1681 01a6 7B68     		ldr	r3, [r7, #4]
 1682 01a8 1B68     		ldr	r3, [r3]
 1683 01aa 22F00E02 		bic	r2, r2, #14
 1684 01ae 1A60     		str	r2, [r3]
ARM GAS  C:\Users\mason\AppData\Local\Temp\cc9opaHX.s 			page 42


 661:Drivers/STM32F1xx_HAL_Driver/Src/stm32f1xx_hal_dma.c **** 
 662:Drivers/STM32F1xx_HAL_Driver/Src/stm32f1xx_hal_dma.c ****     /* Clear all flags */
 663:Drivers/STM32F1xx_HAL_Driver/Src/stm32f1xx_hal_dma.c ****     hdma->DmaBaseAddress->IFCR = (DMA_ISR_GIF1 << hdma->ChannelIndex);
 1685              		.loc 1 663 55
 1686 01b0 7B68     		ldr	r3, [r7, #4]
 1687 01b2 1A6C     		ldr	r2, [r3, #64]
 1688              		.loc 1 663 9
 1689 01b4 7B68     		ldr	r3, [r7, #4]
 1690 01b6 DB6B     		ldr	r3, [r3, #60]
 1691              		.loc 1 663 48
 1692 01b8 0121     		movs	r1, #1
 1693 01ba 01FA02F2 		lsl	r2, r1, r2
 1694              		.loc 1 663 32
 1695 01be 5A60     		str	r2, [r3, #4]
 664:Drivers/STM32F1xx_HAL_Driver/Src/stm32f1xx_hal_dma.c **** 
 665:Drivers/STM32F1xx_HAL_Driver/Src/stm32f1xx_hal_dma.c ****     /* Update error code */
 666:Drivers/STM32F1xx_HAL_Driver/Src/stm32f1xx_hal_dma.c ****     hdma->ErrorCode = HAL_DMA_ERROR_TE;
 1696              		.loc 1 666 21
 1697 01c0 7B68     		ldr	r3, [r7, #4]
 1698 01c2 0122     		movs	r2, #1
 1699 01c4 9A63     		str	r2, [r3, #56]
 667:Drivers/STM32F1xx_HAL_Driver/Src/stm32f1xx_hal_dma.c **** 
 668:Drivers/STM32F1xx_HAL_Driver/Src/stm32f1xx_hal_dma.c ****     /* Change the DMA state */
 669:Drivers/STM32F1xx_HAL_Driver/Src/stm32f1xx_hal_dma.c ****     hdma->State = HAL_DMA_STATE_READY;
 1700              		.loc 1 669 17
 1701 01c6 7B68     		ldr	r3, [r7, #4]
 1702 01c8 0122     		movs	r2, #1
 1703 01ca 83F82120 		strb	r2, [r3, #33]
 670:Drivers/STM32F1xx_HAL_Driver/Src/stm32f1xx_hal_dma.c **** 
 671:Drivers/STM32F1xx_HAL_Driver/Src/stm32f1xx_hal_dma.c ****     /* Process Unlocked */
 672:Drivers/STM32F1xx_HAL_Driver/Src/stm32f1xx_hal_dma.c ****     __HAL_UNLOCK(hdma);
 1704              		.loc 1 672 5
 1705 01ce 7B68     		ldr	r3, [r7, #4]
 1706 01d0 0022     		movs	r2, #0
 1707 01d2 83F82020 		strb	r2, [r3, #32]
 673:Drivers/STM32F1xx_HAL_Driver/Src/stm32f1xx_hal_dma.c **** 
 674:Drivers/STM32F1xx_HAL_Driver/Src/stm32f1xx_hal_dma.c ****     if (hdma->XferErrorCallback != NULL)
 1708              		.loc 1 674 13
 1709 01d6 7B68     		ldr	r3, [r7, #4]
 1710 01d8 1B6B     		ldr	r3, [r3, #48]
 1711              		.loc 1 674 8
 1712 01da 002B     		cmp	r3, #0
 1713 01dc 04D0     		beq	.L153
 675:Drivers/STM32F1xx_HAL_Driver/Src/stm32f1xx_hal_dma.c ****     {
 676:Drivers/STM32F1xx_HAL_Driver/Src/stm32f1xx_hal_dma.c ****       /* Transfer error callback */
 677:Drivers/STM32F1xx_HAL_Driver/Src/stm32f1xx_hal_dma.c ****       hdma->XferErrorCallback(hdma);
 1714              		.loc 1 677 11
 1715 01de 7B68     		ldr	r3, [r7, #4]
 1716 01e0 1B6B     		ldr	r3, [r3, #48]
 1717              		.loc 1 677 7
 1718 01e2 7868     		ldr	r0, [r7, #4]
 1719 01e4 9847     		blx	r3
 1720              	.LVL3:
 1721              	.L136:
 678:Drivers/STM32F1xx_HAL_Driver/Src/stm32f1xx_hal_dma.c ****     }
 679:Drivers/STM32F1xx_HAL_Driver/Src/stm32f1xx_hal_dma.c ****   }
 680:Drivers/STM32F1xx_HAL_Driver/Src/stm32f1xx_hal_dma.c ****   return;
ARM GAS  C:\Users\mason\AppData\Local\Temp\cc9opaHX.s 			page 43


 1722              		.loc 1 680 3 discriminator 1
 1723 01e6 00BF     		nop
 1724              	.L153:
 1725              		.loc 1 680 3 is_stmt 0
 1726 01e8 00BF     		nop
 681:Drivers/STM32F1xx_HAL_Driver/Src/stm32f1xx_hal_dma.c **** }
 1727              		.loc 1 681 1 is_stmt 1
 1728 01ea 1037     		adds	r7, r7, #16
 1729              	.LCFI41:
 1730              		.cfi_def_cfa_offset 8
 1731 01ec BD46     		mov	sp, r7
 1732              	.LCFI42:
 1733              		.cfi_def_cfa_register 13
 1734              		@ sp needed
 1735 01ee 80BD     		pop	{r7, pc}
 1736              	.L155:
 1737              		.align	2
 1738              	.L154:
 1739 01f0 08000240 		.word	1073872904
 1740 01f4 1C000240 		.word	1073872924
 1741 01f8 30000240 		.word	1073872944
 1742 01fc 44000240 		.word	1073872964
 1743 0200 58000240 		.word	1073872984
 1744 0204 6C000240 		.word	1073873004
 1745 0208 00000240 		.word	1073872896
 1746              		.cfi_endproc
 1747              	.LFE72:
 1749              		.section	.text.HAL_DMA_RegisterCallback,"ax",%progbits
 1750              		.align	1
 1751              		.global	HAL_DMA_RegisterCallback
 1752              		.syntax unified
 1753              		.thumb
 1754              		.thumb_func
 1756              	HAL_DMA_RegisterCallback:
 1757              	.LFB73:
 682:Drivers/STM32F1xx_HAL_Driver/Src/stm32f1xx_hal_dma.c **** 
 683:Drivers/STM32F1xx_HAL_Driver/Src/stm32f1xx_hal_dma.c **** /**
 684:Drivers/STM32F1xx_HAL_Driver/Src/stm32f1xx_hal_dma.c ****   * @brief Register callbacks
 685:Drivers/STM32F1xx_HAL_Driver/Src/stm32f1xx_hal_dma.c ****   * @param hdma: pointer to a DMA_HandleTypeDef structure that contains
 686:Drivers/STM32F1xx_HAL_Driver/Src/stm32f1xx_hal_dma.c ****   *              the configuration information for the specified DMA Channel.
 687:Drivers/STM32F1xx_HAL_Driver/Src/stm32f1xx_hal_dma.c ****   * @param CallbackID: User Callback identifer
 688:Drivers/STM32F1xx_HAL_Driver/Src/stm32f1xx_hal_dma.c ****   *                    a HAL_DMA_CallbackIDTypeDef ENUM as parameter.
 689:Drivers/STM32F1xx_HAL_Driver/Src/stm32f1xx_hal_dma.c ****   * @param pCallback: pointer to private callbacsk function which has pointer to 
 690:Drivers/STM32F1xx_HAL_Driver/Src/stm32f1xx_hal_dma.c ****   *                   a DMA_HandleTypeDef structure as parameter.
 691:Drivers/STM32F1xx_HAL_Driver/Src/stm32f1xx_hal_dma.c ****   * @retval HAL status
 692:Drivers/STM32F1xx_HAL_Driver/Src/stm32f1xx_hal_dma.c ****   */                          
 693:Drivers/STM32F1xx_HAL_Driver/Src/stm32f1xx_hal_dma.c **** HAL_StatusTypeDef HAL_DMA_RegisterCallback(DMA_HandleTypeDef *hdma, HAL_DMA_CallbackIDTypeDef Callb
 694:Drivers/STM32F1xx_HAL_Driver/Src/stm32f1xx_hal_dma.c **** {
 1758              		.loc 1 694 1
 1759              		.cfi_startproc
 1760              		@ args = 0, pretend = 0, frame = 24
 1761              		@ frame_needed = 1, uses_anonymous_args = 0
 1762              		@ link register save eliminated.
 1763 0000 80B4     		push	{r7}
 1764              	.LCFI43:
 1765              		.cfi_def_cfa_offset 4
 1766              		.cfi_offset 7, -4
ARM GAS  C:\Users\mason\AppData\Local\Temp\cc9opaHX.s 			page 44


 1767 0002 87B0     		sub	sp, sp, #28
 1768              	.LCFI44:
 1769              		.cfi_def_cfa_offset 32
 1770 0004 00AF     		add	r7, sp, #0
 1771              	.LCFI45:
 1772              		.cfi_def_cfa_register 7
 1773 0006 F860     		str	r0, [r7, #12]
 1774 0008 0B46     		mov	r3, r1
 1775 000a 7A60     		str	r2, [r7, #4]
 1776 000c FB72     		strb	r3, [r7, #11]
 695:Drivers/STM32F1xx_HAL_Driver/Src/stm32f1xx_hal_dma.c ****   HAL_StatusTypeDef status = HAL_OK;
 1777              		.loc 1 695 21
 1778 000e 0023     		movs	r3, #0
 1779 0010 FB75     		strb	r3, [r7, #23]
 696:Drivers/STM32F1xx_HAL_Driver/Src/stm32f1xx_hal_dma.c ****   
 697:Drivers/STM32F1xx_HAL_Driver/Src/stm32f1xx_hal_dma.c ****   /* Process locked */
 698:Drivers/STM32F1xx_HAL_Driver/Src/stm32f1xx_hal_dma.c ****   __HAL_LOCK(hdma);
 1780              		.loc 1 698 3
 1781 0012 FB68     		ldr	r3, [r7, #12]
 1782 0014 93F82030 		ldrb	r3, [r3, #32]	@ zero_extendqisi2
 1783 0018 012B     		cmp	r3, #1
 1784 001a 01D1     		bne	.L157
 1785              		.loc 1 698 3 is_stmt 0 discriminator 1
 1786 001c 0223     		movs	r3, #2
 1787 001e 31E0     		b	.L158
 1788              	.L157:
 1789              		.loc 1 698 3 discriminator 2
 1790 0020 FB68     		ldr	r3, [r7, #12]
 1791 0022 0122     		movs	r2, #1
 1792 0024 83F82020 		strb	r2, [r3, #32]
 699:Drivers/STM32F1xx_HAL_Driver/Src/stm32f1xx_hal_dma.c ****   
 700:Drivers/STM32F1xx_HAL_Driver/Src/stm32f1xx_hal_dma.c ****   if(HAL_DMA_STATE_READY == hdma->State)
 1793              		.loc 1 700 33 is_stmt 1 discriminator 2
 1794 0028 FB68     		ldr	r3, [r7, #12]
 1795 002a 93F82130 		ldrb	r3, [r3, #33]	@ zero_extendqisi2
 1796              		.loc 1 700 5 discriminator 2
 1797 002e 012B     		cmp	r3, #1
 1798 0030 21D1     		bne	.L159
 701:Drivers/STM32F1xx_HAL_Driver/Src/stm32f1xx_hal_dma.c ****   {
 702:Drivers/STM32F1xx_HAL_Driver/Src/stm32f1xx_hal_dma.c ****     switch (CallbackID)
 1799              		.loc 1 702 5
 1800 0032 FB7A     		ldrb	r3, [r7, #11]	@ zero_extendqisi2
 1801 0034 032B     		cmp	r3, #3
 1802 0036 1BD8     		bhi	.L160
 1803 0038 01A2     		adr	r2, .L162
 1804 003a 52F823F0 		ldr	pc, [r2, r3, lsl #2]
 1805 003e 00BF     		.p2align 2
 1806              	.L162:
 1807 0040 51000000 		.word	.L165+1
 1808 0044 59000000 		.word	.L164+1
 1809 0048 61000000 		.word	.L163+1
 1810 004c 69000000 		.word	.L161+1
 1811              		.p2align 1
 1812              	.L165:
 703:Drivers/STM32F1xx_HAL_Driver/Src/stm32f1xx_hal_dma.c ****     {
 704:Drivers/STM32F1xx_HAL_Driver/Src/stm32f1xx_hal_dma.c ****     case  HAL_DMA_XFER_CPLT_CB_ID:
 705:Drivers/STM32F1xx_HAL_Driver/Src/stm32f1xx_hal_dma.c ****       hdma->XferCpltCallback = pCallback;
ARM GAS  C:\Users\mason\AppData\Local\Temp\cc9opaHX.s 			page 45


 1813              		.loc 1 705 30
 1814 0050 FB68     		ldr	r3, [r7, #12]
 1815 0052 7A68     		ldr	r2, [r7, #4]
 1816 0054 9A62     		str	r2, [r3, #40]
 706:Drivers/STM32F1xx_HAL_Driver/Src/stm32f1xx_hal_dma.c ****       break;
 1817              		.loc 1 706 7
 1818 0056 10E0     		b	.L167
 1819              	.L164:
 707:Drivers/STM32F1xx_HAL_Driver/Src/stm32f1xx_hal_dma.c ****       
 708:Drivers/STM32F1xx_HAL_Driver/Src/stm32f1xx_hal_dma.c ****     case  HAL_DMA_XFER_HALFCPLT_CB_ID:
 709:Drivers/STM32F1xx_HAL_Driver/Src/stm32f1xx_hal_dma.c ****       hdma->XferHalfCpltCallback = pCallback;
 1820              		.loc 1 709 34
 1821 0058 FB68     		ldr	r3, [r7, #12]
 1822 005a 7A68     		ldr	r2, [r7, #4]
 1823 005c DA62     		str	r2, [r3, #44]
 710:Drivers/STM32F1xx_HAL_Driver/Src/stm32f1xx_hal_dma.c ****       break;         
 1824              		.loc 1 710 7
 1825 005e 0CE0     		b	.L167
 1826              	.L163:
 711:Drivers/STM32F1xx_HAL_Driver/Src/stm32f1xx_hal_dma.c **** 
 712:Drivers/STM32F1xx_HAL_Driver/Src/stm32f1xx_hal_dma.c ****     case  HAL_DMA_XFER_ERROR_CB_ID:
 713:Drivers/STM32F1xx_HAL_Driver/Src/stm32f1xx_hal_dma.c ****       hdma->XferErrorCallback = pCallback;
 1827              		.loc 1 713 31
 1828 0060 FB68     		ldr	r3, [r7, #12]
 1829 0062 7A68     		ldr	r2, [r7, #4]
 1830 0064 1A63     		str	r2, [r3, #48]
 714:Drivers/STM32F1xx_HAL_Driver/Src/stm32f1xx_hal_dma.c ****       break;         
 1831              		.loc 1 714 7
 1832 0066 08E0     		b	.L167
 1833              	.L161:
 715:Drivers/STM32F1xx_HAL_Driver/Src/stm32f1xx_hal_dma.c ****       
 716:Drivers/STM32F1xx_HAL_Driver/Src/stm32f1xx_hal_dma.c ****     case  HAL_DMA_XFER_ABORT_CB_ID:
 717:Drivers/STM32F1xx_HAL_Driver/Src/stm32f1xx_hal_dma.c ****       hdma->XferAbortCallback = pCallback;
 1834              		.loc 1 717 31
 1835 0068 FB68     		ldr	r3, [r7, #12]
 1836 006a 7A68     		ldr	r2, [r7, #4]
 1837 006c 5A63     		str	r2, [r3, #52]
 718:Drivers/STM32F1xx_HAL_Driver/Src/stm32f1xx_hal_dma.c ****       break; 
 1838              		.loc 1 718 7
 1839 006e 04E0     		b	.L167
 1840              	.L160:
 719:Drivers/STM32F1xx_HAL_Driver/Src/stm32f1xx_hal_dma.c ****       
 720:Drivers/STM32F1xx_HAL_Driver/Src/stm32f1xx_hal_dma.c ****     default:
 721:Drivers/STM32F1xx_HAL_Driver/Src/stm32f1xx_hal_dma.c ****       status = HAL_ERROR;
 1841              		.loc 1 721 14
 1842 0070 0123     		movs	r3, #1
 1843 0072 FB75     		strb	r3, [r7, #23]
 722:Drivers/STM32F1xx_HAL_Driver/Src/stm32f1xx_hal_dma.c ****       break;                                                            
 1844              		.loc 1 722 7
 1845 0074 01E0     		b	.L167
 1846              	.L159:
 723:Drivers/STM32F1xx_HAL_Driver/Src/stm32f1xx_hal_dma.c ****     }
 724:Drivers/STM32F1xx_HAL_Driver/Src/stm32f1xx_hal_dma.c ****   }
 725:Drivers/STM32F1xx_HAL_Driver/Src/stm32f1xx_hal_dma.c ****   else
 726:Drivers/STM32F1xx_HAL_Driver/Src/stm32f1xx_hal_dma.c ****   {
 727:Drivers/STM32F1xx_HAL_Driver/Src/stm32f1xx_hal_dma.c ****     status = HAL_ERROR;
 1847              		.loc 1 727 12
ARM GAS  C:\Users\mason\AppData\Local\Temp\cc9opaHX.s 			page 46


 1848 0076 0123     		movs	r3, #1
 1849 0078 FB75     		strb	r3, [r7, #23]
 1850              	.L167:
 728:Drivers/STM32F1xx_HAL_Driver/Src/stm32f1xx_hal_dma.c ****   } 
 729:Drivers/STM32F1xx_HAL_Driver/Src/stm32f1xx_hal_dma.c ****   
 730:Drivers/STM32F1xx_HAL_Driver/Src/stm32f1xx_hal_dma.c ****   /* Release Lock */
 731:Drivers/STM32F1xx_HAL_Driver/Src/stm32f1xx_hal_dma.c ****   __HAL_UNLOCK(hdma);
 1851              		.loc 1 731 3
 1852 007a FB68     		ldr	r3, [r7, #12]
 1853 007c 0022     		movs	r2, #0
 1854 007e 83F82020 		strb	r2, [r3, #32]
 732:Drivers/STM32F1xx_HAL_Driver/Src/stm32f1xx_hal_dma.c ****   
 733:Drivers/STM32F1xx_HAL_Driver/Src/stm32f1xx_hal_dma.c ****   return status;
 1855              		.loc 1 733 10
 1856 0082 FB7D     		ldrb	r3, [r7, #23]	@ zero_extendqisi2
 1857              	.L158:
 734:Drivers/STM32F1xx_HAL_Driver/Src/stm32f1xx_hal_dma.c **** }
 1858              		.loc 1 734 1
 1859 0084 1846     		mov	r0, r3
 1860 0086 1C37     		adds	r7, r7, #28
 1861              	.LCFI46:
 1862              		.cfi_def_cfa_offset 4
 1863 0088 BD46     		mov	sp, r7
 1864              	.LCFI47:
 1865              		.cfi_def_cfa_register 13
 1866              		@ sp needed
 1867 008a 80BC     		pop	{r7}
 1868              	.LCFI48:
 1869              		.cfi_restore 7
 1870              		.cfi_def_cfa_offset 0
 1871 008c 7047     		bx	lr
 1872              		.cfi_endproc
 1873              	.LFE73:
 1875              		.section	.text.HAL_DMA_UnRegisterCallback,"ax",%progbits
 1876              		.align	1
 1877              		.global	HAL_DMA_UnRegisterCallback
 1878              		.syntax unified
 1879              		.thumb
 1880              		.thumb_func
 1882              	HAL_DMA_UnRegisterCallback:
 1883              	.LFB74:
 735:Drivers/STM32F1xx_HAL_Driver/Src/stm32f1xx_hal_dma.c **** 
 736:Drivers/STM32F1xx_HAL_Driver/Src/stm32f1xx_hal_dma.c **** /**
 737:Drivers/STM32F1xx_HAL_Driver/Src/stm32f1xx_hal_dma.c ****   * @brief UnRegister callbacks
 738:Drivers/STM32F1xx_HAL_Driver/Src/stm32f1xx_hal_dma.c ****   * @param hdma: pointer to a DMA_HandleTypeDef structure that contains
 739:Drivers/STM32F1xx_HAL_Driver/Src/stm32f1xx_hal_dma.c ****   *              the configuration information for the specified DMA Channel.
 740:Drivers/STM32F1xx_HAL_Driver/Src/stm32f1xx_hal_dma.c ****   * @param CallbackID: User Callback identifer
 741:Drivers/STM32F1xx_HAL_Driver/Src/stm32f1xx_hal_dma.c ****   *                    a HAL_DMA_CallbackIDTypeDef ENUM as parameter.
 742:Drivers/STM32F1xx_HAL_Driver/Src/stm32f1xx_hal_dma.c ****   * @retval HAL status
 743:Drivers/STM32F1xx_HAL_Driver/Src/stm32f1xx_hal_dma.c ****   */              
 744:Drivers/STM32F1xx_HAL_Driver/Src/stm32f1xx_hal_dma.c **** HAL_StatusTypeDef HAL_DMA_UnRegisterCallback(DMA_HandleTypeDef *hdma, HAL_DMA_CallbackIDTypeDef Cal
 745:Drivers/STM32F1xx_HAL_Driver/Src/stm32f1xx_hal_dma.c **** {
 1884              		.loc 1 745 1
 1885              		.cfi_startproc
 1886              		@ args = 0, pretend = 0, frame = 16
 1887              		@ frame_needed = 1, uses_anonymous_args = 0
 1888              		@ link register save eliminated.
ARM GAS  C:\Users\mason\AppData\Local\Temp\cc9opaHX.s 			page 47


 1889 0000 80B4     		push	{r7}
 1890              	.LCFI49:
 1891              		.cfi_def_cfa_offset 4
 1892              		.cfi_offset 7, -4
 1893 0002 85B0     		sub	sp, sp, #20
 1894              	.LCFI50:
 1895              		.cfi_def_cfa_offset 24
 1896 0004 00AF     		add	r7, sp, #0
 1897              	.LCFI51:
 1898              		.cfi_def_cfa_register 7
 1899 0006 7860     		str	r0, [r7, #4]
 1900 0008 0B46     		mov	r3, r1
 1901 000a FB70     		strb	r3, [r7, #3]
 746:Drivers/STM32F1xx_HAL_Driver/Src/stm32f1xx_hal_dma.c ****   HAL_StatusTypeDef status = HAL_OK;
 1902              		.loc 1 746 21
 1903 000c 0023     		movs	r3, #0
 1904 000e FB73     		strb	r3, [r7, #15]
 747:Drivers/STM32F1xx_HAL_Driver/Src/stm32f1xx_hal_dma.c **** 
 748:Drivers/STM32F1xx_HAL_Driver/Src/stm32f1xx_hal_dma.c ****   /* Process locked */
 749:Drivers/STM32F1xx_HAL_Driver/Src/stm32f1xx_hal_dma.c ****   __HAL_LOCK(hdma);
 1905              		.loc 1 749 3
 1906 0010 7B68     		ldr	r3, [r7, #4]
 1907 0012 93F82030 		ldrb	r3, [r3, #32]	@ zero_extendqisi2
 1908 0016 012B     		cmp	r3, #1
 1909 0018 01D1     		bne	.L169
 1910              		.loc 1 749 3 is_stmt 0 discriminator 1
 1911 001a 0223     		movs	r3, #2
 1912 001c 3FE0     		b	.L170
 1913              	.L169:
 1914              		.loc 1 749 3 discriminator 2
 1915 001e 7B68     		ldr	r3, [r7, #4]
 1916 0020 0122     		movs	r2, #1
 1917 0022 83F82020 		strb	r2, [r3, #32]
 750:Drivers/STM32F1xx_HAL_Driver/Src/stm32f1xx_hal_dma.c ****   
 751:Drivers/STM32F1xx_HAL_Driver/Src/stm32f1xx_hal_dma.c ****   if(HAL_DMA_STATE_READY == hdma->State)
 1918              		.loc 1 751 33 is_stmt 1 discriminator 2
 1919 0026 7B68     		ldr	r3, [r7, #4]
 1920 0028 93F82130 		ldrb	r3, [r3, #33]	@ zero_extendqisi2
 1921              		.loc 1 751 5 discriminator 2
 1922 002c 012B     		cmp	r3, #1
 1923 002e 2FD1     		bne	.L171
 752:Drivers/STM32F1xx_HAL_Driver/Src/stm32f1xx_hal_dma.c ****   {
 753:Drivers/STM32F1xx_HAL_Driver/Src/stm32f1xx_hal_dma.c ****     switch (CallbackID)
 1924              		.loc 1 753 5
 1925 0030 FB78     		ldrb	r3, [r7, #3]	@ zero_extendqisi2
 1926 0032 042B     		cmp	r3, #4
 1927 0034 29D8     		bhi	.L172
 1928 0036 01A2     		adr	r2, .L174
 1929 0038 52F823F0 		ldr	pc, [r2, r3, lsl #2]
 1930              		.p2align 2
 1931              	.L174:
 1932 003c 51000000 		.word	.L178+1
 1933 0040 59000000 		.word	.L177+1
 1934 0044 61000000 		.word	.L176+1
 1935 0048 69000000 		.word	.L175+1
 1936 004c 71000000 		.word	.L173+1
 1937              		.p2align 1
ARM GAS  C:\Users\mason\AppData\Local\Temp\cc9opaHX.s 			page 48


 1938              	.L178:
 754:Drivers/STM32F1xx_HAL_Driver/Src/stm32f1xx_hal_dma.c ****     {
 755:Drivers/STM32F1xx_HAL_Driver/Src/stm32f1xx_hal_dma.c ****     case  HAL_DMA_XFER_CPLT_CB_ID:
 756:Drivers/STM32F1xx_HAL_Driver/Src/stm32f1xx_hal_dma.c ****       hdma->XferCpltCallback = NULL;
 1939              		.loc 1 756 30
 1940 0050 7B68     		ldr	r3, [r7, #4]
 1941 0052 0022     		movs	r2, #0
 1942 0054 9A62     		str	r2, [r3, #40]
 757:Drivers/STM32F1xx_HAL_Driver/Src/stm32f1xx_hal_dma.c ****       break;
 1943              		.loc 1 757 7
 1944 0056 1DE0     		b	.L180
 1945              	.L177:
 758:Drivers/STM32F1xx_HAL_Driver/Src/stm32f1xx_hal_dma.c **** 
 759:Drivers/STM32F1xx_HAL_Driver/Src/stm32f1xx_hal_dma.c ****     case  HAL_DMA_XFER_HALFCPLT_CB_ID:
 760:Drivers/STM32F1xx_HAL_Driver/Src/stm32f1xx_hal_dma.c ****       hdma->XferHalfCpltCallback = NULL;
 1946              		.loc 1 760 34
 1947 0058 7B68     		ldr	r3, [r7, #4]
 1948 005a 0022     		movs	r2, #0
 1949 005c DA62     		str	r2, [r3, #44]
 761:Drivers/STM32F1xx_HAL_Driver/Src/stm32f1xx_hal_dma.c ****       break;         
 1950              		.loc 1 761 7
 1951 005e 19E0     		b	.L180
 1952              	.L176:
 762:Drivers/STM32F1xx_HAL_Driver/Src/stm32f1xx_hal_dma.c **** 
 763:Drivers/STM32F1xx_HAL_Driver/Src/stm32f1xx_hal_dma.c ****     case  HAL_DMA_XFER_ERROR_CB_ID:
 764:Drivers/STM32F1xx_HAL_Driver/Src/stm32f1xx_hal_dma.c ****       hdma->XferErrorCallback = NULL;
 1953              		.loc 1 764 31
 1954 0060 7B68     		ldr	r3, [r7, #4]
 1955 0062 0022     		movs	r2, #0
 1956 0064 1A63     		str	r2, [r3, #48]
 765:Drivers/STM32F1xx_HAL_Driver/Src/stm32f1xx_hal_dma.c ****       break;         
 1957              		.loc 1 765 7
 1958 0066 15E0     		b	.L180
 1959              	.L175:
 766:Drivers/STM32F1xx_HAL_Driver/Src/stm32f1xx_hal_dma.c **** 
 767:Drivers/STM32F1xx_HAL_Driver/Src/stm32f1xx_hal_dma.c ****     case  HAL_DMA_XFER_ABORT_CB_ID:
 768:Drivers/STM32F1xx_HAL_Driver/Src/stm32f1xx_hal_dma.c ****       hdma->XferAbortCallback = NULL;
 1960              		.loc 1 768 31
 1961 0068 7B68     		ldr	r3, [r7, #4]
 1962 006a 0022     		movs	r2, #0
 1963 006c 5A63     		str	r2, [r3, #52]
 769:Drivers/STM32F1xx_HAL_Driver/Src/stm32f1xx_hal_dma.c ****       break; 
 1964              		.loc 1 769 7
 1965 006e 11E0     		b	.L180
 1966              	.L173:
 770:Drivers/STM32F1xx_HAL_Driver/Src/stm32f1xx_hal_dma.c **** 
 771:Drivers/STM32F1xx_HAL_Driver/Src/stm32f1xx_hal_dma.c ****     case   HAL_DMA_XFER_ALL_CB_ID:
 772:Drivers/STM32F1xx_HAL_Driver/Src/stm32f1xx_hal_dma.c ****       hdma->XferCpltCallback = NULL;
 1967              		.loc 1 772 30
 1968 0070 7B68     		ldr	r3, [r7, #4]
 1969 0072 0022     		movs	r2, #0
 1970 0074 9A62     		str	r2, [r3, #40]
 773:Drivers/STM32F1xx_HAL_Driver/Src/stm32f1xx_hal_dma.c ****       hdma->XferHalfCpltCallback = NULL;
 1971              		.loc 1 773 34
 1972 0076 7B68     		ldr	r3, [r7, #4]
 1973 0078 0022     		movs	r2, #0
 1974 007a DA62     		str	r2, [r3, #44]
ARM GAS  C:\Users\mason\AppData\Local\Temp\cc9opaHX.s 			page 49


 774:Drivers/STM32F1xx_HAL_Driver/Src/stm32f1xx_hal_dma.c ****       hdma->XferErrorCallback = NULL;
 1975              		.loc 1 774 31
 1976 007c 7B68     		ldr	r3, [r7, #4]
 1977 007e 0022     		movs	r2, #0
 1978 0080 1A63     		str	r2, [r3, #48]
 775:Drivers/STM32F1xx_HAL_Driver/Src/stm32f1xx_hal_dma.c ****       hdma->XferAbortCallback = NULL;
 1979              		.loc 1 775 31
 1980 0082 7B68     		ldr	r3, [r7, #4]
 1981 0084 0022     		movs	r2, #0
 1982 0086 5A63     		str	r2, [r3, #52]
 776:Drivers/STM32F1xx_HAL_Driver/Src/stm32f1xx_hal_dma.c ****       break; 
 1983              		.loc 1 776 7
 1984 0088 04E0     		b	.L180
 1985              	.L172:
 777:Drivers/STM32F1xx_HAL_Driver/Src/stm32f1xx_hal_dma.c **** 
 778:Drivers/STM32F1xx_HAL_Driver/Src/stm32f1xx_hal_dma.c ****     default:
 779:Drivers/STM32F1xx_HAL_Driver/Src/stm32f1xx_hal_dma.c ****       status = HAL_ERROR;
 1986              		.loc 1 779 14
 1987 008a 0123     		movs	r3, #1
 1988 008c FB73     		strb	r3, [r7, #15]
 780:Drivers/STM32F1xx_HAL_Driver/Src/stm32f1xx_hal_dma.c ****       break;
 1989              		.loc 1 780 7
 1990 008e 01E0     		b	.L180
 1991              	.L171:
 781:Drivers/STM32F1xx_HAL_Driver/Src/stm32f1xx_hal_dma.c ****     }
 782:Drivers/STM32F1xx_HAL_Driver/Src/stm32f1xx_hal_dma.c ****   }
 783:Drivers/STM32F1xx_HAL_Driver/Src/stm32f1xx_hal_dma.c ****   else
 784:Drivers/STM32F1xx_HAL_Driver/Src/stm32f1xx_hal_dma.c ****   {
 785:Drivers/STM32F1xx_HAL_Driver/Src/stm32f1xx_hal_dma.c ****     status = HAL_ERROR;
 1992              		.loc 1 785 12
 1993 0090 0123     		movs	r3, #1
 1994 0092 FB73     		strb	r3, [r7, #15]
 1995              	.L180:
 786:Drivers/STM32F1xx_HAL_Driver/Src/stm32f1xx_hal_dma.c ****   } 
 787:Drivers/STM32F1xx_HAL_Driver/Src/stm32f1xx_hal_dma.c ****   
 788:Drivers/STM32F1xx_HAL_Driver/Src/stm32f1xx_hal_dma.c ****   /* Release Lock */
 789:Drivers/STM32F1xx_HAL_Driver/Src/stm32f1xx_hal_dma.c ****   __HAL_UNLOCK(hdma);
 1996              		.loc 1 789 3
 1997 0094 7B68     		ldr	r3, [r7, #4]
 1998 0096 0022     		movs	r2, #0
 1999 0098 83F82020 		strb	r2, [r3, #32]
 790:Drivers/STM32F1xx_HAL_Driver/Src/stm32f1xx_hal_dma.c ****   
 791:Drivers/STM32F1xx_HAL_Driver/Src/stm32f1xx_hal_dma.c ****   return status;
 2000              		.loc 1 791 10
 2001 009c FB7B     		ldrb	r3, [r7, #15]	@ zero_extendqisi2
 2002              	.L170:
 792:Drivers/STM32F1xx_HAL_Driver/Src/stm32f1xx_hal_dma.c **** }
 2003              		.loc 1 792 1
 2004 009e 1846     		mov	r0, r3
 2005 00a0 1437     		adds	r7, r7, #20
 2006              	.LCFI52:
 2007              		.cfi_def_cfa_offset 4
 2008 00a2 BD46     		mov	sp, r7
 2009              	.LCFI53:
 2010              		.cfi_def_cfa_register 13
 2011              		@ sp needed
 2012 00a4 80BC     		pop	{r7}
ARM GAS  C:\Users\mason\AppData\Local\Temp\cc9opaHX.s 			page 50


 2013              	.LCFI54:
 2014              		.cfi_restore 7
 2015              		.cfi_def_cfa_offset 0
 2016 00a6 7047     		bx	lr
 2017              		.cfi_endproc
 2018              	.LFE74:
 2020              		.section	.text.HAL_DMA_GetState,"ax",%progbits
 2021              		.align	1
 2022              		.global	HAL_DMA_GetState
 2023              		.syntax unified
 2024              		.thumb
 2025              		.thumb_func
 2027              	HAL_DMA_GetState:
 2028              	.LFB75:
 793:Drivers/STM32F1xx_HAL_Driver/Src/stm32f1xx_hal_dma.c ****   
 794:Drivers/STM32F1xx_HAL_Driver/Src/stm32f1xx_hal_dma.c **** /**
 795:Drivers/STM32F1xx_HAL_Driver/Src/stm32f1xx_hal_dma.c ****   * @}
 796:Drivers/STM32F1xx_HAL_Driver/Src/stm32f1xx_hal_dma.c ****   */
 797:Drivers/STM32F1xx_HAL_Driver/Src/stm32f1xx_hal_dma.c **** 
 798:Drivers/STM32F1xx_HAL_Driver/Src/stm32f1xx_hal_dma.c **** /** @defgroup DMA_Exported_Functions_Group3 Peripheral State and Errors functions
 799:Drivers/STM32F1xx_HAL_Driver/Src/stm32f1xx_hal_dma.c ****   *  @brief    Peripheral State and Errors functions
 800:Drivers/STM32F1xx_HAL_Driver/Src/stm32f1xx_hal_dma.c ****   *
 801:Drivers/STM32F1xx_HAL_Driver/Src/stm32f1xx_hal_dma.c **** @verbatim
 802:Drivers/STM32F1xx_HAL_Driver/Src/stm32f1xx_hal_dma.c ****  ===============================================================================
 803:Drivers/STM32F1xx_HAL_Driver/Src/stm32f1xx_hal_dma.c ****             ##### Peripheral State and Errors functions #####
 804:Drivers/STM32F1xx_HAL_Driver/Src/stm32f1xx_hal_dma.c ****  ===============================================================================  
 805:Drivers/STM32F1xx_HAL_Driver/Src/stm32f1xx_hal_dma.c ****     [..]
 806:Drivers/STM32F1xx_HAL_Driver/Src/stm32f1xx_hal_dma.c ****     This subsection provides functions allowing to
 807:Drivers/STM32F1xx_HAL_Driver/Src/stm32f1xx_hal_dma.c ****       (+) Check the DMA state
 808:Drivers/STM32F1xx_HAL_Driver/Src/stm32f1xx_hal_dma.c ****       (+) Get error code
 809:Drivers/STM32F1xx_HAL_Driver/Src/stm32f1xx_hal_dma.c **** 
 810:Drivers/STM32F1xx_HAL_Driver/Src/stm32f1xx_hal_dma.c **** @endverbatim
 811:Drivers/STM32F1xx_HAL_Driver/Src/stm32f1xx_hal_dma.c ****   * @{
 812:Drivers/STM32F1xx_HAL_Driver/Src/stm32f1xx_hal_dma.c ****   */
 813:Drivers/STM32F1xx_HAL_Driver/Src/stm32f1xx_hal_dma.c **** 
 814:Drivers/STM32F1xx_HAL_Driver/Src/stm32f1xx_hal_dma.c **** /**
 815:Drivers/STM32F1xx_HAL_Driver/Src/stm32f1xx_hal_dma.c ****   * @brief  Return the DMA hande state.
 816:Drivers/STM32F1xx_HAL_Driver/Src/stm32f1xx_hal_dma.c ****   * @param  hdma: pointer to a DMA_HandleTypeDef structure that contains
 817:Drivers/STM32F1xx_HAL_Driver/Src/stm32f1xx_hal_dma.c ****   *               the configuration information for the specified DMA Channel.
 818:Drivers/STM32F1xx_HAL_Driver/Src/stm32f1xx_hal_dma.c ****   * @retval HAL state
 819:Drivers/STM32F1xx_HAL_Driver/Src/stm32f1xx_hal_dma.c ****   */
 820:Drivers/STM32F1xx_HAL_Driver/Src/stm32f1xx_hal_dma.c **** HAL_DMA_StateTypeDef HAL_DMA_GetState(DMA_HandleTypeDef *hdma)
 821:Drivers/STM32F1xx_HAL_Driver/Src/stm32f1xx_hal_dma.c **** {
 2029              		.loc 1 821 1
 2030              		.cfi_startproc
 2031              		@ args = 0, pretend = 0, frame = 8
 2032              		@ frame_needed = 1, uses_anonymous_args = 0
 2033              		@ link register save eliminated.
 2034 0000 80B4     		push	{r7}
 2035              	.LCFI55:
 2036              		.cfi_def_cfa_offset 4
 2037              		.cfi_offset 7, -4
 2038 0002 83B0     		sub	sp, sp, #12
 2039              	.LCFI56:
 2040              		.cfi_def_cfa_offset 16
 2041 0004 00AF     		add	r7, sp, #0
 2042              	.LCFI57:
ARM GAS  C:\Users\mason\AppData\Local\Temp\cc9opaHX.s 			page 51


 2043              		.cfi_def_cfa_register 7
 2044 0006 7860     		str	r0, [r7, #4]
 822:Drivers/STM32F1xx_HAL_Driver/Src/stm32f1xx_hal_dma.c ****   /* Return DMA handle state */
 823:Drivers/STM32F1xx_HAL_Driver/Src/stm32f1xx_hal_dma.c ****   return hdma->State;
 2045              		.loc 1 823 14
 2046 0008 7B68     		ldr	r3, [r7, #4]
 2047 000a 93F82130 		ldrb	r3, [r3, #33]	@ zero_extendqisi2
 824:Drivers/STM32F1xx_HAL_Driver/Src/stm32f1xx_hal_dma.c **** }
 2048              		.loc 1 824 1
 2049 000e 1846     		mov	r0, r3
 2050 0010 0C37     		adds	r7, r7, #12
 2051              	.LCFI58:
 2052              		.cfi_def_cfa_offset 4
 2053 0012 BD46     		mov	sp, r7
 2054              	.LCFI59:
 2055              		.cfi_def_cfa_register 13
 2056              		@ sp needed
 2057 0014 80BC     		pop	{r7}
 2058              	.LCFI60:
 2059              		.cfi_restore 7
 2060              		.cfi_def_cfa_offset 0
 2061 0016 7047     		bx	lr
 2062              		.cfi_endproc
 2063              	.LFE75:
 2065              		.section	.text.HAL_DMA_GetError,"ax",%progbits
 2066              		.align	1
 2067              		.global	HAL_DMA_GetError
 2068              		.syntax unified
 2069              		.thumb
 2070              		.thumb_func
 2072              	HAL_DMA_GetError:
 2073              	.LFB76:
 825:Drivers/STM32F1xx_HAL_Driver/Src/stm32f1xx_hal_dma.c **** 
 826:Drivers/STM32F1xx_HAL_Driver/Src/stm32f1xx_hal_dma.c **** /**
 827:Drivers/STM32F1xx_HAL_Driver/Src/stm32f1xx_hal_dma.c ****   * @brief  Return the DMA error code.
 828:Drivers/STM32F1xx_HAL_Driver/Src/stm32f1xx_hal_dma.c ****   * @param  hdma : pointer to a DMA_HandleTypeDef structure that contains
 829:Drivers/STM32F1xx_HAL_Driver/Src/stm32f1xx_hal_dma.c ****   *              the configuration information for the specified DMA Channel.
 830:Drivers/STM32F1xx_HAL_Driver/Src/stm32f1xx_hal_dma.c ****   * @retval DMA Error Code
 831:Drivers/STM32F1xx_HAL_Driver/Src/stm32f1xx_hal_dma.c ****   */
 832:Drivers/STM32F1xx_HAL_Driver/Src/stm32f1xx_hal_dma.c **** uint32_t HAL_DMA_GetError(DMA_HandleTypeDef *hdma)
 833:Drivers/STM32F1xx_HAL_Driver/Src/stm32f1xx_hal_dma.c **** {
 2074              		.loc 1 833 1
 2075              		.cfi_startproc
 2076              		@ args = 0, pretend = 0, frame = 8
 2077              		@ frame_needed = 1, uses_anonymous_args = 0
 2078              		@ link register save eliminated.
 2079 0000 80B4     		push	{r7}
 2080              	.LCFI61:
 2081              		.cfi_def_cfa_offset 4
 2082              		.cfi_offset 7, -4
 2083 0002 83B0     		sub	sp, sp, #12
 2084              	.LCFI62:
 2085              		.cfi_def_cfa_offset 16
 2086 0004 00AF     		add	r7, sp, #0
 2087              	.LCFI63:
 2088              		.cfi_def_cfa_register 7
 2089 0006 7860     		str	r0, [r7, #4]
ARM GAS  C:\Users\mason\AppData\Local\Temp\cc9opaHX.s 			page 52


 834:Drivers/STM32F1xx_HAL_Driver/Src/stm32f1xx_hal_dma.c ****   return hdma->ErrorCode;
 2090              		.loc 1 834 14
 2091 0008 7B68     		ldr	r3, [r7, #4]
 2092 000a 9B6B     		ldr	r3, [r3, #56]
 835:Drivers/STM32F1xx_HAL_Driver/Src/stm32f1xx_hal_dma.c **** }
 2093              		.loc 1 835 1
 2094 000c 1846     		mov	r0, r3
 2095 000e 0C37     		adds	r7, r7, #12
 2096              	.LCFI64:
 2097              		.cfi_def_cfa_offset 4
 2098 0010 BD46     		mov	sp, r7
 2099              	.LCFI65:
 2100              		.cfi_def_cfa_register 13
 2101              		@ sp needed
 2102 0012 80BC     		pop	{r7}
 2103              	.LCFI66:
 2104              		.cfi_restore 7
 2105              		.cfi_def_cfa_offset 0
 2106 0014 7047     		bx	lr
 2107              		.cfi_endproc
 2108              	.LFE76:
 2110              		.section	.text.DMA_SetConfig,"ax",%progbits
 2111              		.align	1
 2112              		.syntax unified
 2113              		.thumb
 2114              		.thumb_func
 2116              	DMA_SetConfig:
 2117              	.LFB77:
 836:Drivers/STM32F1xx_HAL_Driver/Src/stm32f1xx_hal_dma.c **** 
 837:Drivers/STM32F1xx_HAL_Driver/Src/stm32f1xx_hal_dma.c **** /**
 838:Drivers/STM32F1xx_HAL_Driver/Src/stm32f1xx_hal_dma.c ****   * @}
 839:Drivers/STM32F1xx_HAL_Driver/Src/stm32f1xx_hal_dma.c ****   */
 840:Drivers/STM32F1xx_HAL_Driver/Src/stm32f1xx_hal_dma.c **** 
 841:Drivers/STM32F1xx_HAL_Driver/Src/stm32f1xx_hal_dma.c **** /**
 842:Drivers/STM32F1xx_HAL_Driver/Src/stm32f1xx_hal_dma.c ****   * @}
 843:Drivers/STM32F1xx_HAL_Driver/Src/stm32f1xx_hal_dma.c ****   */
 844:Drivers/STM32F1xx_HAL_Driver/Src/stm32f1xx_hal_dma.c **** 
 845:Drivers/STM32F1xx_HAL_Driver/Src/stm32f1xx_hal_dma.c **** /** @addtogroup DMA_Private_Functions
 846:Drivers/STM32F1xx_HAL_Driver/Src/stm32f1xx_hal_dma.c ****   * @{
 847:Drivers/STM32F1xx_HAL_Driver/Src/stm32f1xx_hal_dma.c ****   */
 848:Drivers/STM32F1xx_HAL_Driver/Src/stm32f1xx_hal_dma.c **** 
 849:Drivers/STM32F1xx_HAL_Driver/Src/stm32f1xx_hal_dma.c **** /**
 850:Drivers/STM32F1xx_HAL_Driver/Src/stm32f1xx_hal_dma.c ****   * @brief  Sets the DMA Transfer parameter.
 851:Drivers/STM32F1xx_HAL_Driver/Src/stm32f1xx_hal_dma.c ****   * @param  hdma:       pointer to a DMA_HandleTypeDef structure that contains
 852:Drivers/STM32F1xx_HAL_Driver/Src/stm32f1xx_hal_dma.c ****   *                     the configuration information for the specified DMA Channel.
 853:Drivers/STM32F1xx_HAL_Driver/Src/stm32f1xx_hal_dma.c ****   * @param  SrcAddress: The source memory Buffer address
 854:Drivers/STM32F1xx_HAL_Driver/Src/stm32f1xx_hal_dma.c ****   * @param  DstAddress: The destination memory Buffer address
 855:Drivers/STM32F1xx_HAL_Driver/Src/stm32f1xx_hal_dma.c ****   * @param  DataLength: The length of data to be transferred from source to destination
 856:Drivers/STM32F1xx_HAL_Driver/Src/stm32f1xx_hal_dma.c ****   * @retval HAL status
 857:Drivers/STM32F1xx_HAL_Driver/Src/stm32f1xx_hal_dma.c ****   */
 858:Drivers/STM32F1xx_HAL_Driver/Src/stm32f1xx_hal_dma.c **** static void DMA_SetConfig(DMA_HandleTypeDef *hdma, uint32_t SrcAddress, uint32_t DstAddress, uint32
 859:Drivers/STM32F1xx_HAL_Driver/Src/stm32f1xx_hal_dma.c **** {
 2118              		.loc 1 859 1
 2119              		.cfi_startproc
 2120              		@ args = 0, pretend = 0, frame = 16
 2121              		@ frame_needed = 1, uses_anonymous_args = 0
 2122              		@ link register save eliminated.
ARM GAS  C:\Users\mason\AppData\Local\Temp\cc9opaHX.s 			page 53


 2123 0000 80B4     		push	{r7}
 2124              	.LCFI67:
 2125              		.cfi_def_cfa_offset 4
 2126              		.cfi_offset 7, -4
 2127 0002 85B0     		sub	sp, sp, #20
 2128              	.LCFI68:
 2129              		.cfi_def_cfa_offset 24
 2130 0004 00AF     		add	r7, sp, #0
 2131              	.LCFI69:
 2132              		.cfi_def_cfa_register 7
 2133 0006 F860     		str	r0, [r7, #12]
 2134 0008 B960     		str	r1, [r7, #8]
 2135 000a 7A60     		str	r2, [r7, #4]
 2136 000c 3B60     		str	r3, [r7]
 860:Drivers/STM32F1xx_HAL_Driver/Src/stm32f1xx_hal_dma.c ****   /* Clear all flags */
 861:Drivers/STM32F1xx_HAL_Driver/Src/stm32f1xx_hal_dma.c ****   hdma->DmaBaseAddress->IFCR = (DMA_ISR_GIF1 << hdma->ChannelIndex);
 2137              		.loc 1 861 53
 2138 000e FB68     		ldr	r3, [r7, #12]
 2139 0010 1A6C     		ldr	r2, [r3, #64]
 2140              		.loc 1 861 7
 2141 0012 FB68     		ldr	r3, [r7, #12]
 2142 0014 DB6B     		ldr	r3, [r3, #60]
 2143              		.loc 1 861 46
 2144 0016 0121     		movs	r1, #1
 2145 0018 01FA02F2 		lsl	r2, r1, r2
 2146              		.loc 1 861 30
 2147 001c 5A60     		str	r2, [r3, #4]
 862:Drivers/STM32F1xx_HAL_Driver/Src/stm32f1xx_hal_dma.c **** 
 863:Drivers/STM32F1xx_HAL_Driver/Src/stm32f1xx_hal_dma.c ****   /* Configure DMA Channel data length */
 864:Drivers/STM32F1xx_HAL_Driver/Src/stm32f1xx_hal_dma.c ****   hdma->Instance->CNDTR = DataLength;
 2148              		.loc 1 864 7
 2149 001e FB68     		ldr	r3, [r7, #12]
 2150 0020 1B68     		ldr	r3, [r3]
 2151              		.loc 1 864 25
 2152 0022 3A68     		ldr	r2, [r7]
 2153 0024 5A60     		str	r2, [r3, #4]
 865:Drivers/STM32F1xx_HAL_Driver/Src/stm32f1xx_hal_dma.c **** 
 866:Drivers/STM32F1xx_HAL_Driver/Src/stm32f1xx_hal_dma.c ****   /* Memory to Peripheral */
 867:Drivers/STM32F1xx_HAL_Driver/Src/stm32f1xx_hal_dma.c ****   if((hdma->Init.Direction) == DMA_MEMORY_TO_PERIPH)
 2154              		.loc 1 867 17
 2155 0026 FB68     		ldr	r3, [r7, #12]
 2156 0028 5B68     		ldr	r3, [r3, #4]
 2157              		.loc 1 867 5
 2158 002a 102B     		cmp	r3, #16
 2159 002c 08D1     		bne	.L186
 868:Drivers/STM32F1xx_HAL_Driver/Src/stm32f1xx_hal_dma.c ****   {
 869:Drivers/STM32F1xx_HAL_Driver/Src/stm32f1xx_hal_dma.c ****     /* Configure DMA Channel destination address */
 870:Drivers/STM32F1xx_HAL_Driver/Src/stm32f1xx_hal_dma.c ****     hdma->Instance->CPAR = DstAddress;
 2160              		.loc 1 870 9
 2161 002e FB68     		ldr	r3, [r7, #12]
 2162 0030 1B68     		ldr	r3, [r3]
 2163              		.loc 1 870 26
 2164 0032 7A68     		ldr	r2, [r7, #4]
 2165 0034 9A60     		str	r2, [r3, #8]
 871:Drivers/STM32F1xx_HAL_Driver/Src/stm32f1xx_hal_dma.c **** 
 872:Drivers/STM32F1xx_HAL_Driver/Src/stm32f1xx_hal_dma.c ****     /* Configure DMA Channel source address */
 873:Drivers/STM32F1xx_HAL_Driver/Src/stm32f1xx_hal_dma.c ****     hdma->Instance->CMAR = SrcAddress;
ARM GAS  C:\Users\mason\AppData\Local\Temp\cc9opaHX.s 			page 54


 2166              		.loc 1 873 9
 2167 0036 FB68     		ldr	r3, [r7, #12]
 2168 0038 1B68     		ldr	r3, [r3]
 2169              		.loc 1 873 26
 2170 003a BA68     		ldr	r2, [r7, #8]
 2171 003c DA60     		str	r2, [r3, #12]
 874:Drivers/STM32F1xx_HAL_Driver/Src/stm32f1xx_hal_dma.c ****   }
 875:Drivers/STM32F1xx_HAL_Driver/Src/stm32f1xx_hal_dma.c ****   /* Peripheral to Memory */
 876:Drivers/STM32F1xx_HAL_Driver/Src/stm32f1xx_hal_dma.c ****   else
 877:Drivers/STM32F1xx_HAL_Driver/Src/stm32f1xx_hal_dma.c ****   {
 878:Drivers/STM32F1xx_HAL_Driver/Src/stm32f1xx_hal_dma.c ****     /* Configure DMA Channel source address */
 879:Drivers/STM32F1xx_HAL_Driver/Src/stm32f1xx_hal_dma.c ****     hdma->Instance->CPAR = SrcAddress;
 880:Drivers/STM32F1xx_HAL_Driver/Src/stm32f1xx_hal_dma.c **** 
 881:Drivers/STM32F1xx_HAL_Driver/Src/stm32f1xx_hal_dma.c ****     /* Configure DMA Channel destination address */
 882:Drivers/STM32F1xx_HAL_Driver/Src/stm32f1xx_hal_dma.c ****     hdma->Instance->CMAR = DstAddress;
 883:Drivers/STM32F1xx_HAL_Driver/Src/stm32f1xx_hal_dma.c ****   }
 884:Drivers/STM32F1xx_HAL_Driver/Src/stm32f1xx_hal_dma.c **** }
 2172              		.loc 1 884 1
 2173 003e 07E0     		b	.L188
 2174              	.L186:
 879:Drivers/STM32F1xx_HAL_Driver/Src/stm32f1xx_hal_dma.c **** 
 2175              		.loc 1 879 9
 2176 0040 FB68     		ldr	r3, [r7, #12]
 2177 0042 1B68     		ldr	r3, [r3]
 879:Drivers/STM32F1xx_HAL_Driver/Src/stm32f1xx_hal_dma.c **** 
 2178              		.loc 1 879 26
 2179 0044 BA68     		ldr	r2, [r7, #8]
 2180 0046 9A60     		str	r2, [r3, #8]
 882:Drivers/STM32F1xx_HAL_Driver/Src/stm32f1xx_hal_dma.c ****   }
 2181              		.loc 1 882 9
 2182 0048 FB68     		ldr	r3, [r7, #12]
 2183 004a 1B68     		ldr	r3, [r3]
 882:Drivers/STM32F1xx_HAL_Driver/Src/stm32f1xx_hal_dma.c ****   }
 2184              		.loc 1 882 26
 2185 004c 7A68     		ldr	r2, [r7, #4]
 2186 004e DA60     		str	r2, [r3, #12]
 2187              	.L188:
 2188              		.loc 1 884 1
 2189 0050 00BF     		nop
 2190 0052 1437     		adds	r7, r7, #20
 2191              	.LCFI70:
 2192              		.cfi_def_cfa_offset 4
 2193 0054 BD46     		mov	sp, r7
 2194              	.LCFI71:
 2195              		.cfi_def_cfa_register 13
 2196              		@ sp needed
 2197 0056 80BC     		pop	{r7}
 2198              	.LCFI72:
 2199              		.cfi_restore 7
 2200              		.cfi_def_cfa_offset 0
 2201 0058 7047     		bx	lr
 2202              		.cfi_endproc
 2203              	.LFE77:
 2205              		.text
 2206              	.Letext0:
 2207              		.file 2 "c:\\program files\\gcc-arm-none-eabi-10.3-2021.10-win32\\arm-none-eabi\\include\\machine\
 2208              		.file 3 "c:\\program files\\gcc-arm-none-eabi-10.3-2021.10-win32\\arm-none-eabi\\include\\sys\\_st
ARM GAS  C:\Users\mason\AppData\Local\Temp\cc9opaHX.s 			page 55


 2209              		.file 4 "Drivers/CMSIS/Device/ST/STM32F1xx/Include/stm32f103xb.h"
 2210              		.file 5 "Drivers/CMSIS/Device/ST/STM32F1xx/Include/stm32f1xx.h"
 2211              		.file 6 "Drivers/STM32F1xx_HAL_Driver/Inc/stm32f1xx_hal_def.h"
 2212              		.file 7 "Drivers/STM32F1xx_HAL_Driver/Inc/stm32f1xx_hal_dma.h"
ARM GAS  C:\Users\mason\AppData\Local\Temp\cc9opaHX.s 			page 56


DEFINED SYMBOLS
                            *ABS*:00000000 stm32f1xx_hal_dma.c
C:\Users\mason\AppData\Local\Temp\cc9opaHX.s:18     .text.HAL_DMA_Init:00000000 $t
C:\Users\mason\AppData\Local\Temp\cc9opaHX.s:24     .text.HAL_DMA_Init:00000000 HAL_DMA_Init
C:\Users\mason\AppData\Local\Temp\cc9opaHX.s:165    .text.HAL_DMA_Init:000000a8 $d
C:\Users\mason\AppData\Local\Temp\cc9opaHX.s:172    .text.HAL_DMA_DeInit:00000000 $t
C:\Users\mason\AppData\Local\Temp\cc9opaHX.s:178    .text.HAL_DMA_DeInit:00000000 HAL_DMA_DeInit
C:\Users\mason\AppData\Local\Temp\cc9opaHX.s:316    .text.HAL_DMA_DeInit:000000ac $d
C:\Users\mason\AppData\Local\Temp\cc9opaHX.s:323    .text.HAL_DMA_Start:00000000 $t
C:\Users\mason\AppData\Local\Temp\cc9opaHX.s:329    .text.HAL_DMA_Start:00000000 HAL_DMA_Start
C:\Users\mason\AppData\Local\Temp\cc9opaHX.s:2116   .text.DMA_SetConfig:00000000 DMA_SetConfig
C:\Users\mason\AppData\Local\Temp\cc9opaHX.s:429    .text.HAL_DMA_Start_IT:00000000 $t
C:\Users\mason\AppData\Local\Temp\cc9opaHX.s:435    .text.HAL_DMA_Start_IT:00000000 HAL_DMA_Start_IT
C:\Users\mason\AppData\Local\Temp\cc9opaHX.s:568    .text.HAL_DMA_Abort:00000000 $t
C:\Users\mason\AppData\Local\Temp\cc9opaHX.s:574    .text.HAL_DMA_Abort:00000000 HAL_DMA_Abort
C:\Users\mason\AppData\Local\Temp\cc9opaHX.s:669    .text.HAL_DMA_Abort_IT:00000000 $t
C:\Users\mason\AppData\Local\Temp\cc9opaHX.s:675    .text.HAL_DMA_Abort_IT:00000000 HAL_DMA_Abort_IT
C:\Users\mason\AppData\Local\Temp\cc9opaHX.s:830    .text.HAL_DMA_Abort_IT:000000d0 $d
C:\Users\mason\AppData\Local\Temp\cc9opaHX.s:841    .text.HAL_DMA_PollForTransfer:00000000 $t
C:\Users\mason\AppData\Local\Temp\cc9opaHX.s:847    .text.HAL_DMA_PollForTransfer:00000000 HAL_DMA_PollForTransfer
C:\Users\mason\AppData\Local\Temp\cc9opaHX.s:1271   .text.HAL_DMA_PollForTransfer:00000274 $d
C:\Users\mason\AppData\Local\Temp\cc9opaHX.s:1280   .text.HAL_DMA_PollForTransfer:00000290 $t
C:\Users\mason\AppData\Local\Temp\cc9opaHX.s:1366   .text.HAL_DMA_PollForTransfer:00000308 $d
C:\Users\mason\AppData\Local\Temp\cc9opaHX.s:1377   .text.HAL_DMA_IRQHandler:00000000 $t
C:\Users\mason\AppData\Local\Temp\cc9opaHX.s:1383   .text.HAL_DMA_IRQHandler:00000000 HAL_DMA_IRQHandler
C:\Users\mason\AppData\Local\Temp\cc9opaHX.s:1739   .text.HAL_DMA_IRQHandler:000001f0 $d
C:\Users\mason\AppData\Local\Temp\cc9opaHX.s:1750   .text.HAL_DMA_RegisterCallback:00000000 $t
C:\Users\mason\AppData\Local\Temp\cc9opaHX.s:1756   .text.HAL_DMA_RegisterCallback:00000000 HAL_DMA_RegisterCallback
C:\Users\mason\AppData\Local\Temp\cc9opaHX.s:1807   .text.HAL_DMA_RegisterCallback:00000040 $d
C:\Users\mason\AppData\Local\Temp\cc9opaHX.s:1811   .text.HAL_DMA_RegisterCallback:00000050 $t
C:\Users\mason\AppData\Local\Temp\cc9opaHX.s:1876   .text.HAL_DMA_UnRegisterCallback:00000000 $t
C:\Users\mason\AppData\Local\Temp\cc9opaHX.s:1882   .text.HAL_DMA_UnRegisterCallback:00000000 HAL_DMA_UnRegisterCallback
C:\Users\mason\AppData\Local\Temp\cc9opaHX.s:1932   .text.HAL_DMA_UnRegisterCallback:0000003c $d
C:\Users\mason\AppData\Local\Temp\cc9opaHX.s:1937   .text.HAL_DMA_UnRegisterCallback:00000050 $t
C:\Users\mason\AppData\Local\Temp\cc9opaHX.s:2021   .text.HAL_DMA_GetState:00000000 $t
C:\Users\mason\AppData\Local\Temp\cc9opaHX.s:2027   .text.HAL_DMA_GetState:00000000 HAL_DMA_GetState
C:\Users\mason\AppData\Local\Temp\cc9opaHX.s:2066   .text.HAL_DMA_GetError:00000000 $t
C:\Users\mason\AppData\Local\Temp\cc9opaHX.s:2072   .text.HAL_DMA_GetError:00000000 HAL_DMA_GetError
C:\Users\mason\AppData\Local\Temp\cc9opaHX.s:2111   .text.DMA_SetConfig:00000000 $t

UNDEFINED SYMBOLS
HAL_GetTick
