ARM GAS  C:\Users\57298\AppData\Local\Temp\ccMZ6eLO.s 			page 1


   1              		.cpu cortex-m3
   2              		.arch armv7-m
   3              		.fpu softvfp
   4              		.eabi_attribute 20, 1
   5              		.eabi_attribute 21, 1
   6              		.eabi_attribute 23, 3
   7              		.eabi_attribute 24, 1
   8              		.eabi_attribute 25, 1
   9              		.eabi_attribute 26, 1
  10              		.eabi_attribute 30, 6
  11              		.eabi_attribute 34, 1
  12              		.eabi_attribute 18, 4
  13              		.file	"u1rs232.c"
  14              		.text
  15              	.Ltext0:
  16              		.cfi_sections	.debug_frame
  17              		.global	u1buf
  18              		.section	.bss.u1buf,"aw",%nobits
  19              		.align	2
  22              	u1buf:
  23 0000 00000000 		.space	100
  23      00000000 
  23      00000000 
  23      00000000 
  23      00000000 
  24              		.section	.text.u1Conf,"ax",%progbits
  25              		.align	1
  26              		.global	u1Conf
  27              		.syntax unified
  28              		.thumb
  29              		.thumb_func
  31              	u1Conf:
  32              	.LFB68:
  33              		.file 1 "Src/u1rs232.c"
   1:Src/u1rs232.c **** #include"ec20.h"
   2:Src/u1rs232.c **** //对外RS232串口 PA9 PA10
   3:Src/u1rs232.c **** unsigned char u1buf[100];
   4:Src/u1rs232.c **** void u1Conf(void)
   5:Src/u1rs232.c **** {
  34              		.loc 1 5 1
  35              		.cfi_startproc
  36              		@ args = 0, pretend = 0, frame = 0
  37              		@ frame_needed = 1, uses_anonymous_args = 0
  38 0000 80B5     		push	{r7, lr}
  39              	.LCFI0:
  40              		.cfi_def_cfa_offset 8
  41              		.cfi_offset 7, -8
  42              		.cfi_offset 14, -4
  43 0002 00AF     		add	r7, sp, #0
  44              	.LCFI1:
  45              		.cfi_def_cfa_register 7
   6:Src/u1rs232.c ****   HAL_UART_Receive_DMA(&huart1, u1buf, 100);  
  46              		.loc 1 6 3
  47 0004 6422     		movs	r2, #100
  48 0006 0749     		ldr	r1, .L2
  49 0008 0748     		ldr	r0, .L2+4
  50 000a FFF7FEFF 		bl	HAL_UART_Receive_DMA
ARM GAS  C:\Users\57298\AppData\Local\Temp\ccMZ6eLO.s 			page 2


   7:Src/u1rs232.c ****   __HAL_UART_ENABLE_IT(&huart1, UART_IT_IDLE); 
  51              		.loc 1 7 3
  52 000e 064B     		ldr	r3, .L2+4
  53 0010 1B68     		ldr	r3, [r3]
  54 0012 DA68     		ldr	r2, [r3, #12]
  55 0014 044B     		ldr	r3, .L2+4
  56 0016 1B68     		ldr	r3, [r3]
  57 0018 42F01002 		orr	r2, r2, #16
  58 001c DA60     		str	r2, [r3, #12]
   8:Src/u1rs232.c **** }
  59              		.loc 1 8 1
  60 001e 00BF     		nop
  61 0020 80BD     		pop	{r7, pc}
  62              	.L3:
  63 0022 00BF     		.align	2
  64              	.L2:
  65 0024 00000000 		.word	u1buf
  66 0028 00000000 		.word	huart1
  67              		.cfi_endproc
  68              	.LFE68:
  70              		.section	.text.u1rxitProcess,"ax",%progbits
  71              		.align	1
  72              		.global	u1rxitProcess
  73              		.syntax unified
  74              		.thumb
  75              		.thumb_func
  77              	u1rxitProcess:
  78              	.LFB69:
   9:Src/u1rs232.c **** void u1rxitProcess(void)
  10:Src/u1rs232.c **** {
  79              		.loc 1 10 1
  80              		.cfi_startproc
  81              		@ args = 0, pretend = 0, frame = 8
  82              		@ frame_needed = 1, uses_anonymous_args = 0
  83 0000 80B5     		push	{r7, lr}
  84              	.LCFI2:
  85              		.cfi_def_cfa_offset 8
  86              		.cfi_offset 7, -8
  87              		.cfi_offset 14, -4
  88 0002 82B0     		sub	sp, sp, #8
  89              	.LCFI3:
  90              		.cfi_def_cfa_offset 16
  91 0004 00AF     		add	r7, sp, #0
  92              	.LCFI4:
  93              		.cfi_def_cfa_register 7
  11:Src/u1rs232.c ****   if((__HAL_UART_GET_FLAG(&huart1,UART_FLAG_IDLE)!=RESET))//空闲中断
  94              		.loc 1 11 7
  95 0006 0F4B     		ldr	r3, .L7
  96 0008 1B68     		ldr	r3, [r3]
  97 000a 1B68     		ldr	r3, [r3]
  98 000c 03F01003 		and	r3, r3, #16
  99              		.loc 1 11 5
 100 0010 102B     		cmp	r3, #16
 101 0012 12D1     		bne	.L6
 102              	.LBB2:
  12:Src/u1rs232.c ****   {
  13:Src/u1rs232.c ****     __HAL_UART_CLEAR_IDLEFLAG(&huart1);
ARM GAS  C:\Users\57298\AppData\Local\Temp\ccMZ6eLO.s 			page 3


 103              		.loc 1 13 5
 104 0014 0023     		movs	r3, #0
 105 0016 7B60     		str	r3, [r7, #4]
 106 0018 0A4B     		ldr	r3, .L7
 107 001a 1B68     		ldr	r3, [r3]
 108 001c 1B68     		ldr	r3, [r3]
 109 001e 7B60     		str	r3, [r7, #4]
 110 0020 084B     		ldr	r3, .L7
 111 0022 1B68     		ldr	r3, [r3]
 112 0024 5B68     		ldr	r3, [r3, #4]
 113 0026 7B60     		str	r3, [r7, #4]
 114 0028 7B68     		ldr	r3, [r7, #4]
 115              	.LBE2:
  14:Src/u1rs232.c ****     HAL_UART_DMAStop(&huart1);
 116              		.loc 1 14 5
 117 002a 0648     		ldr	r0, .L7
 118 002c FFF7FEFF 		bl	HAL_UART_DMAStop
  15:Src/u1rs232.c ****     HAL_UART_Receive_DMA(&huart1, u1buf, 100); //再次开启DMA接收
 119              		.loc 1 15 5
 120 0030 6422     		movs	r2, #100
 121 0032 0549     		ldr	r1, .L7+4
 122 0034 0348     		ldr	r0, .L7
 123 0036 FFF7FEFF 		bl	HAL_UART_Receive_DMA
 124              	.L6:
  16:Src/u1rs232.c ****   }
  17:Src/u1rs232.c ****   
  18:Src/u1rs232.c **** }
 125              		.loc 1 18 1
 126 003a 00BF     		nop
 127 003c 0837     		adds	r7, r7, #8
 128              	.LCFI5:
 129              		.cfi_def_cfa_offset 8
 130 003e BD46     		mov	sp, r7
 131              	.LCFI6:
 132              		.cfi_def_cfa_register 13
 133              		@ sp needed
 134 0040 80BD     		pop	{r7, pc}
 135              	.L8:
 136 0042 00BF     		.align	2
 137              	.L7:
 138 0044 00000000 		.word	huart1
 139 0048 00000000 		.word	u1buf
 140              		.cfi_endproc
 141              	.LFE69:
 143              		.section	.text.SendTxDebug,"ax",%progbits
 144              		.align	1
 145              		.global	SendTxDebug
 146              		.syntax unified
 147              		.thumb
 148              		.thumb_func
 150              	SendTxDebug:
 151              	.LFB70:
  19:Src/u1rs232.c **** 
  20:Src/u1rs232.c **** 
  21:Src/u1rs232.c **** //发送调试信息给电脑
  22:Src/u1rs232.c **** void SendTxDebug(unsigned char *p)
  23:Src/u1rs232.c **** {
ARM GAS  C:\Users\57298\AppData\Local\Temp\ccMZ6eLO.s 			page 4


 152              		.loc 1 23 1
 153              		.cfi_startproc
 154              		@ args = 0, pretend = 0, frame = 16
 155              		@ frame_needed = 1, uses_anonymous_args = 0
 156 0000 80B5     		push	{r7, lr}
 157              	.LCFI7:
 158              		.cfi_def_cfa_offset 8
 159              		.cfi_offset 7, -8
 160              		.cfi_offset 14, -4
 161 0002 84B0     		sub	sp, sp, #16
 162              	.LCFI8:
 163              		.cfi_def_cfa_offset 24
 164 0004 00AF     		add	r7, sp, #0
 165              	.LCFI9:
 166              		.cfi_def_cfa_register 7
 167 0006 7860     		str	r0, [r7, #4]
  24:Src/u1rs232.c ****   unsigned short len=strlen((char const *)p);
 168              		.loc 1 24 22
 169 0008 7868     		ldr	r0, [r7, #4]
 170 000a FFF7FEFF 		bl	strlen
 171 000e 0346     		mov	r3, r0
 172              		.loc 1 24 18
 173 0010 FB81     		strh	r3, [r7, #14]	@ movhi
  25:Src/u1rs232.c ****   HAL_UART_Transmit(&huart1,p,len,100);
 174              		.loc 1 25 3
 175 0012 FA89     		ldrh	r2, [r7, #14]
 176 0014 6423     		movs	r3, #100
 177 0016 7968     		ldr	r1, [r7, #4]
 178 0018 0348     		ldr	r0, .L10
 179 001a FFF7FEFF 		bl	HAL_UART_Transmit
  26:Src/u1rs232.c **** }...
 180              		.loc 1 26 1
 181 001e 00BF     		nop
 182 0020 1037     		adds	r7, r7, #16
 183              	.LCFI10:
 184              		.cfi_def_cfa_offset 8
 185 0022 BD46     		mov	sp, r7
 186              	.LCFI11:
 187              		.cfi_def_cfa_register 13
 188              		@ sp needed
 189 0024 80BD     		pop	{r7, pc}
 190              	.L11:
 191 0026 00BF     		.align	2
 192              	.L10:
 193 0028 00000000 		.word	huart1
 194              		.cfi_endproc
 195              	.LFE70:
 197              		.text
 198              	.Letext0:
 199              		.file 2 "c:\\program files\\gcc-arm-none-eabi-10.3-2021.10\\arm-none-eabi\\include\\machine\\_defa
 200              		.file 3 "c:\\program files\\gcc-arm-none-eabi-10.3-2021.10\\arm-none-eabi\\include\\sys\\_stdint.h
 201              		.file 4 "Drivers/CMSIS/Device/ST/STM32F1xx/Include/stm32f103xb.h"
 202              		.file 5 "Drivers/CMSIS/Device/ST/STM32F1xx/Include/stm32f1xx.h"
 203              		.file 6 "Drivers/STM32F1xx_HAL_Driver/Inc/stm32f1xx_hal_def.h"
 204              		.file 7 "Drivers/STM32F1xx_HAL_Driver/Inc/stm32f1xx_hal_dma.h"
 205              		.file 8 "Drivers/STM32F1xx_HAL_Driver/Inc/stm32f1xx_hal_uart.h"
 206              		.file 9 "Inc/ec20.h"
ARM GAS  C:\Users\57298\AppData\Local\Temp\ccMZ6eLO.s 			page 5


ARM GAS  C:\Users\57298\AppData\Local\Temp\ccMZ6eLO.s 			page 6


DEFINED SYMBOLS
                            *ABS*:00000000 u1rs232.c
C:\Users\57298\AppData\Local\Temp\ccMZ6eLO.s:22     .bss.u1buf:00000000 u1buf
C:\Users\57298\AppData\Local\Temp\ccMZ6eLO.s:19     .bss.u1buf:00000000 $d
C:\Users\57298\AppData\Local\Temp\ccMZ6eLO.s:25     .text.u1Conf:00000000 $t
C:\Users\57298\AppData\Local\Temp\ccMZ6eLO.s:31     .text.u1Conf:00000000 u1Conf
C:\Users\57298\AppData\Local\Temp\ccMZ6eLO.s:65     .text.u1Conf:00000024 $d
C:\Users\57298\AppData\Local\Temp\ccMZ6eLO.s:71     .text.u1rxitProcess:00000000 $t
C:\Users\57298\AppData\Local\Temp\ccMZ6eLO.s:77     .text.u1rxitProcess:00000000 u1rxitProcess
C:\Users\57298\AppData\Local\Temp\ccMZ6eLO.s:138    .text.u1rxitProcess:00000044 $d
C:\Users\57298\AppData\Local\Temp\ccMZ6eLO.s:144    .text.SendTxDebug:00000000 $t
C:\Users\57298\AppData\Local\Temp\ccMZ6eLO.s:150    .text.SendTxDebug:00000000 SendTxDebug
C:\Users\57298\AppData\Local\Temp\ccMZ6eLO.s:193    .text.SendTxDebug:00000028 $d

UNDEFINED SYMBOLS
HAL_UART_Receive_DMA
huart1
HAL_UART_DMAStop
strlen
HAL_UART_Transmit
