ARM GAS  /tmp/cc7B5F7w.s 			page 1


   1              		.cpu cortex-m3
   2              		.eabi_attribute 20, 1
   3              		.eabi_attribute 21, 1
   4              		.eabi_attribute 23, 3
   5              		.eabi_attribute 24, 1
   6              		.eabi_attribute 25, 1
   7              		.eabi_attribute 26, 1
   8              		.eabi_attribute 30, 6
   9              		.eabi_attribute 34, 1
  10              		.eabi_attribute 18, 4
  11              		.file	"u1rs232.c"
  12              		.text
  13              	.Ltext0:
  14              		.cfi_sections	.debug_frame
  15              		.comm	u1buf,100,4
  16              		.section	.text.u1Conf,"ax",%progbits
  17              		.align	1
  18              		.global	u1Conf
  19              		.syntax unified
  20              		.thumb
  21              		.thumb_func
  22              		.fpu softvfp
  24              	u1Conf:
  25              	.LFB66:
  26              		.file 1 "Src/u1rs232.c"
   1:Src/u1rs232.c **** #include"ec20.h"
   2:Src/u1rs232.c **** //对外RS232串口 PA9 PA10
   3:Src/u1rs232.c **** unsigned char u1buf[100];
   4:Src/u1rs232.c **** void u1Conf(void)
   5:Src/u1rs232.c **** {
  27              		.loc 1 5 0
  28              		.cfi_startproc
  29              		@ args = 0, pretend = 0, frame = 0
  30              		@ frame_needed = 1, uses_anonymous_args = 0
  31 0000 80B5     		push	{r7, lr}
  32              	.LCFI0:
  33              		.cfi_def_cfa_offset 8
  34              		.cfi_offset 7, -8
  35              		.cfi_offset 14, -4
  36 0002 00AF     		add	r7, sp, #0
  37              	.LCFI1:
  38              		.cfi_def_cfa_register 7
   6:Src/u1rs232.c ****   HAL_UART_Receive_DMA(&huart1, u1buf, 100);  
  39              		.loc 1 6 0
  40 0004 6422     		movs	r2, #100
  41 0006 0749     		ldr	r1, .L2
  42 0008 0748     		ldr	r0, .L2+4
  43 000a FFF7FEFF 		bl	HAL_UART_Receive_DMA
   7:Src/u1rs232.c ****   __HAL_UART_ENABLE_IT(&huart1, UART_IT_IDLE); 
  44              		.loc 1 7 0
  45 000e 064B     		ldr	r3, .L2+4
  46 0010 1B68     		ldr	r3, [r3]
  47 0012 054A     		ldr	r2, .L2+4
  48 0014 1268     		ldr	r2, [r2]
  49 0016 D268     		ldr	r2, [r2, #12]
  50 0018 42F01002 		orr	r2, r2, #16
  51 001c DA60     		str	r2, [r3, #12]
ARM GAS  /tmp/cc7B5F7w.s 			page 2


   8:Src/u1rs232.c **** }
  52              		.loc 1 8 0
  53 001e 00BF     		nop
  54 0020 80BD     		pop	{r7, pc}
  55              	.L3:
  56 0022 00BF     		.align	2
  57              	.L2:
  58 0024 00000000 		.word	u1buf
  59 0028 00000000 		.word	huart1
  60              		.cfi_endproc
  61              	.LFE66:
  63              		.section	.text.u1rxitProcess,"ax",%progbits
  64              		.align	1
  65              		.global	u1rxitProcess
  66              		.syntax unified
  67              		.thumb
  68              		.thumb_func
  69              		.fpu softvfp
  71              	u1rxitProcess:
  72              	.LFB67:
   9:Src/u1rs232.c **** void u1rxitProcess(void)
  10:Src/u1rs232.c **** {
  73              		.loc 1 10 0
  74              		.cfi_startproc
  75              		@ args = 0, pretend = 0, frame = 8
  76              		@ frame_needed = 1, uses_anonymous_args = 0
  77 0000 80B5     		push	{r7, lr}
  78              	.LCFI2:
  79              		.cfi_def_cfa_offset 8
  80              		.cfi_offset 7, -8
  81              		.cfi_offset 14, -4
  82 0002 82B0     		sub	sp, sp, #8
  83              	.LCFI3:
  84              		.cfi_def_cfa_offset 16
  85 0004 00AF     		add	r7, sp, #0
  86              	.LCFI4:
  87              		.cfi_def_cfa_register 7
  11:Src/u1rs232.c ****   if((__HAL_UART_GET_FLAG(&huart1,UART_FLAG_IDLE)!=RESET))//空闲中断
  88              		.loc 1 11 0
  89 0006 0F4B     		ldr	r3, .L7
  90 0008 1B68     		ldr	r3, [r3]
  91 000a 1B68     		ldr	r3, [r3]
  92 000c 03F01003 		and	r3, r3, #16
  93 0010 102B     		cmp	r3, #16
  94 0012 12D1     		bne	.L6
  95              	.LBB2:
  12:Src/u1rs232.c ****   {
  13:Src/u1rs232.c ****     __HAL_UART_CLEAR_IDLEFLAG(&huart1);
  96              		.loc 1 13 0
  97 0014 0023     		movs	r3, #0
  98 0016 7B60     		str	r3, [r7, #4]
  99 0018 0A4B     		ldr	r3, .L7
 100 001a 1B68     		ldr	r3, [r3]
 101 001c 1B68     		ldr	r3, [r3]
 102 001e 7B60     		str	r3, [r7, #4]
 103 0020 084B     		ldr	r3, .L7
 104 0022 1B68     		ldr	r3, [r3]
ARM GAS  /tmp/cc7B5F7w.s 			page 3


 105 0024 5B68     		ldr	r3, [r3, #4]
 106 0026 7B60     		str	r3, [r7, #4]
 107 0028 7B68     		ldr	r3, [r7, #4]
 108              	.LBE2:
  14:Src/u1rs232.c ****     HAL_UART_DMAStop(&huart1);
 109              		.loc 1 14 0
 110 002a 0648     		ldr	r0, .L7
 111 002c FFF7FEFF 		bl	HAL_UART_DMAStop
  15:Src/u1rs232.c ****     HAL_UART_Receive_DMA(&huart1, u1buf, 100); //再次开启DMA接收
 112              		.loc 1 15 0
 113 0030 6422     		movs	r2, #100
 114 0032 0549     		ldr	r1, .L7+4
 115 0034 0348     		ldr	r0, .L7
 116 0036 FFF7FEFF 		bl	HAL_UART_Receive_DMA
 117              	.L6:
  16:Src/u1rs232.c ****   }
  17:Src/u1rs232.c ****   
  18:Src/u1rs232.c **** }
 118              		.loc 1 18 0
 119 003a 00BF     		nop
 120 003c 0837     		adds	r7, r7, #8
 121              	.LCFI5:
 122              		.cfi_def_cfa_offset 8
 123 003e BD46     		mov	sp, r7
 124              	.LCFI6:
 125              		.cfi_def_cfa_register 13
 126              		@ sp needed
 127 0040 80BD     		pop	{r7, pc}
 128              	.L8:
 129 0042 00BF     		.align	2
 130              	.L7:
 131 0044 00000000 		.word	huart1
 132 0048 00000000 		.word	u1buf
 133              		.cfi_endproc
 134              	.LFE67:
 136              		.section	.text.SendTxDebug,"ax",%progbits
 137              		.align	1
 138              		.global	SendTxDebug
 139              		.syntax unified
 140              		.thumb
 141              		.thumb_func
 142              		.fpu softvfp
 144              	SendTxDebug:
 145              	.LFB68:
  19:Src/u1rs232.c **** 
  20:Src/u1rs232.c **** 
  21:Src/u1rs232.c **** //发送调试信息给电脑
  22:Src/u1rs232.c **** void SendTxDebug(unsigned char *p)
  23:Src/u1rs232.c **** {
 146              		.loc 1 23 0
 147              		.cfi_startproc
 148              		@ args = 0, pretend = 0, frame = 16
 149              		@ frame_needed = 1, uses_anonymous_args = 0
 150 0000 80B5     		push	{r7, lr}
 151              	.LCFI7:
 152              		.cfi_def_cfa_offset 8
 153              		.cfi_offset 7, -8
ARM GAS  /tmp/cc7B5F7w.s 			page 4


 154              		.cfi_offset 14, -4
 155 0002 84B0     		sub	sp, sp, #16
 156              	.LCFI8:
 157              		.cfi_def_cfa_offset 24
 158 0004 00AF     		add	r7, sp, #0
 159              	.LCFI9:
 160              		.cfi_def_cfa_register 7
 161 0006 7860     		str	r0, [r7, #4]
  24:Src/u1rs232.c ****   unsigned short len=strlen((char const *)p);
 162              		.loc 1 24 0
 163 0008 7868     		ldr	r0, [r7, #4]
 164 000a FFF7FEFF 		bl	strlen
 165 000e 0346     		mov	r3, r0
 166 0010 FB81     		strh	r3, [r7, #14]	@ movhi
  25:Src/u1rs232.c ****   HAL_UART_Transmit(&huart1,p,len,100);
 167              		.loc 1 25 0
 168 0012 FA89     		ldrh	r2, [r7, #14]
 169 0014 6423     		movs	r3, #100
 170 0016 7968     		ldr	r1, [r7, #4]
 171 0018 0348     		ldr	r0, .L10
 172 001a FFF7FEFF 		bl	HAL_UART_Transmit
  26:Src/u1rs232.c **** }...
 173              		.loc 1 26 0
 174 001e 00BF     		nop
 175 0020 1037     		adds	r7, r7, #16
 176              	.LCFI10:
 177              		.cfi_def_cfa_offset 8
 178 0022 BD46     		mov	sp, r7
 179              	.LCFI11:
 180              		.cfi_def_cfa_register 13
 181              		@ sp needed
 182 0024 80BD     		pop	{r7, pc}
 183              	.L11:
 184 0026 00BF     		.align	2
 185              	.L10:
 186 0028 00000000 		.word	huart1
 187              		.cfi_endproc
 188              	.LFE68:
 190              		.text
 191              	.Letext0:
 192              		.file 2 "/usr/include/newlib/machine/_default_types.h"
 193              		.file 3 "/usr/include/newlib/sys/_stdint.h"
 194              		.file 4 "Drivers/CMSIS/Include/core_cm3.h"
 195              		.file 5 "Drivers/CMSIS/Device/ST/STM32F1xx/Include/system_stm32f1xx.h"
 196              		.file 6 "Drivers/CMSIS/Device/ST/STM32F1xx/Include/stm32f103xb.h"
 197              		.file 7 "Drivers/CMSIS/Device/ST/STM32F1xx/Include/stm32f1xx.h"
 198              		.file 8 "Drivers/STM32F1xx_HAL_Driver/Inc/stm32f1xx_hal_def.h"
 199              		.file 9 "Drivers/STM32F1xx_HAL_Driver/Inc/stm32f1xx_hal_dma.h"
 200              		.file 10 "Drivers/STM32F1xx_HAL_Driver/Inc/stm32f1xx_hal_uart.h"
 201              		.file 11 "Drivers/STM32F1xx_HAL_Driver/Inc/stm32f1xx_hal.h"
 202              		.file 12 "/usr/include/newlib/sys/lock.h"
 203              		.file 13 "/usr/include/newlib/sys/_types.h"
 204              		.file 14 "/usr/lib/gcc/arm-none-eabi/6.3.1/include/stddef.h"
 205              		.file 15 "/usr/include/newlib/sys/reent.h"
 206              		.file 16 "Inc/ec20.h"
ARM GAS  /tmp/cc7B5F7w.s 			page 5

